ARM GAS  C:\Users\markm\AppData\Local\Temp\ccA1bc6D.s 			page 1


   1              		.syntax unified
   2              		.cpu cortex-m4
   3              		.eabi_attribute 27, 1
   4              		.fpu fpv4-sp-d16
   5              		.eabi_attribute 20, 1
   6              		.eabi_attribute 21, 1
   7              		.eabi_attribute 23, 3
   8              		.eabi_attribute 24, 1
   9              		.eabi_attribute 25, 1
  10              		.eabi_attribute 26, 1
  11              		.eabi_attribute 30, 1
  12              		.eabi_attribute 34, 1
  13              		.eabi_attribute 18, 4
  14              		.thumb
  15              		.syntax unified
  16              		.file	"Max30102_task.c"
  17              		.text
  18              	.Ltext0:
  19              		.cfi_sections	.debug_frame
  20              		.section	.text.read_Register,"ax",%progbits
  21              		.align	2
  22              		.global	read_Register
  23              		.thumb
  24              		.thumb_func
  25              		.type	read_Register, %function
  26              	read_Register:
  27              	.LFB693:
  28              		.file 1 "Max30102_task.c"
   1:Max30102_task.c **** #include "Max30102_task.h"
   2:Max30102_task.c **** 
   3:Max30102_task.c **** //buffer circulaire variable init pour le ISR function
   4:Max30102_task.c ****     //int size_traitement = 300; //for later
   5:Max30102_task.c ****     uint32_t bufferRED[1500];
   6:Max30102_task.c ****     uint32_t bufferIR[1500];
   7:Max30102_task.c ****     uint16_t indexWrite = 0;
   8:Max30102_task.c ****     uint16_t idxB = 0;
   9:Max30102_task.c ****     bool flag = false;
  10:Max30102_task.c ****     static int size_traitement = 750;
  11:Max30102_task.c ****     volatile int32_t vectorRed[750];
  12:Max30102_task.c ****     volatile int32_t vectorInfra[750];
  13:Max30102_task.c **** 
  14:Max30102_task.c **** // uint8_t car sa return 1 byte de data
  15:Max30102_task.c **** uint8_t read_Register(uint8_t address)      //address du register qui va read
  16:Max30102_task.c **** {
  29              		.loc 1 16 0
  30              		.cfi_startproc
  31              		@ args = 0, pretend = 0, frame = 8
  32              		@ frame_needed = 0, uses_anonymous_args = 0
  33              	.LVL0:
  34 0000 70B5     		push	{r4, r5, r6, lr}
  35              		.cfi_def_cfa_offset 16
  36              		.cfi_offset 4, -16
  37              		.cfi_offset 5, -12
  38              		.cfi_offset 6, -8
  39              		.cfi_offset 14, -4
  40 0002 84B0     		sub	sp, sp, #16
  41              		.cfi_def_cfa_offset 32
ARM GAS  C:\Users\markm\AppData\Local\Temp\ccA1bc6D.s 			page 2


  42 0004 0646     		mov	r6, r0
  43              	.LVL1:
  44              	.LBB41:
  45              	.LBB42:
  46              		.file 2 "Generated_Source\\PSoC6/I2C_MAX.h"
   1:Generated_Source\PSoC6/I2C_MAX.h **** /***************************************************************************//**
   2:Generated_Source\PSoC6/I2C_MAX.h **** * \file I2C_MAX.c
   3:Generated_Source\PSoC6/I2C_MAX.h **** * \version 2.0
   4:Generated_Source\PSoC6/I2C_MAX.h **** *
   5:Generated_Source\PSoC6/I2C_MAX.h **** *  This file provides constants and parameter values for the I2C component.
   6:Generated_Source\PSoC6/I2C_MAX.h **** *
   7:Generated_Source\PSoC6/I2C_MAX.h **** ********************************************************************************
   8:Generated_Source\PSoC6/I2C_MAX.h **** * \copyright
   9:Generated_Source\PSoC6/I2C_MAX.h **** * Copyright 2016-2017, Cypress Semiconductor Corporation. All rights reserved.
  10:Generated_Source\PSoC6/I2C_MAX.h **** * You may use this file only in accordance with the license, terms, conditions,
  11:Generated_Source\PSoC6/I2C_MAX.h **** * disclaimers, and limitations in the end user license agreement accompanying
  12:Generated_Source\PSoC6/I2C_MAX.h **** * the software package with which this file was provided.
  13:Generated_Source\PSoC6/I2C_MAX.h **** *******************************************************************************/
  14:Generated_Source\PSoC6/I2C_MAX.h **** 
  15:Generated_Source\PSoC6/I2C_MAX.h **** #if !defined(I2C_MAX_CY_SCB_I2C_PDL_H)
  16:Generated_Source\PSoC6/I2C_MAX.h **** #define I2C_MAX_CY_SCB_I2C_PDL_H
  17:Generated_Source\PSoC6/I2C_MAX.h **** 
  18:Generated_Source\PSoC6/I2C_MAX.h **** #include "cyfitter.h"
  19:Generated_Source\PSoC6/I2C_MAX.h **** #include "scb/cy_scb_i2c.h"
  20:Generated_Source\PSoC6/I2C_MAX.h **** 
  21:Generated_Source\PSoC6/I2C_MAX.h **** #if defined(__cplusplus)
  22:Generated_Source\PSoC6/I2C_MAX.h **** extern "C" {
  23:Generated_Source\PSoC6/I2C_MAX.h **** #endif
  24:Generated_Source\PSoC6/I2C_MAX.h **** 
  25:Generated_Source\PSoC6/I2C_MAX.h **** /***************************************
  26:Generated_Source\PSoC6/I2C_MAX.h **** *   Initial Parameter Constants
  27:Generated_Source\PSoC6/I2C_MAX.h **** ****************************************/
  28:Generated_Source\PSoC6/I2C_MAX.h **** 
  29:Generated_Source\PSoC6/I2C_MAX.h **** #define I2C_MAX_MODE               (0x2U)
  30:Generated_Source\PSoC6/I2C_MAX.h **** #define I2C_MAX_MODE_SLAVE_MASK    (0x1U)
  31:Generated_Source\PSoC6/I2C_MAX.h **** #define I2C_MAX_MODE_MASTER_MASK   (0x2U)
  32:Generated_Source\PSoC6/I2C_MAX.h **** 
  33:Generated_Source\PSoC6/I2C_MAX.h **** #define I2C_MAX_ENABLE_SLAVE       (0UL != (I2C_MAX_MODE & I2C_MAX_MODE_SLAVE_MASK))
  34:Generated_Source\PSoC6/I2C_MAX.h **** #define I2C_MAX_ENABLE_MASTER      (0UL != (I2C_MAX_MODE & I2C_MAX_MODE_MASTER_MASK))
  35:Generated_Source\PSoC6/I2C_MAX.h **** #define I2C_MAX_MANUAL_SCL_CONTROL (0U)
  36:Generated_Source\PSoC6/I2C_MAX.h **** 
  37:Generated_Source\PSoC6/I2C_MAX.h **** 
  38:Generated_Source\PSoC6/I2C_MAX.h **** /***************************************
  39:Generated_Source\PSoC6/I2C_MAX.h **** *        Function Prototypes
  40:Generated_Source\PSoC6/I2C_MAX.h **** ***************************************/
  41:Generated_Source\PSoC6/I2C_MAX.h **** /**
  42:Generated_Source\PSoC6/I2C_MAX.h **** * \addtogroup group_general
  43:Generated_Source\PSoC6/I2C_MAX.h **** * @{
  44:Generated_Source\PSoC6/I2C_MAX.h **** */
  45:Generated_Source\PSoC6/I2C_MAX.h **** /* Component only APIs. */
  46:Generated_Source\PSoC6/I2C_MAX.h **** void I2C_MAX_Start(void);
  47:Generated_Source\PSoC6/I2C_MAX.h **** 
  48:Generated_Source\PSoC6/I2C_MAX.h **** /* Basic functions. */
  49:Generated_Source\PSoC6/I2C_MAX.h **** __STATIC_INLINE cy_en_scb_i2c_status_t I2C_MAX_Init(cy_stc_scb_i2c_config_t const *config);
  50:Generated_Source\PSoC6/I2C_MAX.h **** __STATIC_INLINE void I2C_MAX_DeInit (void);
  51:Generated_Source\PSoC6/I2C_MAX.h **** __STATIC_INLINE void I2C_MAX_Enable (void);
  52:Generated_Source\PSoC6/I2C_MAX.h **** __STATIC_INLINE void I2C_MAX_Disable(void);
ARM GAS  C:\Users\markm\AppData\Local\Temp\ccA1bc6D.s 			page 3


  53:Generated_Source\PSoC6/I2C_MAX.h **** 
  54:Generated_Source\PSoC6/I2C_MAX.h **** /* Data rate configuration functions. */
  55:Generated_Source\PSoC6/I2C_MAX.h **** __STATIC_INLINE uint32_t I2C_MAX_SetDataRate(uint32_t dataRateHz, uint32_t scbClockHz);
  56:Generated_Source\PSoC6/I2C_MAX.h **** __STATIC_INLINE uint32_t I2C_MAX_GetDataRate(uint32_t scbClockHz);
  57:Generated_Source\PSoC6/I2C_MAX.h **** 
  58:Generated_Source\PSoC6/I2C_MAX.h **** /* Register callbacks. */
  59:Generated_Source\PSoC6/I2C_MAX.h **** __STATIC_INLINE void I2C_MAX_RegisterEventCallback(cy_cb_scb_i2c_handle_events_t callback);
  60:Generated_Source\PSoC6/I2C_MAX.h **** #if (I2C_MAX_ENABLE_SLAVE)
  61:Generated_Source\PSoC6/I2C_MAX.h **** __STATIC_INLINE void I2C_MAX_RegisterAddrCallback (cy_cb_scb_i2c_handle_addr_t callback);
  62:Generated_Source\PSoC6/I2C_MAX.h **** #endif /* (I2C_MAX_ENABLE_SLAVE) */
  63:Generated_Source\PSoC6/I2C_MAX.h **** 
  64:Generated_Source\PSoC6/I2C_MAX.h **** /* Configuration functions. */
  65:Generated_Source\PSoC6/I2C_MAX.h **** #if (I2C_MAX_ENABLE_SLAVE)
  66:Generated_Source\PSoC6/I2C_MAX.h **** __STATIC_INLINE void     I2C_MAX_SlaveSetAddress(uint8_t addr);
  67:Generated_Source\PSoC6/I2C_MAX.h **** __STATIC_INLINE uint32_t I2C_MAX_SlaveGetAddress(void);
  68:Generated_Source\PSoC6/I2C_MAX.h **** __STATIC_INLINE void     I2C_MAX_SlaveSetAddressMask(uint8_t addrMask);
  69:Generated_Source\PSoC6/I2C_MAX.h **** __STATIC_INLINE uint32_t I2C_MAX_SlaveGetAddressMask(void);
  70:Generated_Source\PSoC6/I2C_MAX.h **** #endif /* (I2C_MAX_ENABLE_SLAVE) */
  71:Generated_Source\PSoC6/I2C_MAX.h **** 
  72:Generated_Source\PSoC6/I2C_MAX.h **** #if (I2C_MAX_ENABLE_MASTER)
  73:Generated_Source\PSoC6/I2C_MAX.h **** __STATIC_INLINE void I2C_MAX_MasterSetLowPhaseDutyCycle (uint32_t clockCycles);
  74:Generated_Source\PSoC6/I2C_MAX.h **** __STATIC_INLINE void I2C_MAX_MasterSetHighPhaseDutyCycle(uint32_t clockCycles);
  75:Generated_Source\PSoC6/I2C_MAX.h **** #endif /* (I2C_MAX_ENABLE_MASTER) */
  76:Generated_Source\PSoC6/I2C_MAX.h **** 
  77:Generated_Source\PSoC6/I2C_MAX.h **** /* Bus status. */
  78:Generated_Source\PSoC6/I2C_MAX.h **** __STATIC_INLINE bool     I2C_MAX_IsBusBusy(void);
  79:Generated_Source\PSoC6/I2C_MAX.h **** 
  80:Generated_Source\PSoC6/I2C_MAX.h **** /* Slave functions. */
  81:Generated_Source\PSoC6/I2C_MAX.h **** #if (I2C_MAX_ENABLE_SLAVE)
  82:Generated_Source\PSoC6/I2C_MAX.h **** __STATIC_INLINE uint32_t I2C_MAX_SlaveGetStatus(void);
  83:Generated_Source\PSoC6/I2C_MAX.h **** 
  84:Generated_Source\PSoC6/I2C_MAX.h **** __STATIC_INLINE void     I2C_MAX_SlaveConfigReadBuf(uint8_t *buffer, uint32_t size);
  85:Generated_Source\PSoC6/I2C_MAX.h **** __STATIC_INLINE void     I2C_MAX_SlaveAbortRead(void);
  86:Generated_Source\PSoC6/I2C_MAX.h **** __STATIC_INLINE uint32_t I2C_MAX_SlaveGetReadTransferCount(void);
  87:Generated_Source\PSoC6/I2C_MAX.h **** __STATIC_INLINE uint32_t I2C_MAX_SlaveClearReadStatus(void);
  88:Generated_Source\PSoC6/I2C_MAX.h **** 
  89:Generated_Source\PSoC6/I2C_MAX.h **** __STATIC_INLINE void     I2C_MAX_SlaveConfigWriteBuf(uint8_t *buffer, uint32_t size);
  90:Generated_Source\PSoC6/I2C_MAX.h **** __STATIC_INLINE void     I2C_MAX_SlaveAbortWrite(void);
  91:Generated_Source\PSoC6/I2C_MAX.h **** __STATIC_INLINE uint32_t I2C_MAX_SlaveGetWriteTransferCount(void);
  92:Generated_Source\PSoC6/I2C_MAX.h **** __STATIC_INLINE uint32_t I2C_MAX_SlaveClearWriteStatus(void);
  93:Generated_Source\PSoC6/I2C_MAX.h **** #endif /* (I2C_MAX_ENABLE_SLAVE) */
  94:Generated_Source\PSoC6/I2C_MAX.h **** 
  95:Generated_Source\PSoC6/I2C_MAX.h **** /* Master interrupt processing functions. */
  96:Generated_Source\PSoC6/I2C_MAX.h **** #if (I2C_MAX_ENABLE_MASTER)
  97:Generated_Source\PSoC6/I2C_MAX.h **** __STATIC_INLINE uint32_t I2C_MAX_MasterGetStatus(void);
  98:Generated_Source\PSoC6/I2C_MAX.h **** 
  99:Generated_Source\PSoC6/I2C_MAX.h **** __STATIC_INLINE cy_en_scb_i2c_status_t I2C_MAX_MasterRead(cy_stc_scb_i2c_master_xfer_config_t *xfer
 100:Generated_Source\PSoC6/I2C_MAX.h **** __STATIC_INLINE void I2C_MAX_MasterAbortRead(void);
 101:Generated_Source\PSoC6/I2C_MAX.h **** __STATIC_INLINE cy_en_scb_i2c_status_t I2C_MAX_MasterWrite(cy_stc_scb_i2c_master_xfer_config_t *xfe
 102:Generated_Source\PSoC6/I2C_MAX.h **** __STATIC_INLINE void I2C_MAX_MasterAbortWrite(void);
 103:Generated_Source\PSoC6/I2C_MAX.h **** __STATIC_INLINE uint32_t I2C_MAX_MasterGetTransferCount(void);
 104:Generated_Source\PSoC6/I2C_MAX.h **** 
 105:Generated_Source\PSoC6/I2C_MAX.h **** /* Master manual processing functions. */
 106:Generated_Source\PSoC6/I2C_MAX.h **** __STATIC_INLINE cy_en_scb_i2c_status_t I2C_MAX_MasterSendStart(uint32_t address, cy_en_scb_i2c_dire
 107:Generated_Source\PSoC6/I2C_MAX.h **** __STATIC_INLINE cy_en_scb_i2c_status_t I2C_MAX_MasterSendReStart(uint32_t address, cy_en_scb_i2c_di
 108:Generated_Source\PSoC6/I2C_MAX.h **** __STATIC_INLINE cy_en_scb_i2c_status_t I2C_MAX_MasterSendStop(uint32_t timeoutMs);
 109:Generated_Source\PSoC6/I2C_MAX.h **** __STATIC_INLINE cy_en_scb_i2c_status_t I2C_MAX_MasterReadByte(cy_en_scb_i2c_command_t ackNack, uint
ARM GAS  C:\Users\markm\AppData\Local\Temp\ccA1bc6D.s 			page 4


 110:Generated_Source\PSoC6/I2C_MAX.h **** __STATIC_INLINE cy_en_scb_i2c_status_t I2C_MAX_MasterWriteByte(uint8_t byte, uint32_t timeoutMs);
 111:Generated_Source\PSoC6/I2C_MAX.h **** #endif /* (I2C_MAX_ENABLE_MASTER) */
 112:Generated_Source\PSoC6/I2C_MAX.h **** 
 113:Generated_Source\PSoC6/I2C_MAX.h **** /* Interrupt handler. */
 114:Generated_Source\PSoC6/I2C_MAX.h **** __STATIC_INLINE void I2C_MAX_Interrupt(void);
 115:Generated_Source\PSoC6/I2C_MAX.h **** /** @} group_general */
 116:Generated_Source\PSoC6/I2C_MAX.h **** 
 117:Generated_Source\PSoC6/I2C_MAX.h **** 
 118:Generated_Source\PSoC6/I2C_MAX.h **** /***************************************
 119:Generated_Source\PSoC6/I2C_MAX.h **** *    Variables with External Linkage
 120:Generated_Source\PSoC6/I2C_MAX.h **** ***************************************/
 121:Generated_Source\PSoC6/I2C_MAX.h **** /**
 122:Generated_Source\PSoC6/I2C_MAX.h **** * \addtogroup group_globals
 123:Generated_Source\PSoC6/I2C_MAX.h **** * @{
 124:Generated_Source\PSoC6/I2C_MAX.h **** */
 125:Generated_Source\PSoC6/I2C_MAX.h **** extern uint8_t I2C_MAX_initVar;
 126:Generated_Source\PSoC6/I2C_MAX.h **** extern cy_stc_scb_i2c_config_t const I2C_MAX_config;
 127:Generated_Source\PSoC6/I2C_MAX.h **** extern cy_stc_scb_i2c_context_t I2C_MAX_context;
 128:Generated_Source\PSoC6/I2C_MAX.h **** /** @} group_globals */
 129:Generated_Source\PSoC6/I2C_MAX.h **** 
 130:Generated_Source\PSoC6/I2C_MAX.h **** 
 131:Generated_Source\PSoC6/I2C_MAX.h **** /***************************************
 132:Generated_Source\PSoC6/I2C_MAX.h **** *         Preprocessor Macros
 133:Generated_Source\PSoC6/I2C_MAX.h **** ***************************************/
 134:Generated_Source\PSoC6/I2C_MAX.h **** /**
 135:Generated_Source\PSoC6/I2C_MAX.h **** * \addtogroup group_macros
 136:Generated_Source\PSoC6/I2C_MAX.h **** * @{
 137:Generated_Source\PSoC6/I2C_MAX.h **** */
 138:Generated_Source\PSoC6/I2C_MAX.h **** /** The pointer to the base address of the SCB instance */
 139:Generated_Source\PSoC6/I2C_MAX.h **** #define I2C_MAX_HW     ((CySCB_Type *) I2C_MAX_SCB__HW)
 140:Generated_Source\PSoC6/I2C_MAX.h **** 
 141:Generated_Source\PSoC6/I2C_MAX.h **** /** The desired data rate in Hz */
 142:Generated_Source\PSoC6/I2C_MAX.h **** #define I2C_MAX_DATA_RATE_HZ      (100000U)
 143:Generated_Source\PSoC6/I2C_MAX.h **** 
 144:Generated_Source\PSoC6/I2C_MAX.h **** /** The frequency of the clock used by the Component in Hz */
 145:Generated_Source\PSoC6/I2C_MAX.h **** #define I2C_MAX_CLK_FREQ_HZ       (1538461U)
 146:Generated_Source\PSoC6/I2C_MAX.h **** 
 147:Generated_Source\PSoC6/I2C_MAX.h **** /** The number of Component clocks used by the master to generate the SCL
 148:Generated_Source\PSoC6/I2C_MAX.h **** * low phase. This number is calculated by GUI based on the selected data rate.
 149:Generated_Source\PSoC6/I2C_MAX.h **** */
 150:Generated_Source\PSoC6/I2C_MAX.h **** #define I2C_MAX_LOW_PHASE_DUTY_CYCLE   (8U)
 151:Generated_Source\PSoC6/I2C_MAX.h **** 
 152:Generated_Source\PSoC6/I2C_MAX.h **** /** The number of Component clocks used by the master to generate the SCL
 153:Generated_Source\PSoC6/I2C_MAX.h **** * high phase. This number is calculated by GUI based on the selected data rate.
 154:Generated_Source\PSoC6/I2C_MAX.h **** */
 155:Generated_Source\PSoC6/I2C_MAX.h **** #define I2C_MAX_HIGH_PHASE_DUTY_CYCLE  (8U)
 156:Generated_Source\PSoC6/I2C_MAX.h **** /** @} group_macros */
 157:Generated_Source\PSoC6/I2C_MAX.h **** 
 158:Generated_Source\PSoC6/I2C_MAX.h **** 
 159:Generated_Source\PSoC6/I2C_MAX.h **** /***************************************
 160:Generated_Source\PSoC6/I2C_MAX.h **** *    In-line Function Implementation
 161:Generated_Source\PSoC6/I2C_MAX.h **** ***************************************/
 162:Generated_Source\PSoC6/I2C_MAX.h **** 
 163:Generated_Source\PSoC6/I2C_MAX.h **** /*******************************************************************************
 164:Generated_Source\PSoC6/I2C_MAX.h **** * Function Name: I2C_MAX_Init
 165:Generated_Source\PSoC6/I2C_MAX.h **** ****************************************************************************//**
 166:Generated_Source\PSoC6/I2C_MAX.h **** *
ARM GAS  C:\Users\markm\AppData\Local\Temp\ccA1bc6D.s 			page 5


 167:Generated_Source\PSoC6/I2C_MAX.h **** * Invokes the Cy_SCB_I2C_Init() PDL driver function.
 168:Generated_Source\PSoC6/I2C_MAX.h **** *
 169:Generated_Source\PSoC6/I2C_MAX.h **** *******************************************************************************/
 170:Generated_Source\PSoC6/I2C_MAX.h **** __STATIC_INLINE cy_en_scb_i2c_status_t I2C_MAX_Init(cy_stc_scb_i2c_config_t const *config)
 171:Generated_Source\PSoC6/I2C_MAX.h **** {
 172:Generated_Source\PSoC6/I2C_MAX.h ****     return Cy_SCB_I2C_Init(I2C_MAX_HW, config, &I2C_MAX_context);
 173:Generated_Source\PSoC6/I2C_MAX.h **** }
 174:Generated_Source\PSoC6/I2C_MAX.h **** 
 175:Generated_Source\PSoC6/I2C_MAX.h **** 
 176:Generated_Source\PSoC6/I2C_MAX.h **** /*******************************************************************************
 177:Generated_Source\PSoC6/I2C_MAX.h **** *  Function Name: I2C_MAX_DeInit
 178:Generated_Source\PSoC6/I2C_MAX.h **** ****************************************************************************//**
 179:Generated_Source\PSoC6/I2C_MAX.h **** *
 180:Generated_Source\PSoC6/I2C_MAX.h **** * Invokes the Cy_SCB_I2C_DeInit() PDL driver function.
 181:Generated_Source\PSoC6/I2C_MAX.h **** *
 182:Generated_Source\PSoC6/I2C_MAX.h **** *******************************************************************************/
 183:Generated_Source\PSoC6/I2C_MAX.h **** __STATIC_INLINE void I2C_MAX_DeInit(void)
 184:Generated_Source\PSoC6/I2C_MAX.h **** {
 185:Generated_Source\PSoC6/I2C_MAX.h ****     Cy_SCB_I2C_DeInit(I2C_MAX_HW);
 186:Generated_Source\PSoC6/I2C_MAX.h **** }
 187:Generated_Source\PSoC6/I2C_MAX.h **** 
 188:Generated_Source\PSoC6/I2C_MAX.h **** 
 189:Generated_Source\PSoC6/I2C_MAX.h **** /*******************************************************************************
 190:Generated_Source\PSoC6/I2C_MAX.h **** * Function Name: I2C_MAX_Enable
 191:Generated_Source\PSoC6/I2C_MAX.h **** ****************************************************************************//**
 192:Generated_Source\PSoC6/I2C_MAX.h **** *
 193:Generated_Source\PSoC6/I2C_MAX.h **** * Invokes the Cy_SCB_I2C_Enable() PDL driver function.
 194:Generated_Source\PSoC6/I2C_MAX.h **** *
 195:Generated_Source\PSoC6/I2C_MAX.h **** *******************************************************************************/
 196:Generated_Source\PSoC6/I2C_MAX.h **** __STATIC_INLINE void I2C_MAX_Enable(void)
 197:Generated_Source\PSoC6/I2C_MAX.h **** {
 198:Generated_Source\PSoC6/I2C_MAX.h ****     Cy_SCB_I2C_Enable(I2C_MAX_HW);
 199:Generated_Source\PSoC6/I2C_MAX.h **** }
 200:Generated_Source\PSoC6/I2C_MAX.h **** 
 201:Generated_Source\PSoC6/I2C_MAX.h **** 
 202:Generated_Source\PSoC6/I2C_MAX.h **** /*******************************************************************************
 203:Generated_Source\PSoC6/I2C_MAX.h **** * Function Name: I2C_MAX_Disable
 204:Generated_Source\PSoC6/I2C_MAX.h **** ****************************************************************************//**
 205:Generated_Source\PSoC6/I2C_MAX.h **** *
 206:Generated_Source\PSoC6/I2C_MAX.h **** * Invokes the Cy_SCB_I2C_Disable() PDL driver function.
 207:Generated_Source\PSoC6/I2C_MAX.h **** *
 208:Generated_Source\PSoC6/I2C_MAX.h **** *******************************************************************************/
 209:Generated_Source\PSoC6/I2C_MAX.h **** __STATIC_INLINE void I2C_MAX_Disable(void)
 210:Generated_Source\PSoC6/I2C_MAX.h **** {
 211:Generated_Source\PSoC6/I2C_MAX.h ****     Cy_SCB_I2C_Disable(I2C_MAX_HW, &I2C_MAX_context);
 212:Generated_Source\PSoC6/I2C_MAX.h **** }
 213:Generated_Source\PSoC6/I2C_MAX.h **** 
 214:Generated_Source\PSoC6/I2C_MAX.h **** 
 215:Generated_Source\PSoC6/I2C_MAX.h **** /*******************************************************************************
 216:Generated_Source\PSoC6/I2C_MAX.h **** * Function Name: I2C_MAX_SetDataRate
 217:Generated_Source\PSoC6/I2C_MAX.h **** ****************************************************************************//**
 218:Generated_Source\PSoC6/I2C_MAX.h **** *
 219:Generated_Source\PSoC6/I2C_MAX.h **** * Invokes the Cy_SCB_I2C_SetDataRate() PDL driver function.
 220:Generated_Source\PSoC6/I2C_MAX.h **** *
 221:Generated_Source\PSoC6/I2C_MAX.h **** *******************************************************************************/
 222:Generated_Source\PSoC6/I2C_MAX.h **** __STATIC_INLINE uint32_t I2C_MAX_SetDataRate(uint32_t dataRateHz, uint32_t scbClockHz)
 223:Generated_Source\PSoC6/I2C_MAX.h **** {
ARM GAS  C:\Users\markm\AppData\Local\Temp\ccA1bc6D.s 			page 6


 224:Generated_Source\PSoC6/I2C_MAX.h ****     return Cy_SCB_I2C_SetDataRate(I2C_MAX_HW, dataRateHz, scbClockHz);
 225:Generated_Source\PSoC6/I2C_MAX.h **** }
 226:Generated_Source\PSoC6/I2C_MAX.h **** 
 227:Generated_Source\PSoC6/I2C_MAX.h **** 
 228:Generated_Source\PSoC6/I2C_MAX.h **** /*******************************************************************************
 229:Generated_Source\PSoC6/I2C_MAX.h **** * Function Name: I2C_MAX_GetDataRate
 230:Generated_Source\PSoC6/I2C_MAX.h **** ****************************************************************************//**
 231:Generated_Source\PSoC6/I2C_MAX.h **** *
 232:Generated_Source\PSoC6/I2C_MAX.h **** * Invokes the Cy_SCB_I2C_GetDataRate() PDL driver function.
 233:Generated_Source\PSoC6/I2C_MAX.h **** *
 234:Generated_Source\PSoC6/I2C_MAX.h **** *******************************************************************************/
 235:Generated_Source\PSoC6/I2C_MAX.h **** __STATIC_INLINE uint32_t I2C_MAX_GetDataRate(uint32_t scbClockHz)
 236:Generated_Source\PSoC6/I2C_MAX.h **** {
 237:Generated_Source\PSoC6/I2C_MAX.h ****     return Cy_SCB_I2C_GetDataRate(I2C_MAX_HW, scbClockHz);
 238:Generated_Source\PSoC6/I2C_MAX.h **** }
 239:Generated_Source\PSoC6/I2C_MAX.h **** 
 240:Generated_Source\PSoC6/I2C_MAX.h **** 
 241:Generated_Source\PSoC6/I2C_MAX.h **** /*******************************************************************************
 242:Generated_Source\PSoC6/I2C_MAX.h **** * Function Name: I2C_MAX_RegisterEventCallback
 243:Generated_Source\PSoC6/I2C_MAX.h **** ****************************************************************************//**
 244:Generated_Source\PSoC6/I2C_MAX.h **** *
 245:Generated_Source\PSoC6/I2C_MAX.h **** * Invokes the Cy_SCB_I2C_RegisterEventCallback() PDL driver function.
 246:Generated_Source\PSoC6/I2C_MAX.h **** *
 247:Generated_Source\PSoC6/I2C_MAX.h **** *******************************************************************************/
 248:Generated_Source\PSoC6/I2C_MAX.h **** __STATIC_INLINE void I2C_MAX_RegisterEventCallback(cy_cb_scb_i2c_handle_events_t callback)
 249:Generated_Source\PSoC6/I2C_MAX.h **** {
 250:Generated_Source\PSoC6/I2C_MAX.h ****     Cy_SCB_I2C_RegisterEventCallback(I2C_MAX_HW, callback, &I2C_MAX_context);
 251:Generated_Source\PSoC6/I2C_MAX.h **** }
 252:Generated_Source\PSoC6/I2C_MAX.h **** 
 253:Generated_Source\PSoC6/I2C_MAX.h **** 
 254:Generated_Source\PSoC6/I2C_MAX.h **** #if (I2C_MAX_ENABLE_SLAVE)
 255:Generated_Source\PSoC6/I2C_MAX.h **** /*******************************************************************************
 256:Generated_Source\PSoC6/I2C_MAX.h **** * Function Name: I2C_MAX_RegisterAddrCallback
 257:Generated_Source\PSoC6/I2C_MAX.h **** ****************************************************************************//**
 258:Generated_Source\PSoC6/I2C_MAX.h **** *
 259:Generated_Source\PSoC6/I2C_MAX.h **** * Invokes the Cy_SCB_I2C_RegisterAddrCallback() PDL driver function.
 260:Generated_Source\PSoC6/I2C_MAX.h **** *
 261:Generated_Source\PSoC6/I2C_MAX.h **** *******************************************************************************/
 262:Generated_Source\PSoC6/I2C_MAX.h **** __STATIC_INLINE void I2C_MAX_RegisterAddrCallback(cy_cb_scb_i2c_handle_addr_t callback)
 263:Generated_Source\PSoC6/I2C_MAX.h **** {
 264:Generated_Source\PSoC6/I2C_MAX.h ****     Cy_SCB_I2C_RegisterAddrCallback(I2C_MAX_HW, callback, &I2C_MAX_context);
 265:Generated_Source\PSoC6/I2C_MAX.h **** }
 266:Generated_Source\PSoC6/I2C_MAX.h **** #endif /* (I2C_MAX_ENABLE_SLAVE) */
 267:Generated_Source\PSoC6/I2C_MAX.h **** 
 268:Generated_Source\PSoC6/I2C_MAX.h **** 
 269:Generated_Source\PSoC6/I2C_MAX.h **** /*******************************************************************************
 270:Generated_Source\PSoC6/I2C_MAX.h **** * Function Name: I2C_MAX_IsBusBusy
 271:Generated_Source\PSoC6/I2C_MAX.h **** ****************************************************************************//**
 272:Generated_Source\PSoC6/I2C_MAX.h **** *
 273:Generated_Source\PSoC6/I2C_MAX.h **** * Invokes the Cy_SCB_I2C_IsBusBusy() PDL driver function.
 274:Generated_Source\PSoC6/I2C_MAX.h **** *
 275:Generated_Source\PSoC6/I2C_MAX.h **** *******************************************************************************/
 276:Generated_Source\PSoC6/I2C_MAX.h **** __STATIC_INLINE bool I2C_MAX_IsBusBusy(void)
 277:Generated_Source\PSoC6/I2C_MAX.h **** {
 278:Generated_Source\PSoC6/I2C_MAX.h ****     return Cy_SCB_I2C_IsBusBusy(I2C_MAX_HW);
 279:Generated_Source\PSoC6/I2C_MAX.h **** }
 280:Generated_Source\PSoC6/I2C_MAX.h **** 
ARM GAS  C:\Users\markm\AppData\Local\Temp\ccA1bc6D.s 			page 7


 281:Generated_Source\PSoC6/I2C_MAX.h **** 
 282:Generated_Source\PSoC6/I2C_MAX.h **** #if (I2C_MAX_ENABLE_SLAVE)
 283:Generated_Source\PSoC6/I2C_MAX.h **** /*******************************************************************************
 284:Generated_Source\PSoC6/I2C_MAX.h **** * Function Name: I2C_MAX_SlaveSetAddress
 285:Generated_Source\PSoC6/I2C_MAX.h **** ****************************************************************************//**
 286:Generated_Source\PSoC6/I2C_MAX.h **** *
 287:Generated_Source\PSoC6/I2C_MAX.h **** * Invokes the Cy_SCB_I2C_SlaveGetAddress() PDL driver function.
 288:Generated_Source\PSoC6/I2C_MAX.h **** *
 289:Generated_Source\PSoC6/I2C_MAX.h **** *******************************************************************************/
 290:Generated_Source\PSoC6/I2C_MAX.h **** __STATIC_INLINE void I2C_MAX_SlaveSetAddress(uint8_t addr)
 291:Generated_Source\PSoC6/I2C_MAX.h **** {
 292:Generated_Source\PSoC6/I2C_MAX.h ****     Cy_SCB_I2C_SlaveSetAddress(I2C_MAX_HW, addr);
 293:Generated_Source\PSoC6/I2C_MAX.h **** }
 294:Generated_Source\PSoC6/I2C_MAX.h **** 
 295:Generated_Source\PSoC6/I2C_MAX.h **** 
 296:Generated_Source\PSoC6/I2C_MAX.h **** /*******************************************************************************
 297:Generated_Source\PSoC6/I2C_MAX.h **** * Function Name: I2C_MAX_SlaveGetAddress
 298:Generated_Source\PSoC6/I2C_MAX.h **** ****************************************************************************//**
 299:Generated_Source\PSoC6/I2C_MAX.h **** *
 300:Generated_Source\PSoC6/I2C_MAX.h **** * Invokes the Cy_SCB_I2C_SlaveGetAddress() PDL driver function.
 301:Generated_Source\PSoC6/I2C_MAX.h **** *
 302:Generated_Source\PSoC6/I2C_MAX.h **** *******************************************************************************/
 303:Generated_Source\PSoC6/I2C_MAX.h **** __STATIC_INLINE uint32_t I2C_MAX_SlaveGetAddress(void)
 304:Generated_Source\PSoC6/I2C_MAX.h **** {
 305:Generated_Source\PSoC6/I2C_MAX.h ****     return Cy_SCB_I2C_SlaveGetAddress(I2C_MAX_HW);
 306:Generated_Source\PSoC6/I2C_MAX.h **** }
 307:Generated_Source\PSoC6/I2C_MAX.h **** 
 308:Generated_Source\PSoC6/I2C_MAX.h **** 
 309:Generated_Source\PSoC6/I2C_MAX.h **** /*******************************************************************************
 310:Generated_Source\PSoC6/I2C_MAX.h **** * Function Name: I2C_MAX_SlaveSetAddressMask
 311:Generated_Source\PSoC6/I2C_MAX.h **** ****************************************************************************//**
 312:Generated_Source\PSoC6/I2C_MAX.h **** *
 313:Generated_Source\PSoC6/I2C_MAX.h **** * Invokes the Cy_SCB_I2C_SlaveSetAddressMask() PDL driver function.
 314:Generated_Source\PSoC6/I2C_MAX.h **** *
 315:Generated_Source\PSoC6/I2C_MAX.h **** *******************************************************************************/
 316:Generated_Source\PSoC6/I2C_MAX.h **** __STATIC_INLINE void I2C_MAX_SlaveSetAddressMask(uint8_t addrMask)
 317:Generated_Source\PSoC6/I2C_MAX.h **** {
 318:Generated_Source\PSoC6/I2C_MAX.h ****     Cy_SCB_I2C_SlaveSetAddressMask(I2C_MAX_HW, addrMask);
 319:Generated_Source\PSoC6/I2C_MAX.h **** }
 320:Generated_Source\PSoC6/I2C_MAX.h **** 
 321:Generated_Source\PSoC6/I2C_MAX.h **** 
 322:Generated_Source\PSoC6/I2C_MAX.h **** /*******************************************************************************
 323:Generated_Source\PSoC6/I2C_MAX.h **** * Function Name: I2C_MAX_SlaveGetAddressMask
 324:Generated_Source\PSoC6/I2C_MAX.h **** ****************************************************************************//**
 325:Generated_Source\PSoC6/I2C_MAX.h **** *
 326:Generated_Source\PSoC6/I2C_MAX.h **** * Invokes the Cy_SCB_I2C_SlaveGetAddressMask() PDL driver function.
 327:Generated_Source\PSoC6/I2C_MAX.h **** *
 328:Generated_Source\PSoC6/I2C_MAX.h **** *******************************************************************************/
 329:Generated_Source\PSoC6/I2C_MAX.h **** __STATIC_INLINE uint32_t I2C_MAX_SlaveGetAddressMask(void)
 330:Generated_Source\PSoC6/I2C_MAX.h **** {
 331:Generated_Source\PSoC6/I2C_MAX.h ****     return Cy_SCB_I2C_SlaveGetAddressMask(I2C_MAX_HW);
 332:Generated_Source\PSoC6/I2C_MAX.h **** }
 333:Generated_Source\PSoC6/I2C_MAX.h **** #endif /* (I2C_MAX_ENABLE_SLAVE) */
 334:Generated_Source\PSoC6/I2C_MAX.h **** 
 335:Generated_Source\PSoC6/I2C_MAX.h **** #if (I2C_MAX_ENABLE_MASTER)
 336:Generated_Source\PSoC6/I2C_MAX.h **** /*******************************************************************************
 337:Generated_Source\PSoC6/I2C_MAX.h **** * Function Name: I2C_MAX_MasterSetLowPhaseDutyCycle
ARM GAS  C:\Users\markm\AppData\Local\Temp\ccA1bc6D.s 			page 8


 338:Generated_Source\PSoC6/I2C_MAX.h **** ****************************************************************************//**
 339:Generated_Source\PSoC6/I2C_MAX.h **** *
 340:Generated_Source\PSoC6/I2C_MAX.h **** * Invokes the Cy_SCB_I2C_MasterSetLowPhaseDutyCycle() PDL driver function.
 341:Generated_Source\PSoC6/I2C_MAX.h **** *
 342:Generated_Source\PSoC6/I2C_MAX.h **** *******************************************************************************/
 343:Generated_Source\PSoC6/I2C_MAX.h **** __STATIC_INLINE void I2C_MAX_MasterSetLowPhaseDutyCycle(uint32_t clockCycles)
 344:Generated_Source\PSoC6/I2C_MAX.h **** {
 345:Generated_Source\PSoC6/I2C_MAX.h ****     Cy_SCB_I2C_MasterSetLowPhaseDutyCycle(I2C_MAX_HW, clockCycles);
 346:Generated_Source\PSoC6/I2C_MAX.h **** }
 347:Generated_Source\PSoC6/I2C_MAX.h **** 
 348:Generated_Source\PSoC6/I2C_MAX.h **** 
 349:Generated_Source\PSoC6/I2C_MAX.h **** /*******************************************************************************
 350:Generated_Source\PSoC6/I2C_MAX.h **** * Function Name: I2C_MAX_MasterSetHighPhaseDutyCycle
 351:Generated_Source\PSoC6/I2C_MAX.h **** ****************************************************************************//**
 352:Generated_Source\PSoC6/I2C_MAX.h **** *
 353:Generated_Source\PSoC6/I2C_MAX.h **** * Invokes the Cy_SCB_I2C_MasterSetHighPhaseDutyCycle() PDL driver function.
 354:Generated_Source\PSoC6/I2C_MAX.h **** *
 355:Generated_Source\PSoC6/I2C_MAX.h **** *******************************************************************************/
 356:Generated_Source\PSoC6/I2C_MAX.h **** __STATIC_INLINE void I2C_MAX_MasterSetHighPhaseDutyCycle(uint32_t clockCycles)
 357:Generated_Source\PSoC6/I2C_MAX.h **** {
 358:Generated_Source\PSoC6/I2C_MAX.h ****     Cy_SCB_I2C_MasterSetHighPhaseDutyCycle(I2C_MAX_HW, clockCycles);
 359:Generated_Source\PSoC6/I2C_MAX.h **** }
 360:Generated_Source\PSoC6/I2C_MAX.h **** #endif /* (I2C_MAX_ENABLE_MASTER) */
 361:Generated_Source\PSoC6/I2C_MAX.h **** 
 362:Generated_Source\PSoC6/I2C_MAX.h **** 
 363:Generated_Source\PSoC6/I2C_MAX.h **** #if (I2C_MAX_ENABLE_SLAVE)
 364:Generated_Source\PSoC6/I2C_MAX.h **** /*******************************************************************************
 365:Generated_Source\PSoC6/I2C_MAX.h **** * Function Name: I2C_MAX_SlaveGetStatus
 366:Generated_Source\PSoC6/I2C_MAX.h **** ****************************************************************************//**
 367:Generated_Source\PSoC6/I2C_MAX.h **** *
 368:Generated_Source\PSoC6/I2C_MAX.h **** * Invokes the Cy_SCB_I2C_SlaveGetStatus() PDL driver function.
 369:Generated_Source\PSoC6/I2C_MAX.h **** *
 370:Generated_Source\PSoC6/I2C_MAX.h **** *******************************************************************************/
 371:Generated_Source\PSoC6/I2C_MAX.h **** __STATIC_INLINE uint32_t I2C_MAX_SlaveGetStatus(void)
 372:Generated_Source\PSoC6/I2C_MAX.h **** {
 373:Generated_Source\PSoC6/I2C_MAX.h ****     return Cy_SCB_I2C_SlaveGetStatus(I2C_MAX_HW, &I2C_MAX_context);
 374:Generated_Source\PSoC6/I2C_MAX.h **** }
 375:Generated_Source\PSoC6/I2C_MAX.h **** 
 376:Generated_Source\PSoC6/I2C_MAX.h **** 
 377:Generated_Source\PSoC6/I2C_MAX.h **** /*******************************************************************************
 378:Generated_Source\PSoC6/I2C_MAX.h **** * Function Name: I2C_MAX_SlaveConfigReadBuf
 379:Generated_Source\PSoC6/I2C_MAX.h **** ****************************************************************************//**
 380:Generated_Source\PSoC6/I2C_MAX.h **** *
 381:Generated_Source\PSoC6/I2C_MAX.h **** * Invokes the Cy_SCB_I2C_SlaveConfigReadBuf() PDL driver function.
 382:Generated_Source\PSoC6/I2C_MAX.h **** *
 383:Generated_Source\PSoC6/I2C_MAX.h **** *******************************************************************************/
 384:Generated_Source\PSoC6/I2C_MAX.h **** __STATIC_INLINE void I2C_MAX_SlaveConfigReadBuf(uint8_t *buffer, uint32_t size)
 385:Generated_Source\PSoC6/I2C_MAX.h **** {
 386:Generated_Source\PSoC6/I2C_MAX.h ****     Cy_SCB_I2C_SlaveConfigReadBuf(I2C_MAX_HW, buffer, size, &I2C_MAX_context);
 387:Generated_Source\PSoC6/I2C_MAX.h **** }
 388:Generated_Source\PSoC6/I2C_MAX.h **** 
 389:Generated_Source\PSoC6/I2C_MAX.h **** 
 390:Generated_Source\PSoC6/I2C_MAX.h **** /*******************************************************************************
 391:Generated_Source\PSoC6/I2C_MAX.h **** * Function Name: I2C_MAX_SlaveAbortRead
 392:Generated_Source\PSoC6/I2C_MAX.h **** ****************************************************************************//**
 393:Generated_Source\PSoC6/I2C_MAX.h **** *
 394:Generated_Source\PSoC6/I2C_MAX.h **** * Invokes the Cy_SCB_I2C_SlaveAbortRead() PDL driver function.
ARM GAS  C:\Users\markm\AppData\Local\Temp\ccA1bc6D.s 			page 9


 395:Generated_Source\PSoC6/I2C_MAX.h **** *
 396:Generated_Source\PSoC6/I2C_MAX.h **** *******************************************************************************/
 397:Generated_Source\PSoC6/I2C_MAX.h **** __STATIC_INLINE void I2C_MAX_SlaveAbortRead(void)
 398:Generated_Source\PSoC6/I2C_MAX.h **** {
 399:Generated_Source\PSoC6/I2C_MAX.h ****     Cy_SCB_I2C_SlaveAbortRead(I2C_MAX_HW, &I2C_MAX_context);
 400:Generated_Source\PSoC6/I2C_MAX.h **** }
 401:Generated_Source\PSoC6/I2C_MAX.h **** 
 402:Generated_Source\PSoC6/I2C_MAX.h **** 
 403:Generated_Source\PSoC6/I2C_MAX.h **** /*******************************************************************************
 404:Generated_Source\PSoC6/I2C_MAX.h **** * Function Name: I2C_MAX_SlaveGetReadTransferCount
 405:Generated_Source\PSoC6/I2C_MAX.h **** ****************************************************************************//**
 406:Generated_Source\PSoC6/I2C_MAX.h **** *
 407:Generated_Source\PSoC6/I2C_MAX.h **** * Invokes the Cy_SCB_I2C_SlaveGetReadTransferCount() PDL driver function.
 408:Generated_Source\PSoC6/I2C_MAX.h **** *
 409:Generated_Source\PSoC6/I2C_MAX.h **** *******************************************************************************/
 410:Generated_Source\PSoC6/I2C_MAX.h **** __STATIC_INLINE uint32_t I2C_MAX_SlaveGetReadTransferCount(void)
 411:Generated_Source\PSoC6/I2C_MAX.h **** {
 412:Generated_Source\PSoC6/I2C_MAX.h ****     return Cy_SCB_I2C_SlaveGetReadTransferCount(I2C_MAX_HW, &I2C_MAX_context);
 413:Generated_Source\PSoC6/I2C_MAX.h **** }
 414:Generated_Source\PSoC6/I2C_MAX.h **** 
 415:Generated_Source\PSoC6/I2C_MAX.h **** 
 416:Generated_Source\PSoC6/I2C_MAX.h **** /*******************************************************************************
 417:Generated_Source\PSoC6/I2C_MAX.h **** * Function Name: I2C_MAX_SlaveClearReadStatus
 418:Generated_Source\PSoC6/I2C_MAX.h **** ****************************************************************************//**
 419:Generated_Source\PSoC6/I2C_MAX.h **** *
 420:Generated_Source\PSoC6/I2C_MAX.h **** * Invokes the Cy_SCB_I2C_SlaveClearReadStatus() PDL driver function.
 421:Generated_Source\PSoC6/I2C_MAX.h **** *
 422:Generated_Source\PSoC6/I2C_MAX.h **** *******************************************************************************/
 423:Generated_Source\PSoC6/I2C_MAX.h **** __STATIC_INLINE uint32_t I2C_MAX_SlaveClearReadStatus(void)
 424:Generated_Source\PSoC6/I2C_MAX.h **** {
 425:Generated_Source\PSoC6/I2C_MAX.h ****     return Cy_SCB_I2C_SlaveClearReadStatus(I2C_MAX_HW, &I2C_MAX_context);
 426:Generated_Source\PSoC6/I2C_MAX.h **** }
 427:Generated_Source\PSoC6/I2C_MAX.h **** 
 428:Generated_Source\PSoC6/I2C_MAX.h **** 
 429:Generated_Source\PSoC6/I2C_MAX.h **** /*******************************************************************************
 430:Generated_Source\PSoC6/I2C_MAX.h **** * Function Name: I2C_MAX_SlaveConfigWriteBuf
 431:Generated_Source\PSoC6/I2C_MAX.h **** ****************************************************************************//**
 432:Generated_Source\PSoC6/I2C_MAX.h **** *
 433:Generated_Source\PSoC6/I2C_MAX.h **** * Invokes the Cy_SCB_I2C_SlaveConfigWriteBuf() PDL driver function.
 434:Generated_Source\PSoC6/I2C_MAX.h **** *
 435:Generated_Source\PSoC6/I2C_MAX.h **** *******************************************************************************/
 436:Generated_Source\PSoC6/I2C_MAX.h **** __STATIC_INLINE void I2C_MAX_SlaveConfigWriteBuf(uint8_t *buffer, uint32_t size)
 437:Generated_Source\PSoC6/I2C_MAX.h **** {
 438:Generated_Source\PSoC6/I2C_MAX.h ****     Cy_SCB_I2C_SlaveConfigWriteBuf(I2C_MAX_HW, buffer, size, &I2C_MAX_context);
 439:Generated_Source\PSoC6/I2C_MAX.h **** }
 440:Generated_Source\PSoC6/I2C_MAX.h **** 
 441:Generated_Source\PSoC6/I2C_MAX.h **** 
 442:Generated_Source\PSoC6/I2C_MAX.h **** /*******************************************************************************
 443:Generated_Source\PSoC6/I2C_MAX.h **** * Function Name: I2C_MAX_SlaveAbortWrite
 444:Generated_Source\PSoC6/I2C_MAX.h **** ****************************************************************************//**
 445:Generated_Source\PSoC6/I2C_MAX.h **** *
 446:Generated_Source\PSoC6/I2C_MAX.h **** * Invokes the Cy_SCB_I2C_SlaveAbortWrite() PDL driver function.
 447:Generated_Source\PSoC6/I2C_MAX.h **** *
 448:Generated_Source\PSoC6/I2C_MAX.h **** *******************************************************************************/
 449:Generated_Source\PSoC6/I2C_MAX.h **** __STATIC_INLINE void I2C_MAX_SlaveAbortWrite(void)
 450:Generated_Source\PSoC6/I2C_MAX.h **** {
 451:Generated_Source\PSoC6/I2C_MAX.h ****     Cy_SCB_I2C_SlaveAbortWrite(I2C_MAX_HW, &I2C_MAX_context);
ARM GAS  C:\Users\markm\AppData\Local\Temp\ccA1bc6D.s 			page 10


 452:Generated_Source\PSoC6/I2C_MAX.h **** }
 453:Generated_Source\PSoC6/I2C_MAX.h **** 
 454:Generated_Source\PSoC6/I2C_MAX.h **** 
 455:Generated_Source\PSoC6/I2C_MAX.h **** /*******************************************************************************
 456:Generated_Source\PSoC6/I2C_MAX.h **** * Function Name: I2C_MAX_SlaveGetWriteTransferCount
 457:Generated_Source\PSoC6/I2C_MAX.h **** ****************************************************************************//**
 458:Generated_Source\PSoC6/I2C_MAX.h **** *
 459:Generated_Source\PSoC6/I2C_MAX.h **** * Invokes the Cy_SCB_I2C_SlaveGetWriteTransferCount() PDL driver function.
 460:Generated_Source\PSoC6/I2C_MAX.h **** *
 461:Generated_Source\PSoC6/I2C_MAX.h **** *******************************************************************************/
 462:Generated_Source\PSoC6/I2C_MAX.h **** __STATIC_INLINE uint32_t I2C_MAX_SlaveGetWriteTransferCount(void)
 463:Generated_Source\PSoC6/I2C_MAX.h **** {
 464:Generated_Source\PSoC6/I2C_MAX.h ****     return Cy_SCB_I2C_SlaveGetWriteTransferCount(I2C_MAX_HW, &I2C_MAX_context);
 465:Generated_Source\PSoC6/I2C_MAX.h **** }
 466:Generated_Source\PSoC6/I2C_MAX.h **** 
 467:Generated_Source\PSoC6/I2C_MAX.h **** 
 468:Generated_Source\PSoC6/I2C_MAX.h **** /*******************************************************************************
 469:Generated_Source\PSoC6/I2C_MAX.h **** * Function Name: I2C_MAX_SlaveClearWriteStatus
 470:Generated_Source\PSoC6/I2C_MAX.h **** ****************************************************************************//**
 471:Generated_Source\PSoC6/I2C_MAX.h **** *
 472:Generated_Source\PSoC6/I2C_MAX.h **** * Invokes the Cy_SCB_I2C_SlaveClearWriteStatus() PDL driver function.
 473:Generated_Source\PSoC6/I2C_MAX.h **** *
 474:Generated_Source\PSoC6/I2C_MAX.h **** *******************************************************************************/
 475:Generated_Source\PSoC6/I2C_MAX.h **** __STATIC_INLINE uint32_t I2C_MAX_SlaveClearWriteStatus(void)
 476:Generated_Source\PSoC6/I2C_MAX.h **** {
 477:Generated_Source\PSoC6/I2C_MAX.h ****     return Cy_SCB_I2C_SlaveClearWriteStatus(I2C_MAX_HW, &I2C_MAX_context);
 478:Generated_Source\PSoC6/I2C_MAX.h **** }
 479:Generated_Source\PSoC6/I2C_MAX.h **** #endif /* (I2C_MAX_ENABLE_SLAVE) */
 480:Generated_Source\PSoC6/I2C_MAX.h **** 
 481:Generated_Source\PSoC6/I2C_MAX.h **** 
 482:Generated_Source\PSoC6/I2C_MAX.h **** #if (I2C_MAX_ENABLE_MASTER)
 483:Generated_Source\PSoC6/I2C_MAX.h **** /*******************************************************************************
 484:Generated_Source\PSoC6/I2C_MAX.h **** * Function Name: I2C_MAX_MasterGetStatus
 485:Generated_Source\PSoC6/I2C_MAX.h **** ****************************************************************************//**
 486:Generated_Source\PSoC6/I2C_MAX.h **** *
 487:Generated_Source\PSoC6/I2C_MAX.h **** * Invokes the Cy_SCB_I2C_MasterGetStatus() PDL driver function.
 488:Generated_Source\PSoC6/I2C_MAX.h **** *
 489:Generated_Source\PSoC6/I2C_MAX.h **** *******************************************************************************/
 490:Generated_Source\PSoC6/I2C_MAX.h **** __STATIC_INLINE uint32_t I2C_MAX_MasterGetStatus(void)
 491:Generated_Source\PSoC6/I2C_MAX.h **** {
 492:Generated_Source\PSoC6/I2C_MAX.h ****     return Cy_SCB_I2C_MasterGetStatus(I2C_MAX_HW, &I2C_MAX_context);
 493:Generated_Source\PSoC6/I2C_MAX.h **** }
 494:Generated_Source\PSoC6/I2C_MAX.h **** 
 495:Generated_Source\PSoC6/I2C_MAX.h **** 
 496:Generated_Source\PSoC6/I2C_MAX.h **** /*******************************************************************************
 497:Generated_Source\PSoC6/I2C_MAX.h **** * Function Name: I2C_MAX_MasterRead
 498:Generated_Source\PSoC6/I2C_MAX.h **** ****************************************************************************//**
 499:Generated_Source\PSoC6/I2C_MAX.h **** *
 500:Generated_Source\PSoC6/I2C_MAX.h **** * Invokes the Cy_SCB_I2C_MasterRead() PDL driver function.
 501:Generated_Source\PSoC6/I2C_MAX.h **** *
 502:Generated_Source\PSoC6/I2C_MAX.h **** *******************************************************************************/
 503:Generated_Source\PSoC6/I2C_MAX.h **** __STATIC_INLINE cy_en_scb_i2c_status_t I2C_MAX_MasterRead(cy_stc_scb_i2c_master_xfer_config_t *xfer
 504:Generated_Source\PSoC6/I2C_MAX.h **** {
 505:Generated_Source\PSoC6/I2C_MAX.h ****     return Cy_SCB_I2C_MasterRead(I2C_MAX_HW, xferConfig, &I2C_MAX_context);
 506:Generated_Source\PSoC6/I2C_MAX.h **** }
 507:Generated_Source\PSoC6/I2C_MAX.h **** 
 508:Generated_Source\PSoC6/I2C_MAX.h **** 
ARM GAS  C:\Users\markm\AppData\Local\Temp\ccA1bc6D.s 			page 11


 509:Generated_Source\PSoC6/I2C_MAX.h **** /*******************************************************************************
 510:Generated_Source\PSoC6/I2C_MAX.h **** * Function Name: I2C_MAX_MasterAbortRead
 511:Generated_Source\PSoC6/I2C_MAX.h **** ****************************************************************************//**
 512:Generated_Source\PSoC6/I2C_MAX.h **** *
 513:Generated_Source\PSoC6/I2C_MAX.h **** * Invokes the Cy_SCB_I2C_MasterAbortRead() PDL driver function.
 514:Generated_Source\PSoC6/I2C_MAX.h **** *
 515:Generated_Source\PSoC6/I2C_MAX.h **** ******************************************************************************/
 516:Generated_Source\PSoC6/I2C_MAX.h **** __STATIC_INLINE void I2C_MAX_MasterAbortRead(void)
 517:Generated_Source\PSoC6/I2C_MAX.h **** {
 518:Generated_Source\PSoC6/I2C_MAX.h ****     Cy_SCB_I2C_MasterAbortRead(I2C_MAX_HW, &I2C_MAX_context);
 519:Generated_Source\PSoC6/I2C_MAX.h **** }
 520:Generated_Source\PSoC6/I2C_MAX.h **** 
 521:Generated_Source\PSoC6/I2C_MAX.h **** 
 522:Generated_Source\PSoC6/I2C_MAX.h **** /*******************************************************************************
 523:Generated_Source\PSoC6/I2C_MAX.h **** * Function Name: I2C_MAX_MasterWrite
 524:Generated_Source\PSoC6/I2C_MAX.h **** ****************************************************************************//**
 525:Generated_Source\PSoC6/I2C_MAX.h **** *
 526:Generated_Source\PSoC6/I2C_MAX.h **** * Invokes the Cy_SCB_I2C_MasterWrite() PDL driver function.
 527:Generated_Source\PSoC6/I2C_MAX.h **** *
 528:Generated_Source\PSoC6/I2C_MAX.h **** *******************************************************************************/
 529:Generated_Source\PSoC6/I2C_MAX.h **** __STATIC_INLINE cy_en_scb_i2c_status_t I2C_MAX_MasterWrite(cy_stc_scb_i2c_master_xfer_config_t *xfe
 530:Generated_Source\PSoC6/I2C_MAX.h **** {
 531:Generated_Source\PSoC6/I2C_MAX.h ****     return Cy_SCB_I2C_MasterWrite(I2C_MAX_HW, xferConfig, &I2C_MAX_context);
 532:Generated_Source\PSoC6/I2C_MAX.h **** }
 533:Generated_Source\PSoC6/I2C_MAX.h **** 
 534:Generated_Source\PSoC6/I2C_MAX.h **** 
 535:Generated_Source\PSoC6/I2C_MAX.h **** /*******************************************************************************
 536:Generated_Source\PSoC6/I2C_MAX.h **** * Function Name: I2C_MAX_MasterAbortWrite
 537:Generated_Source\PSoC6/I2C_MAX.h **** ****************************************************************************//**
 538:Generated_Source\PSoC6/I2C_MAX.h **** *
 539:Generated_Source\PSoC6/I2C_MAX.h **** * Invokes the Cy_SCB_I2C_MasterAbortWrite() PDL driver function.
 540:Generated_Source\PSoC6/I2C_MAX.h **** *
 541:Generated_Source\PSoC6/I2C_MAX.h **** *******************************************************************************/
 542:Generated_Source\PSoC6/I2C_MAX.h **** __STATIC_INLINE void I2C_MAX_MasterAbortWrite(void)
 543:Generated_Source\PSoC6/I2C_MAX.h **** {
 544:Generated_Source\PSoC6/I2C_MAX.h ****     Cy_SCB_I2C_MasterAbortWrite(I2C_MAX_HW, &I2C_MAX_context);
 545:Generated_Source\PSoC6/I2C_MAX.h **** }
 546:Generated_Source\PSoC6/I2C_MAX.h **** 
 547:Generated_Source\PSoC6/I2C_MAX.h **** 
 548:Generated_Source\PSoC6/I2C_MAX.h **** /*******************************************************************************
 549:Generated_Source\PSoC6/I2C_MAX.h **** * Function Name: I2C_MAX_MasterGetTransferCount
 550:Generated_Source\PSoC6/I2C_MAX.h **** ****************************************************************************//**
 551:Generated_Source\PSoC6/I2C_MAX.h **** *
 552:Generated_Source\PSoC6/I2C_MAX.h **** * Invokes the Cy_SCB_I2C_MasterGetTransferCount() PDL driver function.
 553:Generated_Source\PSoC6/I2C_MAX.h **** *
 554:Generated_Source\PSoC6/I2C_MAX.h **** *******************************************************************************/
 555:Generated_Source\PSoC6/I2C_MAX.h **** __STATIC_INLINE uint32_t I2C_MAX_MasterGetTransferCount(void)
 556:Generated_Source\PSoC6/I2C_MAX.h **** {
 557:Generated_Source\PSoC6/I2C_MAX.h ****     return Cy_SCB_I2C_MasterGetTransferCount(I2C_MAX_HW, &I2C_MAX_context);
 558:Generated_Source\PSoC6/I2C_MAX.h **** }
 559:Generated_Source\PSoC6/I2C_MAX.h **** 
 560:Generated_Source\PSoC6/I2C_MAX.h **** 
 561:Generated_Source\PSoC6/I2C_MAX.h **** /*******************************************************************************
 562:Generated_Source\PSoC6/I2C_MAX.h **** * Function Name: I2C_MAX_MasterSendStart
 563:Generated_Source\PSoC6/I2C_MAX.h **** ****************************************************************************//**
 564:Generated_Source\PSoC6/I2C_MAX.h **** *
 565:Generated_Source\PSoC6/I2C_MAX.h **** * Invokes the Cy_SCB_I2C_MasterSendStart() PDL driver function.
ARM GAS  C:\Users\markm\AppData\Local\Temp\ccA1bc6D.s 			page 12


 566:Generated_Source\PSoC6/I2C_MAX.h **** *
 567:Generated_Source\PSoC6/I2C_MAX.h **** *******************************************************************************/
 568:Generated_Source\PSoC6/I2C_MAX.h **** __STATIC_INLINE cy_en_scb_i2c_status_t I2C_MAX_MasterSendStart(uint32_t address, cy_en_scb_i2c_dire
 569:Generated_Source\PSoC6/I2C_MAX.h **** {
 570:Generated_Source\PSoC6/I2C_MAX.h ****     return Cy_SCB_I2C_MasterSendStart(I2C_MAX_HW, address, bitRnW, timeoutMs, &I2C_MAX_context);
  47              		.loc 2 570 0
  48 0006 144C     		ldr	r4, .L3
  49 0008 144D     		ldr	r5, .L3+4
  50 000a 0095     		str	r5, [sp]
  51 000c 6423     		movs	r3, #100
  52 000e 0022     		movs	r2, #0
  53 0010 5721     		movs	r1, #87
  54 0012 2046     		mov	r0, r4
  55              	.LVL2:
  56 0014 FFF7FEFF 		bl	Cy_SCB_I2C_MasterSendStart
  57              	.LVL3:
  58              	.LBE42:
  59              	.LBE41:
  60              	.LBB43:
  61              	.LBB44:
 571:Generated_Source\PSoC6/I2C_MAX.h **** }
 572:Generated_Source\PSoC6/I2C_MAX.h **** 
 573:Generated_Source\PSoC6/I2C_MAX.h **** 
 574:Generated_Source\PSoC6/I2C_MAX.h **** /*******************************************************************************
 575:Generated_Source\PSoC6/I2C_MAX.h **** * Function Name: I2C_MAX_MasterSendReStart
 576:Generated_Source\PSoC6/I2C_MAX.h **** ****************************************************************************//**
 577:Generated_Source\PSoC6/I2C_MAX.h **** *
 578:Generated_Source\PSoC6/I2C_MAX.h **** * Invokes the Cy_SCB_I2C_MasterSendReStart() PDL driver function.
 579:Generated_Source\PSoC6/I2C_MAX.h **** *
 580:Generated_Source\PSoC6/I2C_MAX.h **** *******************************************************************************/
 581:Generated_Source\PSoC6/I2C_MAX.h **** __STATIC_INLINE cy_en_scb_i2c_status_t I2C_MAX_MasterSendReStart(uint32_t address, cy_en_scb_i2c_di
 582:Generated_Source\PSoC6/I2C_MAX.h **** {
 583:Generated_Source\PSoC6/I2C_MAX.h ****     return Cy_SCB_I2C_MasterSendReStart(I2C_MAX_HW, address, bitRnW, timeoutMs, &I2C_MAX_context);
 584:Generated_Source\PSoC6/I2C_MAX.h **** }
 585:Generated_Source\PSoC6/I2C_MAX.h **** 
 586:Generated_Source\PSoC6/I2C_MAX.h **** 
 587:Generated_Source\PSoC6/I2C_MAX.h **** /*******************************************************************************
 588:Generated_Source\PSoC6/I2C_MAX.h **** * Function Name: I2C_MAX_MasterSendStop
 589:Generated_Source\PSoC6/I2C_MAX.h **** ****************************************************************************//**
 590:Generated_Source\PSoC6/I2C_MAX.h **** *
 591:Generated_Source\PSoC6/I2C_MAX.h **** * Invokes the Cy_SCB_I2C_MasterSendStop() PDL driver function.
 592:Generated_Source\PSoC6/I2C_MAX.h **** *
 593:Generated_Source\PSoC6/I2C_MAX.h **** *******************************************************************************/
 594:Generated_Source\PSoC6/I2C_MAX.h **** __STATIC_INLINE cy_en_scb_i2c_status_t I2C_MAX_MasterSendStop(uint32_t timeoutMs)
 595:Generated_Source\PSoC6/I2C_MAX.h **** {
 596:Generated_Source\PSoC6/I2C_MAX.h ****     return Cy_SCB_I2C_MasterSendStop(I2C_MAX_HW, timeoutMs, &I2C_MAX_context);
 597:Generated_Source\PSoC6/I2C_MAX.h **** }
 598:Generated_Source\PSoC6/I2C_MAX.h **** 
 599:Generated_Source\PSoC6/I2C_MAX.h **** 
 600:Generated_Source\PSoC6/I2C_MAX.h **** /*******************************************************************************
 601:Generated_Source\PSoC6/I2C_MAX.h **** * Function Name: I2C_MAX_MasterReadByte
 602:Generated_Source\PSoC6/I2C_MAX.h **** ****************************************************************************//**
 603:Generated_Source\PSoC6/I2C_MAX.h **** *
 604:Generated_Source\PSoC6/I2C_MAX.h **** * Invokes the Cy_SCB_I2C_MasterReadByte() PDL driver function.
 605:Generated_Source\PSoC6/I2C_MAX.h **** *
 606:Generated_Source\PSoC6/I2C_MAX.h **** *******************************************************************************/
 607:Generated_Source\PSoC6/I2C_MAX.h **** __STATIC_INLINE cy_en_scb_i2c_status_t I2C_MAX_MasterReadByte(cy_en_scb_i2c_command_t ackNack, uint
ARM GAS  C:\Users\markm\AppData\Local\Temp\ccA1bc6D.s 			page 13


 608:Generated_Source\PSoC6/I2C_MAX.h **** {
 609:Generated_Source\PSoC6/I2C_MAX.h ****     return Cy_SCB_I2C_MasterReadByte(I2C_MAX_HW, ackNack, byte, timeoutMs, &I2C_MAX_context);
 610:Generated_Source\PSoC6/I2C_MAX.h **** }
 611:Generated_Source\PSoC6/I2C_MAX.h **** 
 612:Generated_Source\PSoC6/I2C_MAX.h **** 
 613:Generated_Source\PSoC6/I2C_MAX.h **** /*******************************************************************************
 614:Generated_Source\PSoC6/I2C_MAX.h **** * Function Name: I2C_MAX_MasterWriteByte
 615:Generated_Source\PSoC6/I2C_MAX.h **** ****************************************************************************//**
 616:Generated_Source\PSoC6/I2C_MAX.h **** *
 617:Generated_Source\PSoC6/I2C_MAX.h **** * Invokes the Cy_SCB_I2C_MasterWriteByte() PDL driver function.
 618:Generated_Source\PSoC6/I2C_MAX.h **** *
 619:Generated_Source\PSoC6/I2C_MAX.h **** *******************************************************************************/
 620:Generated_Source\PSoC6/I2C_MAX.h **** __STATIC_INLINE cy_en_scb_i2c_status_t I2C_MAX_MasterWriteByte(uint8_t byte, uint32_t timeoutMs)
 621:Generated_Source\PSoC6/I2C_MAX.h **** {
 622:Generated_Source\PSoC6/I2C_MAX.h ****     return Cy_SCB_I2C_MasterWriteByte(I2C_MAX_HW, byte, timeoutMs, &I2C_MAX_context);
  62              		.loc 2 622 0
  63 0018 2B46     		mov	r3, r5
  64 001a 6422     		movs	r2, #100
  65 001c 3146     		mov	r1, r6
  66 001e 2046     		mov	r0, r4
  67 0020 FFF7FEFF 		bl	Cy_SCB_I2C_MasterWriteByte
  68              	.LVL4:
  69              	.LBE44:
  70              	.LBE43:
  71              	.LBB45:
  72              	.LBB46:
 583:Generated_Source\PSoC6/I2C_MAX.h **** }
  73              		.loc 2 583 0
  74 0024 0095     		str	r5, [sp]
  75 0026 6423     		movs	r3, #100
  76 0028 0122     		movs	r2, #1
  77 002a 5721     		movs	r1, #87
  78 002c 2046     		mov	r0, r4
  79 002e FFF7FEFF 		bl	Cy_SCB_I2C_MasterSendReStart
  80              	.LVL5:
  81              	.LBE46:
  82              	.LBE45:
  17:Max30102_task.c ****     I2C_MAX_MasterSendStart( I2C_ADDRESS,CY_SCB_I2C_WRITE_XFER,100);
  18:Max30102_task.c ****     I2C_MAX_MasterWriteByte(address,100);  
  19:Max30102_task.c ****     I2C_MAX_MasterSendReStart(I2C_ADDRESS,CY_SCB_I2C_READ_XFER,100);
  20:Max30102_task.c ****     uint8_t regValue=0;
  83              		.loc 1 20 0
  84 0032 0021     		movs	r1, #0
  85 0034 04AA     		add	r2, sp, #16
  86 0036 02F8011D 		strb	r1, [r2, #-1]!
  87              	.LVL6:
  88              	.LBB47:
  89              	.LBB48:
 609:Generated_Source\PSoC6/I2C_MAX.h **** }
  90              		.loc 2 609 0
  91 003a 0095     		str	r5, [sp]
  92 003c 6423     		movs	r3, #100
  93 003e 2046     		mov	r0, r4
  94 0040 FFF7FEFF 		bl	Cy_SCB_I2C_MasterReadByte
  95              	.LVL7:
  96              	.LBE48:
  97              	.LBE47:
ARM GAS  C:\Users\markm\AppData\Local\Temp\ccA1bc6D.s 			page 14


  98              	.LBB49:
  99              	.LBB50:
 596:Generated_Source\PSoC6/I2C_MAX.h **** }
 100              		.loc 2 596 0
 101 0044 2A46     		mov	r2, r5
 102 0046 6421     		movs	r1, #100
 103 0048 2046     		mov	r0, r4
 104 004a FFF7FEFF 		bl	Cy_SCB_I2C_MasterSendStop
 105              	.LVL8:
 106              	.LBE50:
 107              	.LBE49:
  21:Max30102_task.c ****     I2C_MAX_MasterReadByte(CY_SCB_I2C_MASTER_DATA_NAK,(uint8_t*)&regValue,100);
  22:Max30102_task.c ****     I2C_MAX_MasterSendStop(100);  
  23:Max30102_task.c ****     return regValue;
  24:Max30102_task.c **** }
 108              		.loc 1 24 0
 109 004e 9DF80F00 		ldrb	r0, [sp, #15]	@ zero_extendqisi2
 110 0052 04B0     		add	sp, sp, #16
 111              		.cfi_def_cfa_offset 16
 112              		@ sp needed
 113 0054 70BD     		pop	{r4, r5, r6, pc}
 114              	.L4:
 115 0056 00BF     		.align	2
 116              	.L3:
 117 0058 00006340 		.word	1080229888
 118 005c 00000000 		.word	I2C_MAX_context
 119              		.cfi_endproc
 120              	.LFE693:
 121              		.size	read_Register, .-read_Register
 122              		.section	.text.write_Register,"ax",%progbits
 123              		.align	2
 124              		.global	write_Register
 125              		.thumb
 126              		.thumb_func
 127              		.type	write_Register, %function
 128              	write_Register:
 129              	.LFB694:
  25:Max30102_task.c **** 
  26:Max30102_task.c **** void write_Register(uint8_t address, uint8_t data)      //adress du register et data qu'on veut wri
  27:Max30102_task.c **** { 
 130              		.loc 1 27 0
 131              		.cfi_startproc
 132              		@ args = 0, pretend = 0, frame = 0
 133              		@ frame_needed = 0, uses_anonymous_args = 0
 134              	.LVL9:
 135 0000 F0B5     		push	{r4, r5, r6, r7, lr}
 136              		.cfi_def_cfa_offset 20
 137              		.cfi_offset 4, -20
 138              		.cfi_offset 5, -16
 139              		.cfi_offset 6, -12
 140              		.cfi_offset 7, -8
 141              		.cfi_offset 14, -4
 142 0002 83B0     		sub	sp, sp, #12
 143              		.cfi_def_cfa_offset 32
 144 0004 0746     		mov	r7, r0
 145 0006 0E46     		mov	r6, r1
 146              	.LVL10:
ARM GAS  C:\Users\markm\AppData\Local\Temp\ccA1bc6D.s 			page 15


 147              	.LBB51:
 148              	.LBB52:
 570:Generated_Source\PSoC6/I2C_MAX.h **** }
 149              		.loc 2 570 0
 150 0008 0D4C     		ldr	r4, .L7
 151 000a 0E4D     		ldr	r5, .L7+4
 152 000c 0095     		str	r5, [sp]
 153 000e 6423     		movs	r3, #100
 154 0010 0022     		movs	r2, #0
 155 0012 5721     		movs	r1, #87
 156              	.LVL11:
 157 0014 2046     		mov	r0, r4
 158              	.LVL12:
 159 0016 FFF7FEFF 		bl	Cy_SCB_I2C_MasterSendStart
 160              	.LVL13:
 161              	.LBE52:
 162              	.LBE51:
 163              	.LBB53:
 164              	.LBB54:
 165              		.loc 2 622 0
 166 001a 2B46     		mov	r3, r5
 167 001c 6422     		movs	r2, #100
 168 001e 3946     		mov	r1, r7
 169 0020 2046     		mov	r0, r4
 170 0022 FFF7FEFF 		bl	Cy_SCB_I2C_MasterWriteByte
 171              	.LVL14:
 172              	.LBE54:
 173              	.LBE53:
 174              	.LBB55:
 175              	.LBB56:
 176 0026 2B46     		mov	r3, r5
 177 0028 6422     		movs	r2, #100
 178 002a 3146     		mov	r1, r6
 179 002c 2046     		mov	r0, r4
 180 002e FFF7FEFF 		bl	Cy_SCB_I2C_MasterWriteByte
 181              	.LVL15:
 182              	.LBE56:
 183              	.LBE55:
 184              	.LBB57:
 185              	.LBB58:
 596:Generated_Source\PSoC6/I2C_MAX.h **** }
 186              		.loc 2 596 0
 187 0032 2A46     		mov	r2, r5
 188 0034 6421     		movs	r1, #100
 189 0036 2046     		mov	r0, r4
 190 0038 FFF7FEFF 		bl	Cy_SCB_I2C_MasterSendStop
 191              	.LVL16:
 192              	.LBE58:
 193              	.LBE57:
  28:Max30102_task.c ****     I2C_MAX_MasterSendStart(I2C_ADDRESS,CY_SCB_I2C_WRITE_XFER,100);
  29:Max30102_task.c ****     I2C_MAX_MasterWriteByte(address,100);        
  30:Max30102_task.c ****     I2C_MAX_MasterWriteByte(data,100);         
  31:Max30102_task.c ****     I2C_MAX_MasterSendStop(100);   
  32:Max30102_task.c ****     
  33:Max30102_task.c **** }
 194              		.loc 1 33 0
 195 003c 03B0     		add	sp, sp, #12
ARM GAS  C:\Users\markm\AppData\Local\Temp\ccA1bc6D.s 			page 16


 196              		.cfi_def_cfa_offset 20
 197              		@ sp needed
 198 003e F0BD     		pop	{r4, r5, r6, r7, pc}
 199              	.L8:
 200              		.align	2
 201              	.L7:
 202 0040 00006340 		.word	1080229888
 203 0044 00000000 		.word	I2C_MAX_context
 204              		.cfi_endproc
 205              	.LFE694:
 206              		.size	write_Register, .-write_Register
 207              		.section	.text.readMultipleBytes,"ax",%progbits
 208              		.align	2
 209              		.global	readMultipleBytes
 210              		.thumb
 211              		.thumb_func
 212              		.type	readMultipleBytes, %function
 213              	readMultipleBytes:
 214              	.LFB695:
  34:Max30102_task.c **** 
  35:Max30102_task.c **** void readMultipleBytes(uint8_t baseAddress, uint8_t *buffer, uint8_t length)    //baseAddress du re
  36:Max30102_task.c **** {
 215              		.loc 1 36 0
 216              		.cfi_startproc
 217              		@ args = 0, pretend = 0, frame = 0
 218              		@ frame_needed = 0, uses_anonymous_args = 0
 219              	.LVL17:
 220 0000 2DE9F041 		push	{r4, r5, r6, r7, r8, lr}
 221              		.cfi_def_cfa_offset 24
 222              		.cfi_offset 4, -24
 223              		.cfi_offset 5, -20
 224              		.cfi_offset 6, -16
 225              		.cfi_offset 7, -12
 226              		.cfi_offset 8, -8
 227              		.cfi_offset 14, -4
 228 0004 82B0     		sub	sp, sp, #8
 229              		.cfi_def_cfa_offset 32
 230 0006 8046     		mov	r8, r0
 231 0008 0D46     		mov	r5, r1
 232 000a 1646     		mov	r6, r2
 233              	.LVL18:
 234              	.LBB59:
 235              	.LBB60:
 570:Generated_Source\PSoC6/I2C_MAX.h **** }
 236              		.loc 2 570 0
 237 000c 1A4C     		ldr	r4, .L13
 238 000e 1B4F     		ldr	r7, .L13+4
 239 0010 0097     		str	r7, [sp]
 240 0012 6423     		movs	r3, #100
 241 0014 0022     		movs	r2, #0
 242              	.LVL19:
 243 0016 5721     		movs	r1, #87
 244              	.LVL20:
 245 0018 2046     		mov	r0, r4
 246              	.LVL21:
 247 001a FFF7FEFF 		bl	Cy_SCB_I2C_MasterSendStart
 248              	.LVL22:
ARM GAS  C:\Users\markm\AppData\Local\Temp\ccA1bc6D.s 			page 17


 249              	.LBE60:
 250              	.LBE59:
 251              	.LBB61:
 252              	.LBB62:
 253              		.loc 2 622 0
 254 001e 3B46     		mov	r3, r7
 255 0020 6422     		movs	r2, #100
 256 0022 4146     		mov	r1, r8
 257 0024 2046     		mov	r0, r4
 258 0026 FFF7FEFF 		bl	Cy_SCB_I2C_MasterWriteByte
 259              	.LVL23:
 260              	.LBE62:
 261              	.LBE61:
 262              	.LBB63:
 263              	.LBB64:
 583:Generated_Source\PSoC6/I2C_MAX.h **** }
 264              		.loc 2 583 0
 265 002a 0097     		str	r7, [sp]
 266 002c 6423     		movs	r3, #100
 267 002e 0122     		movs	r2, #1
 268 0030 5721     		movs	r1, #87
 269 0032 2046     		mov	r0, r4
 270 0034 FFF7FEFF 		bl	Cy_SCB_I2C_MasterSendReStart
 271              	.LVL24:
 272              	.LBE64:
 273              	.LBE63:
  37:Max30102_task.c ****         I2C_MAX_MasterSendStart( I2C_ADDRESS,CY_SCB_I2C_WRITE_XFER,100); 
  38:Max30102_task.c ****         I2C_MAX_MasterWriteByte(baseAddress,100);       
  39:Max30102_task.c ****         I2C_MAX_MasterSendReStart( I2C_ADDRESS,CY_SCB_I2C_READ_XFER,100);
  40:Max30102_task.c ****         uint8_t idx = 0;
  41:Max30102_task.c ****         for(idx=0 ; idx < length-1 ; idx++){ 
 274              		.loc 1 41 0
 275 0038 0024     		movs	r4, #0
 276 003a 09E0     		b	.L10
 277              	.LVL25:
 278              	.L11:
 279              	.LBB65:
 280              	.LBB66:
 609:Generated_Source\PSoC6/I2C_MAX.h **** }
 281              		.loc 2 609 0 discriminator 3
 282 003c 0F4B     		ldr	r3, .L13+4
 283 003e 0093     		str	r3, [sp]
 284 0040 6423     		movs	r3, #100
 285 0042 2A19     		adds	r2, r5, r4
 286              	.LVL26:
 287 0044 0021     		movs	r1, #0
 288 0046 0C48     		ldr	r0, .L13
 289 0048 FFF7FEFF 		bl	Cy_SCB_I2C_MasterReadByte
 290              	.LVL27:
 291              	.LBE66:
 292              	.LBE65:
 293              		.loc 1 41 0 discriminator 3
 294 004c 0134     		adds	r4, r4, #1
 295              	.LVL28:
 296 004e E4B2     		uxtb	r4, r4
 297              	.LVL29:
 298              	.L10:
ARM GAS  C:\Users\markm\AppData\Local\Temp\ccA1bc6D.s 			page 18


 299              		.loc 1 41 0 is_stmt 0 discriminator 1
 300 0050 731E     		subs	r3, r6, #1
 301 0052 9C42     		cmp	r4, r3
 302 0054 F2DB     		blt	.L11
 303              	.LVL30:
 304              	.LBB67:
 305              	.LBB68:
 609:Generated_Source\PSoC6/I2C_MAX.h **** }
 306              		.loc 2 609 0 is_stmt 1
 307 0056 084E     		ldr	r6, .L13
 308 0058 084F     		ldr	r7, .L13+4
 309 005a 0097     		str	r7, [sp]
 310 005c 6423     		movs	r3, #100
 311 005e 2A19     		adds	r2, r5, r4
 312              	.LVL31:
 313 0060 0121     		movs	r1, #1
 314 0062 3046     		mov	r0, r6
 315 0064 FFF7FEFF 		bl	Cy_SCB_I2C_MasterReadByte
 316              	.LVL32:
 317              	.LBE68:
 318              	.LBE67:
 319              	.LBB69:
 320              	.LBB70:
 596:Generated_Source\PSoC6/I2C_MAX.h **** }
 321              		.loc 2 596 0
 322 0068 3A46     		mov	r2, r7
 323 006a 6421     		movs	r1, #100
 324 006c 3046     		mov	r0, r6
 325 006e FFF7FEFF 		bl	Cy_SCB_I2C_MasterSendStop
 326              	.LVL33:
 327              	.LBE70:
 328              	.LBE69:
  42:Max30102_task.c ****             I2C_MAX_MasterReadByte(CY_SCB_I2C_ACK,(uint8_t*)&buffer[idx],100);  
  43:Max30102_task.c ****         }
  44:Max30102_task.c ****         I2C_MAX_MasterReadByte(CY_SCB_I2C_NAK,(uint8_t*)&buffer[idx],100);
  45:Max30102_task.c ****         I2C_MAX_MasterSendStop(100); 
  46:Max30102_task.c **** }
 329              		.loc 1 46 0
 330 0072 02B0     		add	sp, sp, #8
 331              		.cfi_def_cfa_offset 24
 332              		@ sp needed
 333 0074 BDE8F081 		pop	{r4, r5, r6, r7, r8, pc}
 334              	.LVL34:
 335              	.L14:
 336              		.align	2
 337              	.L13:
 338 0078 00006340 		.word	1080229888
 339 007c 00000000 		.word	I2C_MAX_context
 340              		.cfi_endproc
 341              	.LFE695:
 342              		.size	readMultipleBytes, .-readMultipleBytes
 343              		.section	.text.max30102_init,"ax",%progbits
 344              		.align	2
 345              		.global	max30102_init
 346              		.thumb
 347              		.thumb_func
 348              		.type	max30102_init, %function
ARM GAS  C:\Users\markm\AppData\Local\Temp\ccA1bc6D.s 			page 19


 349              	max30102_init:
 350              	.LFB696:
  47:Max30102_task.c **** 
  48:Max30102_task.c **** void max30102_init()
  49:Max30102_task.c **** {
 351              		.loc 1 49 0
 352              		.cfi_startproc
 353              		@ args = 0, pretend = 0, frame = 0
 354              		@ frame_needed = 0, uses_anonymous_args = 0
 355 0000 08B5     		push	{r3, lr}
 356              		.cfi_def_cfa_offset 8
 357              		.cfi_offset 3, -8
 358              		.cfi_offset 14, -4
  50:Max30102_task.c ****     //I2C init
  51:Max30102_task.c ****     I2C_MAX_Start();   
 359              		.loc 1 51 0
 360 0002 FFF7FEFF 		bl	I2C_MAX_Start
 361              	.LVL35:
  52:Max30102_task.c ****     write_Register(REG_INTR_ENABLE_1, 0b01000000);  //reset le config au default
 362              		.loc 1 52 0
 363 0006 4021     		movs	r1, #64
 364 0008 0220     		movs	r0, #2
 365 000a FFF7FEFF 		bl	write_Register
 366              	.LVL36:
  53:Max30102_task.c ****     CyDelay(1000);
 367              		.loc 1 53 0
 368 000e 4FF47A70 		mov	r0, #1000
 369 0012 FFF7FEFF 		bl	Cy_SysLib_Delay
 370              	.LVL37:
  54:Max30102_task.c ****     
  55:Max30102_task.c ****     //Config init
  56:Max30102_task.c ****     write_Register(REG_INTR_ENABLE_1, 0b11000000);
 371              		.loc 1 56 0
 372 0016 C021     		movs	r1, #192
 373 0018 0220     		movs	r0, #2
 374 001a FFF7FEFF 		bl	write_Register
 375              	.LVL38:
  57:Max30102_task.c ****     write_Register(REG_INTR_ENABLE_2, 0b00000000);
 376              		.loc 1 57 0
 377 001e 0021     		movs	r1, #0
 378 0020 0320     		movs	r0, #3
 379 0022 FFF7FEFF 		bl	write_Register
 380              	.LVL39:
  58:Max30102_task.c ****     write_Register(REG_FIFO_WR_PTR, 0b00000000);    //on utilise pas les pointers
 381              		.loc 1 58 0
 382 0026 0021     		movs	r1, #0
 383 0028 0420     		movs	r0, #4
 384 002a FFF7FEFF 		bl	write_Register
 385              	.LVL40:
  59:Max30102_task.c ****     write_Register(REG_OVF_COUNTER, 0b00000000);
 386              		.loc 1 59 0
 387 002e 0021     		movs	r1, #0
 388 0030 0520     		movs	r0, #5
 389 0032 FFF7FEFF 		bl	write_Register
 390              	.LVL41:
  60:Max30102_task.c ****     write_Register(REG_FIFO_RD_PTR, 0b00000000);
 391              		.loc 1 60 0
ARM GAS  C:\Users\markm\AppData\Local\Temp\ccA1bc6D.s 			page 20


 392 0036 0021     		movs	r1, #0
 393 0038 0620     		movs	r0, #6
 394 003a FFF7FEFF 		bl	write_Register
 395              	.LVL42:
  61:Max30102_task.c ****     //write_Register(REG_FIFO_DATA, 0xc0);      //acquisition des donnes ds FIFO_DATA, so rien a 
  62:Max30102_task.c ****     write_Register(REG_FIFO_CONFIG, 0b00001111); //sample average = 000 (no averaging) / FIFO_ROLLO
 396              		.loc 1 62 0
 397 003e 0F21     		movs	r1, #15
 398 0040 0820     		movs	r0, #8
 399 0042 FFF7FEFF 		bl	write_Register
 400              	.LVL43:
  63:Max30102_task.c ****     write_Register(REG_MODE_CONFIG, 0b00000011); //MODE[2:0] = 011 pr SpO2, donc RED et IR     
 401              		.loc 1 63 0
 402 0046 0321     		movs	r1, #3
 403 0048 0920     		movs	r0, #9
 404 004a FFF7FEFF 		bl	write_Register
 405              	.LVL44:
  64:Max30102_task.c ****     write_Register(REG_SPO2_CONFIG, 0b00100111); //ADC range = 4096nA (01), sample rate = 100Hz(001
 406              		.loc 1 64 0
 407 004e 2721     		movs	r1, #39
 408 0050 0A20     		movs	r0, #10
 409 0052 FFF7FEFF 		bl	write_Register
 410              	.LVL45:
  65:Max30102_task.c ****     write_Register(REG_LED1_PA, 0b00100100);  //8bits varie de 0  255, 0=0ma et 255=51ma
 411              		.loc 1 65 0
 412 0056 2421     		movs	r1, #36
 413 0058 0C20     		movs	r0, #12
 414 005a FFF7FEFF 		bl	write_Register
 415              	.LVL46:
  66:Max30102_task.c ****     write_Register(REG_LED2_PA, 0b00100100);  //donc ici on a 7.2mA (54 en binaire)
 416              		.loc 1 66 0
 417 005e 2421     		movs	r1, #36
 418 0060 0D20     		movs	r0, #13
 419 0062 FFF7FEFF 		bl	write_Register
 420              	.LVL47:
  67:Max30102_task.c **** 
  68:Max30102_task.c ****     read_Register(0x00);       //lecture d'initialisation pour enlever le interrupt
 421              		.loc 1 68 0
 422 0066 0020     		movs	r0, #0
 423 0068 FFF7FEFF 		bl	read_Register
 424              	.LVL48:
 425 006c 08BD     		pop	{r3, pc}
 426              		.cfi_endproc
 427              	.LFE696:
 428              		.size	max30102_init, .-max30102_init
 429 006e 00BF     		.section	.text.readFIFOData,"ax",%progbits
 430              		.align	2
 431              		.global	readFIFOData
 432              		.thumb
 433              		.thumb_func
 434              		.type	readFIFOData, %function
 435              	readFIFOData:
 436              	.LFB697:
  69:Max30102_task.c ****     
  70:Max30102_task.c **** }
  71:Max30102_task.c **** 
  72:Max30102_task.c **** void readFIFOData(uint32_t *bufferRED,uint32_t* bufferIR){          //acquisition de 24bit de data 
ARM GAS  C:\Users\markm\AppData\Local\Temp\ccA1bc6D.s 			page 21


 437              		.loc 1 72 0
 438              		.cfi_startproc
 439              		@ args = 0, pretend = 0, frame = 8
 440              		@ frame_needed = 0, uses_anonymous_args = 0
 441              	.LVL49:
 442 0000 30B5     		push	{r4, r5, lr}
 443              		.cfi_def_cfa_offset 12
 444              		.cfi_offset 4, -12
 445              		.cfi_offset 5, -8
 446              		.cfi_offset 14, -4
 447 0002 83B0     		sub	sp, sp, #12
 448              		.cfi_def_cfa_offset 24
 449 0004 0546     		mov	r5, r0
 450 0006 0C46     		mov	r4, r1
  73:Max30102_task.c **** 
  74:Max30102_task.c ****     uint8_t buffer[6];
  75:Max30102_task.c ****     
  76:Max30102_task.c ****     readMultipleBytes(REG_FIFO_DATA,buffer,6);
 451              		.loc 1 76 0
 452 0008 0622     		movs	r2, #6
 453 000a 6946     		mov	r1, sp
 454              	.LVL50:
 455 000c 0720     		movs	r0, #7
 456              	.LVL51:
 457 000e FFF7FEFF 		bl	readMultipleBytes
 458              	.LVL52:
  77:Max30102_task.c ****     
  78:Max30102_task.c ****     *bufferRED = ((buffer[0]&0b00000011)<<16) + (buffer[1]<<8) + buffer[2];
 459              		.loc 1 78 0
 460 0012 9DF80030 		ldrb	r3, [sp]	@ zero_extendqisi2
 461 0016 1B04     		lsls	r3, r3, #16
 462 0018 03F44033 		and	r3, r3, #196608
 463 001c 9DF80120 		ldrb	r2, [sp, #1]	@ zero_extendqisi2
 464 0020 03EB0223 		add	r3, r3, r2, lsl #8
 465 0024 9DF80220 		ldrb	r2, [sp, #2]	@ zero_extendqisi2
 466 0028 1344     		add	r3, r3, r2
 467 002a 2B60     		str	r3, [r5]
  79:Max30102_task.c ****     *bufferIR = ((buffer[3]&0b00000011)<<16) + (buffer[4]<<8) + buffer[5];
 468              		.loc 1 79 0
 469 002c 9DF80330 		ldrb	r3, [sp, #3]	@ zero_extendqisi2
 470 0030 1B04     		lsls	r3, r3, #16
 471 0032 03F44033 		and	r3, r3, #196608
 472 0036 9DF80420 		ldrb	r2, [sp, #4]	@ zero_extendqisi2
 473 003a 03EB0223 		add	r3, r3, r2, lsl #8
 474 003e 9DF80520 		ldrb	r2, [sp, #5]	@ zero_extendqisi2
 475 0042 1344     		add	r3, r3, r2
 476 0044 2360     		str	r3, [r4]
  80:Max30102_task.c ****     
  81:Max30102_task.c **** }
 477              		.loc 1 81 0
 478 0046 03B0     		add	sp, sp, #12
 479              		.cfi_def_cfa_offset 12
 480              		@ sp needed
 481 0048 30BD     		pop	{r4, r5, pc}
 482              		.cfi_endproc
 483              	.LFE697:
 484              		.size	readFIFOData, .-readFIFOData
ARM GAS  C:\Users\markm\AppData\Local\Temp\ccA1bc6D.s 			page 22


 485 004a 00BF     		.section	.text.read_data_ISR_fct,"ax",%progbits
 486              		.align	2
 487              		.global	read_data_ISR_fct
 488              		.thumb
 489              		.thumb_func
 490              		.type	read_data_ISR_fct, %function
 491              	read_data_ISR_fct:
 492              	.LFB698:
  82:Max30102_task.c **** 
  83:Max30102_task.c **** void read_data_ISR_fct()
  84:Max30102_task.c **** {
 493              		.loc 1 84 0
 494              		.cfi_startproc
 495              		@ args = 0, pretend = 0, frame = 0
 496              		@ frame_needed = 0, uses_anonymous_args = 0
 497 0000 10B5     		push	{r4, lr}
 498              		.cfi_def_cfa_offset 8
 499              		.cfi_offset 4, -8
 500              		.cfi_offset 14, -4
  85:Max30102_task.c ****     
  86:Max30102_task.c ****     readFIFOData(&bufferRED[indexWrite],&bufferIR[indexWrite]);
 501              		.loc 1 86 0
 502 0002 1A4C     		ldr	r4, .L23
 503 0004 2388     		ldrh	r3, [r4]
 504 0006 9B00     		lsls	r3, r3, #2
 505 0008 1949     		ldr	r1, .L23+4
 506 000a 1944     		add	r1, r1, r3
 507 000c 1948     		ldr	r0, .L23+8
 508 000e 1844     		add	r0, r0, r3
 509 0010 FFF7FEFF 		bl	readFIFOData
 510              	.LVL53:
  87:Max30102_task.c ****     indexWrite++;
 511              		.loc 1 87 0
 512 0014 2388     		ldrh	r3, [r4]
 513 0016 0133     		adds	r3, r3, #1
 514 0018 9BB2     		uxth	r3, r3
 515 001a 2380     		strh	r3, [r4]	@ movhi
  88:Max30102_task.c ****     
  89:Max30102_task.c ****     if(indexWrite%size_traitement==0)
 516              		.loc 1 89 0
 517 001c 164A     		ldr	r2, .L23+12
 518 001e 82FB0312 		smull	r1, r2, r2, r3
 519 0022 1211     		asrs	r2, r2, #4
 520 0024 40F2EE21 		movw	r1, #750
 521 0028 01FB1232 		mls	r2, r1, r2, r3
 522 002c 42B9     		cbnz	r2, .L20
  90:Max30102_task.c ****     {
  91:Max30102_task.c ****         flag = true;
 523              		.loc 1 91 0
 524 002e 0121     		movs	r1, #1
 525 0030 A170     		strb	r1, [r4, #2]
  92:Max30102_task.c ****         idxB=indexWrite;
 526              		.loc 1 92 0
 527 0032 A380     		strh	r3, [r4, #4]	@ movhi
  93:Max30102_task.c ****         
  94:Max30102_task.c ****         if (indexWrite == 1500){
 528              		.loc 1 94 0
ARM GAS  C:\Users\markm\AppData\Local\Temp\ccA1bc6D.s 			page 23


 529 0034 40F2DC52 		movw	r2, #1500
 530 0038 9342     		cmp	r3, r2
 531 003a 01D1     		bne	.L20
  95:Max30102_task.c ****         indexWrite=0;}
 532              		.loc 1 95 0
 533 003c 0022     		movs	r2, #0
 534 003e 2280     		strh	r2, [r4]	@ movhi
 535              	.L20:
 536              	.LVL54:
 537              	.LBB71:
 538              	.LBB72:
 539              		.file 3 "Generated_Source\\PSoC6\\pdl\\drivers/peripheral/gpio/cy_gpio.h"
   1:Generated_Source\PSoC6\pdl\drivers/peripheral/gpio/cy_gpio.h **** /***************************************************************************//**
   2:Generated_Source\PSoC6\pdl\drivers/peripheral/gpio/cy_gpio.h **** * \file cy_gpio.h
   3:Generated_Source\PSoC6\pdl\drivers/peripheral/gpio/cy_gpio.h **** * \version 1.20
   4:Generated_Source\PSoC6\pdl\drivers/peripheral/gpio/cy_gpio.h **** *
   5:Generated_Source\PSoC6\pdl\drivers/peripheral/gpio/cy_gpio.h **** * Provides an API declaration of the GPIO driver
   6:Generated_Source\PSoC6\pdl\drivers/peripheral/gpio/cy_gpio.h **** *
   7:Generated_Source\PSoC6\pdl\drivers/peripheral/gpio/cy_gpio.h **** ********************************************************************************
   8:Generated_Source\PSoC6\pdl\drivers/peripheral/gpio/cy_gpio.h **** * \copyright
   9:Generated_Source\PSoC6\pdl\drivers/peripheral/gpio/cy_gpio.h **** * Copyright 2016-2018, Cypress Semiconductor Corporation. All rights reserved.
  10:Generated_Source\PSoC6\pdl\drivers/peripheral/gpio/cy_gpio.h **** * You may use this file only in accordance with the license, terms, conditions,
  11:Generated_Source\PSoC6\pdl\drivers/peripheral/gpio/cy_gpio.h **** * disclaimers, and limitations in the end user license agreement accompanying
  12:Generated_Source\PSoC6\pdl\drivers/peripheral/gpio/cy_gpio.h **** * the software package with which this file was provided.
  13:Generated_Source\PSoC6\pdl\drivers/peripheral/gpio/cy_gpio.h **** *******************************************************************************/
  14:Generated_Source\PSoC6\pdl\drivers/peripheral/gpio/cy_gpio.h **** 
  15:Generated_Source\PSoC6\pdl\drivers/peripheral/gpio/cy_gpio.h **** /**
  16:Generated_Source\PSoC6\pdl\drivers/peripheral/gpio/cy_gpio.h **** * \addtogroup group_gpio
  17:Generated_Source\PSoC6\pdl\drivers/peripheral/gpio/cy_gpio.h **** * \{
  18:Generated_Source\PSoC6\pdl\drivers/peripheral/gpio/cy_gpio.h **** * The GPIO driver provides an API to configure and access device Input/Output pins.
  19:Generated_Source\PSoC6\pdl\drivers/peripheral/gpio/cy_gpio.h **** *
  20:Generated_Source\PSoC6\pdl\drivers/peripheral/gpio/cy_gpio.h **** * The functions and other declarations used in this driver are in cy_gpio.h. 
  21:Generated_Source\PSoC6\pdl\drivers/peripheral/gpio/cy_gpio.h **** * You can include cy_pdl.h (ModusToolbox only) to get access to all functions 
  22:Generated_Source\PSoC6\pdl\drivers/peripheral/gpio/cy_gpio.h **** * and declarations in the PDL.
  23:Generated_Source\PSoC6\pdl\drivers/peripheral/gpio/cy_gpio.h **** *
  24:Generated_Source\PSoC6\pdl\drivers/peripheral/gpio/cy_gpio.h **** * IO pins include all general purpose types such as GPIO, SIO, HSIO, AUXIO, and
  25:Generated_Source\PSoC6\pdl\drivers/peripheral/gpio/cy_gpio.h **** * their variants.
  26:Generated_Source\PSoC6\pdl\drivers/peripheral/gpio/cy_gpio.h **** *
  27:Generated_Source\PSoC6\pdl\drivers/peripheral/gpio/cy_gpio.h **** * Initialization can be performed either at the port level or by configuring the
  28:Generated_Source\PSoC6\pdl\drivers/peripheral/gpio/cy_gpio.h **** * individual pins. For efficient use of code space, port
  29:Generated_Source\PSoC6\pdl\drivers/peripheral/gpio/cy_gpio.h **** * configuration should be used in the field. Refer to the product device header files 
  30:Generated_Source\PSoC6\pdl\drivers/peripheral/gpio/cy_gpio.h **** * for the list of supported ports and pins.
  31:Generated_Source\PSoC6\pdl\drivers/peripheral/gpio/cy_gpio.h **** * 
  32:Generated_Source\PSoC6\pdl\drivers/peripheral/gpio/cy_gpio.h **** * - Single pin configuration is performed by using \ref Cy_GPIO_Pin_FastInit 
  33:Generated_Source\PSoC6\pdl\drivers/peripheral/gpio/cy_gpio.h **** *   (provide specific values) or \ref Cy_GPIO_Pin_Init (provide a filled
  34:Generated_Source\PSoC6\pdl\drivers/peripheral/gpio/cy_gpio.h **** *   cy_stc_gpio_pin_config_t structure).
  35:Generated_Source\PSoC6\pdl\drivers/peripheral/gpio/cy_gpio.h **** * - An entire port can be configured using \ref Cy_GPIO_Port_Init. Provide a filled 
  36:Generated_Source\PSoC6\pdl\drivers/peripheral/gpio/cy_gpio.h **** *   cy_stc_gpio_prt_config_t structure. The values in the structure are 
  37:Generated_Source\PSoC6\pdl\drivers/peripheral/gpio/cy_gpio.h **** *   bitfields representing the desired value for each pin in the port.
  38:Generated_Source\PSoC6\pdl\drivers/peripheral/gpio/cy_gpio.h **** * - Pin configuration and management is based on the port address and pin number.
  39:Generated_Source\PSoC6\pdl\drivers/peripheral/gpio/cy_gpio.h **** *   \ref Cy_GPIO_PortToAddr function can optionally be used to calculate the port
  40:Generated_Source\PSoC6\pdl\drivers/peripheral/gpio/cy_gpio.h **** *   address from the port number at run-time.
  41:Generated_Source\PSoC6\pdl\drivers/peripheral/gpio/cy_gpio.h **** *
  42:Generated_Source\PSoC6\pdl\drivers/peripheral/gpio/cy_gpio.h **** * Once the pin/port initialization is complete, each pin can be accessed by 
  43:Generated_Source\PSoC6\pdl\drivers/peripheral/gpio/cy_gpio.h **** * specifying the port (GPIO_PRT_Type) and the pin (0-7) in the provided API 
  44:Generated_Source\PSoC6\pdl\drivers/peripheral/gpio/cy_gpio.h **** * functions.
  45:Generated_Source\PSoC6\pdl\drivers/peripheral/gpio/cy_gpio.h **** *
ARM GAS  C:\Users\markm\AppData\Local\Temp\ccA1bc6D.s 			page 24


  46:Generated_Source\PSoC6\pdl\drivers/peripheral/gpio/cy_gpio.h **** * \section group_gpio_configuration Configuration Considerations
  47:Generated_Source\PSoC6\pdl\drivers/peripheral/gpio/cy_gpio.h **** *
  48:Generated_Source\PSoC6\pdl\drivers/peripheral/gpio/cy_gpio.h **** * 1. Pin multiplexing is controlled through the High-Speed IO Matrix (HSIOM) selection.
  49:Generated_Source\PSoC6\pdl\drivers/peripheral/gpio/cy_gpio.h **** *    This allows the pin to connect to signal sources/sinks throughout the device,
  50:Generated_Source\PSoC6\pdl\drivers/peripheral/gpio/cy_gpio.h **** *    as defined by the pin HSIOM selection options (en_hsiom_sel_t).
  51:Generated_Source\PSoC6\pdl\drivers/peripheral/gpio/cy_gpio.h **** * 2. All pins are initialized to High-Z drive mode with HSIOM connected to CPU (SW
  52:Generated_Source\PSoC6\pdl\drivers/peripheral/gpio/cy_gpio.h **** *    control digital pin only) at Power-On-Reset(POR).
  53:Generated_Source\PSoC6\pdl\drivers/peripheral/gpio/cy_gpio.h **** * 3. Some API functions perform read-modify-write operations on shared port
  54:Generated_Source\PSoC6\pdl\drivers/peripheral/gpio/cy_gpio.h **** *    registers. These functions are not thread safe and care must be taken when
  55:Generated_Source\PSoC6\pdl\drivers/peripheral/gpio/cy_gpio.h **** *    called by the application.
  56:Generated_Source\PSoC6\pdl\drivers/peripheral/gpio/cy_gpio.h **** * 4. Digital input buffer provides a high-impedance buffer for the external 
  57:Generated_Source\PSoC6\pdl\drivers/peripheral/gpio/cy_gpio.h **** *    digital input. The input buffer is connected to the HSIOM for routing to 
  58:Generated_Source\PSoC6\pdl\drivers/peripheral/gpio/cy_gpio.h **** *    the CPU port registers and selected peripheral. Enabling the input 
  59:Generated_Source\PSoC6\pdl\drivers/peripheral/gpio/cy_gpio.h **** *    buffer provides possibility to read the pin state via the CPU.
  60:Generated_Source\PSoC6\pdl\drivers/peripheral/gpio/cy_gpio.h **** *    If pin is connected to an analog signal, the input buffer should be 
  61:Generated_Source\PSoC6\pdl\drivers/peripheral/gpio/cy_gpio.h **** *    disabled to avoid crowbar currents. For more information refer to device 
  62:Generated_Source\PSoC6\pdl\drivers/peripheral/gpio/cy_gpio.h **** *    TRM and the device datasheet.
  63:Generated_Source\PSoC6\pdl\drivers/peripheral/gpio/cy_gpio.h **** *
  64:Generated_Source\PSoC6\pdl\drivers/peripheral/gpio/cy_gpio.h **** * Multiple pins on a port can be updated using direct port register writes with an
  65:Generated_Source\PSoC6\pdl\drivers/peripheral/gpio/cy_gpio.h **** * appropriate port mask. An example is shown below, highlighting the different ways of 
  66:Generated_Source\PSoC6\pdl\drivers/peripheral/gpio/cy_gpio.h **** * configuring Port 1 pins using:
  67:Generated_Source\PSoC6\pdl\drivers/peripheral/gpio/cy_gpio.h **** * 
  68:Generated_Source\PSoC6\pdl\drivers/peripheral/gpio/cy_gpio.h **** * - Port output data register
  69:Generated_Source\PSoC6\pdl\drivers/peripheral/gpio/cy_gpio.h **** * - Port output data set register
  70:Generated_Source\PSoC6\pdl\drivers/peripheral/gpio/cy_gpio.h **** * - Port output data clear register
  71:Generated_Source\PSoC6\pdl\drivers/peripheral/gpio/cy_gpio.h **** *
  72:Generated_Source\PSoC6\pdl\drivers/peripheral/gpio/cy_gpio.h **** * \snippet gpio/gpio_v1_10_sut_01.cydsn/main_cm4.c Cy_GPIO_Snippet
  73:Generated_Source\PSoC6\pdl\drivers/peripheral/gpio/cy_gpio.h **** *
  74:Generated_Source\PSoC6\pdl\drivers/peripheral/gpio/cy_gpio.h **** * \section group_gpio_more_information More Information
  75:Generated_Source\PSoC6\pdl\drivers/peripheral/gpio/cy_gpio.h **** *
  76:Generated_Source\PSoC6\pdl\drivers/peripheral/gpio/cy_gpio.h **** * Refer to the technical reference manual (TRM) and the device datasheet.
  77:Generated_Source\PSoC6\pdl\drivers/peripheral/gpio/cy_gpio.h **** *
  78:Generated_Source\PSoC6\pdl\drivers/peripheral/gpio/cy_gpio.h **** * \section group_gpio_MISRA MISRA-C Compliance
  79:Generated_Source\PSoC6\pdl\drivers/peripheral/gpio/cy_gpio.h **** * The GPIO driver has the following specific deviations:
  80:Generated_Source\PSoC6\pdl\drivers/peripheral/gpio/cy_gpio.h **** *
  81:Generated_Source\PSoC6\pdl\drivers/peripheral/gpio/cy_gpio.h **** * <table class="doxtable">
  82:Generated_Source\PSoC6\pdl\drivers/peripheral/gpio/cy_gpio.h **** *   <tr>
  83:Generated_Source\PSoC6\pdl\drivers/peripheral/gpio/cy_gpio.h **** *     <th>MISRA Rule</th>
  84:Generated_Source\PSoC6\pdl\drivers/peripheral/gpio/cy_gpio.h **** *     <th>Rule Class (Required/Advisory)</th>
  85:Generated_Source\PSoC6\pdl\drivers/peripheral/gpio/cy_gpio.h **** *     <th>Rule Description</th>
  86:Generated_Source\PSoC6\pdl\drivers/peripheral/gpio/cy_gpio.h **** *     <th>Description of Deviation(s)</th>
  87:Generated_Source\PSoC6\pdl\drivers/peripheral/gpio/cy_gpio.h **** *   </tr>
  88:Generated_Source\PSoC6\pdl\drivers/peripheral/gpio/cy_gpio.h **** *   <tr>
  89:Generated_Source\PSoC6\pdl\drivers/peripheral/gpio/cy_gpio.h **** *     <td>11.4</td>
  90:Generated_Source\PSoC6\pdl\drivers/peripheral/gpio/cy_gpio.h **** *     <td>A</td>
  91:Generated_Source\PSoC6\pdl\drivers/peripheral/gpio/cy_gpio.h **** *     <td>A cast should not be performed between a pointer to object type and
  92:Generated_Source\PSoC6\pdl\drivers/peripheral/gpio/cy_gpio.h **** *         a different pointer to object type.</td>
  93:Generated_Source\PSoC6\pdl\drivers/peripheral/gpio/cy_gpio.h **** *     <td> This code is safe because the elements of both GPIO_PRT_V1_Type and GPIO_PRT_V2_Type 
  94:Generated_Source\PSoC6\pdl\drivers/peripheral/gpio/cy_gpio.h **** *          types have identical alignment.</td>
  95:Generated_Source\PSoC6\pdl\drivers/peripheral/gpio/cy_gpio.h **** *   </tr>
  96:Generated_Source\PSoC6\pdl\drivers/peripheral/gpio/cy_gpio.h **** *   <tr>
  97:Generated_Source\PSoC6\pdl\drivers/peripheral/gpio/cy_gpio.h **** *     <td>16.7</td>
  98:Generated_Source\PSoC6\pdl\drivers/peripheral/gpio/cy_gpio.h **** *     <td>A</td>
  99:Generated_Source\PSoC6\pdl\drivers/peripheral/gpio/cy_gpio.h **** *     <td>A pointer parameter in a function prototype should be declared as pointer 
 100:Generated_Source\PSoC6\pdl\drivers/peripheral/gpio/cy_gpio.h **** *         to const if the pointer is not used to modify the addressed object.</td>
 101:Generated_Source\PSoC6\pdl\drivers/peripheral/gpio/cy_gpio.h **** *     <td>The objects pointed to by the base addresses of the GPIO port are not always modified.
 102:Generated_Source\PSoC6\pdl\drivers/peripheral/gpio/cy_gpio.h **** *         While a const qualifier can be used in select scenarios, it brings little benefit
ARM GAS  C:\Users\markm\AppData\Local\Temp\ccA1bc6D.s 			page 25


 103:Generated_Source\PSoC6\pdl\drivers/peripheral/gpio/cy_gpio.h **** *         in adding this to the affected functions. </td>
 104:Generated_Source\PSoC6\pdl\drivers/peripheral/gpio/cy_gpio.h **** *   </tr>
 105:Generated_Source\PSoC6\pdl\drivers/peripheral/gpio/cy_gpio.h **** * </table>
 106:Generated_Source\PSoC6\pdl\drivers/peripheral/gpio/cy_gpio.h **** *
 107:Generated_Source\PSoC6\pdl\drivers/peripheral/gpio/cy_gpio.h **** * \section group_gpio_changelog Changelog
 108:Generated_Source\PSoC6\pdl\drivers/peripheral/gpio/cy_gpio.h **** * <table class="doxtable">
 109:Generated_Source\PSoC6\pdl\drivers/peripheral/gpio/cy_gpio.h **** *   <tr><th>Version</th><th>Changes</th><th>Reason for Change</th></tr>
 110:Generated_Source\PSoC6\pdl\drivers/peripheral/gpio/cy_gpio.h **** *   <tr>
 111:Generated_Source\PSoC6\pdl\drivers/peripheral/gpio/cy_gpio.h **** *     <td rowspan="3">1.20</td>
 112:Generated_Source\PSoC6\pdl\drivers/peripheral/gpio/cy_gpio.h **** *     <td>Flattened the organization of the driver source code into the single source directory and
 113:Generated_Source\PSoC6\pdl\drivers/peripheral/gpio/cy_gpio.h **** *     <td>Driver library directory-structure simplification.</td>
 114:Generated_Source\PSoC6\pdl\drivers/peripheral/gpio/cy_gpio.h **** *   </tr>
 115:Generated_Source\PSoC6\pdl\drivers/peripheral/gpio/cy_gpio.h **** *   <tr>
 116:Generated_Source\PSoC6\pdl\drivers/peripheral/gpio/cy_gpio.h **** *     <td>Added the functions for configuring the AMux bus splitter switch cells:
 117:Generated_Source\PSoC6\pdl\drivers/peripheral/gpio/cy_gpio.h **** *     - \ref Cy_GPIO_SetAmuxSplit
 118:Generated_Source\PSoC6\pdl\drivers/peripheral/gpio/cy_gpio.h **** *     - \ref Cy_GPIO_GetAmuxSplit
 119:Generated_Source\PSoC6\pdl\drivers/peripheral/gpio/cy_gpio.h **** *     </td>
 120:Generated_Source\PSoC6\pdl\drivers/peripheral/gpio/cy_gpio.h **** *     <td>Added a new functionality related to AMux bus.</td>
 121:Generated_Source\PSoC6\pdl\drivers/peripheral/gpio/cy_gpio.h **** *   </tr>
 122:Generated_Source\PSoC6\pdl\drivers/peripheral/gpio/cy_gpio.h **** *   <tr>
 123:Generated_Source\PSoC6\pdl\drivers/peripheral/gpio/cy_gpio.h **** *     <td>Added register access layer. Use register access macros instead
 124:Generated_Source\PSoC6\pdl\drivers/peripheral/gpio/cy_gpio.h **** *         of direct register access using dereferenced pointers.</td>
 125:Generated_Source\PSoC6\pdl\drivers/peripheral/gpio/cy_gpio.h **** *     <td>Makes register access device-independent, so that the PDL does 
 126:Generated_Source\PSoC6\pdl\drivers/peripheral/gpio/cy_gpio.h **** *         not need to be recompiled for each supported part number.</td>
 127:Generated_Source\PSoC6\pdl\drivers/peripheral/gpio/cy_gpio.h **** *   </tr>
 128:Generated_Source\PSoC6\pdl\drivers/peripheral/gpio/cy_gpio.h **** *   <tr>
 129:Generated_Source\PSoC6\pdl\drivers/peripheral/gpio/cy_gpio.h **** *     <td>1.10.1</td>
 130:Generated_Source\PSoC6\pdl\drivers/peripheral/gpio/cy_gpio.h **** *     <td>Updated description for the functions: \ref Cy_GPIO_GetInterruptStatus, 
 131:Generated_Source\PSoC6\pdl\drivers/peripheral/gpio/cy_gpio.h **** *         \ref Cy_GPIO_GetInterruptMask, \ref Cy_GPIO_GetInterruptStatusMasked.
 132:Generated_Source\PSoC6\pdl\drivers/peripheral/gpio/cy_gpio.h **** *
 133:Generated_Source\PSoC6\pdl\drivers/peripheral/gpio/cy_gpio.h **** *         Minor documentation edits.
 134:Generated_Source\PSoC6\pdl\drivers/peripheral/gpio/cy_gpio.h **** *     </td>
 135:Generated_Source\PSoC6\pdl\drivers/peripheral/gpio/cy_gpio.h **** *     <td>Documentation update and clarification</td>
 136:Generated_Source\PSoC6\pdl\drivers/peripheral/gpio/cy_gpio.h **** *   </tr>
 137:Generated_Source\PSoC6\pdl\drivers/peripheral/gpio/cy_gpio.h **** *   <tr>
 138:Generated_Source\PSoC6\pdl\drivers/peripheral/gpio/cy_gpio.h **** *     <td>1.10</td>
 139:Generated_Source\PSoC6\pdl\drivers/peripheral/gpio/cy_gpio.h **** *     <td>Added input parameter validation to the API functions</td>
 140:Generated_Source\PSoC6\pdl\drivers/peripheral/gpio/cy_gpio.h **** *     <td></td>
 141:Generated_Source\PSoC6\pdl\drivers/peripheral/gpio/cy_gpio.h **** *   </tr>
 142:Generated_Source\PSoC6\pdl\drivers/peripheral/gpio/cy_gpio.h **** *   <tr>
 143:Generated_Source\PSoC6\pdl\drivers/peripheral/gpio/cy_gpio.h **** *     <td>1.0</td>
 144:Generated_Source\PSoC6\pdl\drivers/peripheral/gpio/cy_gpio.h **** *     <td>Initial version</td>
 145:Generated_Source\PSoC6\pdl\drivers/peripheral/gpio/cy_gpio.h **** *     <td></td>
 146:Generated_Source\PSoC6\pdl\drivers/peripheral/gpio/cy_gpio.h **** *   </tr>
 147:Generated_Source\PSoC6\pdl\drivers/peripheral/gpio/cy_gpio.h **** * </table>
 148:Generated_Source\PSoC6\pdl\drivers/peripheral/gpio/cy_gpio.h **** *
 149:Generated_Source\PSoC6\pdl\drivers/peripheral/gpio/cy_gpio.h **** * \defgroup group_gpio_macros Macros
 150:Generated_Source\PSoC6\pdl\drivers/peripheral/gpio/cy_gpio.h **** * \defgroup group_gpio_functions Functions
 151:Generated_Source\PSoC6\pdl\drivers/peripheral/gpio/cy_gpio.h **** * \{
 152:Generated_Source\PSoC6\pdl\drivers/peripheral/gpio/cy_gpio.h **** *   \defgroup group_gpio_functions_init       Initialization Functions
 153:Generated_Source\PSoC6\pdl\drivers/peripheral/gpio/cy_gpio.h **** *   \defgroup group_gpio_functions_gpio       GPIO Functions
 154:Generated_Source\PSoC6\pdl\drivers/peripheral/gpio/cy_gpio.h **** *   \defgroup group_gpio_functions_sio        SIO Functions
 155:Generated_Source\PSoC6\pdl\drivers/peripheral/gpio/cy_gpio.h **** *   \defgroup group_gpio_functions_interrupt  Port Interrupt Functions
 156:Generated_Source\PSoC6\pdl\drivers/peripheral/gpio/cy_gpio.h **** * \}
 157:Generated_Source\PSoC6\pdl\drivers/peripheral/gpio/cy_gpio.h **** * \defgroup group_gpio_data_structures Data Structures
 158:Generated_Source\PSoC6\pdl\drivers/peripheral/gpio/cy_gpio.h **** * \defgroup group_gpio_enums Enumerated Types
 159:Generated_Source\PSoC6\pdl\drivers/peripheral/gpio/cy_gpio.h **** */
ARM GAS  C:\Users\markm\AppData\Local\Temp\ccA1bc6D.s 			page 26


 160:Generated_Source\PSoC6\pdl\drivers/peripheral/gpio/cy_gpio.h **** 
 161:Generated_Source\PSoC6\pdl\drivers/peripheral/gpio/cy_gpio.h **** #if !defined(CY_GPIO_H)
 162:Generated_Source\PSoC6\pdl\drivers/peripheral/gpio/cy_gpio.h **** #define CY_GPIO_H
 163:Generated_Source\PSoC6\pdl\drivers/peripheral/gpio/cy_gpio.h **** 
 164:Generated_Source\PSoC6\pdl\drivers/peripheral/gpio/cy_gpio.h **** #include <stddef.h>
 165:Generated_Source\PSoC6\pdl\drivers/peripheral/gpio/cy_gpio.h **** #include "cy_device.h"
 166:Generated_Source\PSoC6\pdl\drivers/peripheral/gpio/cy_gpio.h **** #include "cy_device_headers.h"
 167:Generated_Source\PSoC6\pdl\drivers/peripheral/gpio/cy_gpio.h **** #include "cy_syslib.h"
 168:Generated_Source\PSoC6\pdl\drivers/peripheral/gpio/cy_gpio.h **** 
 169:Generated_Source\PSoC6\pdl\drivers/peripheral/gpio/cy_gpio.h **** #if defined(__cplusplus)
 170:Generated_Source\PSoC6\pdl\drivers/peripheral/gpio/cy_gpio.h **** extern "C" {
 171:Generated_Source\PSoC6\pdl\drivers/peripheral/gpio/cy_gpio.h **** #endif
 172:Generated_Source\PSoC6\pdl\drivers/peripheral/gpio/cy_gpio.h **** 
 173:Generated_Source\PSoC6\pdl\drivers/peripheral/gpio/cy_gpio.h **** /** \addtogroup group_gpio_macros
 174:Generated_Source\PSoC6\pdl\drivers/peripheral/gpio/cy_gpio.h **** * \{
 175:Generated_Source\PSoC6\pdl\drivers/peripheral/gpio/cy_gpio.h **** */
 176:Generated_Source\PSoC6\pdl\drivers/peripheral/gpio/cy_gpio.h **** 
 177:Generated_Source\PSoC6\pdl\drivers/peripheral/gpio/cy_gpio.h **** /** Driver major version */
 178:Generated_Source\PSoC6\pdl\drivers/peripheral/gpio/cy_gpio.h **** #define CY_GPIO_DRV_VERSION_MAJOR       1
 179:Generated_Source\PSoC6\pdl\drivers/peripheral/gpio/cy_gpio.h **** 
 180:Generated_Source\PSoC6\pdl\drivers/peripheral/gpio/cy_gpio.h **** /** Driver minor version */
 181:Generated_Source\PSoC6\pdl\drivers/peripheral/gpio/cy_gpio.h **** #define CY_GPIO_DRV_VERSION_MINOR       20
 182:Generated_Source\PSoC6\pdl\drivers/peripheral/gpio/cy_gpio.h **** 
 183:Generated_Source\PSoC6\pdl\drivers/peripheral/gpio/cy_gpio.h **** /** GPIO driver ID */
 184:Generated_Source\PSoC6\pdl\drivers/peripheral/gpio/cy_gpio.h **** #define CY_GPIO_ID CY_PDL_DRV_ID(0x16U)
 185:Generated_Source\PSoC6\pdl\drivers/peripheral/gpio/cy_gpio.h **** 
 186:Generated_Source\PSoC6\pdl\drivers/peripheral/gpio/cy_gpio.h **** /** \} group_gpio_macros */
 187:Generated_Source\PSoC6\pdl\drivers/peripheral/gpio/cy_gpio.h **** 
 188:Generated_Source\PSoC6\pdl\drivers/peripheral/gpio/cy_gpio.h **** 
 189:Generated_Source\PSoC6\pdl\drivers/peripheral/gpio/cy_gpio.h **** /***************************************
 190:Generated_Source\PSoC6\pdl\drivers/peripheral/gpio/cy_gpio.h **** *       Enumerations
 191:Generated_Source\PSoC6\pdl\drivers/peripheral/gpio/cy_gpio.h **** ***************************************/
 192:Generated_Source\PSoC6\pdl\drivers/peripheral/gpio/cy_gpio.h **** /**
 193:Generated_Source\PSoC6\pdl\drivers/peripheral/gpio/cy_gpio.h **** * \addtogroup group_gpio_enums
 194:Generated_Source\PSoC6\pdl\drivers/peripheral/gpio/cy_gpio.h **** * \{
 195:Generated_Source\PSoC6\pdl\drivers/peripheral/gpio/cy_gpio.h **** */
 196:Generated_Source\PSoC6\pdl\drivers/peripheral/gpio/cy_gpio.h **** 
 197:Generated_Source\PSoC6\pdl\drivers/peripheral/gpio/cy_gpio.h **** /** GPIO Driver error codes */
 198:Generated_Source\PSoC6\pdl\drivers/peripheral/gpio/cy_gpio.h **** typedef enum 
 199:Generated_Source\PSoC6\pdl\drivers/peripheral/gpio/cy_gpio.h **** {
 200:Generated_Source\PSoC6\pdl\drivers/peripheral/gpio/cy_gpio.h ****     CY_GPIO_SUCCESS   = 0x00U,                                    /**< Returned successful */
 201:Generated_Source\PSoC6\pdl\drivers/peripheral/gpio/cy_gpio.h ****     CY_GPIO_BAD_PARAM = CY_GPIO_ID | CY_PDL_STATUS_ERROR | 0x01U, /**< Bad parameter was passed */
 202:Generated_Source\PSoC6\pdl\drivers/peripheral/gpio/cy_gpio.h **** } cy_en_gpio_status_t;
 203:Generated_Source\PSoC6\pdl\drivers/peripheral/gpio/cy_gpio.h **** 
 204:Generated_Source\PSoC6\pdl\drivers/peripheral/gpio/cy_gpio.h **** /** AMux switch open/close config */
 205:Generated_Source\PSoC6\pdl\drivers/peripheral/gpio/cy_gpio.h **** typedef enum
 206:Generated_Source\PSoC6\pdl\drivers/peripheral/gpio/cy_gpio.h **** {
 207:Generated_Source\PSoC6\pdl\drivers/peripheral/gpio/cy_gpio.h ****     CY_GPIO_AMUX_OPENALL,   /**< Open ground switch. Open right switch. Open left switch */
 208:Generated_Source\PSoC6\pdl\drivers/peripheral/gpio/cy_gpio.h ****     CY_GPIO_AMUX_L,         /**< Open ground switch. Open right switch. Close left switch */
 209:Generated_Source\PSoC6\pdl\drivers/peripheral/gpio/cy_gpio.h ****     CY_GPIO_AMUX_R,         /**< Open ground switch. Close right switch. Open left switch */
 210:Generated_Source\PSoC6\pdl\drivers/peripheral/gpio/cy_gpio.h ****     CY_GPIO_AMUX_LR,        /**< Open ground switch. Close right switch. Close left switch */
 211:Generated_Source\PSoC6\pdl\drivers/peripheral/gpio/cy_gpio.h ****     CY_GPIO_AMUX_G,         /**< Close ground switch. Open right switch. Open left switch */
 212:Generated_Source\PSoC6\pdl\drivers/peripheral/gpio/cy_gpio.h ****     CY_GPIO_AMUX_GL,        /**< Close ground switch. Open right switch. Close left switch */
 213:Generated_Source\PSoC6\pdl\drivers/peripheral/gpio/cy_gpio.h ****     CY_GPIO_AMUX_GR,        /**< Close ground switch. Close right switch. Open left switch */
 214:Generated_Source\PSoC6\pdl\drivers/peripheral/gpio/cy_gpio.h ****     CY_GPIO_AMUX_GLR,       /**< Close ground switch. Close right switch. Close left switch */
 215:Generated_Source\PSoC6\pdl\drivers/peripheral/gpio/cy_gpio.h **** }cy_en_gpio_amuxconnect_t;
 216:Generated_Source\PSoC6\pdl\drivers/peripheral/gpio/cy_gpio.h **** 
ARM GAS  C:\Users\markm\AppData\Local\Temp\ccA1bc6D.s 			page 27


 217:Generated_Source\PSoC6\pdl\drivers/peripheral/gpio/cy_gpio.h **** /**
 218:Generated_Source\PSoC6\pdl\drivers/peripheral/gpio/cy_gpio.h **** * AMux Bus selection
 219:Generated_Source\PSoC6\pdl\drivers/peripheral/gpio/cy_gpio.h **** */
 220:Generated_Source\PSoC6\pdl\drivers/peripheral/gpio/cy_gpio.h **** typedef enum
 221:Generated_Source\PSoC6\pdl\drivers/peripheral/gpio/cy_gpio.h **** {
 222:Generated_Source\PSoC6\pdl\drivers/peripheral/gpio/cy_gpio.h ****     CY_GPIO_AMUXBUSA,       /**< AMuxBus A */
 223:Generated_Source\PSoC6\pdl\drivers/peripheral/gpio/cy_gpio.h ****     CY_GPIO_AMUXBUSB        /**< AMuxBus B */
 224:Generated_Source\PSoC6\pdl\drivers/peripheral/gpio/cy_gpio.h **** }cy_en_gpio_amuxselect_t;
 225:Generated_Source\PSoC6\pdl\drivers/peripheral/gpio/cy_gpio.h **** 
 226:Generated_Source\PSoC6\pdl\drivers/peripheral/gpio/cy_gpio.h **** /** \} group_gpio_enums */
 227:Generated_Source\PSoC6\pdl\drivers/peripheral/gpio/cy_gpio.h **** 
 228:Generated_Source\PSoC6\pdl\drivers/peripheral/gpio/cy_gpio.h **** 
 229:Generated_Source\PSoC6\pdl\drivers/peripheral/gpio/cy_gpio.h **** /***************************************
 230:Generated_Source\PSoC6\pdl\drivers/peripheral/gpio/cy_gpio.h **** *       Configuration Structures
 231:Generated_Source\PSoC6\pdl\drivers/peripheral/gpio/cy_gpio.h **** ***************************************/
 232:Generated_Source\PSoC6\pdl\drivers/peripheral/gpio/cy_gpio.h **** 
 233:Generated_Source\PSoC6\pdl\drivers/peripheral/gpio/cy_gpio.h **** /**
 234:Generated_Source\PSoC6\pdl\drivers/peripheral/gpio/cy_gpio.h **** * \addtogroup group_gpio_data_structures
 235:Generated_Source\PSoC6\pdl\drivers/peripheral/gpio/cy_gpio.h **** * \{
 236:Generated_Source\PSoC6\pdl\drivers/peripheral/gpio/cy_gpio.h **** */
 237:Generated_Source\PSoC6\pdl\drivers/peripheral/gpio/cy_gpio.h **** 
 238:Generated_Source\PSoC6\pdl\drivers/peripheral/gpio/cy_gpio.h **** /** This structure is used to initialize a port of GPIO pins */
 239:Generated_Source\PSoC6\pdl\drivers/peripheral/gpio/cy_gpio.h **** typedef struct 
 240:Generated_Source\PSoC6\pdl\drivers/peripheral/gpio/cy_gpio.h **** {
 241:Generated_Source\PSoC6\pdl\drivers/peripheral/gpio/cy_gpio.h ****     uint32_t out;           /**< Initial output data for the IO pins in the port */
 242:Generated_Source\PSoC6\pdl\drivers/peripheral/gpio/cy_gpio.h ****     uint32_t intrMask;      /**< Interrupt enable mask for the port interrupt */
 243:Generated_Source\PSoC6\pdl\drivers/peripheral/gpio/cy_gpio.h ****     uint32_t intrCfg;       /**< Port pin interrupt edge detection configuration */
 244:Generated_Source\PSoC6\pdl\drivers/peripheral/gpio/cy_gpio.h ****     uint32_t cfg;           /**< Port pin drive modes and input buffer enable configuration */
 245:Generated_Source\PSoC6\pdl\drivers/peripheral/gpio/cy_gpio.h ****     uint32_t cfgIn;         /**< Port pin input buffer configuration */
 246:Generated_Source\PSoC6\pdl\drivers/peripheral/gpio/cy_gpio.h ****     uint32_t cfgOut;        /**< Port pin output buffer configuration */
 247:Generated_Source\PSoC6\pdl\drivers/peripheral/gpio/cy_gpio.h ****     uint32_t cfgSIO;        /**< Port SIO pins configuration */
 248:Generated_Source\PSoC6\pdl\drivers/peripheral/gpio/cy_gpio.h ****     uint32_t sel0Active;    /**< HSIOM selection for port pins 0,1,2,3 */
 249:Generated_Source\PSoC6\pdl\drivers/peripheral/gpio/cy_gpio.h ****     uint32_t sel1Active;    /**< HSIOM selection for port pins 4,5,6,7 */
 250:Generated_Source\PSoC6\pdl\drivers/peripheral/gpio/cy_gpio.h **** } cy_stc_gpio_prt_config_t;
 251:Generated_Source\PSoC6\pdl\drivers/peripheral/gpio/cy_gpio.h **** 
 252:Generated_Source\PSoC6\pdl\drivers/peripheral/gpio/cy_gpio.h **** /** This structure is used to initialize a single GPIO pin */
 253:Generated_Source\PSoC6\pdl\drivers/peripheral/gpio/cy_gpio.h **** typedef struct
 254:Generated_Source\PSoC6\pdl\drivers/peripheral/gpio/cy_gpio.h **** {
 255:Generated_Source\PSoC6\pdl\drivers/peripheral/gpio/cy_gpio.h ****     uint32_t outVal;         /**< Pin output state */
 256:Generated_Source\PSoC6\pdl\drivers/peripheral/gpio/cy_gpio.h ****     uint32_t driveMode;      /**< Drive mode */
 257:Generated_Source\PSoC6\pdl\drivers/peripheral/gpio/cy_gpio.h ****     en_hsiom_sel_t hsiom;    /**< HSIOM selection */
 258:Generated_Source\PSoC6\pdl\drivers/peripheral/gpio/cy_gpio.h ****     uint32_t intEdge;        /**< Interrupt Edge type */
 259:Generated_Source\PSoC6\pdl\drivers/peripheral/gpio/cy_gpio.h ****     uint32_t intMask;        /**< Interrupt enable mask */
 260:Generated_Source\PSoC6\pdl\drivers/peripheral/gpio/cy_gpio.h ****     uint32_t vtrip;          /**< Input buffer voltage trip type */
 261:Generated_Source\PSoC6\pdl\drivers/peripheral/gpio/cy_gpio.h ****     uint32_t slewRate;       /**< Output buffer slew rate */
 262:Generated_Source\PSoC6\pdl\drivers/peripheral/gpio/cy_gpio.h ****     uint32_t driveSel;       /**< Drive strength */
 263:Generated_Source\PSoC6\pdl\drivers/peripheral/gpio/cy_gpio.h ****     uint32_t vregEn;         /**< SIO pair output buffer mode */
 264:Generated_Source\PSoC6\pdl\drivers/peripheral/gpio/cy_gpio.h ****     uint32_t ibufMode;       /**< SIO pair input buffer mode */
 265:Generated_Source\PSoC6\pdl\drivers/peripheral/gpio/cy_gpio.h ****     uint32_t vtripSel;       /**< SIO pair input buffer trip point */
 266:Generated_Source\PSoC6\pdl\drivers/peripheral/gpio/cy_gpio.h ****     uint32_t vrefSel;        /**< SIO pair reference voltage for input buffer trip point */
 267:Generated_Source\PSoC6\pdl\drivers/peripheral/gpio/cy_gpio.h ****     uint32_t vohSel;         /**< SIO pair regulated voltage output level */
 268:Generated_Source\PSoC6\pdl\drivers/peripheral/gpio/cy_gpio.h **** } cy_stc_gpio_pin_config_t;
 269:Generated_Source\PSoC6\pdl\drivers/peripheral/gpio/cy_gpio.h **** 
 270:Generated_Source\PSoC6\pdl\drivers/peripheral/gpio/cy_gpio.h **** /** \} group_gpio_data_structures */
 271:Generated_Source\PSoC6\pdl\drivers/peripheral/gpio/cy_gpio.h **** 
 272:Generated_Source\PSoC6\pdl\drivers/peripheral/gpio/cy_gpio.h **** /***************************************
 273:Generated_Source\PSoC6\pdl\drivers/peripheral/gpio/cy_gpio.h **** *        Constants
ARM GAS  C:\Users\markm\AppData\Local\Temp\ccA1bc6D.s 			page 28


 274:Generated_Source\PSoC6\pdl\drivers/peripheral/gpio/cy_gpio.h **** ***************************************/
 275:Generated_Source\PSoC6\pdl\drivers/peripheral/gpio/cy_gpio.h **** 
 276:Generated_Source\PSoC6\pdl\drivers/peripheral/gpio/cy_gpio.h **** /** \cond INTERNAL */
 277:Generated_Source\PSoC6\pdl\drivers/peripheral/gpio/cy_gpio.h **** 
 278:Generated_Source\PSoC6\pdl\drivers/peripheral/gpio/cy_gpio.h **** /* General Constants */
 279:Generated_Source\PSoC6\pdl\drivers/peripheral/gpio/cy_gpio.h **** #define CY_GPIO_PRT_HALF                       (4UL)      /**< Half-way point of a GPIO port */
 280:Generated_Source\PSoC6\pdl\drivers/peripheral/gpio/cy_gpio.h **** #define CY_GPIO_PRT_DEINIT                     (0UL)      /**< De-init value for port registers */
 281:Generated_Source\PSoC6\pdl\drivers/peripheral/gpio/cy_gpio.h **** 
 282:Generated_Source\PSoC6\pdl\drivers/peripheral/gpio/cy_gpio.h **** /* GPIO Masks */
 283:Generated_Source\PSoC6\pdl\drivers/peripheral/gpio/cy_gpio.h **** #define CY_GPIO_HSIOM_MASK                     (0x1FUL)   /**< HSIOM selection mask */
 284:Generated_Source\PSoC6\pdl\drivers/peripheral/gpio/cy_gpio.h **** #define CY_GPIO_OUT_MASK                       (0x01UL)   /**< Single pin mask for OUT register */
 285:Generated_Source\PSoC6\pdl\drivers/peripheral/gpio/cy_gpio.h **** #define CY_GPIO_IN_MASK                        (0x01UL)   /**< Single pin mask for IN register */
 286:Generated_Source\PSoC6\pdl\drivers/peripheral/gpio/cy_gpio.h **** #define CY_GPIO_CFG_DM_MASK                    (0x0FUL)   /**< Single pin mask for drive mode in CF
 287:Generated_Source\PSoC6\pdl\drivers/peripheral/gpio/cy_gpio.h **** #define CY_GPIO_CFG_IN_VTRIP_SEL_MASK          (0x01UL)   /**< Single pin mask for VTRIP selection 
 288:Generated_Source\PSoC6\pdl\drivers/peripheral/gpio/cy_gpio.h **** #define CY_GPIO_CFG_OUT_SLOW_MASK              (0x01UL)   /**< Single pin mask for slew rate in CFG
 289:Generated_Source\PSoC6\pdl\drivers/peripheral/gpio/cy_gpio.h **** #define CY_GPIO_CFG_OUT_DRIVE_SEL_MASK         (0x03UL)   /**< Single pin mask for drive strength i
 290:Generated_Source\PSoC6\pdl\drivers/peripheral/gpio/cy_gpio.h **** #define CY_GPIO_INTR_STATUS_MASK               (0x01UL)   /**< Single pin mask for interrupt status
 291:Generated_Source\PSoC6\pdl\drivers/peripheral/gpio/cy_gpio.h **** #define CY_GPIO_INTR_EN_MASK                   (0x01UL)   /**< Single pin mask for interrupt status
 292:Generated_Source\PSoC6\pdl\drivers/peripheral/gpio/cy_gpio.h **** #define CY_GPIO_INTR_MASKED_MASK               (0x01UL)   /**< Single pin mask for masked interrupt
 293:Generated_Source\PSoC6\pdl\drivers/peripheral/gpio/cy_gpio.h **** #define CY_GPIO_INTR_SET_MASK                  (0x01UL)   /**< Single pin mask for setting the inte
 294:Generated_Source\PSoC6\pdl\drivers/peripheral/gpio/cy_gpio.h **** #define CY_GPIO_INTR_EDGE_MASK                 (0x03UL)   /**< Single pin mask for interrupt edge t
 295:Generated_Source\PSoC6\pdl\drivers/peripheral/gpio/cy_gpio.h **** #define CY_GPIO_INTR_FLT_EDGE_MASK             (0x07UL)   /**< Single pin mask for setting filtered
 296:Generated_Source\PSoC6\pdl\drivers/peripheral/gpio/cy_gpio.h **** 
 297:Generated_Source\PSoC6\pdl\drivers/peripheral/gpio/cy_gpio.h **** /* SIO Masks */
 298:Generated_Source\PSoC6\pdl\drivers/peripheral/gpio/cy_gpio.h **** #define CY_GPIO_VREG_EN_MASK                   (0x01UL)   /**< Single SIO pin mask for voltage regu
 299:Generated_Source\PSoC6\pdl\drivers/peripheral/gpio/cy_gpio.h **** #define CY_GPIO_IBUF_MASK                      (0x01UL)   /**< Single SIO pin mask for input buffer
 300:Generated_Source\PSoC6\pdl\drivers/peripheral/gpio/cy_gpio.h **** #define CY_GPIO_IBUF_SHIFT                     (0x01UL)   /**< Single SIO pin shift for input buffe
 301:Generated_Source\PSoC6\pdl\drivers/peripheral/gpio/cy_gpio.h **** #define CY_GPIO_VTRIP_SEL_MASK                 (0x01UL)   /**< Single SIO pin mask for the input bu
 302:Generated_Source\PSoC6\pdl\drivers/peripheral/gpio/cy_gpio.h **** #define CY_GPIO_VTRIP_SEL_SHIFT                (0x02UL)   /**< Single SIO pin shift for the input b
 303:Generated_Source\PSoC6\pdl\drivers/peripheral/gpio/cy_gpio.h **** #define CY_GPIO_VREF_SEL_MASK                  (0x03UL)   /**< Single SIO pin mask for voltage refe
 304:Generated_Source\PSoC6\pdl\drivers/peripheral/gpio/cy_gpio.h **** #define CY_GPIO_VREF_SEL_SHIFT                 (0x03UL)   /**< Single SIO pin shift for voltage ref
 305:Generated_Source\PSoC6\pdl\drivers/peripheral/gpio/cy_gpio.h **** #define CY_GPIO_VOH_SEL_MASK                   (0x07UL)   /**< Single SIO pin mask for VOH */
 306:Generated_Source\PSoC6\pdl\drivers/peripheral/gpio/cy_gpio.h **** #define CY_GPIO_VOH_SEL_SHIFT                  (0x05UL)   /**< Single SIO pin shift for VOH */
 307:Generated_Source\PSoC6\pdl\drivers/peripheral/gpio/cy_gpio.h **** 
 308:Generated_Source\PSoC6\pdl\drivers/peripheral/gpio/cy_gpio.h **** /* Special mask for SIO pin pair setting */
 309:Generated_Source\PSoC6\pdl\drivers/peripheral/gpio/cy_gpio.h **** #define CY_GPIO_SIO_ODD_PIN_MASK               (0x00FEUL) /**< SIO pin pair selection mask */
 310:Generated_Source\PSoC6\pdl\drivers/peripheral/gpio/cy_gpio.h **** #define CY_GPIO_SIO_PIN_MASK                   (0x00FFUL) /**< SIO pin pair mask */
 311:Generated_Source\PSoC6\pdl\drivers/peripheral/gpio/cy_gpio.h **** 
 312:Generated_Source\PSoC6\pdl\drivers/peripheral/gpio/cy_gpio.h **** /* Offsets */
 313:Generated_Source\PSoC6\pdl\drivers/peripheral/gpio/cy_gpio.h **** #define CY_GPIO_HSIOM_OFFSET                   (3UL)      /**< Offset for HSIOM */
 314:Generated_Source\PSoC6\pdl\drivers/peripheral/gpio/cy_gpio.h **** #define CY_GPIO_DRIVE_MODE_OFFSET              (2UL)      /**< Offset for Drive mode */
 315:Generated_Source\PSoC6\pdl\drivers/peripheral/gpio/cy_gpio.h **** #define CY_GPIO_INBUF_OFFSET                   (3UL)      /**< Offset for input buffer */
 316:Generated_Source\PSoC6\pdl\drivers/peripheral/gpio/cy_gpio.h **** #define CY_GPIO_CFG_OUT_DRIVE_OFFSET           (16UL)     /**< Offset for drive strength */
 317:Generated_Source\PSoC6\pdl\drivers/peripheral/gpio/cy_gpio.h **** #define CY_GPIO_INTR_CFG_OFFSET                (1UL)      /**< Offset for interrupt config */
 318:Generated_Source\PSoC6\pdl\drivers/peripheral/gpio/cy_gpio.h **** #define CY_GPIO_INTR_FILT_OFFSET               (18UL)     /**< Offset for filtered interrupt config
 319:Generated_Source\PSoC6\pdl\drivers/peripheral/gpio/cy_gpio.h **** #define CY_GPIO_CFG_SIO_OFFSET                 (2UL)      /**< Offset for SIO config */
 320:Generated_Source\PSoC6\pdl\drivers/peripheral/gpio/cy_gpio.h **** 
 321:Generated_Source\PSoC6\pdl\drivers/peripheral/gpio/cy_gpio.h **** /* Parameter validation constants */
 322:Generated_Source\PSoC6\pdl\drivers/peripheral/gpio/cy_gpio.h **** #define CY_GPIO_PINS_MAX                       (8UL)      /**< Number of pins in the port */
 323:Generated_Source\PSoC6\pdl\drivers/peripheral/gpio/cy_gpio.h **** #define CY_GPIO_PRT_PINS_MASK                  (0x0000000FFUL)
 324:Generated_Source\PSoC6\pdl\drivers/peripheral/gpio/cy_gpio.h **** #define CY_GPIO_PRT_INTR_CFG_EDGE_SEL_MASK     (GPIO_PRT_INTR_CFG_EDGE0_SEL_Msk | \
 325:Generated_Source\PSoC6\pdl\drivers/peripheral/gpio/cy_gpio.h ****                                                 GPIO_PRT_INTR_CFG_EDGE1_SEL_Msk | \
 326:Generated_Source\PSoC6\pdl\drivers/peripheral/gpio/cy_gpio.h ****                                                 GPIO_PRT_INTR_CFG_EDGE2_SEL_Msk | \
 327:Generated_Source\PSoC6\pdl\drivers/peripheral/gpio/cy_gpio.h ****                                                 GPIO_PRT_INTR_CFG_EDGE3_SEL_Msk | \
 328:Generated_Source\PSoC6\pdl\drivers/peripheral/gpio/cy_gpio.h ****                                                 GPIO_PRT_INTR_CFG_EDGE4_SEL_Msk | \
 329:Generated_Source\PSoC6\pdl\drivers/peripheral/gpio/cy_gpio.h ****                                                 GPIO_PRT_INTR_CFG_EDGE5_SEL_Msk | \
 330:Generated_Source\PSoC6\pdl\drivers/peripheral/gpio/cy_gpio.h ****                                                 GPIO_PRT_INTR_CFG_EDGE6_SEL_Msk | \
ARM GAS  C:\Users\markm\AppData\Local\Temp\ccA1bc6D.s 			page 29


 331:Generated_Source\PSoC6\pdl\drivers/peripheral/gpio/cy_gpio.h ****                                                 GPIO_PRT_INTR_CFG_EDGE7_SEL_Msk)
 332:Generated_Source\PSoC6\pdl\drivers/peripheral/gpio/cy_gpio.h **** #define CY_GPIO_PRT_INTR_CFG_RANGE_MASK        (CY_GPIO_PRT_INTR_CFG_EDGE_SEL_MASK | \
 333:Generated_Source\PSoC6\pdl\drivers/peripheral/gpio/cy_gpio.h ****                                                 GPIO_PRT_INTR_CFG_FLT_EDGE_SEL_Msk | \
 334:Generated_Source\PSoC6\pdl\drivers/peripheral/gpio/cy_gpio.h ****                                                 GPIO_PRT_INTR_CFG_FLT_SEL_Msk)
 335:Generated_Source\PSoC6\pdl\drivers/peripheral/gpio/cy_gpio.h **** #define CY_GPIO_PRT_INT_MASK_MASK              (0x0000001FFUL)
 336:Generated_Source\PSoC6\pdl\drivers/peripheral/gpio/cy_gpio.h **** #define CY_GPIO_PRT_SEL_ACTIVE_MASK            (0x1FFFFFFFUL)
 337:Generated_Source\PSoC6\pdl\drivers/peripheral/gpio/cy_gpio.h **** 
 338:Generated_Source\PSoC6\pdl\drivers/peripheral/gpio/cy_gpio.h **** #define GPIO_MAX_SPLIT_CELL_SEGMENTS           (9U)
 339:Generated_Source\PSoC6\pdl\drivers/peripheral/gpio/cy_gpio.h **** 
 340:Generated_Source\PSoC6\pdl\drivers/peripheral/gpio/cy_gpio.h **** /* Parameter validation macros */
 341:Generated_Source\PSoC6\pdl\drivers/peripheral/gpio/cy_gpio.h **** #define CY_GPIO_IS_PIN_VALID(pinNum)           (CY_GPIO_PINS_MAX > (pinNum))
 342:Generated_Source\PSoC6\pdl\drivers/peripheral/gpio/cy_gpio.h **** #define CY_GPIO_IS_FILTER_PIN_VALID(pinNum)    (CY_GPIO_PINS_MAX >= (pinNum))
 343:Generated_Source\PSoC6\pdl\drivers/peripheral/gpio/cy_gpio.h **** #define CY_GPIO_IS_VALUE_VALID(outVal)         (1UL >= (outVal))
 344:Generated_Source\PSoC6\pdl\drivers/peripheral/gpio/cy_gpio.h **** #define CY_GPIO_IS_DM_VALID(driveMode)         (0U == ((driveMode) & (uint32_t)~CY_GPIO_CFG_DM_MASK
 345:Generated_Source\PSoC6\pdl\drivers/peripheral/gpio/cy_gpio.h **** 
 346:Generated_Source\PSoC6\pdl\drivers/peripheral/gpio/cy_gpio.h **** #define CY_GPIO_IS_HSIOM_VALID(hsiom)          (0U == ((hsiom) & (uint32_t)~CY_GPIO_HSIOM_MASK))
 347:Generated_Source\PSoC6\pdl\drivers/peripheral/gpio/cy_gpio.h **** 
 348:Generated_Source\PSoC6\pdl\drivers/peripheral/gpio/cy_gpio.h **** #define CY_GPIO_IS_INT_EDGE_VALID(intEdge)     ((CY_GPIO_INTR_DISABLE  == (intEdge)) || \
 349:Generated_Source\PSoC6\pdl\drivers/peripheral/gpio/cy_gpio.h ****                                                 (CY_GPIO_INTR_RISING   == (intEdge)) || \
 350:Generated_Source\PSoC6\pdl\drivers/peripheral/gpio/cy_gpio.h ****                                                 (CY_GPIO_INTR_FALLING  == (intEdge)) || \
 351:Generated_Source\PSoC6\pdl\drivers/peripheral/gpio/cy_gpio.h ****                                                 (CY_GPIO_INTR_BOTH     == (intEdge)))
 352:Generated_Source\PSoC6\pdl\drivers/peripheral/gpio/cy_gpio.h **** 
 353:Generated_Source\PSoC6\pdl\drivers/peripheral/gpio/cy_gpio.h **** #define CY_GPIO_IS_DRIVE_SEL_VALID(driveSel)   ((CY_GPIO_DRIVE_FULL    == (driveSel)) || \
 354:Generated_Source\PSoC6\pdl\drivers/peripheral/gpio/cy_gpio.h ****                                                 (CY_GPIO_DRIVE_1_2     == (driveSel)) || \
 355:Generated_Source\PSoC6\pdl\drivers/peripheral/gpio/cy_gpio.h ****                                                 (CY_GPIO_DRIVE_1_4     == (driveSel)) || \
 356:Generated_Source\PSoC6\pdl\drivers/peripheral/gpio/cy_gpio.h ****                                                 (CY_GPIO_DRIVE_1_8     == (driveSel)))
 357:Generated_Source\PSoC6\pdl\drivers/peripheral/gpio/cy_gpio.h **** 
 358:Generated_Source\PSoC6\pdl\drivers/peripheral/gpio/cy_gpio.h **** #define CY_GPIO_IS_VREF_SEL_VALID(vrefSel)     ((CY_SIO_VREF_PINREF    == (vrefSel)) || \
 359:Generated_Source\PSoC6\pdl\drivers/peripheral/gpio/cy_gpio.h ****                                                 (CY_SIO_VREF_1_2V      == (vrefSel)) || \
 360:Generated_Source\PSoC6\pdl\drivers/peripheral/gpio/cy_gpio.h ****                                                 (CY_SIO_VREF_AMUX_A    == (vrefSel)) || \
 361:Generated_Source\PSoC6\pdl\drivers/peripheral/gpio/cy_gpio.h ****                                                 (CY_SIO_VREF_AMUX_B    == (vrefSel)))
 362:Generated_Source\PSoC6\pdl\drivers/peripheral/gpio/cy_gpio.h **** 
 363:Generated_Source\PSoC6\pdl\drivers/peripheral/gpio/cy_gpio.h **** #define CY_GPIO_IS_VOH_SEL_VALID(vrefSel)      ((CY_SIO_VOH_1_00       == (vrefSel)) || \
 364:Generated_Source\PSoC6\pdl\drivers/peripheral/gpio/cy_gpio.h ****                                                 (CY_SIO_VOH_1_25       == (vrefSel)) || \
 365:Generated_Source\PSoC6\pdl\drivers/peripheral/gpio/cy_gpio.h ****                                                 (CY_SIO_VOH_1_49       == (vrefSel)) || \
 366:Generated_Source\PSoC6\pdl\drivers/peripheral/gpio/cy_gpio.h ****                                                 (CY_SIO_VOH_1_67       == (vrefSel)) || \
 367:Generated_Source\PSoC6\pdl\drivers/peripheral/gpio/cy_gpio.h ****                                                 (CY_SIO_VOH_2_08       == (vrefSel)) || \
 368:Generated_Source\PSoC6\pdl\drivers/peripheral/gpio/cy_gpio.h ****                                                 (CY_SIO_VOH_2_50       == (vrefSel)) || \
 369:Generated_Source\PSoC6\pdl\drivers/peripheral/gpio/cy_gpio.h ****                                                 (CY_SIO_VOH_2_78       == (vrefSel)) || \
 370:Generated_Source\PSoC6\pdl\drivers/peripheral/gpio/cy_gpio.h ****                                                 (CY_SIO_VOH_4_16       == (vrefSel)))
 371:Generated_Source\PSoC6\pdl\drivers/peripheral/gpio/cy_gpio.h ****                    
 372:Generated_Source\PSoC6\pdl\drivers/peripheral/gpio/cy_gpio.h **** #define CY_GPIO_IS_PIN_BIT_VALID(pinBit)       (0U == ((pinBit) & (uint32_t)~CY_GPIO_PRT_PINS_MASK)
 373:Generated_Source\PSoC6\pdl\drivers/peripheral/gpio/cy_gpio.h **** #define CY_GPIO_IS_INTR_CFG_VALID(intrCfg)     (0U == ((intrCfg) & (uint32_t)~CY_GPIO_PRT_INTR_CFG_
 374:Generated_Source\PSoC6\pdl\drivers/peripheral/gpio/cy_gpio.h **** #define CY_GPIO_IS_INTR_MASK_VALID(intrMask)   (0U == ((intrMask) & (uint32_t)~CY_GPIO_PRT_INT_MASK
 375:Generated_Source\PSoC6\pdl\drivers/peripheral/gpio/cy_gpio.h **** #define CY_GPIO_IS_SEL_ACT_VALID(selActive)    (0U == ((selActive) & (uint32_t)~CY_GPIO_PRT_SEL_ACT
 376:Generated_Source\PSoC6\pdl\drivers/peripheral/gpio/cy_gpio.h **** 
 377:Generated_Source\PSoC6\pdl\drivers/peripheral/gpio/cy_gpio.h **** #define CY_GPIO_IS_AMUX_SPLIT_VALID(switchCtrl)       (((uint32_t) (switchCtrl)) < GPIO_MAX_SPLIT_C
 378:Generated_Source\PSoC6\pdl\drivers/peripheral/gpio/cy_gpio.h **** 
 379:Generated_Source\PSoC6\pdl\drivers/peripheral/gpio/cy_gpio.h **** #define CY_GPIO_IS_AMUX_CONNECT_VALID(amuxConnect)    ((CY_GPIO_AMUX_OPENALL == (amuxConnect)) || \
 380:Generated_Source\PSoC6\pdl\drivers/peripheral/gpio/cy_gpio.h ****                                                        (CY_GPIO_AMUX_L       == (amuxConnect)) || \
 381:Generated_Source\PSoC6\pdl\drivers/peripheral/gpio/cy_gpio.h ****                                                        (CY_GPIO_AMUX_R       == (amuxConnect)) || \
 382:Generated_Source\PSoC6\pdl\drivers/peripheral/gpio/cy_gpio.h ****                                                        (CY_GPIO_AMUX_LR      == (amuxConnect)) || \
 383:Generated_Source\PSoC6\pdl\drivers/peripheral/gpio/cy_gpio.h ****                                                        (CY_GPIO_AMUX_G       == (amuxConnect)) || \
 384:Generated_Source\PSoC6\pdl\drivers/peripheral/gpio/cy_gpio.h ****                                                        (CY_GPIO_AMUX_GL      == (amuxConnect)) || \
 385:Generated_Source\PSoC6\pdl\drivers/peripheral/gpio/cy_gpio.h ****                                                        (CY_GPIO_AMUX_GR      == (amuxConnect)) || \
 386:Generated_Source\PSoC6\pdl\drivers/peripheral/gpio/cy_gpio.h ****                                                        (CY_GPIO_AMUX_GLR     == (amuxConnect)))
 387:Generated_Source\PSoC6\pdl\drivers/peripheral/gpio/cy_gpio.h **** 
ARM GAS  C:\Users\markm\AppData\Local\Temp\ccA1bc6D.s 			page 30


 388:Generated_Source\PSoC6\pdl\drivers/peripheral/gpio/cy_gpio.h **** #define CY_GPIO_IS_AMUX_SELECT_VALID(amuxBus)       ((CY_GPIO_AMUXBUSA       == (amuxBus)) || \
 389:Generated_Source\PSoC6\pdl\drivers/peripheral/gpio/cy_gpio.h ****                                                      (CY_GPIO_AMUXBUSB       == (amuxBus)))
 390:Generated_Source\PSoC6\pdl\drivers/peripheral/gpio/cy_gpio.h **** /** \endcond */
 391:Generated_Source\PSoC6\pdl\drivers/peripheral/gpio/cy_gpio.h **** 
 392:Generated_Source\PSoC6\pdl\drivers/peripheral/gpio/cy_gpio.h **** 
 393:Generated_Source\PSoC6\pdl\drivers/peripheral/gpio/cy_gpio.h **** /***************************************
 394:Generated_Source\PSoC6\pdl\drivers/peripheral/gpio/cy_gpio.h **** *        Function Constants
 395:Generated_Source\PSoC6\pdl\drivers/peripheral/gpio/cy_gpio.h **** ***************************************/
 396:Generated_Source\PSoC6\pdl\drivers/peripheral/gpio/cy_gpio.h **** 
 397:Generated_Source\PSoC6\pdl\drivers/peripheral/gpio/cy_gpio.h **** /**
 398:Generated_Source\PSoC6\pdl\drivers/peripheral/gpio/cy_gpio.h **** * \addtogroup group_gpio_macros
 399:Generated_Source\PSoC6\pdl\drivers/peripheral/gpio/cy_gpio.h **** * \{
 400:Generated_Source\PSoC6\pdl\drivers/peripheral/gpio/cy_gpio.h **** */
 401:Generated_Source\PSoC6\pdl\drivers/peripheral/gpio/cy_gpio.h **** 
 402:Generated_Source\PSoC6\pdl\drivers/peripheral/gpio/cy_gpio.h **** /**
 403:Generated_Source\PSoC6\pdl\drivers/peripheral/gpio/cy_gpio.h **** * \defgroup group_gpio_driveModes Pin drive mode
 404:Generated_Source\PSoC6\pdl\drivers/peripheral/gpio/cy_gpio.h **** * \{
 405:Generated_Source\PSoC6\pdl\drivers/peripheral/gpio/cy_gpio.h **** * Constants to be used for setting the drive mode of the pin.
 406:Generated_Source\PSoC6\pdl\drivers/peripheral/gpio/cy_gpio.h **** */
 407:Generated_Source\PSoC6\pdl\drivers/peripheral/gpio/cy_gpio.h **** #define CY_GPIO_DM_ANALOG                      (0x00UL) /**< Analog High-Z. Input buffer off */
 408:Generated_Source\PSoC6\pdl\drivers/peripheral/gpio/cy_gpio.h **** #define CY_GPIO_DM_PULLUP_IN_OFF               (0x02UL) /**< Resistive Pull-Up. Input buffer off */
 409:Generated_Source\PSoC6\pdl\drivers/peripheral/gpio/cy_gpio.h **** #define CY_GPIO_DM_PULLDOWN_IN_OFF             (0x03UL) /**< Resistive Pull-Down. Input buffer off 
 410:Generated_Source\PSoC6\pdl\drivers/peripheral/gpio/cy_gpio.h **** #define CY_GPIO_DM_OD_DRIVESLOW_IN_OFF         (0x04UL) /**< Open Drain, Drives Low. Input buffer o
 411:Generated_Source\PSoC6\pdl\drivers/peripheral/gpio/cy_gpio.h **** #define CY_GPIO_DM_OD_DRIVESHIGH_IN_OFF        (0x05UL) /**< Open Drain, Drives High. Input buffer 
 412:Generated_Source\PSoC6\pdl\drivers/peripheral/gpio/cy_gpio.h **** #define CY_GPIO_DM_STRONG_IN_OFF               (0x06UL) /**< Strong Drive. Input buffer off */
 413:Generated_Source\PSoC6\pdl\drivers/peripheral/gpio/cy_gpio.h **** #define CY_GPIO_DM_PULLUP_DOWN_IN_OFF          (0x07UL) /**< Resistive Pull-Up/Down. Input buffer o
 414:Generated_Source\PSoC6\pdl\drivers/peripheral/gpio/cy_gpio.h **** #define CY_GPIO_DM_HIGHZ                       (0x08UL) /**< Digital High-Z. Input buffer on */
 415:Generated_Source\PSoC6\pdl\drivers/peripheral/gpio/cy_gpio.h **** #define CY_GPIO_DM_PULLUP                      (0x0AUL) /**< Resistive Pull-Up. Input buffer on */
 416:Generated_Source\PSoC6\pdl\drivers/peripheral/gpio/cy_gpio.h **** #define CY_GPIO_DM_PULLDOWN                    (0x0BUL) /**< Resistive Pull-Down. Input buffer on *
 417:Generated_Source\PSoC6\pdl\drivers/peripheral/gpio/cy_gpio.h **** #define CY_GPIO_DM_OD_DRIVESLOW                (0x0CUL) /**< Open Drain, Drives Low. Input buffer o
 418:Generated_Source\PSoC6\pdl\drivers/peripheral/gpio/cy_gpio.h **** #define CY_GPIO_DM_OD_DRIVESHIGH               (0x0DUL) /**< Open Drain, Drives High. Input buffer 
 419:Generated_Source\PSoC6\pdl\drivers/peripheral/gpio/cy_gpio.h **** #define CY_GPIO_DM_STRONG                      (0x0EUL) /**< Strong Drive. Input buffer on */
 420:Generated_Source\PSoC6\pdl\drivers/peripheral/gpio/cy_gpio.h **** #define CY_GPIO_DM_PULLUP_DOWN                 (0x0FUL) /**< Resistive Pull-Up/Down. Input buffer o
 421:Generated_Source\PSoC6\pdl\drivers/peripheral/gpio/cy_gpio.h **** /** \} */
 422:Generated_Source\PSoC6\pdl\drivers/peripheral/gpio/cy_gpio.h **** 
 423:Generated_Source\PSoC6\pdl\drivers/peripheral/gpio/cy_gpio.h **** /**
 424:Generated_Source\PSoC6\pdl\drivers/peripheral/gpio/cy_gpio.h **** * \defgroup group_gpio_vtrip Voltage trip mode
 425:Generated_Source\PSoC6\pdl\drivers/peripheral/gpio/cy_gpio.h **** * \{
 426:Generated_Source\PSoC6\pdl\drivers/peripheral/gpio/cy_gpio.h **** * Constants to be used for setting the voltage trip type on the pin.
 427:Generated_Source\PSoC6\pdl\drivers/peripheral/gpio/cy_gpio.h **** */
 428:Generated_Source\PSoC6\pdl\drivers/peripheral/gpio/cy_gpio.h **** #define CY_GPIO_VTRIP_CMOS                     (0x00UL) /**< Input buffer compatible with CMOS and 
 429:Generated_Source\PSoC6\pdl\drivers/peripheral/gpio/cy_gpio.h **** #define CY_GPIO_VTRIP_TTL                      (0x01UL) /**< Input buffer compatible with TTL and M
 430:Generated_Source\PSoC6\pdl\drivers/peripheral/gpio/cy_gpio.h **** /** \} */
 431:Generated_Source\PSoC6\pdl\drivers/peripheral/gpio/cy_gpio.h **** 
 432:Generated_Source\PSoC6\pdl\drivers/peripheral/gpio/cy_gpio.h **** /**
 433:Generated_Source\PSoC6\pdl\drivers/peripheral/gpio/cy_gpio.h **** * \defgroup group_gpio_slewRate Slew Rate Mode
 434:Generated_Source\PSoC6\pdl\drivers/peripheral/gpio/cy_gpio.h **** * \{
 435:Generated_Source\PSoC6\pdl\drivers/peripheral/gpio/cy_gpio.h **** * Constants to be used for setting the slew rate of the pin.
 436:Generated_Source\PSoC6\pdl\drivers/peripheral/gpio/cy_gpio.h **** */
 437:Generated_Source\PSoC6\pdl\drivers/peripheral/gpio/cy_gpio.h **** #define CY_GPIO_SLEW_FAST                      (0x00UL) /**< Fast slew rate */
 438:Generated_Source\PSoC6\pdl\drivers/peripheral/gpio/cy_gpio.h **** #define CY_GPIO_SLEW_SLOW                      (0x01UL) /**< Slow slew rate */
 439:Generated_Source\PSoC6\pdl\drivers/peripheral/gpio/cy_gpio.h **** /** \} */
 440:Generated_Source\PSoC6\pdl\drivers/peripheral/gpio/cy_gpio.h **** 
 441:Generated_Source\PSoC6\pdl\drivers/peripheral/gpio/cy_gpio.h **** /**
 442:Generated_Source\PSoC6\pdl\drivers/peripheral/gpio/cy_gpio.h **** * \defgroup group_gpio_driveStrength Pin drive strength
 443:Generated_Source\PSoC6\pdl\drivers/peripheral/gpio/cy_gpio.h **** * \{
 444:Generated_Source\PSoC6\pdl\drivers/peripheral/gpio/cy_gpio.h **** * Constants to be used for setting the drive strength of the pin.
ARM GAS  C:\Users\markm\AppData\Local\Temp\ccA1bc6D.s 			page 31


 445:Generated_Source\PSoC6\pdl\drivers/peripheral/gpio/cy_gpio.h **** */
 446:Generated_Source\PSoC6\pdl\drivers/peripheral/gpio/cy_gpio.h **** #define CY_GPIO_DRIVE_FULL                     (0x00UL) /**< Full drive strength: Max drive current
 447:Generated_Source\PSoC6\pdl\drivers/peripheral/gpio/cy_gpio.h **** #define CY_GPIO_DRIVE_1_2                      (0x01UL) /**< 1/2 drive strength: 1/2 drive current 
 448:Generated_Source\PSoC6\pdl\drivers/peripheral/gpio/cy_gpio.h **** #define CY_GPIO_DRIVE_1_4                      (0x02UL) /**< 1/4 drive strength: 1/4 drive current 
 449:Generated_Source\PSoC6\pdl\drivers/peripheral/gpio/cy_gpio.h **** #define CY_GPIO_DRIVE_1_8                      (0x03UL) /**< 1/8 drive strength: 1/8 drive current 
 450:Generated_Source\PSoC6\pdl\drivers/peripheral/gpio/cy_gpio.h **** /** \} */
 451:Generated_Source\PSoC6\pdl\drivers/peripheral/gpio/cy_gpio.h **** 
 452:Generated_Source\PSoC6\pdl\drivers/peripheral/gpio/cy_gpio.h **** /**
 453:Generated_Source\PSoC6\pdl\drivers/peripheral/gpio/cy_gpio.h **** * \defgroup group_gpio_interruptTrigger Interrupt trigger type
 454:Generated_Source\PSoC6\pdl\drivers/peripheral/gpio/cy_gpio.h **** * \{
 455:Generated_Source\PSoC6\pdl\drivers/peripheral/gpio/cy_gpio.h **** * Constants to be used for setting the interrupt trigger type on the pin.
 456:Generated_Source\PSoC6\pdl\drivers/peripheral/gpio/cy_gpio.h **** */
 457:Generated_Source\PSoC6\pdl\drivers/peripheral/gpio/cy_gpio.h **** #define CY_GPIO_INTR_DISABLE                   (0x00UL) /**< Disable the pin interrupt generation *
 458:Generated_Source\PSoC6\pdl\drivers/peripheral/gpio/cy_gpio.h **** #define CY_GPIO_INTR_RISING                    (0x01UL) /**< Rising-Edge interrupt */
 459:Generated_Source\PSoC6\pdl\drivers/peripheral/gpio/cy_gpio.h **** #define CY_GPIO_INTR_FALLING                   (0x02UL) /**< Falling-Edge interrupt */
 460:Generated_Source\PSoC6\pdl\drivers/peripheral/gpio/cy_gpio.h **** #define CY_GPIO_INTR_BOTH                      (0x03UL) /**< Both-Edge interrupt */
 461:Generated_Source\PSoC6\pdl\drivers/peripheral/gpio/cy_gpio.h **** /** \} */
 462:Generated_Source\PSoC6\pdl\drivers/peripheral/gpio/cy_gpio.h **** 
 463:Generated_Source\PSoC6\pdl\drivers/peripheral/gpio/cy_gpio.h **** /**
 464:Generated_Source\PSoC6\pdl\drivers/peripheral/gpio/cy_gpio.h **** * \defgroup group_gpio_sioVreg SIO output buffer mode
 465:Generated_Source\PSoC6\pdl\drivers/peripheral/gpio/cy_gpio.h **** * \{
 466:Generated_Source\PSoC6\pdl\drivers/peripheral/gpio/cy_gpio.h **** * Constants to be used for setting the SIO output buffer mode on the pin.
 467:Generated_Source\PSoC6\pdl\drivers/peripheral/gpio/cy_gpio.h **** */
 468:Generated_Source\PSoC6\pdl\drivers/peripheral/gpio/cy_gpio.h **** #define CY_SIO_VREG_UNREGULATED                (0x00UL) /**< Unregulated output buffer */
 469:Generated_Source\PSoC6\pdl\drivers/peripheral/gpio/cy_gpio.h **** #define CY_SIO_VREG_REGULATED                  (0x01UL) /**< Regulated output buffer */
 470:Generated_Source\PSoC6\pdl\drivers/peripheral/gpio/cy_gpio.h **** /** \} */
 471:Generated_Source\PSoC6\pdl\drivers/peripheral/gpio/cy_gpio.h **** 
 472:Generated_Source\PSoC6\pdl\drivers/peripheral/gpio/cy_gpio.h **** /**
 473:Generated_Source\PSoC6\pdl\drivers/peripheral/gpio/cy_gpio.h **** * \defgroup group_gpio_sioIbuf SIO input buffer mode
 474:Generated_Source\PSoC6\pdl\drivers/peripheral/gpio/cy_gpio.h **** * \{
 475:Generated_Source\PSoC6\pdl\drivers/peripheral/gpio/cy_gpio.h **** * Constants to be used for setting the SIO input buffer mode on the pin.
 476:Generated_Source\PSoC6\pdl\drivers/peripheral/gpio/cy_gpio.h **** */
 477:Generated_Source\PSoC6\pdl\drivers/peripheral/gpio/cy_gpio.h **** #define CY_SIO_IBUF_SINGLEENDED                (0x00UL) /**< Single ended input buffer */
 478:Generated_Source\PSoC6\pdl\drivers/peripheral/gpio/cy_gpio.h **** #define CY_SIO_IBUF_DIFFERENTIAL               (0x01UL) /**< Differential input buffer */
 479:Generated_Source\PSoC6\pdl\drivers/peripheral/gpio/cy_gpio.h **** /** \} */
 480:Generated_Source\PSoC6\pdl\drivers/peripheral/gpio/cy_gpio.h **** 
 481:Generated_Source\PSoC6\pdl\drivers/peripheral/gpio/cy_gpio.h **** /**
 482:Generated_Source\PSoC6\pdl\drivers/peripheral/gpio/cy_gpio.h **** * \defgroup group_gpio_sioVtrip SIO input buffer trip-point
 483:Generated_Source\PSoC6\pdl\drivers/peripheral/gpio/cy_gpio.h **** * \{
 484:Generated_Source\PSoC6\pdl\drivers/peripheral/gpio/cy_gpio.h **** * Constants to be used for setting the SIO input buffer trip-point of the pin.
 485:Generated_Source\PSoC6\pdl\drivers/peripheral/gpio/cy_gpio.h **** */
 486:Generated_Source\PSoC6\pdl\drivers/peripheral/gpio/cy_gpio.h **** #define CY_SIO_VTRIP_CMOS                      (0x00UL) /**< CMOS input buffer (single-ended) */
 487:Generated_Source\PSoC6\pdl\drivers/peripheral/gpio/cy_gpio.h **** #define CY_SIO_VTRIP_TTL                       (0x01UL) /**< TTL input buffer (single-ended) */
 488:Generated_Source\PSoC6\pdl\drivers/peripheral/gpio/cy_gpio.h **** #define CY_SIO_VTRIP_0_5VDDIO_0_5VOH           (0x00UL) /**< 0.5xVddio or 0.5xVoh (differential) */
 489:Generated_Source\PSoC6\pdl\drivers/peripheral/gpio/cy_gpio.h **** #define CY_SIO_VTRIP_0_4VDDIO_1_0VREF          (0x01UL) /**< 0.4xVddio or 0.4xVoh (differential) */
 490:Generated_Source\PSoC6\pdl\drivers/peripheral/gpio/cy_gpio.h **** /** \} */
 491:Generated_Source\PSoC6\pdl\drivers/peripheral/gpio/cy_gpio.h **** 
 492:Generated_Source\PSoC6\pdl\drivers/peripheral/gpio/cy_gpio.h **** /**
 493:Generated_Source\PSoC6\pdl\drivers/peripheral/gpio/cy_gpio.h **** * \defgroup group_gpio_sioVref SIO reference voltage for input buffer trip-point
 494:Generated_Source\PSoC6\pdl\drivers/peripheral/gpio/cy_gpio.h **** * \{
 495:Generated_Source\PSoC6\pdl\drivers/peripheral/gpio/cy_gpio.h **** * Constants to be used for setting the reference voltage of SIO input buffer trip-point.
 496:Generated_Source\PSoC6\pdl\drivers/peripheral/gpio/cy_gpio.h **** */
 497:Generated_Source\PSoC6\pdl\drivers/peripheral/gpio/cy_gpio.h **** #define CY_SIO_VREF_PINREF                     (0x00UL) /**< Vref from analog pin */
 498:Generated_Source\PSoC6\pdl\drivers/peripheral/gpio/cy_gpio.h **** #define CY_SIO_VREF_1_2V                       (0x01UL) /**< Vref from internal 1.2V reference */
 499:Generated_Source\PSoC6\pdl\drivers/peripheral/gpio/cy_gpio.h **** #define CY_SIO_VREF_AMUX_A                     (0x02UL) /**< Vref from AMUXBUS_A */
 500:Generated_Source\PSoC6\pdl\drivers/peripheral/gpio/cy_gpio.h **** #define CY_SIO_VREF_AMUX_B                     (0x03UL) /**< Vref from AMUXBUS_B */
 501:Generated_Source\PSoC6\pdl\drivers/peripheral/gpio/cy_gpio.h **** /** \} */
ARM GAS  C:\Users\markm\AppData\Local\Temp\ccA1bc6D.s 			page 32


 502:Generated_Source\PSoC6\pdl\drivers/peripheral/gpio/cy_gpio.h **** 
 503:Generated_Source\PSoC6\pdl\drivers/peripheral/gpio/cy_gpio.h **** /**
 504:Generated_Source\PSoC6\pdl\drivers/peripheral/gpio/cy_gpio.h **** * \defgroup group_gpio_sioVoh Regulated output voltage level (Voh) and input buffer trip-point of a
 505:Generated_Source\PSoC6\pdl\drivers/peripheral/gpio/cy_gpio.h **** * \{
 506:Generated_Source\PSoC6\pdl\drivers/peripheral/gpio/cy_gpio.h **** * Constants to be used for setting the Voh and input buffer trip-point of an SIO pair
 507:Generated_Source\PSoC6\pdl\drivers/peripheral/gpio/cy_gpio.h **** */
 508:Generated_Source\PSoC6\pdl\drivers/peripheral/gpio/cy_gpio.h **** #define CY_SIO_VOH_1_00                        (0x00UL) /**< Voh = 1 x Reference */
 509:Generated_Source\PSoC6\pdl\drivers/peripheral/gpio/cy_gpio.h **** #define CY_SIO_VOH_1_25                        (0x01UL) /**< Voh = 1.25 x Reference */
 510:Generated_Source\PSoC6\pdl\drivers/peripheral/gpio/cy_gpio.h **** #define CY_SIO_VOH_1_49                        (0x02UL) /**< Voh = 1.49 x Reference */
 511:Generated_Source\PSoC6\pdl\drivers/peripheral/gpio/cy_gpio.h **** #define CY_SIO_VOH_1_67                        (0x03UL) /**< Voh = 1.67 x Reference */
 512:Generated_Source\PSoC6\pdl\drivers/peripheral/gpio/cy_gpio.h **** #define CY_SIO_VOH_2_08                        (0x04UL) /**< Voh = 2.08 x Reference */
 513:Generated_Source\PSoC6\pdl\drivers/peripheral/gpio/cy_gpio.h **** #define CY_SIO_VOH_2_50                        (0x05UL) /**< Voh = 2.50 x Reference */
 514:Generated_Source\PSoC6\pdl\drivers/peripheral/gpio/cy_gpio.h **** #define CY_SIO_VOH_2_78                        (0x06UL) /**< Voh = 2.78 x Reference */
 515:Generated_Source\PSoC6\pdl\drivers/peripheral/gpio/cy_gpio.h **** #define CY_SIO_VOH_4_16                        (0x07UL) /**< Voh = 4.16 x Reference */
 516:Generated_Source\PSoC6\pdl\drivers/peripheral/gpio/cy_gpio.h **** /** \} */
 517:Generated_Source\PSoC6\pdl\drivers/peripheral/gpio/cy_gpio.h **** 
 518:Generated_Source\PSoC6\pdl\drivers/peripheral/gpio/cy_gpio.h **** /** \} group_gpio_macros */
 519:Generated_Source\PSoC6\pdl\drivers/peripheral/gpio/cy_gpio.h **** 
 520:Generated_Source\PSoC6\pdl\drivers/peripheral/gpio/cy_gpio.h **** /***************************************
 521:Generated_Source\PSoC6\pdl\drivers/peripheral/gpio/cy_gpio.h **** *        Function Prototypes
 522:Generated_Source\PSoC6\pdl\drivers/peripheral/gpio/cy_gpio.h **** ***************************************/
 523:Generated_Source\PSoC6\pdl\drivers/peripheral/gpio/cy_gpio.h **** 
 524:Generated_Source\PSoC6\pdl\drivers/peripheral/gpio/cy_gpio.h **** /**
 525:Generated_Source\PSoC6\pdl\drivers/peripheral/gpio/cy_gpio.h **** * \addtogroup group_gpio_functions
 526:Generated_Source\PSoC6\pdl\drivers/peripheral/gpio/cy_gpio.h **** * \{
 527:Generated_Source\PSoC6\pdl\drivers/peripheral/gpio/cy_gpio.h **** */
 528:Generated_Source\PSoC6\pdl\drivers/peripheral/gpio/cy_gpio.h **** 
 529:Generated_Source\PSoC6\pdl\drivers/peripheral/gpio/cy_gpio.h **** /**
 530:Generated_Source\PSoC6\pdl\drivers/peripheral/gpio/cy_gpio.h **** * \addtogroup group_gpio_functions_init
 531:Generated_Source\PSoC6\pdl\drivers/peripheral/gpio/cy_gpio.h **** * \{
 532:Generated_Source\PSoC6\pdl\drivers/peripheral/gpio/cy_gpio.h **** */
 533:Generated_Source\PSoC6\pdl\drivers/peripheral/gpio/cy_gpio.h **** 
 534:Generated_Source\PSoC6\pdl\drivers/peripheral/gpio/cy_gpio.h **** cy_en_gpio_status_t Cy_GPIO_Pin_Init(GPIO_PRT_Type* base, uint32_t pinNum, const cy_stc_gpio_pin_co
 535:Generated_Source\PSoC6\pdl\drivers/peripheral/gpio/cy_gpio.h **** cy_en_gpio_status_t Cy_GPIO_Port_Init(GPIO_PRT_Type* base, const cy_stc_gpio_prt_config_t *config);
 536:Generated_Source\PSoC6\pdl\drivers/peripheral/gpio/cy_gpio.h **** void Cy_GPIO_Pin_FastInit(GPIO_PRT_Type* base, uint32_t pinNum, uint32_t driveMode, uint32_t outVal
 537:Generated_Source\PSoC6\pdl\drivers/peripheral/gpio/cy_gpio.h **** void Cy_GPIO_Port_Deinit(GPIO_PRT_Type* base);
 538:Generated_Source\PSoC6\pdl\drivers/peripheral/gpio/cy_gpio.h **** __STATIC_INLINE void Cy_GPIO_SetHSIOM(GPIO_PRT_Type* base, uint32_t pinNum, en_hsiom_sel_t value);
 539:Generated_Source\PSoC6\pdl\drivers/peripheral/gpio/cy_gpio.h **** __STATIC_INLINE en_hsiom_sel_t Cy_GPIO_GetHSIOM(GPIO_PRT_Type* base, uint32_t pinNum);
 540:Generated_Source\PSoC6\pdl\drivers/peripheral/gpio/cy_gpio.h **** __STATIC_INLINE GPIO_PRT_Type* Cy_GPIO_PortToAddr(uint32_t portNum);
 541:Generated_Source\PSoC6\pdl\drivers/peripheral/gpio/cy_gpio.h **** 
 542:Generated_Source\PSoC6\pdl\drivers/peripheral/gpio/cy_gpio.h **** /** \} group_gpio_functions_init */
 543:Generated_Source\PSoC6\pdl\drivers/peripheral/gpio/cy_gpio.h **** 
 544:Generated_Source\PSoC6\pdl\drivers/peripheral/gpio/cy_gpio.h **** /**
 545:Generated_Source\PSoC6\pdl\drivers/peripheral/gpio/cy_gpio.h **** * \addtogroup group_gpio_functions_gpio
 546:Generated_Source\PSoC6\pdl\drivers/peripheral/gpio/cy_gpio.h **** * \{
 547:Generated_Source\PSoC6\pdl\drivers/peripheral/gpio/cy_gpio.h **** */
 548:Generated_Source\PSoC6\pdl\drivers/peripheral/gpio/cy_gpio.h **** 
 549:Generated_Source\PSoC6\pdl\drivers/peripheral/gpio/cy_gpio.h **** void Cy_GPIO_SetAmuxSplit(cy_en_amux_split_t switchCtrl, cy_en_gpio_amuxconnect_t amuxConnect, cy_e
 550:Generated_Source\PSoC6\pdl\drivers/peripheral/gpio/cy_gpio.h **** cy_en_gpio_amuxconnect_t Cy_GPIO_GetAmuxSplit(cy_en_amux_split_t switchCtrl, cy_en_gpio_amuxselect_
 551:Generated_Source\PSoC6\pdl\drivers/peripheral/gpio/cy_gpio.h **** 
 552:Generated_Source\PSoC6\pdl\drivers/peripheral/gpio/cy_gpio.h **** __STATIC_INLINE uint32_t Cy_GPIO_Read(GPIO_PRT_Type* base, uint32_t pinNum);
 553:Generated_Source\PSoC6\pdl\drivers/peripheral/gpio/cy_gpio.h **** __STATIC_INLINE void Cy_GPIO_Write(GPIO_PRT_Type* base, uint32_t pinNum, uint32_t value);
 554:Generated_Source\PSoC6\pdl\drivers/peripheral/gpio/cy_gpio.h **** __STATIC_INLINE uint32_t Cy_GPIO_ReadOut(GPIO_PRT_Type* base, uint32_t pinNum);
 555:Generated_Source\PSoC6\pdl\drivers/peripheral/gpio/cy_gpio.h **** __STATIC_INLINE void Cy_GPIO_Set(GPIO_PRT_Type* base, uint32_t pinNum);
 556:Generated_Source\PSoC6\pdl\drivers/peripheral/gpio/cy_gpio.h **** __STATIC_INLINE void Cy_GPIO_Clr(GPIO_PRT_Type* base, uint32_t pinNum);
 557:Generated_Source\PSoC6\pdl\drivers/peripheral/gpio/cy_gpio.h **** __STATIC_INLINE void Cy_GPIO_Inv(GPIO_PRT_Type* base, uint32_t pinNum);
 558:Generated_Source\PSoC6\pdl\drivers/peripheral/gpio/cy_gpio.h **** __STATIC_INLINE void Cy_GPIO_SetDrivemode(GPIO_PRT_Type* base, uint32_t pinNum, uint32_t value);
ARM GAS  C:\Users\markm\AppData\Local\Temp\ccA1bc6D.s 			page 33


 559:Generated_Source\PSoC6\pdl\drivers/peripheral/gpio/cy_gpio.h **** __STATIC_INLINE uint32_t Cy_GPIO_GetDrivemode(GPIO_PRT_Type* base, uint32_t pinNum);
 560:Generated_Source\PSoC6\pdl\drivers/peripheral/gpio/cy_gpio.h **** __STATIC_INLINE void Cy_GPIO_SetVtrip(GPIO_PRT_Type* base, uint32_t pinNum, uint32_t value);
 561:Generated_Source\PSoC6\pdl\drivers/peripheral/gpio/cy_gpio.h **** __STATIC_INLINE uint32_t Cy_GPIO_GetVtrip(GPIO_PRT_Type* base, uint32_t pinNum);
 562:Generated_Source\PSoC6\pdl\drivers/peripheral/gpio/cy_gpio.h **** __STATIC_INLINE void Cy_GPIO_SetSlewRate(GPIO_PRT_Type* base, uint32_t pinNum, uint32_t value);
 563:Generated_Source\PSoC6\pdl\drivers/peripheral/gpio/cy_gpio.h **** __STATIC_INLINE uint32_t Cy_GPIO_GetSlewRate(GPIO_PRT_Type* base, uint32_t pinNum);
 564:Generated_Source\PSoC6\pdl\drivers/peripheral/gpio/cy_gpio.h **** __STATIC_INLINE void Cy_GPIO_SetDriveSel(GPIO_PRT_Type* base, uint32_t pinNum, uint32_t value);
 565:Generated_Source\PSoC6\pdl\drivers/peripheral/gpio/cy_gpio.h **** __STATIC_INLINE uint32_t Cy_GPIO_GetDriveSel(GPIO_PRT_Type* base, uint32_t pinNum);
 566:Generated_Source\PSoC6\pdl\drivers/peripheral/gpio/cy_gpio.h **** 
 567:Generated_Source\PSoC6\pdl\drivers/peripheral/gpio/cy_gpio.h **** /** \} group_gpio_functions_gpio */
 568:Generated_Source\PSoC6\pdl\drivers/peripheral/gpio/cy_gpio.h **** 
 569:Generated_Source\PSoC6\pdl\drivers/peripheral/gpio/cy_gpio.h **** /**
 570:Generated_Source\PSoC6\pdl\drivers/peripheral/gpio/cy_gpio.h **** * \addtogroup group_gpio_functions_sio
 571:Generated_Source\PSoC6\pdl\drivers/peripheral/gpio/cy_gpio.h **** * \{
 572:Generated_Source\PSoC6\pdl\drivers/peripheral/gpio/cy_gpio.h **** */
 573:Generated_Source\PSoC6\pdl\drivers/peripheral/gpio/cy_gpio.h **** 
 574:Generated_Source\PSoC6\pdl\drivers/peripheral/gpio/cy_gpio.h **** __STATIC_INLINE void Cy_GPIO_SetVregEn(GPIO_PRT_Type* base, uint32_t pinNum, uint32_t value);
 575:Generated_Source\PSoC6\pdl\drivers/peripheral/gpio/cy_gpio.h **** __STATIC_INLINE uint32_t Cy_GPIO_GetVregEn(GPIO_PRT_Type* base, uint32_t pinNum);
 576:Generated_Source\PSoC6\pdl\drivers/peripheral/gpio/cy_gpio.h **** __STATIC_INLINE void Cy_GPIO_SetIbufMode(GPIO_PRT_Type* base, uint32_t pinNum, uint32_t value);
 577:Generated_Source\PSoC6\pdl\drivers/peripheral/gpio/cy_gpio.h **** __STATIC_INLINE uint32_t Cy_GPIO_GetIbufMode(GPIO_PRT_Type* base, uint32_t pinNum);
 578:Generated_Source\PSoC6\pdl\drivers/peripheral/gpio/cy_gpio.h **** __STATIC_INLINE void Cy_GPIO_SetVtripSel(GPIO_PRT_Type* base, uint32_t pinNum, uint32_t value);
 579:Generated_Source\PSoC6\pdl\drivers/peripheral/gpio/cy_gpio.h **** __STATIC_INLINE uint32_t Cy_GPIO_GetVtripSel(GPIO_PRT_Type* base, uint32_t pinNum);
 580:Generated_Source\PSoC6\pdl\drivers/peripheral/gpio/cy_gpio.h **** __STATIC_INLINE void Cy_GPIO_SetVrefSel(GPIO_PRT_Type* base, uint32_t pinNum, uint32_t value);
 581:Generated_Source\PSoC6\pdl\drivers/peripheral/gpio/cy_gpio.h **** __STATIC_INLINE uint32_t Cy_GPIO_GetVrefSel(GPIO_PRT_Type* base, uint32_t pinNum);
 582:Generated_Source\PSoC6\pdl\drivers/peripheral/gpio/cy_gpio.h **** __STATIC_INLINE void Cy_GPIO_SetVohSel(GPIO_PRT_Type* base, uint32_t pinNum, uint32_t value);
 583:Generated_Source\PSoC6\pdl\drivers/peripheral/gpio/cy_gpio.h **** __STATIC_INLINE uint32_t Cy_GPIO_GetVohSel(GPIO_PRT_Type* base, uint32_t pinNum);
 584:Generated_Source\PSoC6\pdl\drivers/peripheral/gpio/cy_gpio.h **** 
 585:Generated_Source\PSoC6\pdl\drivers/peripheral/gpio/cy_gpio.h **** /** \} group_gpio_functions_sio */
 586:Generated_Source\PSoC6\pdl\drivers/peripheral/gpio/cy_gpio.h **** 
 587:Generated_Source\PSoC6\pdl\drivers/peripheral/gpio/cy_gpio.h **** /**
 588:Generated_Source\PSoC6\pdl\drivers/peripheral/gpio/cy_gpio.h **** * \addtogroup group_gpio_functions_interrupt
 589:Generated_Source\PSoC6\pdl\drivers/peripheral/gpio/cy_gpio.h **** * \{
 590:Generated_Source\PSoC6\pdl\drivers/peripheral/gpio/cy_gpio.h **** */
 591:Generated_Source\PSoC6\pdl\drivers/peripheral/gpio/cy_gpio.h **** 
 592:Generated_Source\PSoC6\pdl\drivers/peripheral/gpio/cy_gpio.h **** __STATIC_INLINE uint32_t Cy_GPIO_GetInterruptStatus(GPIO_PRT_Type* base, uint32_t pinNum);
 593:Generated_Source\PSoC6\pdl\drivers/peripheral/gpio/cy_gpio.h **** __STATIC_INLINE void Cy_GPIO_ClearInterrupt(GPIO_PRT_Type* base, uint32_t pinNum);
 594:Generated_Source\PSoC6\pdl\drivers/peripheral/gpio/cy_gpio.h **** __STATIC_INLINE void Cy_GPIO_SetInterruptMask(GPIO_PRT_Type* base, uint32_t pinNum, uint32_t value)
 595:Generated_Source\PSoC6\pdl\drivers/peripheral/gpio/cy_gpio.h **** __STATIC_INLINE uint32_t Cy_GPIO_GetInterruptMask(GPIO_PRT_Type* base, uint32_t pinNum);
 596:Generated_Source\PSoC6\pdl\drivers/peripheral/gpio/cy_gpio.h **** __STATIC_INLINE uint32_t Cy_GPIO_GetInterruptStatusMasked(GPIO_PRT_Type* base, uint32_t pinNum);
 597:Generated_Source\PSoC6\pdl\drivers/peripheral/gpio/cy_gpio.h **** __STATIC_INLINE void Cy_GPIO_SetSwInterrupt(GPIO_PRT_Type* base, uint32_t pinNum);
 598:Generated_Source\PSoC6\pdl\drivers/peripheral/gpio/cy_gpio.h **** __STATIC_INLINE void Cy_GPIO_SetInterruptEdge(GPIO_PRT_Type* base, uint32_t pinNum, uint32_t value)
 599:Generated_Source\PSoC6\pdl\drivers/peripheral/gpio/cy_gpio.h **** __STATIC_INLINE uint32_t Cy_GPIO_GetInterruptEdge(GPIO_PRT_Type* base, uint32_t pinNum);
 600:Generated_Source\PSoC6\pdl\drivers/peripheral/gpio/cy_gpio.h **** __STATIC_INLINE void Cy_GPIO_SetFilter(GPIO_PRT_Type* base, uint32_t value);
 601:Generated_Source\PSoC6\pdl\drivers/peripheral/gpio/cy_gpio.h **** __STATIC_INLINE uint32_t Cy_GPIO_GetFilter(GPIO_PRT_Type* base);
 602:Generated_Source\PSoC6\pdl\drivers/peripheral/gpio/cy_gpio.h **** 
 603:Generated_Source\PSoC6\pdl\drivers/peripheral/gpio/cy_gpio.h **** __STATIC_INLINE uint32_t Cy_GPIO_GetInterruptCause0(void);
 604:Generated_Source\PSoC6\pdl\drivers/peripheral/gpio/cy_gpio.h **** __STATIC_INLINE uint32_t Cy_GPIO_GetInterruptCause1(void);
 605:Generated_Source\PSoC6\pdl\drivers/peripheral/gpio/cy_gpio.h **** __STATIC_INLINE uint32_t Cy_GPIO_GetInterruptCause2(void);
 606:Generated_Source\PSoC6\pdl\drivers/peripheral/gpio/cy_gpio.h **** __STATIC_INLINE uint32_t Cy_GPIO_GetInterruptCause3(void);
 607:Generated_Source\PSoC6\pdl\drivers/peripheral/gpio/cy_gpio.h **** 
 608:Generated_Source\PSoC6\pdl\drivers/peripheral/gpio/cy_gpio.h **** /** \} group_gpio_functions_interrupt */
 609:Generated_Source\PSoC6\pdl\drivers/peripheral/gpio/cy_gpio.h **** 
 610:Generated_Source\PSoC6\pdl\drivers/peripheral/gpio/cy_gpio.h **** 
 611:Generated_Source\PSoC6\pdl\drivers/peripheral/gpio/cy_gpio.h **** /**
 612:Generated_Source\PSoC6\pdl\drivers/peripheral/gpio/cy_gpio.h **** * \addtogroup group_gpio_functions_init
 613:Generated_Source\PSoC6\pdl\drivers/peripheral/gpio/cy_gpio.h **** * \{
 614:Generated_Source\PSoC6\pdl\drivers/peripheral/gpio/cy_gpio.h **** */
 615:Generated_Source\PSoC6\pdl\drivers/peripheral/gpio/cy_gpio.h **** 
ARM GAS  C:\Users\markm\AppData\Local\Temp\ccA1bc6D.s 			page 34


 616:Generated_Source\PSoC6\pdl\drivers/peripheral/gpio/cy_gpio.h **** /*******************************************************************************
 617:Generated_Source\PSoC6\pdl\drivers/peripheral/gpio/cy_gpio.h **** * Function Name: Cy_GPIO_SetHSIOM
 618:Generated_Source\PSoC6\pdl\drivers/peripheral/gpio/cy_gpio.h **** ****************************************************************************//**
 619:Generated_Source\PSoC6\pdl\drivers/peripheral/gpio/cy_gpio.h **** *
 620:Generated_Source\PSoC6\pdl\drivers/peripheral/gpio/cy_gpio.h **** * Configures the HSIOM connection to the pin.
 621:Generated_Source\PSoC6\pdl\drivers/peripheral/gpio/cy_gpio.h **** *
 622:Generated_Source\PSoC6\pdl\drivers/peripheral/gpio/cy_gpio.h **** * Connects the specified High-Speed Input Output Multiplexer (HSIOM) selection
 623:Generated_Source\PSoC6\pdl\drivers/peripheral/gpio/cy_gpio.h **** * to the pin.
 624:Generated_Source\PSoC6\pdl\drivers/peripheral/gpio/cy_gpio.h **** *
 625:Generated_Source\PSoC6\pdl\drivers/peripheral/gpio/cy_gpio.h **** * \param base
 626:Generated_Source\PSoC6\pdl\drivers/peripheral/gpio/cy_gpio.h **** * Pointer to the pin's port register base address
 627:Generated_Source\PSoC6\pdl\drivers/peripheral/gpio/cy_gpio.h **** *
 628:Generated_Source\PSoC6\pdl\drivers/peripheral/gpio/cy_gpio.h **** * \param pinNum
 629:Generated_Source\PSoC6\pdl\drivers/peripheral/gpio/cy_gpio.h **** * Position of the pin bit-field within the port register
 630:Generated_Source\PSoC6\pdl\drivers/peripheral/gpio/cy_gpio.h **** *
 631:Generated_Source\PSoC6\pdl\drivers/peripheral/gpio/cy_gpio.h **** * \param value
 632:Generated_Source\PSoC6\pdl\drivers/peripheral/gpio/cy_gpio.h **** * HSIOM input selection
 633:Generated_Source\PSoC6\pdl\drivers/peripheral/gpio/cy_gpio.h **** *
 634:Generated_Source\PSoC6\pdl\drivers/peripheral/gpio/cy_gpio.h **** * \note 
 635:Generated_Source\PSoC6\pdl\drivers/peripheral/gpio/cy_gpio.h **** * This function modifies a port register in a read-modify-write operation. It is
 636:Generated_Source\PSoC6\pdl\drivers/peripheral/gpio/cy_gpio.h **** * not thread safe as the resource is shared among multiple pins on a port.
 637:Generated_Source\PSoC6\pdl\drivers/peripheral/gpio/cy_gpio.h **** *
 638:Generated_Source\PSoC6\pdl\drivers/peripheral/gpio/cy_gpio.h **** * \funcusage
 639:Generated_Source\PSoC6\pdl\drivers/peripheral/gpio/cy_gpio.h **** * \snippet gpio/gpio_v1_10_sut_01.cydsn/main_cm4.c snippet_Cy_GPIO_SetHSIOM
 640:Generated_Source\PSoC6\pdl\drivers/peripheral/gpio/cy_gpio.h **** *
 641:Generated_Source\PSoC6\pdl\drivers/peripheral/gpio/cy_gpio.h **** *******************************************************************************/
 642:Generated_Source\PSoC6\pdl\drivers/peripheral/gpio/cy_gpio.h **** __STATIC_INLINE void Cy_GPIO_SetHSIOM(GPIO_PRT_Type* base, uint32_t pinNum, en_hsiom_sel_t value)
 643:Generated_Source\PSoC6\pdl\drivers/peripheral/gpio/cy_gpio.h **** {
 644:Generated_Source\PSoC6\pdl\drivers/peripheral/gpio/cy_gpio.h ****     uint32_t portNum;
 645:Generated_Source\PSoC6\pdl\drivers/peripheral/gpio/cy_gpio.h ****     uint32_t tempReg;
 646:Generated_Source\PSoC6\pdl\drivers/peripheral/gpio/cy_gpio.h ****     HSIOM_PRT_V1_Type* portAddrHSIOM;
 647:Generated_Source\PSoC6\pdl\drivers/peripheral/gpio/cy_gpio.h **** 
 648:Generated_Source\PSoC6\pdl\drivers/peripheral/gpio/cy_gpio.h ****     CY_ASSERT_L2(CY_GPIO_IS_PIN_VALID(pinNum));
 649:Generated_Source\PSoC6\pdl\drivers/peripheral/gpio/cy_gpio.h ****     CY_ASSERT_L2(CY_GPIO_IS_HSIOM_VALID(value));
 650:Generated_Source\PSoC6\pdl\drivers/peripheral/gpio/cy_gpio.h **** 
 651:Generated_Source\PSoC6\pdl\drivers/peripheral/gpio/cy_gpio.h ****     portNum = ((uint32_t)(base) - CY_GPIO_BASE) / GPIO_PRT_SECTION_SIZE;
 652:Generated_Source\PSoC6\pdl\drivers/peripheral/gpio/cy_gpio.h ****     portAddrHSIOM = (HSIOM_PRT_V1_Type*)(CY_HSIOM_BASE + (HSIOM_PRT_SECTION_SIZE * portNum));
 653:Generated_Source\PSoC6\pdl\drivers/peripheral/gpio/cy_gpio.h **** 
 654:Generated_Source\PSoC6\pdl\drivers/peripheral/gpio/cy_gpio.h ****     if(pinNum < CY_GPIO_PRT_HALF)
 655:Generated_Source\PSoC6\pdl\drivers/peripheral/gpio/cy_gpio.h ****     {
 656:Generated_Source\PSoC6\pdl\drivers/peripheral/gpio/cy_gpio.h ****         tempReg = HSIOM_PRT_PORT_SEL0(portAddrHSIOM) & ~(CY_GPIO_HSIOM_MASK << (pinNum << CY_GPIO_H
 657:Generated_Source\PSoC6\pdl\drivers/peripheral/gpio/cy_gpio.h ****         HSIOM_PRT_PORT_SEL0(portAddrHSIOM) = tempReg | ((value & CY_GPIO_HSIOM_MASK) << (pinNum << 
 658:Generated_Source\PSoC6\pdl\drivers/peripheral/gpio/cy_gpio.h ****     }
 659:Generated_Source\PSoC6\pdl\drivers/peripheral/gpio/cy_gpio.h ****     else
 660:Generated_Source\PSoC6\pdl\drivers/peripheral/gpio/cy_gpio.h ****     {
 661:Generated_Source\PSoC6\pdl\drivers/peripheral/gpio/cy_gpio.h ****         pinNum -= CY_GPIO_PRT_HALF;
 662:Generated_Source\PSoC6\pdl\drivers/peripheral/gpio/cy_gpio.h ****         tempReg = HSIOM_PRT_PORT_SEL1(portAddrHSIOM) & ~(CY_GPIO_HSIOM_MASK << (pinNum << CY_GPIO_H
 663:Generated_Source\PSoC6\pdl\drivers/peripheral/gpio/cy_gpio.h ****         HSIOM_PRT_PORT_SEL1(portAddrHSIOM) = tempReg | ((value & CY_GPIO_HSIOM_MASK) << (pinNum << 
 664:Generated_Source\PSoC6\pdl\drivers/peripheral/gpio/cy_gpio.h ****     }
 665:Generated_Source\PSoC6\pdl\drivers/peripheral/gpio/cy_gpio.h **** }
 666:Generated_Source\PSoC6\pdl\drivers/peripheral/gpio/cy_gpio.h **** 
 667:Generated_Source\PSoC6\pdl\drivers/peripheral/gpio/cy_gpio.h **** 
 668:Generated_Source\PSoC6\pdl\drivers/peripheral/gpio/cy_gpio.h **** /*******************************************************************************
 669:Generated_Source\PSoC6\pdl\drivers/peripheral/gpio/cy_gpio.h **** * Function Name: Cy_GPIO_GetHSIOM
 670:Generated_Source\PSoC6\pdl\drivers/peripheral/gpio/cy_gpio.h **** ****************************************************************************//**
 671:Generated_Source\PSoC6\pdl\drivers/peripheral/gpio/cy_gpio.h **** *
 672:Generated_Source\PSoC6\pdl\drivers/peripheral/gpio/cy_gpio.h **** * Returns the current HSIOM multiplexer connection to the pin.
ARM GAS  C:\Users\markm\AppData\Local\Temp\ccA1bc6D.s 			page 35


 673:Generated_Source\PSoC6\pdl\drivers/peripheral/gpio/cy_gpio.h **** *
 674:Generated_Source\PSoC6\pdl\drivers/peripheral/gpio/cy_gpio.h **** * \param base
 675:Generated_Source\PSoC6\pdl\drivers/peripheral/gpio/cy_gpio.h **** * Pointer to the pin's port register base address
 676:Generated_Source\PSoC6\pdl\drivers/peripheral/gpio/cy_gpio.h **** *
 677:Generated_Source\PSoC6\pdl\drivers/peripheral/gpio/cy_gpio.h **** * \param pinNum
 678:Generated_Source\PSoC6\pdl\drivers/peripheral/gpio/cy_gpio.h **** * Position of the pin bit-field within the port register
 679:Generated_Source\PSoC6\pdl\drivers/peripheral/gpio/cy_gpio.h **** *
 680:Generated_Source\PSoC6\pdl\drivers/peripheral/gpio/cy_gpio.h **** * \return
 681:Generated_Source\PSoC6\pdl\drivers/peripheral/gpio/cy_gpio.h **** * HSIOM input selection
 682:Generated_Source\PSoC6\pdl\drivers/peripheral/gpio/cy_gpio.h **** *
 683:Generated_Source\PSoC6\pdl\drivers/peripheral/gpio/cy_gpio.h **** * \funcusage
 684:Generated_Source\PSoC6\pdl\drivers/peripheral/gpio/cy_gpio.h **** * \snippet gpio/gpio_v1_10_sut_01.cydsn/main_cm4.c snippet_Cy_GPIO_SetHSIOM
 685:Generated_Source\PSoC6\pdl\drivers/peripheral/gpio/cy_gpio.h **** *
 686:Generated_Source\PSoC6\pdl\drivers/peripheral/gpio/cy_gpio.h **** *******************************************************************************/
 687:Generated_Source\PSoC6\pdl\drivers/peripheral/gpio/cy_gpio.h **** __STATIC_INLINE en_hsiom_sel_t Cy_GPIO_GetHSIOM(GPIO_PRT_Type* base, uint32_t pinNum)
 688:Generated_Source\PSoC6\pdl\drivers/peripheral/gpio/cy_gpio.h **** {
 689:Generated_Source\PSoC6\pdl\drivers/peripheral/gpio/cy_gpio.h ****     uint32_t returnValue;
 690:Generated_Source\PSoC6\pdl\drivers/peripheral/gpio/cy_gpio.h ****     uint32_t portNum;
 691:Generated_Source\PSoC6\pdl\drivers/peripheral/gpio/cy_gpio.h ****     HSIOM_PRT_V1_Type* portAddrHSIOM;
 692:Generated_Source\PSoC6\pdl\drivers/peripheral/gpio/cy_gpio.h ****     
 693:Generated_Source\PSoC6\pdl\drivers/peripheral/gpio/cy_gpio.h ****     CY_ASSERT_L2(CY_GPIO_IS_PIN_VALID(pinNum));
 694:Generated_Source\PSoC6\pdl\drivers/peripheral/gpio/cy_gpio.h **** 
 695:Generated_Source\PSoC6\pdl\drivers/peripheral/gpio/cy_gpio.h ****     portNum = ((uint32_t)(base) - CY_GPIO_BASE) / GPIO_PRT_SECTION_SIZE;
 696:Generated_Source\PSoC6\pdl\drivers/peripheral/gpio/cy_gpio.h ****     portAddrHSIOM = (HSIOM_PRT_V1_Type*)(CY_HSIOM_BASE + (HSIOM_PRT_SECTION_SIZE * portNum));
 697:Generated_Source\PSoC6\pdl\drivers/peripheral/gpio/cy_gpio.h **** 
 698:Generated_Source\PSoC6\pdl\drivers/peripheral/gpio/cy_gpio.h ****     if(pinNum < CY_GPIO_PRT_HALF)
 699:Generated_Source\PSoC6\pdl\drivers/peripheral/gpio/cy_gpio.h ****     {
 700:Generated_Source\PSoC6\pdl\drivers/peripheral/gpio/cy_gpio.h ****         returnValue = (HSIOM_PRT_PORT_SEL0(portAddrHSIOM) >> (pinNum << CY_GPIO_HSIOM_OFFSET)) & CY
 701:Generated_Source\PSoC6\pdl\drivers/peripheral/gpio/cy_gpio.h ****     }
 702:Generated_Source\PSoC6\pdl\drivers/peripheral/gpio/cy_gpio.h ****     else
 703:Generated_Source\PSoC6\pdl\drivers/peripheral/gpio/cy_gpio.h ****     {
 704:Generated_Source\PSoC6\pdl\drivers/peripheral/gpio/cy_gpio.h ****         pinNum -= CY_GPIO_PRT_HALF;
 705:Generated_Source\PSoC6\pdl\drivers/peripheral/gpio/cy_gpio.h ****         returnValue = (HSIOM_PRT_PORT_SEL1(portAddrHSIOM) >> (pinNum << CY_GPIO_HSIOM_OFFSET)) & CY
 706:Generated_Source\PSoC6\pdl\drivers/peripheral/gpio/cy_gpio.h ****     }
 707:Generated_Source\PSoC6\pdl\drivers/peripheral/gpio/cy_gpio.h **** 
 708:Generated_Source\PSoC6\pdl\drivers/peripheral/gpio/cy_gpio.h ****     return (en_hsiom_sel_t)returnValue;
 709:Generated_Source\PSoC6\pdl\drivers/peripheral/gpio/cy_gpio.h **** }
 710:Generated_Source\PSoC6\pdl\drivers/peripheral/gpio/cy_gpio.h **** 
 711:Generated_Source\PSoC6\pdl\drivers/peripheral/gpio/cy_gpio.h **** 
 712:Generated_Source\PSoC6\pdl\drivers/peripheral/gpio/cy_gpio.h **** /*******************************************************************************
 713:Generated_Source\PSoC6\pdl\drivers/peripheral/gpio/cy_gpio.h **** * Function Name: Cy_GPIO_PortToAddr
 714:Generated_Source\PSoC6\pdl\drivers/peripheral/gpio/cy_gpio.h **** ****************************************************************************//**
 715:Generated_Source\PSoC6\pdl\drivers/peripheral/gpio/cy_gpio.h **** *
 716:Generated_Source\PSoC6\pdl\drivers/peripheral/gpio/cy_gpio.h **** * Retrieves the port address based on the given port number.
 717:Generated_Source\PSoC6\pdl\drivers/peripheral/gpio/cy_gpio.h **** *
 718:Generated_Source\PSoC6\pdl\drivers/peripheral/gpio/cy_gpio.h **** * This is a helper function to calculate the port base address when given a port
 719:Generated_Source\PSoC6\pdl\drivers/peripheral/gpio/cy_gpio.h **** * number. It is to be used when pin access needs to be calculated at runtime.
 720:Generated_Source\PSoC6\pdl\drivers/peripheral/gpio/cy_gpio.h **** *
 721:Generated_Source\PSoC6\pdl\drivers/peripheral/gpio/cy_gpio.h **** * \param portNum
 722:Generated_Source\PSoC6\pdl\drivers/peripheral/gpio/cy_gpio.h **** * Port number
 723:Generated_Source\PSoC6\pdl\drivers/peripheral/gpio/cy_gpio.h **** *
 724:Generated_Source\PSoC6\pdl\drivers/peripheral/gpio/cy_gpio.h **** * \return
 725:Generated_Source\PSoC6\pdl\drivers/peripheral/gpio/cy_gpio.h **** * Base address of the port register structure
 726:Generated_Source\PSoC6\pdl\drivers/peripheral/gpio/cy_gpio.h **** *
 727:Generated_Source\PSoC6\pdl\drivers/peripheral/gpio/cy_gpio.h **** * \funcusage
 728:Generated_Source\PSoC6\pdl\drivers/peripheral/gpio/cy_gpio.h **** * \snippet gpio/gpio_v1_10_sut_01.cydsn/main_cm4.c snippet_Cy_GPIO_PortToAddr
 729:Generated_Source\PSoC6\pdl\drivers/peripheral/gpio/cy_gpio.h **** *
ARM GAS  C:\Users\markm\AppData\Local\Temp\ccA1bc6D.s 			page 36


 730:Generated_Source\PSoC6\pdl\drivers/peripheral/gpio/cy_gpio.h **** *******************************************************************************/
 731:Generated_Source\PSoC6\pdl\drivers/peripheral/gpio/cy_gpio.h **** __STATIC_INLINE GPIO_PRT_Type* Cy_GPIO_PortToAddr(uint32_t portNum)
 732:Generated_Source\PSoC6\pdl\drivers/peripheral/gpio/cy_gpio.h **** {
 733:Generated_Source\PSoC6\pdl\drivers/peripheral/gpio/cy_gpio.h ****     GPIO_PRT_Type* portBase;
 734:Generated_Source\PSoC6\pdl\drivers/peripheral/gpio/cy_gpio.h ****     
 735:Generated_Source\PSoC6\pdl\drivers/peripheral/gpio/cy_gpio.h ****     if(portNum < (uint32_t)IOSS_GPIO_GPIO_PORT_NR)
 736:Generated_Source\PSoC6\pdl\drivers/peripheral/gpio/cy_gpio.h ****     {
 737:Generated_Source\PSoC6\pdl\drivers/peripheral/gpio/cy_gpio.h ****         portBase = (GPIO_PRT_Type *)(CY_GPIO_BASE + (GPIO_PRT_SECTION_SIZE * portNum));
 738:Generated_Source\PSoC6\pdl\drivers/peripheral/gpio/cy_gpio.h ****     }
 739:Generated_Source\PSoC6\pdl\drivers/peripheral/gpio/cy_gpio.h ****     else
 740:Generated_Source\PSoC6\pdl\drivers/peripheral/gpio/cy_gpio.h ****     {
 741:Generated_Source\PSoC6\pdl\drivers/peripheral/gpio/cy_gpio.h ****         /* Error: Return default base address */
 742:Generated_Source\PSoC6\pdl\drivers/peripheral/gpio/cy_gpio.h ****         portBase = (GPIO_PRT_Type *)(CY_GPIO_BASE);
 743:Generated_Source\PSoC6\pdl\drivers/peripheral/gpio/cy_gpio.h ****     }
 744:Generated_Source\PSoC6\pdl\drivers/peripheral/gpio/cy_gpio.h **** 
 745:Generated_Source\PSoC6\pdl\drivers/peripheral/gpio/cy_gpio.h ****     return (portBase);
 746:Generated_Source\PSoC6\pdl\drivers/peripheral/gpio/cy_gpio.h **** }
 747:Generated_Source\PSoC6\pdl\drivers/peripheral/gpio/cy_gpio.h **** 
 748:Generated_Source\PSoC6\pdl\drivers/peripheral/gpio/cy_gpio.h **** /** \} group_gpio_functions_init */
 749:Generated_Source\PSoC6\pdl\drivers/peripheral/gpio/cy_gpio.h **** 
 750:Generated_Source\PSoC6\pdl\drivers/peripheral/gpio/cy_gpio.h **** /**
 751:Generated_Source\PSoC6\pdl\drivers/peripheral/gpio/cy_gpio.h **** * \addtogroup group_gpio_functions_gpio
 752:Generated_Source\PSoC6\pdl\drivers/peripheral/gpio/cy_gpio.h **** * \{
 753:Generated_Source\PSoC6\pdl\drivers/peripheral/gpio/cy_gpio.h **** */
 754:Generated_Source\PSoC6\pdl\drivers/peripheral/gpio/cy_gpio.h **** 
 755:Generated_Source\PSoC6\pdl\drivers/peripheral/gpio/cy_gpio.h **** /*******************************************************************************
 756:Generated_Source\PSoC6\pdl\drivers/peripheral/gpio/cy_gpio.h **** * Function Name: Cy_GPIO_Read
 757:Generated_Source\PSoC6\pdl\drivers/peripheral/gpio/cy_gpio.h **** ****************************************************************************//**
 758:Generated_Source\PSoC6\pdl\drivers/peripheral/gpio/cy_gpio.h **** *
 759:Generated_Source\PSoC6\pdl\drivers/peripheral/gpio/cy_gpio.h **** * Reads the current logic level on the input buffer of the pin.
 760:Generated_Source\PSoC6\pdl\drivers/peripheral/gpio/cy_gpio.h **** *
 761:Generated_Source\PSoC6\pdl\drivers/peripheral/gpio/cy_gpio.h **** * \param base
 762:Generated_Source\PSoC6\pdl\drivers/peripheral/gpio/cy_gpio.h **** * Pointer to the pin's port register base address
 763:Generated_Source\PSoC6\pdl\drivers/peripheral/gpio/cy_gpio.h **** *
 764:Generated_Source\PSoC6\pdl\drivers/peripheral/gpio/cy_gpio.h **** * \param pinNum
 765:Generated_Source\PSoC6\pdl\drivers/peripheral/gpio/cy_gpio.h **** * Position of the pin bit-field within the port register.
 766:Generated_Source\PSoC6\pdl\drivers/peripheral/gpio/cy_gpio.h **** * Bit position 8 is the routed pin through the port glitch filter.
 767:Generated_Source\PSoC6\pdl\drivers/peripheral/gpio/cy_gpio.h **** *
 768:Generated_Source\PSoC6\pdl\drivers/peripheral/gpio/cy_gpio.h **** * \return
 769:Generated_Source\PSoC6\pdl\drivers/peripheral/gpio/cy_gpio.h **** * Logic level present on the pin
 770:Generated_Source\PSoC6\pdl\drivers/peripheral/gpio/cy_gpio.h **** *
 771:Generated_Source\PSoC6\pdl\drivers/peripheral/gpio/cy_gpio.h **** * \funcusage
 772:Generated_Source\PSoC6\pdl\drivers/peripheral/gpio/cy_gpio.h **** * \snippet gpio/gpio_v1_10_sut_01.cydsn/main_cm4.c snippet_Cy_GPIO_Read
 773:Generated_Source\PSoC6\pdl\drivers/peripheral/gpio/cy_gpio.h **** *
 774:Generated_Source\PSoC6\pdl\drivers/peripheral/gpio/cy_gpio.h **** *******************************************************************************/
 775:Generated_Source\PSoC6\pdl\drivers/peripheral/gpio/cy_gpio.h **** __STATIC_INLINE uint32_t Cy_GPIO_Read(GPIO_PRT_Type* base, uint32_t pinNum)
 776:Generated_Source\PSoC6\pdl\drivers/peripheral/gpio/cy_gpio.h **** {
 777:Generated_Source\PSoC6\pdl\drivers/peripheral/gpio/cy_gpio.h ****     CY_ASSERT_L2(CY_GPIO_IS_FILTER_PIN_VALID(pinNum));
 778:Generated_Source\PSoC6\pdl\drivers/peripheral/gpio/cy_gpio.h ****     
 779:Generated_Source\PSoC6\pdl\drivers/peripheral/gpio/cy_gpio.h ****     return (GPIO_PRT_IN(base) >> (pinNum)) & CY_GPIO_IN_MASK;
 780:Generated_Source\PSoC6\pdl\drivers/peripheral/gpio/cy_gpio.h **** }
 781:Generated_Source\PSoC6\pdl\drivers/peripheral/gpio/cy_gpio.h **** 
 782:Generated_Source\PSoC6\pdl\drivers/peripheral/gpio/cy_gpio.h **** 
 783:Generated_Source\PSoC6\pdl\drivers/peripheral/gpio/cy_gpio.h **** /*******************************************************************************
 784:Generated_Source\PSoC6\pdl\drivers/peripheral/gpio/cy_gpio.h **** * Function Name: Cy_GPIO_Write
 785:Generated_Source\PSoC6\pdl\drivers/peripheral/gpio/cy_gpio.h **** ****************************************************************************//**
 786:Generated_Source\PSoC6\pdl\drivers/peripheral/gpio/cy_gpio.h **** *
ARM GAS  C:\Users\markm\AppData\Local\Temp\ccA1bc6D.s 			page 37


 787:Generated_Source\PSoC6\pdl\drivers/peripheral/gpio/cy_gpio.h **** * Write a logic 0 or logic 1 state to the output driver.
 788:Generated_Source\PSoC6\pdl\drivers/peripheral/gpio/cy_gpio.h **** *
 789:Generated_Source\PSoC6\pdl\drivers/peripheral/gpio/cy_gpio.h **** * This function should be used only for software driven pins. It does not have
 790:Generated_Source\PSoC6\pdl\drivers/peripheral/gpio/cy_gpio.h **** * any effect on peripheral driven pins.
 791:Generated_Source\PSoC6\pdl\drivers/peripheral/gpio/cy_gpio.h **** *
 792:Generated_Source\PSoC6\pdl\drivers/peripheral/gpio/cy_gpio.h **** * \param base
 793:Generated_Source\PSoC6\pdl\drivers/peripheral/gpio/cy_gpio.h **** * Pointer to the pin's port register base address
 794:Generated_Source\PSoC6\pdl\drivers/peripheral/gpio/cy_gpio.h **** *
 795:Generated_Source\PSoC6\pdl\drivers/peripheral/gpio/cy_gpio.h **** * \param pinNum
 796:Generated_Source\PSoC6\pdl\drivers/peripheral/gpio/cy_gpio.h **** * Position of the pin bit-field within the port register
 797:Generated_Source\PSoC6\pdl\drivers/peripheral/gpio/cy_gpio.h **** *
 798:Generated_Source\PSoC6\pdl\drivers/peripheral/gpio/cy_gpio.h **** * \param value
 799:Generated_Source\PSoC6\pdl\drivers/peripheral/gpio/cy_gpio.h **** * Logic level to drive out on the pin
 800:Generated_Source\PSoC6\pdl\drivers/peripheral/gpio/cy_gpio.h **** *
 801:Generated_Source\PSoC6\pdl\drivers/peripheral/gpio/cy_gpio.h **** * \funcusage
 802:Generated_Source\PSoC6\pdl\drivers/peripheral/gpio/cy_gpio.h **** * \snippet gpio/gpio_v1_10_sut_01.cydsn/main_cm4.c snippet_Cy_GPIO_Write
 803:Generated_Source\PSoC6\pdl\drivers/peripheral/gpio/cy_gpio.h **** *
 804:Generated_Source\PSoC6\pdl\drivers/peripheral/gpio/cy_gpio.h **** *******************************************************************************/
 805:Generated_Source\PSoC6\pdl\drivers/peripheral/gpio/cy_gpio.h **** __STATIC_INLINE void Cy_GPIO_Write(GPIO_PRT_Type* base, uint32_t pinNum, uint32_t value)
 806:Generated_Source\PSoC6\pdl\drivers/peripheral/gpio/cy_gpio.h **** {
 807:Generated_Source\PSoC6\pdl\drivers/peripheral/gpio/cy_gpio.h ****     CY_ASSERT_L2(CY_GPIO_IS_PIN_VALID(pinNum));
 808:Generated_Source\PSoC6\pdl\drivers/peripheral/gpio/cy_gpio.h ****     CY_ASSERT_L2(CY_GPIO_IS_VALUE_VALID(value));
 809:Generated_Source\PSoC6\pdl\drivers/peripheral/gpio/cy_gpio.h **** 
 810:Generated_Source\PSoC6\pdl\drivers/peripheral/gpio/cy_gpio.h ****     /* Thread-safe: Directly access the pin registers instead of base->OUT */
 811:Generated_Source\PSoC6\pdl\drivers/peripheral/gpio/cy_gpio.h ****     if(0UL == value)
 812:Generated_Source\PSoC6\pdl\drivers/peripheral/gpio/cy_gpio.h ****     {
 813:Generated_Source\PSoC6\pdl\drivers/peripheral/gpio/cy_gpio.h ****         GPIO_PRT_OUT_CLR(base) = CY_GPIO_OUT_MASK << pinNum;
 814:Generated_Source\PSoC6\pdl\drivers/peripheral/gpio/cy_gpio.h ****     }
 815:Generated_Source\PSoC6\pdl\drivers/peripheral/gpio/cy_gpio.h ****     else
 816:Generated_Source\PSoC6\pdl\drivers/peripheral/gpio/cy_gpio.h ****     {
 817:Generated_Source\PSoC6\pdl\drivers/peripheral/gpio/cy_gpio.h ****         GPIO_PRT_OUT_SET(base) = CY_GPIO_OUT_MASK << pinNum;
 818:Generated_Source\PSoC6\pdl\drivers/peripheral/gpio/cy_gpio.h ****     }
 819:Generated_Source\PSoC6\pdl\drivers/peripheral/gpio/cy_gpio.h **** }
 820:Generated_Source\PSoC6\pdl\drivers/peripheral/gpio/cy_gpio.h **** 
 821:Generated_Source\PSoC6\pdl\drivers/peripheral/gpio/cy_gpio.h **** 
 822:Generated_Source\PSoC6\pdl\drivers/peripheral/gpio/cy_gpio.h **** /*******************************************************************************
 823:Generated_Source\PSoC6\pdl\drivers/peripheral/gpio/cy_gpio.h **** * Function Name: Cy_GPIO_ReadOut
 824:Generated_Source\PSoC6\pdl\drivers/peripheral/gpio/cy_gpio.h **** ****************************************************************************//**
 825:Generated_Source\PSoC6\pdl\drivers/peripheral/gpio/cy_gpio.h **** *
 826:Generated_Source\PSoC6\pdl\drivers/peripheral/gpio/cy_gpio.h **** * Reads the current logic level on the pin output driver.
 827:Generated_Source\PSoC6\pdl\drivers/peripheral/gpio/cy_gpio.h **** *
 828:Generated_Source\PSoC6\pdl\drivers/peripheral/gpio/cy_gpio.h **** * \param base
 829:Generated_Source\PSoC6\pdl\drivers/peripheral/gpio/cy_gpio.h **** * Pointer to the pin's port register base address
 830:Generated_Source\PSoC6\pdl\drivers/peripheral/gpio/cy_gpio.h **** *
 831:Generated_Source\PSoC6\pdl\drivers/peripheral/gpio/cy_gpio.h **** * \param pinNum
 832:Generated_Source\PSoC6\pdl\drivers/peripheral/gpio/cy_gpio.h **** * Position of the pin bit-field within the port register
 833:Generated_Source\PSoC6\pdl\drivers/peripheral/gpio/cy_gpio.h **** *
 834:Generated_Source\PSoC6\pdl\drivers/peripheral/gpio/cy_gpio.h **** * \return
 835:Generated_Source\PSoC6\pdl\drivers/peripheral/gpio/cy_gpio.h **** * Logic level on the pin output driver
 836:Generated_Source\PSoC6\pdl\drivers/peripheral/gpio/cy_gpio.h **** *
 837:Generated_Source\PSoC6\pdl\drivers/peripheral/gpio/cy_gpio.h **** * \funcusage
 838:Generated_Source\PSoC6\pdl\drivers/peripheral/gpio/cy_gpio.h **** * \snippet gpio/gpio_v1_10_sut_01.cydsn/main_cm4.c snippet_Cy_GPIO_ReadOut
 839:Generated_Source\PSoC6\pdl\drivers/peripheral/gpio/cy_gpio.h **** *
 840:Generated_Source\PSoC6\pdl\drivers/peripheral/gpio/cy_gpio.h **** *******************************************************************************/
 841:Generated_Source\PSoC6\pdl\drivers/peripheral/gpio/cy_gpio.h **** __STATIC_INLINE uint32_t Cy_GPIO_ReadOut(GPIO_PRT_Type* base, uint32_t pinNum)
 842:Generated_Source\PSoC6\pdl\drivers/peripheral/gpio/cy_gpio.h **** {
 843:Generated_Source\PSoC6\pdl\drivers/peripheral/gpio/cy_gpio.h ****     CY_ASSERT_L2(CY_GPIO_IS_PIN_VALID(pinNum));
ARM GAS  C:\Users\markm\AppData\Local\Temp\ccA1bc6D.s 			page 38


 844:Generated_Source\PSoC6\pdl\drivers/peripheral/gpio/cy_gpio.h **** 
 845:Generated_Source\PSoC6\pdl\drivers/peripheral/gpio/cy_gpio.h ****     return (GPIO_PRT_OUT(base) >> pinNum) & CY_GPIO_OUT_MASK;
 846:Generated_Source\PSoC6\pdl\drivers/peripheral/gpio/cy_gpio.h **** }
 847:Generated_Source\PSoC6\pdl\drivers/peripheral/gpio/cy_gpio.h **** 
 848:Generated_Source\PSoC6\pdl\drivers/peripheral/gpio/cy_gpio.h **** 
 849:Generated_Source\PSoC6\pdl\drivers/peripheral/gpio/cy_gpio.h **** /*******************************************************************************
 850:Generated_Source\PSoC6\pdl\drivers/peripheral/gpio/cy_gpio.h **** * Function Name: Cy_GPIO_Set
 851:Generated_Source\PSoC6\pdl\drivers/peripheral/gpio/cy_gpio.h **** ****************************************************************************//**
 852:Generated_Source\PSoC6\pdl\drivers/peripheral/gpio/cy_gpio.h **** *
 853:Generated_Source\PSoC6\pdl\drivers/peripheral/gpio/cy_gpio.h **** * Set a pin output to logic state high.
 854:Generated_Source\PSoC6\pdl\drivers/peripheral/gpio/cy_gpio.h **** *
 855:Generated_Source\PSoC6\pdl\drivers/peripheral/gpio/cy_gpio.h **** * This function should be used only for software driven pins. It does not have
 856:Generated_Source\PSoC6\pdl\drivers/peripheral/gpio/cy_gpio.h **** * any effect on peripheral driven pins.
 857:Generated_Source\PSoC6\pdl\drivers/peripheral/gpio/cy_gpio.h **** *
 858:Generated_Source\PSoC6\pdl\drivers/peripheral/gpio/cy_gpio.h **** * \param base
 859:Generated_Source\PSoC6\pdl\drivers/peripheral/gpio/cy_gpio.h **** * Pointer to the pin's port register base address
 860:Generated_Source\PSoC6\pdl\drivers/peripheral/gpio/cy_gpio.h **** *
 861:Generated_Source\PSoC6\pdl\drivers/peripheral/gpio/cy_gpio.h **** * \param pinNum
 862:Generated_Source\PSoC6\pdl\drivers/peripheral/gpio/cy_gpio.h **** * Position of the pin bit-field within the port register
 863:Generated_Source\PSoC6\pdl\drivers/peripheral/gpio/cy_gpio.h **** *
 864:Generated_Source\PSoC6\pdl\drivers/peripheral/gpio/cy_gpio.h **** * \funcusage
 865:Generated_Source\PSoC6\pdl\drivers/peripheral/gpio/cy_gpio.h **** * \snippet gpio/gpio_v1_10_sut_01.cydsn/main_cm4.c snippet_Cy_GPIO_Set
 866:Generated_Source\PSoC6\pdl\drivers/peripheral/gpio/cy_gpio.h **** *
 867:Generated_Source\PSoC6\pdl\drivers/peripheral/gpio/cy_gpio.h **** *******************************************************************************/
 868:Generated_Source\PSoC6\pdl\drivers/peripheral/gpio/cy_gpio.h **** __STATIC_INLINE void Cy_GPIO_Set(GPIO_PRT_Type* base, uint32_t pinNum)
 869:Generated_Source\PSoC6\pdl\drivers/peripheral/gpio/cy_gpio.h **** {
 870:Generated_Source\PSoC6\pdl\drivers/peripheral/gpio/cy_gpio.h ****     CY_ASSERT_L2(CY_GPIO_IS_PIN_VALID(pinNum));
 871:Generated_Source\PSoC6\pdl\drivers/peripheral/gpio/cy_gpio.h ****     
 872:Generated_Source\PSoC6\pdl\drivers/peripheral/gpio/cy_gpio.h ****     GPIO_PRT_OUT_SET(base) = CY_GPIO_OUT_MASK << pinNum;
 873:Generated_Source\PSoC6\pdl\drivers/peripheral/gpio/cy_gpio.h **** }
 874:Generated_Source\PSoC6\pdl\drivers/peripheral/gpio/cy_gpio.h **** 
 875:Generated_Source\PSoC6\pdl\drivers/peripheral/gpio/cy_gpio.h **** 
 876:Generated_Source\PSoC6\pdl\drivers/peripheral/gpio/cy_gpio.h **** /*******************************************************************************
 877:Generated_Source\PSoC6\pdl\drivers/peripheral/gpio/cy_gpio.h **** * Function Name: Cy_GPIO_Clr
 878:Generated_Source\PSoC6\pdl\drivers/peripheral/gpio/cy_gpio.h **** ****************************************************************************//**
 879:Generated_Source\PSoC6\pdl\drivers/peripheral/gpio/cy_gpio.h **** *
 880:Generated_Source\PSoC6\pdl\drivers/peripheral/gpio/cy_gpio.h **** * Set a pin output to logic state Low.
 881:Generated_Source\PSoC6\pdl\drivers/peripheral/gpio/cy_gpio.h **** *
 882:Generated_Source\PSoC6\pdl\drivers/peripheral/gpio/cy_gpio.h **** * This function should be used only for software driven pins. It does not have
 883:Generated_Source\PSoC6\pdl\drivers/peripheral/gpio/cy_gpio.h **** * any effect on peripheral driven pins.
 884:Generated_Source\PSoC6\pdl\drivers/peripheral/gpio/cy_gpio.h **** *
 885:Generated_Source\PSoC6\pdl\drivers/peripheral/gpio/cy_gpio.h **** * \param base
 886:Generated_Source\PSoC6\pdl\drivers/peripheral/gpio/cy_gpio.h **** * Pointer to the pin's port register base address
 887:Generated_Source\PSoC6\pdl\drivers/peripheral/gpio/cy_gpio.h **** *
 888:Generated_Source\PSoC6\pdl\drivers/peripheral/gpio/cy_gpio.h **** * \param pinNum
 889:Generated_Source\PSoC6\pdl\drivers/peripheral/gpio/cy_gpio.h **** * Position of the pin bit-field within the port register
 890:Generated_Source\PSoC6\pdl\drivers/peripheral/gpio/cy_gpio.h **** *
 891:Generated_Source\PSoC6\pdl\drivers/peripheral/gpio/cy_gpio.h **** * \funcusage
 892:Generated_Source\PSoC6\pdl\drivers/peripheral/gpio/cy_gpio.h **** * \snippet gpio/gpio_v1_10_sut_01.cydsn/main_cm4.c snippet_Cy_GPIO_Clr
 893:Generated_Source\PSoC6\pdl\drivers/peripheral/gpio/cy_gpio.h **** *
 894:Generated_Source\PSoC6\pdl\drivers/peripheral/gpio/cy_gpio.h **** *******************************************************************************/
 895:Generated_Source\PSoC6\pdl\drivers/peripheral/gpio/cy_gpio.h **** __STATIC_INLINE void Cy_GPIO_Clr(GPIO_PRT_Type* base, uint32_t pinNum)
 896:Generated_Source\PSoC6\pdl\drivers/peripheral/gpio/cy_gpio.h **** {
 897:Generated_Source\PSoC6\pdl\drivers/peripheral/gpio/cy_gpio.h ****     CY_ASSERT_L2(CY_GPIO_IS_PIN_VALID(pinNum));
 898:Generated_Source\PSoC6\pdl\drivers/peripheral/gpio/cy_gpio.h ****     
 899:Generated_Source\PSoC6\pdl\drivers/peripheral/gpio/cy_gpio.h ****     GPIO_PRT_OUT_CLR(base) = CY_GPIO_OUT_MASK << pinNum;
 900:Generated_Source\PSoC6\pdl\drivers/peripheral/gpio/cy_gpio.h **** }
ARM GAS  C:\Users\markm\AppData\Local\Temp\ccA1bc6D.s 			page 39


 901:Generated_Source\PSoC6\pdl\drivers/peripheral/gpio/cy_gpio.h **** 
 902:Generated_Source\PSoC6\pdl\drivers/peripheral/gpio/cy_gpio.h **** 
 903:Generated_Source\PSoC6\pdl\drivers/peripheral/gpio/cy_gpio.h **** /*******************************************************************************
 904:Generated_Source\PSoC6\pdl\drivers/peripheral/gpio/cy_gpio.h **** * Function Name: Cy_GPIO_Inv
 905:Generated_Source\PSoC6\pdl\drivers/peripheral/gpio/cy_gpio.h **** ****************************************************************************//**
 906:Generated_Source\PSoC6\pdl\drivers/peripheral/gpio/cy_gpio.h **** *
 907:Generated_Source\PSoC6\pdl\drivers/peripheral/gpio/cy_gpio.h **** * Set a pin output logic state to the inverse of the current output
 908:Generated_Source\PSoC6\pdl\drivers/peripheral/gpio/cy_gpio.h **** * logic state.
 909:Generated_Source\PSoC6\pdl\drivers/peripheral/gpio/cy_gpio.h **** *
 910:Generated_Source\PSoC6\pdl\drivers/peripheral/gpio/cy_gpio.h **** * This function should be used only for software driven pins. It does not have
 911:Generated_Source\PSoC6\pdl\drivers/peripheral/gpio/cy_gpio.h **** * any effect on peripheral driven pins.
 912:Generated_Source\PSoC6\pdl\drivers/peripheral/gpio/cy_gpio.h **** *
 913:Generated_Source\PSoC6\pdl\drivers/peripheral/gpio/cy_gpio.h **** * \param base
 914:Generated_Source\PSoC6\pdl\drivers/peripheral/gpio/cy_gpio.h **** * Pointer to the pin's port register base address
 915:Generated_Source\PSoC6\pdl\drivers/peripheral/gpio/cy_gpio.h **** *
 916:Generated_Source\PSoC6\pdl\drivers/peripheral/gpio/cy_gpio.h **** * \param pinNum
 917:Generated_Source\PSoC6\pdl\drivers/peripheral/gpio/cy_gpio.h **** * Position of the pin bit-field within the port register
 918:Generated_Source\PSoC6\pdl\drivers/peripheral/gpio/cy_gpio.h **** *
 919:Generated_Source\PSoC6\pdl\drivers/peripheral/gpio/cy_gpio.h **** * \funcusage
 920:Generated_Source\PSoC6\pdl\drivers/peripheral/gpio/cy_gpio.h **** * \snippet gpio/gpio_v1_10_sut_01.cydsn/main_cm4.c snippet_Cy_GPIO_Inv
 921:Generated_Source\PSoC6\pdl\drivers/peripheral/gpio/cy_gpio.h **** *
 922:Generated_Source\PSoC6\pdl\drivers/peripheral/gpio/cy_gpio.h **** *******************************************************************************/
 923:Generated_Source\PSoC6\pdl\drivers/peripheral/gpio/cy_gpio.h **** __STATIC_INLINE void Cy_GPIO_Inv(GPIO_PRT_Type* base, uint32_t pinNum)
 924:Generated_Source\PSoC6\pdl\drivers/peripheral/gpio/cy_gpio.h **** {
 925:Generated_Source\PSoC6\pdl\drivers/peripheral/gpio/cy_gpio.h ****     CY_ASSERT_L2(CY_GPIO_IS_PIN_VALID(pinNum));
 926:Generated_Source\PSoC6\pdl\drivers/peripheral/gpio/cy_gpio.h ****     
 927:Generated_Source\PSoC6\pdl\drivers/peripheral/gpio/cy_gpio.h ****     GPIO_PRT_OUT_INV(base) = CY_GPIO_OUT_MASK << pinNum;
 928:Generated_Source\PSoC6\pdl\drivers/peripheral/gpio/cy_gpio.h **** }
 929:Generated_Source\PSoC6\pdl\drivers/peripheral/gpio/cy_gpio.h **** 
 930:Generated_Source\PSoC6\pdl\drivers/peripheral/gpio/cy_gpio.h **** 
 931:Generated_Source\PSoC6\pdl\drivers/peripheral/gpio/cy_gpio.h **** /*******************************************************************************
 932:Generated_Source\PSoC6\pdl\drivers/peripheral/gpio/cy_gpio.h **** * Function Name: Cy_GPIO_SetDrivemode
 933:Generated_Source\PSoC6\pdl\drivers/peripheral/gpio/cy_gpio.h **** ****************************************************************************//**
 934:Generated_Source\PSoC6\pdl\drivers/peripheral/gpio/cy_gpio.h **** *
 935:Generated_Source\PSoC6\pdl\drivers/peripheral/gpio/cy_gpio.h **** * Configures the pin output buffer drive mode and input buffer enable.
 936:Generated_Source\PSoC6\pdl\drivers/peripheral/gpio/cy_gpio.h **** *
 937:Generated_Source\PSoC6\pdl\drivers/peripheral/gpio/cy_gpio.h **** * The output buffer drive mode and input buffer enable are combined into a single
 938:Generated_Source\PSoC6\pdl\drivers/peripheral/gpio/cy_gpio.h **** * parameter. The drive mode controls the behavior of the pin in general.
 939:Generated_Source\PSoC6\pdl\drivers/peripheral/gpio/cy_gpio.h **** * Enabling the input buffer allows the digital pin state to be read but also
 940:Generated_Source\PSoC6\pdl\drivers/peripheral/gpio/cy_gpio.h **** * contributes to extra current consumption.
 941:Generated_Source\PSoC6\pdl\drivers/peripheral/gpio/cy_gpio.h **** *
 942:Generated_Source\PSoC6\pdl\drivers/peripheral/gpio/cy_gpio.h **** * \param base
 943:Generated_Source\PSoC6\pdl\drivers/peripheral/gpio/cy_gpio.h **** * Pointer to the pin's port register base address
 944:Generated_Source\PSoC6\pdl\drivers/peripheral/gpio/cy_gpio.h **** *
 945:Generated_Source\PSoC6\pdl\drivers/peripheral/gpio/cy_gpio.h **** * \param pinNum
 946:Generated_Source\PSoC6\pdl\drivers/peripheral/gpio/cy_gpio.h **** * Position of the pin bit-field within the port register
 947:Generated_Source\PSoC6\pdl\drivers/peripheral/gpio/cy_gpio.h **** *
 948:Generated_Source\PSoC6\pdl\drivers/peripheral/gpio/cy_gpio.h **** * \param value
 949:Generated_Source\PSoC6\pdl\drivers/peripheral/gpio/cy_gpio.h **** * Pin drive mode. Options are detailed in \ref group_gpio_driveModes macros
 950:Generated_Source\PSoC6\pdl\drivers/peripheral/gpio/cy_gpio.h **** *
 951:Generated_Source\PSoC6\pdl\drivers/peripheral/gpio/cy_gpio.h **** * \note 
 952:Generated_Source\PSoC6\pdl\drivers/peripheral/gpio/cy_gpio.h **** * This function modifies a port register in a read-modify-write operation. It is
 953:Generated_Source\PSoC6\pdl\drivers/peripheral/gpio/cy_gpio.h **** * not thread safe as the resource is shared among multiple pins on a port.
 954:Generated_Source\PSoC6\pdl\drivers/peripheral/gpio/cy_gpio.h **** *
 955:Generated_Source\PSoC6\pdl\drivers/peripheral/gpio/cy_gpio.h **** * \funcusage
 956:Generated_Source\PSoC6\pdl\drivers/peripheral/gpio/cy_gpio.h **** * \snippet gpio/gpio_v1_10_sut_01.cydsn/main_cm4.c snippet_Cy_GPIO_SetDrivemode
 957:Generated_Source\PSoC6\pdl\drivers/peripheral/gpio/cy_gpio.h **** *
ARM GAS  C:\Users\markm\AppData\Local\Temp\ccA1bc6D.s 			page 40


 958:Generated_Source\PSoC6\pdl\drivers/peripheral/gpio/cy_gpio.h **** *******************************************************************************/
 959:Generated_Source\PSoC6\pdl\drivers/peripheral/gpio/cy_gpio.h **** __STATIC_INLINE void Cy_GPIO_SetDrivemode(GPIO_PRT_Type* base, uint32_t pinNum, uint32_t value)
 960:Generated_Source\PSoC6\pdl\drivers/peripheral/gpio/cy_gpio.h **** {
 961:Generated_Source\PSoC6\pdl\drivers/peripheral/gpio/cy_gpio.h ****     uint32_t tempReg;
 962:Generated_Source\PSoC6\pdl\drivers/peripheral/gpio/cy_gpio.h ****     uint32_t pinLoc;
 963:Generated_Source\PSoC6\pdl\drivers/peripheral/gpio/cy_gpio.h **** 
 964:Generated_Source\PSoC6\pdl\drivers/peripheral/gpio/cy_gpio.h ****     CY_ASSERT_L2(CY_GPIO_IS_PIN_VALID(pinNum));
 965:Generated_Source\PSoC6\pdl\drivers/peripheral/gpio/cy_gpio.h ****     CY_ASSERT_L2(CY_GPIO_IS_DM_VALID(value));
 966:Generated_Source\PSoC6\pdl\drivers/peripheral/gpio/cy_gpio.h **** 
 967:Generated_Source\PSoC6\pdl\drivers/peripheral/gpio/cy_gpio.h ****     pinLoc = pinNum << CY_GPIO_DRIVE_MODE_OFFSET;
 968:Generated_Source\PSoC6\pdl\drivers/peripheral/gpio/cy_gpio.h ****     tempReg = (GPIO_PRT_CFG(base) & ~(CY_GPIO_CFG_DM_MASK << pinLoc));
 969:Generated_Source\PSoC6\pdl\drivers/peripheral/gpio/cy_gpio.h ****     GPIO_PRT_CFG(base) = tempReg | ((value & CY_GPIO_CFG_DM_MASK) << pinLoc);
 970:Generated_Source\PSoC6\pdl\drivers/peripheral/gpio/cy_gpio.h **** }
 971:Generated_Source\PSoC6\pdl\drivers/peripheral/gpio/cy_gpio.h **** 
 972:Generated_Source\PSoC6\pdl\drivers/peripheral/gpio/cy_gpio.h **** 
 973:Generated_Source\PSoC6\pdl\drivers/peripheral/gpio/cy_gpio.h **** /*******************************************************************************
 974:Generated_Source\PSoC6\pdl\drivers/peripheral/gpio/cy_gpio.h **** * Function Name: Cy_GPIO_GetDrivemode
 975:Generated_Source\PSoC6\pdl\drivers/peripheral/gpio/cy_gpio.h **** ****************************************************************************//**
 976:Generated_Source\PSoC6\pdl\drivers/peripheral/gpio/cy_gpio.h **** *
 977:Generated_Source\PSoC6\pdl\drivers/peripheral/gpio/cy_gpio.h **** * Returns the pin output buffer drive mode and input buffer enable state.
 978:Generated_Source\PSoC6\pdl\drivers/peripheral/gpio/cy_gpio.h **** *
 979:Generated_Source\PSoC6\pdl\drivers/peripheral/gpio/cy_gpio.h **** * \param base
 980:Generated_Source\PSoC6\pdl\drivers/peripheral/gpio/cy_gpio.h **** * Pointer to the pin's port register base address
 981:Generated_Source\PSoC6\pdl\drivers/peripheral/gpio/cy_gpio.h **** *
 982:Generated_Source\PSoC6\pdl\drivers/peripheral/gpio/cy_gpio.h **** * \param pinNum
 983:Generated_Source\PSoC6\pdl\drivers/peripheral/gpio/cy_gpio.h **** * Position of the pin bit-field within the port register
 984:Generated_Source\PSoC6\pdl\drivers/peripheral/gpio/cy_gpio.h **** *
 985:Generated_Source\PSoC6\pdl\drivers/peripheral/gpio/cy_gpio.h **** * \return
 986:Generated_Source\PSoC6\pdl\drivers/peripheral/gpio/cy_gpio.h **** * Pin drive mode. Options are detailed in \ref group_gpio_driveModes macros
 987:Generated_Source\PSoC6\pdl\drivers/peripheral/gpio/cy_gpio.h **** *
 988:Generated_Source\PSoC6\pdl\drivers/peripheral/gpio/cy_gpio.h **** * \funcusage
 989:Generated_Source\PSoC6\pdl\drivers/peripheral/gpio/cy_gpio.h **** * \snippet gpio/gpio_v1_10_sut_01.cydsn/main_cm4.c snippet_Cy_GPIO_SetDrivemode
 990:Generated_Source\PSoC6\pdl\drivers/peripheral/gpio/cy_gpio.h **** *
 991:Generated_Source\PSoC6\pdl\drivers/peripheral/gpio/cy_gpio.h **** *******************************************************************************/
 992:Generated_Source\PSoC6\pdl\drivers/peripheral/gpio/cy_gpio.h **** __STATIC_INLINE uint32_t Cy_GPIO_GetDrivemode(GPIO_PRT_Type* base, uint32_t pinNum)
 993:Generated_Source\PSoC6\pdl\drivers/peripheral/gpio/cy_gpio.h **** {
 994:Generated_Source\PSoC6\pdl\drivers/peripheral/gpio/cy_gpio.h ****     CY_ASSERT_L2(CY_GPIO_IS_PIN_VALID(pinNum));
 995:Generated_Source\PSoC6\pdl\drivers/peripheral/gpio/cy_gpio.h ****     
 996:Generated_Source\PSoC6\pdl\drivers/peripheral/gpio/cy_gpio.h ****     return (GPIO_PRT_CFG(base) >> (pinNum << CY_GPIO_DRIVE_MODE_OFFSET)) & CY_GPIO_CFG_DM_MASK;
 997:Generated_Source\PSoC6\pdl\drivers/peripheral/gpio/cy_gpio.h **** }
 998:Generated_Source\PSoC6\pdl\drivers/peripheral/gpio/cy_gpio.h **** 
 999:Generated_Source\PSoC6\pdl\drivers/peripheral/gpio/cy_gpio.h **** 
1000:Generated_Source\PSoC6\pdl\drivers/peripheral/gpio/cy_gpio.h **** /*******************************************************************************
1001:Generated_Source\PSoC6\pdl\drivers/peripheral/gpio/cy_gpio.h **** * Function Name: Cy_GPIO_SetVtrip
1002:Generated_Source\PSoC6\pdl\drivers/peripheral/gpio/cy_gpio.h **** ****************************************************************************//**
1003:Generated_Source\PSoC6\pdl\drivers/peripheral/gpio/cy_gpio.h **** *
1004:Generated_Source\PSoC6\pdl\drivers/peripheral/gpio/cy_gpio.h **** * Configures the GPIO pin input buffer voltage threshold mode.
1005:Generated_Source\PSoC6\pdl\drivers/peripheral/gpio/cy_gpio.h **** *
1006:Generated_Source\PSoC6\pdl\drivers/peripheral/gpio/cy_gpio.h **** * \param base
1007:Generated_Source\PSoC6\pdl\drivers/peripheral/gpio/cy_gpio.h **** * Pointer to the pin's port register base address
1008:Generated_Source\PSoC6\pdl\drivers/peripheral/gpio/cy_gpio.h **** *
1009:Generated_Source\PSoC6\pdl\drivers/peripheral/gpio/cy_gpio.h **** * \param pinNum
1010:Generated_Source\PSoC6\pdl\drivers/peripheral/gpio/cy_gpio.h **** * Position of the pin bit-field within the port register
1011:Generated_Source\PSoC6\pdl\drivers/peripheral/gpio/cy_gpio.h **** *
1012:Generated_Source\PSoC6\pdl\drivers/peripheral/gpio/cy_gpio.h **** * \param value
1013:Generated_Source\PSoC6\pdl\drivers/peripheral/gpio/cy_gpio.h **** * Pin voltage threshold mode. Options are detailed in \ref group_gpio_vtrip macros
1014:Generated_Source\PSoC6\pdl\drivers/peripheral/gpio/cy_gpio.h **** *
ARM GAS  C:\Users\markm\AppData\Local\Temp\ccA1bc6D.s 			page 41


1015:Generated_Source\PSoC6\pdl\drivers/peripheral/gpio/cy_gpio.h **** * \note 
1016:Generated_Source\PSoC6\pdl\drivers/peripheral/gpio/cy_gpio.h **** * This function modifies a port register in a read-modify-write operation. It is
1017:Generated_Source\PSoC6\pdl\drivers/peripheral/gpio/cy_gpio.h **** * not thread safe as the resource is shared among multiple pins on a port.
1018:Generated_Source\PSoC6\pdl\drivers/peripheral/gpio/cy_gpio.h **** *
1019:Generated_Source\PSoC6\pdl\drivers/peripheral/gpio/cy_gpio.h **** * \funcusage
1020:Generated_Source\PSoC6\pdl\drivers/peripheral/gpio/cy_gpio.h **** * \snippet gpio/gpio_v1_10_sut_01.cydsn/main_cm4.c snippet_Cy_GPIO_SetVtrip
1021:Generated_Source\PSoC6\pdl\drivers/peripheral/gpio/cy_gpio.h **** *
1022:Generated_Source\PSoC6\pdl\drivers/peripheral/gpio/cy_gpio.h **** *******************************************************************************/
1023:Generated_Source\PSoC6\pdl\drivers/peripheral/gpio/cy_gpio.h **** __STATIC_INLINE void Cy_GPIO_SetVtrip(GPIO_PRT_Type* base, uint32_t pinNum, uint32_t value)
1024:Generated_Source\PSoC6\pdl\drivers/peripheral/gpio/cy_gpio.h **** {
1025:Generated_Source\PSoC6\pdl\drivers/peripheral/gpio/cy_gpio.h ****     uint32_t tempReg;
1026:Generated_Source\PSoC6\pdl\drivers/peripheral/gpio/cy_gpio.h **** 
1027:Generated_Source\PSoC6\pdl\drivers/peripheral/gpio/cy_gpio.h ****     CY_ASSERT_L2(CY_GPIO_IS_PIN_VALID(pinNum));
1028:Generated_Source\PSoC6\pdl\drivers/peripheral/gpio/cy_gpio.h ****     CY_ASSERT_L2(CY_GPIO_IS_VALUE_VALID(value));
1029:Generated_Source\PSoC6\pdl\drivers/peripheral/gpio/cy_gpio.h **** 
1030:Generated_Source\PSoC6\pdl\drivers/peripheral/gpio/cy_gpio.h ****     tempReg = GPIO_PRT_CFG_IN(base) & ~(CY_GPIO_CFG_IN_VTRIP_SEL_MASK << pinNum);
1031:Generated_Source\PSoC6\pdl\drivers/peripheral/gpio/cy_gpio.h ****     GPIO_PRT_CFG_IN(base) = tempReg | ((value & CY_GPIO_CFG_IN_VTRIP_SEL_MASK) << pinNum);
1032:Generated_Source\PSoC6\pdl\drivers/peripheral/gpio/cy_gpio.h **** }
1033:Generated_Source\PSoC6\pdl\drivers/peripheral/gpio/cy_gpio.h **** 
1034:Generated_Source\PSoC6\pdl\drivers/peripheral/gpio/cy_gpio.h **** 
1035:Generated_Source\PSoC6\pdl\drivers/peripheral/gpio/cy_gpio.h **** /*******************************************************************************
1036:Generated_Source\PSoC6\pdl\drivers/peripheral/gpio/cy_gpio.h **** * Function Name: Cy_GPIO_GetVtrip
1037:Generated_Source\PSoC6\pdl\drivers/peripheral/gpio/cy_gpio.h **** ****************************************************************************//**
1038:Generated_Source\PSoC6\pdl\drivers/peripheral/gpio/cy_gpio.h **** *
1039:Generated_Source\PSoC6\pdl\drivers/peripheral/gpio/cy_gpio.h **** * Returns the pin input buffer voltage threshold mode.
1040:Generated_Source\PSoC6\pdl\drivers/peripheral/gpio/cy_gpio.h **** *
1041:Generated_Source\PSoC6\pdl\drivers/peripheral/gpio/cy_gpio.h **** * \param base
1042:Generated_Source\PSoC6\pdl\drivers/peripheral/gpio/cy_gpio.h **** * Pointer to the pin's port register base address
1043:Generated_Source\PSoC6\pdl\drivers/peripheral/gpio/cy_gpio.h **** *
1044:Generated_Source\PSoC6\pdl\drivers/peripheral/gpio/cy_gpio.h **** * \param pinNum
1045:Generated_Source\PSoC6\pdl\drivers/peripheral/gpio/cy_gpio.h **** * Position of the pin bit-field within the port register
1046:Generated_Source\PSoC6\pdl\drivers/peripheral/gpio/cy_gpio.h **** *
1047:Generated_Source\PSoC6\pdl\drivers/peripheral/gpio/cy_gpio.h **** * \return
1048:Generated_Source\PSoC6\pdl\drivers/peripheral/gpio/cy_gpio.h **** * Pin voltage threshold mode. Options are detailed in \ref group_gpio_vtrip macros
1049:Generated_Source\PSoC6\pdl\drivers/peripheral/gpio/cy_gpio.h **** *
1050:Generated_Source\PSoC6\pdl\drivers/peripheral/gpio/cy_gpio.h **** * \funcusage
1051:Generated_Source\PSoC6\pdl\drivers/peripheral/gpio/cy_gpio.h **** * \snippet gpio/gpio_v1_10_sut_01.cydsn/main_cm4.c snippet_Cy_GPIO_SetVtrip
1052:Generated_Source\PSoC6\pdl\drivers/peripheral/gpio/cy_gpio.h **** *
1053:Generated_Source\PSoC6\pdl\drivers/peripheral/gpio/cy_gpio.h **** *******************************************************************************/
1054:Generated_Source\PSoC6\pdl\drivers/peripheral/gpio/cy_gpio.h **** __STATIC_INLINE uint32_t Cy_GPIO_GetVtrip(GPIO_PRT_Type* base, uint32_t pinNum)
1055:Generated_Source\PSoC6\pdl\drivers/peripheral/gpio/cy_gpio.h **** {
1056:Generated_Source\PSoC6\pdl\drivers/peripheral/gpio/cy_gpio.h ****     CY_ASSERT_L2(CY_GPIO_IS_PIN_VALID(pinNum));
1057:Generated_Source\PSoC6\pdl\drivers/peripheral/gpio/cy_gpio.h ****     
1058:Generated_Source\PSoC6\pdl\drivers/peripheral/gpio/cy_gpio.h ****     return (GPIO_PRT_CFG_IN(base) >> pinNum) & CY_GPIO_CFG_IN_VTRIP_SEL_MASK;
1059:Generated_Source\PSoC6\pdl\drivers/peripheral/gpio/cy_gpio.h **** }
1060:Generated_Source\PSoC6\pdl\drivers/peripheral/gpio/cy_gpio.h **** 
1061:Generated_Source\PSoC6\pdl\drivers/peripheral/gpio/cy_gpio.h **** 
1062:Generated_Source\PSoC6\pdl\drivers/peripheral/gpio/cy_gpio.h **** /*******************************************************************************
1063:Generated_Source\PSoC6\pdl\drivers/peripheral/gpio/cy_gpio.h **** * Function Name: Cy_GPIO_SetSlewRate
1064:Generated_Source\PSoC6\pdl\drivers/peripheral/gpio/cy_gpio.h **** ****************************************************************************//**
1065:Generated_Source\PSoC6\pdl\drivers/peripheral/gpio/cy_gpio.h **** *
1066:Generated_Source\PSoC6\pdl\drivers/peripheral/gpio/cy_gpio.h **** * Configures the pin output buffer slew rate.
1067:Generated_Source\PSoC6\pdl\drivers/peripheral/gpio/cy_gpio.h **** *
1068:Generated_Source\PSoC6\pdl\drivers/peripheral/gpio/cy_gpio.h **** * \note 
1069:Generated_Source\PSoC6\pdl\drivers/peripheral/gpio/cy_gpio.h **** * This function has no effect for the GPIO ports, where the slew rate
1070:Generated_Source\PSoC6\pdl\drivers/peripheral/gpio/cy_gpio.h **** * configuration is not available. Refer to device datasheet for details.
1071:Generated_Source\PSoC6\pdl\drivers/peripheral/gpio/cy_gpio.h **** *
ARM GAS  C:\Users\markm\AppData\Local\Temp\ccA1bc6D.s 			page 42


1072:Generated_Source\PSoC6\pdl\drivers/peripheral/gpio/cy_gpio.h **** * \param base
1073:Generated_Source\PSoC6\pdl\drivers/peripheral/gpio/cy_gpio.h **** * Pointer to the pin's port register base address
1074:Generated_Source\PSoC6\pdl\drivers/peripheral/gpio/cy_gpio.h **** *
1075:Generated_Source\PSoC6\pdl\drivers/peripheral/gpio/cy_gpio.h **** * \param pinNum
1076:Generated_Source\PSoC6\pdl\drivers/peripheral/gpio/cy_gpio.h **** * Position of the pin bit-field within the port register
1077:Generated_Source\PSoC6\pdl\drivers/peripheral/gpio/cy_gpio.h **** *
1078:Generated_Source\PSoC6\pdl\drivers/peripheral/gpio/cy_gpio.h **** * \param value
1079:Generated_Source\PSoC6\pdl\drivers/peripheral/gpio/cy_gpio.h **** * Pin slew rate. Options are detailed in \ref group_gpio_slewRate macros
1080:Generated_Source\PSoC6\pdl\drivers/peripheral/gpio/cy_gpio.h **** *
1081:Generated_Source\PSoC6\pdl\drivers/peripheral/gpio/cy_gpio.h **** * \note 
1082:Generated_Source\PSoC6\pdl\drivers/peripheral/gpio/cy_gpio.h **** * This function modifies a port register in a read-modify-write operation. It is
1083:Generated_Source\PSoC6\pdl\drivers/peripheral/gpio/cy_gpio.h **** * not thread safe as the resource is shared among multiple pins on a port.
1084:Generated_Source\PSoC6\pdl\drivers/peripheral/gpio/cy_gpio.h **** *
1085:Generated_Source\PSoC6\pdl\drivers/peripheral/gpio/cy_gpio.h **** * \funcusage
1086:Generated_Source\PSoC6\pdl\drivers/peripheral/gpio/cy_gpio.h **** * \snippet gpio/gpio_v1_10_sut_01.cydsn/main_cm4.c snippet_Cy_GPIO_SetSlewRate
1087:Generated_Source\PSoC6\pdl\drivers/peripheral/gpio/cy_gpio.h **** *
1088:Generated_Source\PSoC6\pdl\drivers/peripheral/gpio/cy_gpio.h **** *******************************************************************************/
1089:Generated_Source\PSoC6\pdl\drivers/peripheral/gpio/cy_gpio.h **** __STATIC_INLINE void Cy_GPIO_SetSlewRate(GPIO_PRT_Type* base, uint32_t pinNum, uint32_t value)
1090:Generated_Source\PSoC6\pdl\drivers/peripheral/gpio/cy_gpio.h **** {
1091:Generated_Source\PSoC6\pdl\drivers/peripheral/gpio/cy_gpio.h ****     uint32_t tempReg;
1092:Generated_Source\PSoC6\pdl\drivers/peripheral/gpio/cy_gpio.h **** 
1093:Generated_Source\PSoC6\pdl\drivers/peripheral/gpio/cy_gpio.h ****     CY_ASSERT_L2(CY_GPIO_IS_PIN_VALID(pinNum));
1094:Generated_Source\PSoC6\pdl\drivers/peripheral/gpio/cy_gpio.h ****     CY_ASSERT_L2(CY_GPIO_IS_VALUE_VALID(value));
1095:Generated_Source\PSoC6\pdl\drivers/peripheral/gpio/cy_gpio.h **** 
1096:Generated_Source\PSoC6\pdl\drivers/peripheral/gpio/cy_gpio.h ****     tempReg = GPIO_PRT_CFG_OUT(base) & ~(CY_GPIO_CFG_OUT_SLOW_MASK << pinNum);
1097:Generated_Source\PSoC6\pdl\drivers/peripheral/gpio/cy_gpio.h ****     GPIO_PRT_CFG_OUT(base) = tempReg | ((value & CY_GPIO_CFG_OUT_SLOW_MASK) << pinNum);
1098:Generated_Source\PSoC6\pdl\drivers/peripheral/gpio/cy_gpio.h **** }
1099:Generated_Source\PSoC6\pdl\drivers/peripheral/gpio/cy_gpio.h **** 
1100:Generated_Source\PSoC6\pdl\drivers/peripheral/gpio/cy_gpio.h **** 
1101:Generated_Source\PSoC6\pdl\drivers/peripheral/gpio/cy_gpio.h **** /*******************************************************************************
1102:Generated_Source\PSoC6\pdl\drivers/peripheral/gpio/cy_gpio.h **** * Function Name: Cy_GPIO_GetSlewRate
1103:Generated_Source\PSoC6\pdl\drivers/peripheral/gpio/cy_gpio.h **** ****************************************************************************//**
1104:Generated_Source\PSoC6\pdl\drivers/peripheral/gpio/cy_gpio.h **** *
1105:Generated_Source\PSoC6\pdl\drivers/peripheral/gpio/cy_gpio.h **** * Returns the pin output buffer slew rate.
1106:Generated_Source\PSoC6\pdl\drivers/peripheral/gpio/cy_gpio.h **** *
1107:Generated_Source\PSoC6\pdl\drivers/peripheral/gpio/cy_gpio.h **** * \param base
1108:Generated_Source\PSoC6\pdl\drivers/peripheral/gpio/cy_gpio.h **** * Pointer to the pin's port register base address
1109:Generated_Source\PSoC6\pdl\drivers/peripheral/gpio/cy_gpio.h **** *
1110:Generated_Source\PSoC6\pdl\drivers/peripheral/gpio/cy_gpio.h **** * \param pinNum
1111:Generated_Source\PSoC6\pdl\drivers/peripheral/gpio/cy_gpio.h **** * Position of the pin bit-field within the port register
1112:Generated_Source\PSoC6\pdl\drivers/peripheral/gpio/cy_gpio.h **** *
1113:Generated_Source\PSoC6\pdl\drivers/peripheral/gpio/cy_gpio.h **** * \return
1114:Generated_Source\PSoC6\pdl\drivers/peripheral/gpio/cy_gpio.h **** * Pin slew rate. Options are detailed in \ref group_gpio_slewRate macros
1115:Generated_Source\PSoC6\pdl\drivers/peripheral/gpio/cy_gpio.h **** *
1116:Generated_Source\PSoC6\pdl\drivers/peripheral/gpio/cy_gpio.h **** * \funcusage
1117:Generated_Source\PSoC6\pdl\drivers/peripheral/gpio/cy_gpio.h **** * \snippet gpio/gpio_v1_10_sut_01.cydsn/main_cm4.c snippet_Cy_GPIO_SetSlewRate
1118:Generated_Source\PSoC6\pdl\drivers/peripheral/gpio/cy_gpio.h **** *
1119:Generated_Source\PSoC6\pdl\drivers/peripheral/gpio/cy_gpio.h **** *******************************************************************************/
1120:Generated_Source\PSoC6\pdl\drivers/peripheral/gpio/cy_gpio.h **** __STATIC_INLINE uint32_t Cy_GPIO_GetSlewRate(GPIO_PRT_Type* base, uint32_t pinNum)
1121:Generated_Source\PSoC6\pdl\drivers/peripheral/gpio/cy_gpio.h **** {
1122:Generated_Source\PSoC6\pdl\drivers/peripheral/gpio/cy_gpio.h ****     CY_ASSERT_L2(CY_GPIO_IS_PIN_VALID(pinNum));
1123:Generated_Source\PSoC6\pdl\drivers/peripheral/gpio/cy_gpio.h **** 
1124:Generated_Source\PSoC6\pdl\drivers/peripheral/gpio/cy_gpio.h ****     return (GPIO_PRT_CFG_OUT(base) >> pinNum) & CY_GPIO_CFG_OUT_SLOW_MASK;
1125:Generated_Source\PSoC6\pdl\drivers/peripheral/gpio/cy_gpio.h **** }
1126:Generated_Source\PSoC6\pdl\drivers/peripheral/gpio/cy_gpio.h **** 
1127:Generated_Source\PSoC6\pdl\drivers/peripheral/gpio/cy_gpio.h **** 
1128:Generated_Source\PSoC6\pdl\drivers/peripheral/gpio/cy_gpio.h **** /*******************************************************************************
ARM GAS  C:\Users\markm\AppData\Local\Temp\ccA1bc6D.s 			page 43


1129:Generated_Source\PSoC6\pdl\drivers/peripheral/gpio/cy_gpio.h **** * Function Name: Cy_GPIO_SetDriveSel
1130:Generated_Source\PSoC6\pdl\drivers/peripheral/gpio/cy_gpio.h **** ****************************************************************************//**
1131:Generated_Source\PSoC6\pdl\drivers/peripheral/gpio/cy_gpio.h **** *
1132:Generated_Source\PSoC6\pdl\drivers/peripheral/gpio/cy_gpio.h **** * Configures the pin output buffer drive strength.
1133:Generated_Source\PSoC6\pdl\drivers/peripheral/gpio/cy_gpio.h **** *
1134:Generated_Source\PSoC6\pdl\drivers/peripheral/gpio/cy_gpio.h **** * \param base
1135:Generated_Source\PSoC6\pdl\drivers/peripheral/gpio/cy_gpio.h **** * Pointer to the pin's port register base address
1136:Generated_Source\PSoC6\pdl\drivers/peripheral/gpio/cy_gpio.h **** *
1137:Generated_Source\PSoC6\pdl\drivers/peripheral/gpio/cy_gpio.h **** * \param pinNum
1138:Generated_Source\PSoC6\pdl\drivers/peripheral/gpio/cy_gpio.h **** * Position of the pin bit-field within the port register
1139:Generated_Source\PSoC6\pdl\drivers/peripheral/gpio/cy_gpio.h **** *
1140:Generated_Source\PSoC6\pdl\drivers/peripheral/gpio/cy_gpio.h **** * \param value
1141:Generated_Source\PSoC6\pdl\drivers/peripheral/gpio/cy_gpio.h **** * Pin drive strength. Options are detailed in \ref group_gpio_driveStrength macros
1142:Generated_Source\PSoC6\pdl\drivers/peripheral/gpio/cy_gpio.h **** *
1143:Generated_Source\PSoC6\pdl\drivers/peripheral/gpio/cy_gpio.h **** * \note 
1144:Generated_Source\PSoC6\pdl\drivers/peripheral/gpio/cy_gpio.h **** * This function modifies a port register in a read-modify-write operation. It is
1145:Generated_Source\PSoC6\pdl\drivers/peripheral/gpio/cy_gpio.h **** * not thread safe as the resource is shared among multiple pins on a port.
1146:Generated_Source\PSoC6\pdl\drivers/peripheral/gpio/cy_gpio.h **** *
1147:Generated_Source\PSoC6\pdl\drivers/peripheral/gpio/cy_gpio.h **** * \funcusage
1148:Generated_Source\PSoC6\pdl\drivers/peripheral/gpio/cy_gpio.h **** * \snippet gpio/gpio_v1_10_sut_01.cydsn/main_cm4.c snippet_Cy_GPIO_SetDriveSel
1149:Generated_Source\PSoC6\pdl\drivers/peripheral/gpio/cy_gpio.h **** *
1150:Generated_Source\PSoC6\pdl\drivers/peripheral/gpio/cy_gpio.h **** *******************************************************************************/
1151:Generated_Source\PSoC6\pdl\drivers/peripheral/gpio/cy_gpio.h **** __STATIC_INLINE void Cy_GPIO_SetDriveSel(GPIO_PRT_Type* base, uint32_t pinNum, uint32_t value)
1152:Generated_Source\PSoC6\pdl\drivers/peripheral/gpio/cy_gpio.h **** {
1153:Generated_Source\PSoC6\pdl\drivers/peripheral/gpio/cy_gpio.h ****     uint32_t tempReg;
1154:Generated_Source\PSoC6\pdl\drivers/peripheral/gpio/cy_gpio.h ****     uint32_t pinLoc;
1155:Generated_Source\PSoC6\pdl\drivers/peripheral/gpio/cy_gpio.h **** 
1156:Generated_Source\PSoC6\pdl\drivers/peripheral/gpio/cy_gpio.h ****     CY_ASSERT_L2(CY_GPIO_IS_PIN_VALID(pinNum));
1157:Generated_Source\PSoC6\pdl\drivers/peripheral/gpio/cy_gpio.h ****     CY_ASSERT_L2(CY_GPIO_IS_DRIVE_SEL_VALID(value));
1158:Generated_Source\PSoC6\pdl\drivers/peripheral/gpio/cy_gpio.h ****     
1159:Generated_Source\PSoC6\pdl\drivers/peripheral/gpio/cy_gpio.h ****     pinLoc = (uint32_t)(pinNum << 1u) + CY_GPIO_CFG_OUT_DRIVE_OFFSET;
1160:Generated_Source\PSoC6\pdl\drivers/peripheral/gpio/cy_gpio.h ****     tempReg = GPIO_PRT_CFG_OUT(base) & ~(CY_GPIO_CFG_OUT_DRIVE_SEL_MASK << pinLoc);
1161:Generated_Source\PSoC6\pdl\drivers/peripheral/gpio/cy_gpio.h ****     GPIO_PRT_CFG_OUT(base) = tempReg | ((value & CY_GPIO_CFG_OUT_DRIVE_SEL_MASK) << pinLoc);
1162:Generated_Source\PSoC6\pdl\drivers/peripheral/gpio/cy_gpio.h **** }
1163:Generated_Source\PSoC6\pdl\drivers/peripheral/gpio/cy_gpio.h **** 
1164:Generated_Source\PSoC6\pdl\drivers/peripheral/gpio/cy_gpio.h **** 
1165:Generated_Source\PSoC6\pdl\drivers/peripheral/gpio/cy_gpio.h **** /*******************************************************************************
1166:Generated_Source\PSoC6\pdl\drivers/peripheral/gpio/cy_gpio.h **** * Function Name: Cy_GPIO_GetDriveSel
1167:Generated_Source\PSoC6\pdl\drivers/peripheral/gpio/cy_gpio.h **** ****************************************************************************//**
1168:Generated_Source\PSoC6\pdl\drivers/peripheral/gpio/cy_gpio.h **** *
1169:Generated_Source\PSoC6\pdl\drivers/peripheral/gpio/cy_gpio.h **** * Returns the pin output buffer drive strength.
1170:Generated_Source\PSoC6\pdl\drivers/peripheral/gpio/cy_gpio.h **** *
1171:Generated_Source\PSoC6\pdl\drivers/peripheral/gpio/cy_gpio.h **** * \param base
1172:Generated_Source\PSoC6\pdl\drivers/peripheral/gpio/cy_gpio.h **** * Pointer to the pin's port register base address
1173:Generated_Source\PSoC6\pdl\drivers/peripheral/gpio/cy_gpio.h **** *
1174:Generated_Source\PSoC6\pdl\drivers/peripheral/gpio/cy_gpio.h **** * \param pinNum
1175:Generated_Source\PSoC6\pdl\drivers/peripheral/gpio/cy_gpio.h **** * Position of the pin bit-field within the port register
1176:Generated_Source\PSoC6\pdl\drivers/peripheral/gpio/cy_gpio.h **** *
1177:Generated_Source\PSoC6\pdl\drivers/peripheral/gpio/cy_gpio.h **** * \return
1178:Generated_Source\PSoC6\pdl\drivers/peripheral/gpio/cy_gpio.h **** * Pin drive strength. Options are detailed in \ref group_gpio_driveStrength macros
1179:Generated_Source\PSoC6\pdl\drivers/peripheral/gpio/cy_gpio.h **** *
1180:Generated_Source\PSoC6\pdl\drivers/peripheral/gpio/cy_gpio.h **** * \funcusage
1181:Generated_Source\PSoC6\pdl\drivers/peripheral/gpio/cy_gpio.h **** * \snippet gpio/gpio_v1_10_sut_01.cydsn/main_cm4.c snippet_Cy_GPIO_SetDriveSel
1182:Generated_Source\PSoC6\pdl\drivers/peripheral/gpio/cy_gpio.h **** *
1183:Generated_Source\PSoC6\pdl\drivers/peripheral/gpio/cy_gpio.h **** *******************************************************************************/
1184:Generated_Source\PSoC6\pdl\drivers/peripheral/gpio/cy_gpio.h **** __STATIC_INLINE uint32_t Cy_GPIO_GetDriveSel(GPIO_PRT_Type* base, uint32_t pinNum)
1185:Generated_Source\PSoC6\pdl\drivers/peripheral/gpio/cy_gpio.h **** {
ARM GAS  C:\Users\markm\AppData\Local\Temp\ccA1bc6D.s 			page 44


1186:Generated_Source\PSoC6\pdl\drivers/peripheral/gpio/cy_gpio.h ****     CY_ASSERT_L2(CY_GPIO_IS_PIN_VALID(pinNum));
1187:Generated_Source\PSoC6\pdl\drivers/peripheral/gpio/cy_gpio.h **** 
1188:Generated_Source\PSoC6\pdl\drivers/peripheral/gpio/cy_gpio.h ****     return ((GPIO_PRT_CFG_OUT(base) >> ((uint32_t)(pinNum << 1u) + CY_GPIO_CFG_OUT_DRIVE_OFFSET)) 
1189:Generated_Source\PSoC6\pdl\drivers/peripheral/gpio/cy_gpio.h ****             & CY_GPIO_CFG_OUT_DRIVE_SEL_MASK);
1190:Generated_Source\PSoC6\pdl\drivers/peripheral/gpio/cy_gpio.h **** }
1191:Generated_Source\PSoC6\pdl\drivers/peripheral/gpio/cy_gpio.h **** 
1192:Generated_Source\PSoC6\pdl\drivers/peripheral/gpio/cy_gpio.h **** /** \} group_gpio_functions_gpio */
1193:Generated_Source\PSoC6\pdl\drivers/peripheral/gpio/cy_gpio.h **** 
1194:Generated_Source\PSoC6\pdl\drivers/peripheral/gpio/cy_gpio.h **** /**
1195:Generated_Source\PSoC6\pdl\drivers/peripheral/gpio/cy_gpio.h **** * \addtogroup group_gpio_functions_sio
1196:Generated_Source\PSoC6\pdl\drivers/peripheral/gpio/cy_gpio.h **** * \{
1197:Generated_Source\PSoC6\pdl\drivers/peripheral/gpio/cy_gpio.h **** */
1198:Generated_Source\PSoC6\pdl\drivers/peripheral/gpio/cy_gpio.h **** 
1199:Generated_Source\PSoC6\pdl\drivers/peripheral/gpio/cy_gpio.h **** /*******************************************************************************
1200:Generated_Source\PSoC6\pdl\drivers/peripheral/gpio/cy_gpio.h **** * Function Name: Cy_GPIO_SetVregEn
1201:Generated_Source\PSoC6\pdl\drivers/peripheral/gpio/cy_gpio.h **** ****************************************************************************//**
1202:Generated_Source\PSoC6\pdl\drivers/peripheral/gpio/cy_gpio.h **** *
1203:Generated_Source\PSoC6\pdl\drivers/peripheral/gpio/cy_gpio.h **** * Configures the SIO pin pair output buffer regulation mode.
1204:Generated_Source\PSoC6\pdl\drivers/peripheral/gpio/cy_gpio.h **** *
1205:Generated_Source\PSoC6\pdl\drivers/peripheral/gpio/cy_gpio.h **** * Note that this function has no effect on non-SIO pins.
1206:Generated_Source\PSoC6\pdl\drivers/peripheral/gpio/cy_gpio.h **** *
1207:Generated_Source\PSoC6\pdl\drivers/peripheral/gpio/cy_gpio.h **** * \param base
1208:Generated_Source\PSoC6\pdl\drivers/peripheral/gpio/cy_gpio.h **** * Pointer to the pin's port register base address
1209:Generated_Source\PSoC6\pdl\drivers/peripheral/gpio/cy_gpio.h **** *
1210:Generated_Source\PSoC6\pdl\drivers/peripheral/gpio/cy_gpio.h **** * \param pinNum
1211:Generated_Source\PSoC6\pdl\drivers/peripheral/gpio/cy_gpio.h **** * Position of the pin bit-field within the port register
1212:Generated_Source\PSoC6\pdl\drivers/peripheral/gpio/cy_gpio.h **** *
1213:Generated_Source\PSoC6\pdl\drivers/peripheral/gpio/cy_gpio.h **** * \param value
1214:Generated_Source\PSoC6\pdl\drivers/peripheral/gpio/cy_gpio.h **** * SIO pair output buffer regulator mode. Options are detailed in \ref group_gpio_sioVreg macros
1215:Generated_Source\PSoC6\pdl\drivers/peripheral/gpio/cy_gpio.h **** *
1216:Generated_Source\PSoC6\pdl\drivers/peripheral/gpio/cy_gpio.h **** * \note 
1217:Generated_Source\PSoC6\pdl\drivers/peripheral/gpio/cy_gpio.h **** * This function modifies a port register in a read-modify-write operation. It is
1218:Generated_Source\PSoC6\pdl\drivers/peripheral/gpio/cy_gpio.h **** * not thread safe as the resource is shared among multiple pins on a port.
1219:Generated_Source\PSoC6\pdl\drivers/peripheral/gpio/cy_gpio.h **** *
1220:Generated_Source\PSoC6\pdl\drivers/peripheral/gpio/cy_gpio.h **** * \funcusage
1221:Generated_Source\PSoC6\pdl\drivers/peripheral/gpio/cy_gpio.h **** * \snippet gpio/gpio_v1_10_sut_01.cydsn/main_cm4.c snippet_Cy_GPIO_SetVregEn
1222:Generated_Source\PSoC6\pdl\drivers/peripheral/gpio/cy_gpio.h **** *
1223:Generated_Source\PSoC6\pdl\drivers/peripheral/gpio/cy_gpio.h **** *******************************************************************************/
1224:Generated_Source\PSoC6\pdl\drivers/peripheral/gpio/cy_gpio.h **** __STATIC_INLINE void Cy_GPIO_SetVregEn(GPIO_PRT_Type* base, uint32_t pinNum, uint32_t value)
1225:Generated_Source\PSoC6\pdl\drivers/peripheral/gpio/cy_gpio.h **** {
1226:Generated_Source\PSoC6\pdl\drivers/peripheral/gpio/cy_gpio.h ****     uint32_t tempReg;
1227:Generated_Source\PSoC6\pdl\drivers/peripheral/gpio/cy_gpio.h ****     uint32_t pinLoc;
1228:Generated_Source\PSoC6\pdl\drivers/peripheral/gpio/cy_gpio.h **** 
1229:Generated_Source\PSoC6\pdl\drivers/peripheral/gpio/cy_gpio.h ****     CY_ASSERT_L2(CY_GPIO_IS_PIN_VALID(pinNum));
1230:Generated_Source\PSoC6\pdl\drivers/peripheral/gpio/cy_gpio.h ****     CY_ASSERT_L2(CY_GPIO_IS_VALUE_VALID(value));
1231:Generated_Source\PSoC6\pdl\drivers/peripheral/gpio/cy_gpio.h **** 
1232:Generated_Source\PSoC6\pdl\drivers/peripheral/gpio/cy_gpio.h ****     pinLoc = (pinNum & CY_GPIO_SIO_ODD_PIN_MASK) << CY_GPIO_CFG_SIO_OFFSET;
1233:Generated_Source\PSoC6\pdl\drivers/peripheral/gpio/cy_gpio.h ****     tempReg = GPIO_PRT_CFG_SIO(base) & ~(CY_GPIO_VREG_EN_MASK << pinLoc);
1234:Generated_Source\PSoC6\pdl\drivers/peripheral/gpio/cy_gpio.h ****     GPIO_PRT_CFG_SIO(base) = tempReg | ((value & CY_GPIO_VREG_EN_MASK) << pinLoc);
1235:Generated_Source\PSoC6\pdl\drivers/peripheral/gpio/cy_gpio.h **** }
1236:Generated_Source\PSoC6\pdl\drivers/peripheral/gpio/cy_gpio.h **** 
1237:Generated_Source\PSoC6\pdl\drivers/peripheral/gpio/cy_gpio.h **** 
1238:Generated_Source\PSoC6\pdl\drivers/peripheral/gpio/cy_gpio.h **** /*******************************************************************************
1239:Generated_Source\PSoC6\pdl\drivers/peripheral/gpio/cy_gpio.h **** * Function Name: Cy_GPIO_GetVregEn
1240:Generated_Source\PSoC6\pdl\drivers/peripheral/gpio/cy_gpio.h **** ****************************************************************************//**
1241:Generated_Source\PSoC6\pdl\drivers/peripheral/gpio/cy_gpio.h **** *
1242:Generated_Source\PSoC6\pdl\drivers/peripheral/gpio/cy_gpio.h **** * Returns the SIO pin pair output buffer regulation mode.
ARM GAS  C:\Users\markm\AppData\Local\Temp\ccA1bc6D.s 			page 45


1243:Generated_Source\PSoC6\pdl\drivers/peripheral/gpio/cy_gpio.h **** *
1244:Generated_Source\PSoC6\pdl\drivers/peripheral/gpio/cy_gpio.h **** * Note that this function has no effect on non-SIO pins.
1245:Generated_Source\PSoC6\pdl\drivers/peripheral/gpio/cy_gpio.h **** *
1246:Generated_Source\PSoC6\pdl\drivers/peripheral/gpio/cy_gpio.h **** * \param base
1247:Generated_Source\PSoC6\pdl\drivers/peripheral/gpio/cy_gpio.h **** * Pointer to the pin's port register base address
1248:Generated_Source\PSoC6\pdl\drivers/peripheral/gpio/cy_gpio.h **** *
1249:Generated_Source\PSoC6\pdl\drivers/peripheral/gpio/cy_gpio.h **** * \param pinNum
1250:Generated_Source\PSoC6\pdl\drivers/peripheral/gpio/cy_gpio.h **** * Position of the pin bit-field within the port register
1251:Generated_Source\PSoC6\pdl\drivers/peripheral/gpio/cy_gpio.h **** *
1252:Generated_Source\PSoC6\pdl\drivers/peripheral/gpio/cy_gpio.h **** * \return
1253:Generated_Source\PSoC6\pdl\drivers/peripheral/gpio/cy_gpio.h **** * SIO pair output buffer regulator mode. Options are detailed in \ref group_gpio_sioVreg macros
1254:Generated_Source\PSoC6\pdl\drivers/peripheral/gpio/cy_gpio.h **** *
1255:Generated_Source\PSoC6\pdl\drivers/peripheral/gpio/cy_gpio.h **** * \funcusage
1256:Generated_Source\PSoC6\pdl\drivers/peripheral/gpio/cy_gpio.h **** * \snippet gpio/gpio_v1_10_sut_01.cydsn/main_cm4.c snippet_Cy_GPIO_SetVregEn
1257:Generated_Source\PSoC6\pdl\drivers/peripheral/gpio/cy_gpio.h **** *
1258:Generated_Source\PSoC6\pdl\drivers/peripheral/gpio/cy_gpio.h **** *******************************************************************************/
1259:Generated_Source\PSoC6\pdl\drivers/peripheral/gpio/cy_gpio.h **** __STATIC_INLINE uint32_t Cy_GPIO_GetVregEn(GPIO_PRT_Type* base, uint32_t pinNum)
1260:Generated_Source\PSoC6\pdl\drivers/peripheral/gpio/cy_gpio.h **** {
1261:Generated_Source\PSoC6\pdl\drivers/peripheral/gpio/cy_gpio.h ****     CY_ASSERT_L2(CY_GPIO_IS_PIN_VALID(pinNum));
1262:Generated_Source\PSoC6\pdl\drivers/peripheral/gpio/cy_gpio.h ****     
1263:Generated_Source\PSoC6\pdl\drivers/peripheral/gpio/cy_gpio.h ****     return (GPIO_PRT_CFG_SIO(base) >> ((pinNum & CY_GPIO_SIO_ODD_PIN_MASK) << CY_GPIO_CFG_SIO_OFFSE
1264:Generated_Source\PSoC6\pdl\drivers/peripheral/gpio/cy_gpio.h **** }
1265:Generated_Source\PSoC6\pdl\drivers/peripheral/gpio/cy_gpio.h **** 
1266:Generated_Source\PSoC6\pdl\drivers/peripheral/gpio/cy_gpio.h **** 
1267:Generated_Source\PSoC6\pdl\drivers/peripheral/gpio/cy_gpio.h **** /*******************************************************************************
1268:Generated_Source\PSoC6\pdl\drivers/peripheral/gpio/cy_gpio.h **** * Function Name: Cy_GPIO_SetIbufMode
1269:Generated_Source\PSoC6\pdl\drivers/peripheral/gpio/cy_gpio.h **** ****************************************************************************//**
1270:Generated_Source\PSoC6\pdl\drivers/peripheral/gpio/cy_gpio.h **** *
1271:Generated_Source\PSoC6\pdl\drivers/peripheral/gpio/cy_gpio.h **** * Configures the SIO pin pair input buffer mode.
1272:Generated_Source\PSoC6\pdl\drivers/peripheral/gpio/cy_gpio.h **** *
1273:Generated_Source\PSoC6\pdl\drivers/peripheral/gpio/cy_gpio.h **** * Note that this function has no effect on non-SIO pins.
1274:Generated_Source\PSoC6\pdl\drivers/peripheral/gpio/cy_gpio.h **** *
1275:Generated_Source\PSoC6\pdl\drivers/peripheral/gpio/cy_gpio.h **** * \param base
1276:Generated_Source\PSoC6\pdl\drivers/peripheral/gpio/cy_gpio.h **** * Pointer to the pin's port register base address
1277:Generated_Source\PSoC6\pdl\drivers/peripheral/gpio/cy_gpio.h **** *
1278:Generated_Source\PSoC6\pdl\drivers/peripheral/gpio/cy_gpio.h **** * \param pinNum
1279:Generated_Source\PSoC6\pdl\drivers/peripheral/gpio/cy_gpio.h **** * Position of the pin bit-field within the port register
1280:Generated_Source\PSoC6\pdl\drivers/peripheral/gpio/cy_gpio.h **** *
1281:Generated_Source\PSoC6\pdl\drivers/peripheral/gpio/cy_gpio.h **** * \param value
1282:Generated_Source\PSoC6\pdl\drivers/peripheral/gpio/cy_gpio.h **** * SIO pair input buffer mode. Options are detailed in \ref group_gpio_sioIbuf macros
1283:Generated_Source\PSoC6\pdl\drivers/peripheral/gpio/cy_gpio.h **** *
1284:Generated_Source\PSoC6\pdl\drivers/peripheral/gpio/cy_gpio.h **** * \note 
1285:Generated_Source\PSoC6\pdl\drivers/peripheral/gpio/cy_gpio.h **** * This function modifies a port register in a read-modify-write operation. It is
1286:Generated_Source\PSoC6\pdl\drivers/peripheral/gpio/cy_gpio.h **** * not thread safe as the resource is shared among multiple pins on a port.
1287:Generated_Source\PSoC6\pdl\drivers/peripheral/gpio/cy_gpio.h **** *
1288:Generated_Source\PSoC6\pdl\drivers/peripheral/gpio/cy_gpio.h **** * \funcusage
1289:Generated_Source\PSoC6\pdl\drivers/peripheral/gpio/cy_gpio.h **** * \snippet gpio/gpio_v1_10_sut_01.cydsn/main_cm4.c snippet_Cy_GPIO_SetIbufMode
1290:Generated_Source\PSoC6\pdl\drivers/peripheral/gpio/cy_gpio.h **** *
1291:Generated_Source\PSoC6\pdl\drivers/peripheral/gpio/cy_gpio.h **** *******************************************************************************/
1292:Generated_Source\PSoC6\pdl\drivers/peripheral/gpio/cy_gpio.h **** __STATIC_INLINE void Cy_GPIO_SetIbufMode(GPIO_PRT_Type* base, uint32_t pinNum, uint32_t value)
1293:Generated_Source\PSoC6\pdl\drivers/peripheral/gpio/cy_gpio.h **** {
1294:Generated_Source\PSoC6\pdl\drivers/peripheral/gpio/cy_gpio.h ****     uint32_t tempReg;
1295:Generated_Source\PSoC6\pdl\drivers/peripheral/gpio/cy_gpio.h ****     uint32_t pinLoc;
1296:Generated_Source\PSoC6\pdl\drivers/peripheral/gpio/cy_gpio.h **** 
1297:Generated_Source\PSoC6\pdl\drivers/peripheral/gpio/cy_gpio.h ****     CY_ASSERT_L2(CY_GPIO_IS_PIN_VALID(pinNum));
1298:Generated_Source\PSoC6\pdl\drivers/peripheral/gpio/cy_gpio.h ****     CY_ASSERT_L2(CY_GPIO_IS_VALUE_VALID(value));
1299:Generated_Source\PSoC6\pdl\drivers/peripheral/gpio/cy_gpio.h **** 
ARM GAS  C:\Users\markm\AppData\Local\Temp\ccA1bc6D.s 			page 46


1300:Generated_Source\PSoC6\pdl\drivers/peripheral/gpio/cy_gpio.h ****     pinLoc = ((pinNum & CY_GPIO_SIO_ODD_PIN_MASK) << CY_GPIO_CFG_SIO_OFFSET) + CY_GPIO_IBUF_SHIFT;
1301:Generated_Source\PSoC6\pdl\drivers/peripheral/gpio/cy_gpio.h ****     tempReg = (GPIO_PRT_CFG_SIO(base) & ~(CY_GPIO_IBUF_MASK << pinLoc));
1302:Generated_Source\PSoC6\pdl\drivers/peripheral/gpio/cy_gpio.h ****     GPIO_PRT_CFG_SIO(base) = tempReg | ((value & CY_GPIO_IBUF_MASK) << pinLoc);
1303:Generated_Source\PSoC6\pdl\drivers/peripheral/gpio/cy_gpio.h **** }
1304:Generated_Source\PSoC6\pdl\drivers/peripheral/gpio/cy_gpio.h **** 
1305:Generated_Source\PSoC6\pdl\drivers/peripheral/gpio/cy_gpio.h **** 
1306:Generated_Source\PSoC6\pdl\drivers/peripheral/gpio/cy_gpio.h **** /*******************************************************************************
1307:Generated_Source\PSoC6\pdl\drivers/peripheral/gpio/cy_gpio.h **** * Function Name: Cy_GPIO_GetIbufMode
1308:Generated_Source\PSoC6\pdl\drivers/peripheral/gpio/cy_gpio.h **** ****************************************************************************//**
1309:Generated_Source\PSoC6\pdl\drivers/peripheral/gpio/cy_gpio.h **** *
1310:Generated_Source\PSoC6\pdl\drivers/peripheral/gpio/cy_gpio.h **** * Returns the SIO pin pair input buffer mode.
1311:Generated_Source\PSoC6\pdl\drivers/peripheral/gpio/cy_gpio.h **** *
1312:Generated_Source\PSoC6\pdl\drivers/peripheral/gpio/cy_gpio.h **** * Note that this function has no effect on non-SIO pins.
1313:Generated_Source\PSoC6\pdl\drivers/peripheral/gpio/cy_gpio.h **** *
1314:Generated_Source\PSoC6\pdl\drivers/peripheral/gpio/cy_gpio.h **** * \param base
1315:Generated_Source\PSoC6\pdl\drivers/peripheral/gpio/cy_gpio.h **** * Pointer to the pin's port register base address
1316:Generated_Source\PSoC6\pdl\drivers/peripheral/gpio/cy_gpio.h **** *
1317:Generated_Source\PSoC6\pdl\drivers/peripheral/gpio/cy_gpio.h **** * \param pinNum
1318:Generated_Source\PSoC6\pdl\drivers/peripheral/gpio/cy_gpio.h **** * Position of the pin bit-field within the port register
1319:Generated_Source\PSoC6\pdl\drivers/peripheral/gpio/cy_gpio.h **** *
1320:Generated_Source\PSoC6\pdl\drivers/peripheral/gpio/cy_gpio.h **** * \return
1321:Generated_Source\PSoC6\pdl\drivers/peripheral/gpio/cy_gpio.h **** * SIO pair input buffer mode. Options are detailed in \ref group_gpio_sioIbuf macros
1322:Generated_Source\PSoC6\pdl\drivers/peripheral/gpio/cy_gpio.h **** *
1323:Generated_Source\PSoC6\pdl\drivers/peripheral/gpio/cy_gpio.h **** * \funcusage
1324:Generated_Source\PSoC6\pdl\drivers/peripheral/gpio/cy_gpio.h **** * \snippet gpio/gpio_v1_10_sut_01.cydsn/main_cm4.c snippet_Cy_GPIO_SetIbufMode
1325:Generated_Source\PSoC6\pdl\drivers/peripheral/gpio/cy_gpio.h **** *
1326:Generated_Source\PSoC6\pdl\drivers/peripheral/gpio/cy_gpio.h **** *******************************************************************************/
1327:Generated_Source\PSoC6\pdl\drivers/peripheral/gpio/cy_gpio.h **** __STATIC_INLINE uint32_t Cy_GPIO_GetIbufMode(GPIO_PRT_Type* base, uint32_t pinNum)
1328:Generated_Source\PSoC6\pdl\drivers/peripheral/gpio/cy_gpio.h **** {
1329:Generated_Source\PSoC6\pdl\drivers/peripheral/gpio/cy_gpio.h ****     CY_ASSERT_L2(CY_GPIO_IS_PIN_VALID(pinNum));
1330:Generated_Source\PSoC6\pdl\drivers/peripheral/gpio/cy_gpio.h ****     
1331:Generated_Source\PSoC6\pdl\drivers/peripheral/gpio/cy_gpio.h ****     return (GPIO_PRT_CFG_SIO(base) >> (((pinNum & CY_GPIO_SIO_ODD_PIN_MASK) << CY_GPIO_CFG_SIO_OFFS
1332:Generated_Source\PSoC6\pdl\drivers/peripheral/gpio/cy_gpio.h **** }
1333:Generated_Source\PSoC6\pdl\drivers/peripheral/gpio/cy_gpio.h **** 
1334:Generated_Source\PSoC6\pdl\drivers/peripheral/gpio/cy_gpio.h **** 
1335:Generated_Source\PSoC6\pdl\drivers/peripheral/gpio/cy_gpio.h **** /*******************************************************************************
1336:Generated_Source\PSoC6\pdl\drivers/peripheral/gpio/cy_gpio.h **** * Function Name: Cy_GPIO_SetVtripSel
1337:Generated_Source\PSoC6\pdl\drivers/peripheral/gpio/cy_gpio.h **** ****************************************************************************//**
1338:Generated_Source\PSoC6\pdl\drivers/peripheral/gpio/cy_gpio.h **** *
1339:Generated_Source\PSoC6\pdl\drivers/peripheral/gpio/cy_gpio.h **** * Configures the SIO pin pair input buffer trip point.
1340:Generated_Source\PSoC6\pdl\drivers/peripheral/gpio/cy_gpio.h **** *
1341:Generated_Source\PSoC6\pdl\drivers/peripheral/gpio/cy_gpio.h **** * Note that this function has no effect on non-SIO pins.
1342:Generated_Source\PSoC6\pdl\drivers/peripheral/gpio/cy_gpio.h **** *
1343:Generated_Source\PSoC6\pdl\drivers/peripheral/gpio/cy_gpio.h **** * \param base
1344:Generated_Source\PSoC6\pdl\drivers/peripheral/gpio/cy_gpio.h **** * Pointer to the pin's port register base address
1345:Generated_Source\PSoC6\pdl\drivers/peripheral/gpio/cy_gpio.h **** *
1346:Generated_Source\PSoC6\pdl\drivers/peripheral/gpio/cy_gpio.h **** * \param pinNum
1347:Generated_Source\PSoC6\pdl\drivers/peripheral/gpio/cy_gpio.h **** * Position of the pin bit-field within the port register
1348:Generated_Source\PSoC6\pdl\drivers/peripheral/gpio/cy_gpio.h **** *
1349:Generated_Source\PSoC6\pdl\drivers/peripheral/gpio/cy_gpio.h **** * \param value
1350:Generated_Source\PSoC6\pdl\drivers/peripheral/gpio/cy_gpio.h **** * SIO pair input buffer trip point. Options are detailed in \ref group_gpio_sioVtrip macros
1351:Generated_Source\PSoC6\pdl\drivers/peripheral/gpio/cy_gpio.h **** *
1352:Generated_Source\PSoC6\pdl\drivers/peripheral/gpio/cy_gpio.h **** * \note 
1353:Generated_Source\PSoC6\pdl\drivers/peripheral/gpio/cy_gpio.h **** * This function modifies a port register in a read-modify-write operation. It is
1354:Generated_Source\PSoC6\pdl\drivers/peripheral/gpio/cy_gpio.h **** * not thread safe as the resource is shared among multiple pins on a port.
1355:Generated_Source\PSoC6\pdl\drivers/peripheral/gpio/cy_gpio.h **** *
1356:Generated_Source\PSoC6\pdl\drivers/peripheral/gpio/cy_gpio.h **** * \funcusage
ARM GAS  C:\Users\markm\AppData\Local\Temp\ccA1bc6D.s 			page 47


1357:Generated_Source\PSoC6\pdl\drivers/peripheral/gpio/cy_gpio.h **** * \snippet gpio/gpio_v1_10_sut_01.cydsn/main_cm4.c snippet_Cy_GPIO_SetVtripSel
1358:Generated_Source\PSoC6\pdl\drivers/peripheral/gpio/cy_gpio.h **** *
1359:Generated_Source\PSoC6\pdl\drivers/peripheral/gpio/cy_gpio.h **** *******************************************************************************/
1360:Generated_Source\PSoC6\pdl\drivers/peripheral/gpio/cy_gpio.h **** __STATIC_INLINE void Cy_GPIO_SetVtripSel(GPIO_PRT_Type* base, uint32_t pinNum, uint32_t value)
1361:Generated_Source\PSoC6\pdl\drivers/peripheral/gpio/cy_gpio.h **** {
1362:Generated_Source\PSoC6\pdl\drivers/peripheral/gpio/cy_gpio.h ****     uint32_t tempReg;
1363:Generated_Source\PSoC6\pdl\drivers/peripheral/gpio/cy_gpio.h ****     uint32_t pinLoc;
1364:Generated_Source\PSoC6\pdl\drivers/peripheral/gpio/cy_gpio.h **** 
1365:Generated_Source\PSoC6\pdl\drivers/peripheral/gpio/cy_gpio.h ****     CY_ASSERT_L2(CY_GPIO_IS_PIN_VALID(pinNum));
1366:Generated_Source\PSoC6\pdl\drivers/peripheral/gpio/cy_gpio.h ****     CY_ASSERT_L2(CY_GPIO_IS_VALUE_VALID(value));
1367:Generated_Source\PSoC6\pdl\drivers/peripheral/gpio/cy_gpio.h **** 
1368:Generated_Source\PSoC6\pdl\drivers/peripheral/gpio/cy_gpio.h ****     pinLoc = ((pinNum & CY_GPIO_SIO_ODD_PIN_MASK) << CY_GPIO_CFG_SIO_OFFSET) + CY_GPIO_VTRIP_SEL_SH
1369:Generated_Source\PSoC6\pdl\drivers/peripheral/gpio/cy_gpio.h ****     tempReg = (GPIO_PRT_CFG_SIO(base) & ~(CY_GPIO_VTRIP_SEL_MASK << pinLoc));
1370:Generated_Source\PSoC6\pdl\drivers/peripheral/gpio/cy_gpio.h ****     GPIO_PRT_CFG_SIO(base) = tempReg | ((value & CY_GPIO_VTRIP_SEL_MASK) << pinLoc);
1371:Generated_Source\PSoC6\pdl\drivers/peripheral/gpio/cy_gpio.h **** }
1372:Generated_Source\PSoC6\pdl\drivers/peripheral/gpio/cy_gpio.h **** 
1373:Generated_Source\PSoC6\pdl\drivers/peripheral/gpio/cy_gpio.h **** 
1374:Generated_Source\PSoC6\pdl\drivers/peripheral/gpio/cy_gpio.h **** /*******************************************************************************
1375:Generated_Source\PSoC6\pdl\drivers/peripheral/gpio/cy_gpio.h **** * Function Name: Cy_GPIO_GetVtripSel
1376:Generated_Source\PSoC6\pdl\drivers/peripheral/gpio/cy_gpio.h **** ****************************************************************************//**
1377:Generated_Source\PSoC6\pdl\drivers/peripheral/gpio/cy_gpio.h **** *
1378:Generated_Source\PSoC6\pdl\drivers/peripheral/gpio/cy_gpio.h **** * Returns the SIO pin pair input buffer trip point.
1379:Generated_Source\PSoC6\pdl\drivers/peripheral/gpio/cy_gpio.h **** *
1380:Generated_Source\PSoC6\pdl\drivers/peripheral/gpio/cy_gpio.h **** * Note that this function has no effect on non-SIO pins.
1381:Generated_Source\PSoC6\pdl\drivers/peripheral/gpio/cy_gpio.h **** *
1382:Generated_Source\PSoC6\pdl\drivers/peripheral/gpio/cy_gpio.h **** * \param base
1383:Generated_Source\PSoC6\pdl\drivers/peripheral/gpio/cy_gpio.h **** * Pointer to the pin's port register base address
1384:Generated_Source\PSoC6\pdl\drivers/peripheral/gpio/cy_gpio.h **** *
1385:Generated_Source\PSoC6\pdl\drivers/peripheral/gpio/cy_gpio.h **** * \param pinNum
1386:Generated_Source\PSoC6\pdl\drivers/peripheral/gpio/cy_gpio.h **** * Position of the pin bit-field within the port register
1387:Generated_Source\PSoC6\pdl\drivers/peripheral/gpio/cy_gpio.h **** *
1388:Generated_Source\PSoC6\pdl\drivers/peripheral/gpio/cy_gpio.h **** * \return
1389:Generated_Source\PSoC6\pdl\drivers/peripheral/gpio/cy_gpio.h **** * SIO pair input buffer trip point. Options are detailed in \ref group_gpio_sioVtrip macros
1390:Generated_Source\PSoC6\pdl\drivers/peripheral/gpio/cy_gpio.h **** *
1391:Generated_Source\PSoC6\pdl\drivers/peripheral/gpio/cy_gpio.h **** * \funcusage
1392:Generated_Source\PSoC6\pdl\drivers/peripheral/gpio/cy_gpio.h **** * \snippet gpio/gpio_v1_10_sut_01.cydsn/main_cm4.c snippet_Cy_GPIO_SetVtripSel
1393:Generated_Source\PSoC6\pdl\drivers/peripheral/gpio/cy_gpio.h **** *
1394:Generated_Source\PSoC6\pdl\drivers/peripheral/gpio/cy_gpio.h **** *******************************************************************************/
1395:Generated_Source\PSoC6\pdl\drivers/peripheral/gpio/cy_gpio.h **** __STATIC_INLINE uint32_t Cy_GPIO_GetVtripSel(GPIO_PRT_Type* base, uint32_t pinNum)
1396:Generated_Source\PSoC6\pdl\drivers/peripheral/gpio/cy_gpio.h **** {
1397:Generated_Source\PSoC6\pdl\drivers/peripheral/gpio/cy_gpio.h ****     CY_ASSERT_L2(CY_GPIO_IS_PIN_VALID(pinNum));
1398:Generated_Source\PSoC6\pdl\drivers/peripheral/gpio/cy_gpio.h **** 
1399:Generated_Source\PSoC6\pdl\drivers/peripheral/gpio/cy_gpio.h ****     return (GPIO_PRT_CFG_SIO(base) >> (((pinNum & CY_GPIO_SIO_ODD_PIN_MASK) << CY_GPIO_CFG_SIO_OFFS
1400:Generated_Source\PSoC6\pdl\drivers/peripheral/gpio/cy_gpio.h **** }
1401:Generated_Source\PSoC6\pdl\drivers/peripheral/gpio/cy_gpio.h **** 
1402:Generated_Source\PSoC6\pdl\drivers/peripheral/gpio/cy_gpio.h **** 
1403:Generated_Source\PSoC6\pdl\drivers/peripheral/gpio/cy_gpio.h **** /*******************************************************************************
1404:Generated_Source\PSoC6\pdl\drivers/peripheral/gpio/cy_gpio.h **** * Function Name: Cy_GPIO_SetVrefSel
1405:Generated_Source\PSoC6\pdl\drivers/peripheral/gpio/cy_gpio.h **** ****************************************************************************//**
1406:Generated_Source\PSoC6\pdl\drivers/peripheral/gpio/cy_gpio.h **** *
1407:Generated_Source\PSoC6\pdl\drivers/peripheral/gpio/cy_gpio.h **** * Configures the SIO reference voltage for the input buffer trip point.
1408:Generated_Source\PSoC6\pdl\drivers/peripheral/gpio/cy_gpio.h **** *
1409:Generated_Source\PSoC6\pdl\drivers/peripheral/gpio/cy_gpio.h **** * Note that this function has no effect on non-SIO pins.
1410:Generated_Source\PSoC6\pdl\drivers/peripheral/gpio/cy_gpio.h **** *
1411:Generated_Source\PSoC6\pdl\drivers/peripheral/gpio/cy_gpio.h **** * \param base
1412:Generated_Source\PSoC6\pdl\drivers/peripheral/gpio/cy_gpio.h **** * Pointer to the pin's port register base address
1413:Generated_Source\PSoC6\pdl\drivers/peripheral/gpio/cy_gpio.h **** *
ARM GAS  C:\Users\markm\AppData\Local\Temp\ccA1bc6D.s 			page 48


1414:Generated_Source\PSoC6\pdl\drivers/peripheral/gpio/cy_gpio.h **** * \param pinNum
1415:Generated_Source\PSoC6\pdl\drivers/peripheral/gpio/cy_gpio.h **** * Position of the pin bit-field within the port register
1416:Generated_Source\PSoC6\pdl\drivers/peripheral/gpio/cy_gpio.h **** *
1417:Generated_Source\PSoC6\pdl\drivers/peripheral/gpio/cy_gpio.h **** * \param value
1418:Generated_Source\PSoC6\pdl\drivers/peripheral/gpio/cy_gpio.h **** * SIO pair reference voltage. Options are detailed in \ref group_gpio_sioVref macros
1419:Generated_Source\PSoC6\pdl\drivers/peripheral/gpio/cy_gpio.h **** *
1420:Generated_Source\PSoC6\pdl\drivers/peripheral/gpio/cy_gpio.h **** * \note 
1421:Generated_Source\PSoC6\pdl\drivers/peripheral/gpio/cy_gpio.h **** * This function modifies a port register in a read-modify-write operation. It is
1422:Generated_Source\PSoC6\pdl\drivers/peripheral/gpio/cy_gpio.h **** * not thread safe as the resource is shared among multiple pins on a port.
1423:Generated_Source\PSoC6\pdl\drivers/peripheral/gpio/cy_gpio.h **** *
1424:Generated_Source\PSoC6\pdl\drivers/peripheral/gpio/cy_gpio.h **** * \funcusage
1425:Generated_Source\PSoC6\pdl\drivers/peripheral/gpio/cy_gpio.h **** * \snippet gpio/gpio_v1_10_sut_01.cydsn/main_cm4.c snippet_Cy_GPIO_SetVrefSel
1426:Generated_Source\PSoC6\pdl\drivers/peripheral/gpio/cy_gpio.h **** *
1427:Generated_Source\PSoC6\pdl\drivers/peripheral/gpio/cy_gpio.h **** *******************************************************************************/
1428:Generated_Source\PSoC6\pdl\drivers/peripheral/gpio/cy_gpio.h **** __STATIC_INLINE void Cy_GPIO_SetVrefSel(GPIO_PRT_Type* base, uint32_t pinNum, uint32_t value)
1429:Generated_Source\PSoC6\pdl\drivers/peripheral/gpio/cy_gpio.h **** {
1430:Generated_Source\PSoC6\pdl\drivers/peripheral/gpio/cy_gpio.h ****     uint32_t tempReg;
1431:Generated_Source\PSoC6\pdl\drivers/peripheral/gpio/cy_gpio.h ****     uint32_t pinLoc;
1432:Generated_Source\PSoC6\pdl\drivers/peripheral/gpio/cy_gpio.h **** 
1433:Generated_Source\PSoC6\pdl\drivers/peripheral/gpio/cy_gpio.h ****     CY_ASSERT_L2(CY_GPIO_IS_PIN_VALID(pinNum));
1434:Generated_Source\PSoC6\pdl\drivers/peripheral/gpio/cy_gpio.h ****     CY_ASSERT_L2(CY_GPIO_IS_VREF_SEL_VALID(value));
1435:Generated_Source\PSoC6\pdl\drivers/peripheral/gpio/cy_gpio.h ****     
1436:Generated_Source\PSoC6\pdl\drivers/peripheral/gpio/cy_gpio.h ****     pinLoc = ((pinNum & CY_GPIO_SIO_ODD_PIN_MASK) << CY_GPIO_CFG_SIO_OFFSET) + CY_GPIO_VREF_SEL_SHI
1437:Generated_Source\PSoC6\pdl\drivers/peripheral/gpio/cy_gpio.h ****     tempReg = (GPIO_PRT_CFG_SIO(base) & ~(CY_GPIO_VREF_SEL_MASK << pinLoc));
1438:Generated_Source\PSoC6\pdl\drivers/peripheral/gpio/cy_gpio.h ****     GPIO_PRT_CFG_SIO(base) = tempReg | ((value & CY_GPIO_VREF_SEL_MASK) << pinLoc);
1439:Generated_Source\PSoC6\pdl\drivers/peripheral/gpio/cy_gpio.h **** }
1440:Generated_Source\PSoC6\pdl\drivers/peripheral/gpio/cy_gpio.h **** 
1441:Generated_Source\PSoC6\pdl\drivers/peripheral/gpio/cy_gpio.h **** 
1442:Generated_Source\PSoC6\pdl\drivers/peripheral/gpio/cy_gpio.h **** /*******************************************************************************
1443:Generated_Source\PSoC6\pdl\drivers/peripheral/gpio/cy_gpio.h **** * Function Name: Cy_GPIO_GetVrefSel
1444:Generated_Source\PSoC6\pdl\drivers/peripheral/gpio/cy_gpio.h **** ****************************************************************************//**
1445:Generated_Source\PSoC6\pdl\drivers/peripheral/gpio/cy_gpio.h **** *
1446:Generated_Source\PSoC6\pdl\drivers/peripheral/gpio/cy_gpio.h **** * Returns the SIO reference voltage for the input buffer trip point.
1447:Generated_Source\PSoC6\pdl\drivers/peripheral/gpio/cy_gpio.h **** *
1448:Generated_Source\PSoC6\pdl\drivers/peripheral/gpio/cy_gpio.h **** * Note that this function has no effect on non-SIO pins.
1449:Generated_Source\PSoC6\pdl\drivers/peripheral/gpio/cy_gpio.h **** *
1450:Generated_Source\PSoC6\pdl\drivers/peripheral/gpio/cy_gpio.h **** * \param base
1451:Generated_Source\PSoC6\pdl\drivers/peripheral/gpio/cy_gpio.h **** * Pointer to the pin's port register base address
1452:Generated_Source\PSoC6\pdl\drivers/peripheral/gpio/cy_gpio.h **** *
1453:Generated_Source\PSoC6\pdl\drivers/peripheral/gpio/cy_gpio.h **** * \param pinNum
1454:Generated_Source\PSoC6\pdl\drivers/peripheral/gpio/cy_gpio.h **** * Position of the pin bit-field within the port register
1455:Generated_Source\PSoC6\pdl\drivers/peripheral/gpio/cy_gpio.h **** *
1456:Generated_Source\PSoC6\pdl\drivers/peripheral/gpio/cy_gpio.h **** * \return
1457:Generated_Source\PSoC6\pdl\drivers/peripheral/gpio/cy_gpio.h **** * SIO pair reference voltage. Options are detailed in \ref group_gpio_sioVref macros
1458:Generated_Source\PSoC6\pdl\drivers/peripheral/gpio/cy_gpio.h **** *
1459:Generated_Source\PSoC6\pdl\drivers/peripheral/gpio/cy_gpio.h **** * \funcusage
1460:Generated_Source\PSoC6\pdl\drivers/peripheral/gpio/cy_gpio.h **** * \snippet gpio/gpio_v1_10_sut_01.cydsn/main_cm4.c snippet_Cy_GPIO_SetVrefSel
1461:Generated_Source\PSoC6\pdl\drivers/peripheral/gpio/cy_gpio.h **** *
1462:Generated_Source\PSoC6\pdl\drivers/peripheral/gpio/cy_gpio.h **** *******************************************************************************/
1463:Generated_Source\PSoC6\pdl\drivers/peripheral/gpio/cy_gpio.h **** __STATIC_INLINE uint32_t Cy_GPIO_GetVrefSel(GPIO_PRT_Type* base, uint32_t pinNum)
1464:Generated_Source\PSoC6\pdl\drivers/peripheral/gpio/cy_gpio.h **** {
1465:Generated_Source\PSoC6\pdl\drivers/peripheral/gpio/cy_gpio.h ****     CY_ASSERT_L2(CY_GPIO_IS_PIN_VALID(pinNum));
1466:Generated_Source\PSoC6\pdl\drivers/peripheral/gpio/cy_gpio.h ****     
1467:Generated_Source\PSoC6\pdl\drivers/peripheral/gpio/cy_gpio.h ****     return (GPIO_PRT_CFG_SIO(base) >> (((pinNum & CY_GPIO_SIO_ODD_PIN_MASK) << CY_GPIO_CFG_SIO_OFFS
1468:Generated_Source\PSoC6\pdl\drivers/peripheral/gpio/cy_gpio.h **** }
1469:Generated_Source\PSoC6\pdl\drivers/peripheral/gpio/cy_gpio.h **** 
1470:Generated_Source\PSoC6\pdl\drivers/peripheral/gpio/cy_gpio.h **** 
ARM GAS  C:\Users\markm\AppData\Local\Temp\ccA1bc6D.s 			page 49


1471:Generated_Source\PSoC6\pdl\drivers/peripheral/gpio/cy_gpio.h **** /*******************************************************************************
1472:Generated_Source\PSoC6\pdl\drivers/peripheral/gpio/cy_gpio.h **** * Function Name: Cy_GPIO_SetVohSel
1473:Generated_Source\PSoC6\pdl\drivers/peripheral/gpio/cy_gpio.h **** ****************************************************************************//**
1474:Generated_Source\PSoC6\pdl\drivers/peripheral/gpio/cy_gpio.h **** *
1475:Generated_Source\PSoC6\pdl\drivers/peripheral/gpio/cy_gpio.h **** * Configures the regulated output reference multiplier for the SIO pin pair.
1476:Generated_Source\PSoC6\pdl\drivers/peripheral/gpio/cy_gpio.h **** *
1477:Generated_Source\PSoC6\pdl\drivers/peripheral/gpio/cy_gpio.h **** * The regulated output reference controls both the output level of digital output
1478:Generated_Source\PSoC6\pdl\drivers/peripheral/gpio/cy_gpio.h **** * pin and the input trip point of digital input pin in the SIO pair.
1479:Generated_Source\PSoC6\pdl\drivers/peripheral/gpio/cy_gpio.h **** *
1480:Generated_Source\PSoC6\pdl\drivers/peripheral/gpio/cy_gpio.h **** * Note that this function has no effect on non-SIO pins.
1481:Generated_Source\PSoC6\pdl\drivers/peripheral/gpio/cy_gpio.h **** *
1482:Generated_Source\PSoC6\pdl\drivers/peripheral/gpio/cy_gpio.h **** * \param base
1483:Generated_Source\PSoC6\pdl\drivers/peripheral/gpio/cy_gpio.h **** * Pointer to the pin's port register base address
1484:Generated_Source\PSoC6\pdl\drivers/peripheral/gpio/cy_gpio.h **** *
1485:Generated_Source\PSoC6\pdl\drivers/peripheral/gpio/cy_gpio.h **** * \param pinNum
1486:Generated_Source\PSoC6\pdl\drivers/peripheral/gpio/cy_gpio.h **** * Position of the pin bit-field within the port register
1487:Generated_Source\PSoC6\pdl\drivers/peripheral/gpio/cy_gpio.h **** *
1488:Generated_Source\PSoC6\pdl\drivers/peripheral/gpio/cy_gpio.h **** * \param value
1489:Generated_Source\PSoC6\pdl\drivers/peripheral/gpio/cy_gpio.h **** * SIO pair reference voltage. Options are detailed in \ref group_gpio_sioVoh macros
1490:Generated_Source\PSoC6\pdl\drivers/peripheral/gpio/cy_gpio.h **** *
1491:Generated_Source\PSoC6\pdl\drivers/peripheral/gpio/cy_gpio.h **** * \note 
1492:Generated_Source\PSoC6\pdl\drivers/peripheral/gpio/cy_gpio.h **** * This function modifies a port register in a read-modify-write operation. It is
1493:Generated_Source\PSoC6\pdl\drivers/peripheral/gpio/cy_gpio.h **** * not thread safe as the resource is shared among multiple pins on a port.
1494:Generated_Source\PSoC6\pdl\drivers/peripheral/gpio/cy_gpio.h **** *
1495:Generated_Source\PSoC6\pdl\drivers/peripheral/gpio/cy_gpio.h **** * \funcusage
1496:Generated_Source\PSoC6\pdl\drivers/peripheral/gpio/cy_gpio.h **** * \snippet gpio/gpio_v1_10_sut_01.cydsn/main_cm4.c snippet_Cy_GPIO_SetVohSel
1497:Generated_Source\PSoC6\pdl\drivers/peripheral/gpio/cy_gpio.h **** *
1498:Generated_Source\PSoC6\pdl\drivers/peripheral/gpio/cy_gpio.h **** *******************************************************************************/
1499:Generated_Source\PSoC6\pdl\drivers/peripheral/gpio/cy_gpio.h **** __STATIC_INLINE void Cy_GPIO_SetVohSel(GPIO_PRT_Type* base, uint32_t pinNum, uint32_t value)
1500:Generated_Source\PSoC6\pdl\drivers/peripheral/gpio/cy_gpio.h **** {
1501:Generated_Source\PSoC6\pdl\drivers/peripheral/gpio/cy_gpio.h ****     uint32_t tempReg;
1502:Generated_Source\PSoC6\pdl\drivers/peripheral/gpio/cy_gpio.h ****     uint32_t pinLoc;
1503:Generated_Source\PSoC6\pdl\drivers/peripheral/gpio/cy_gpio.h **** 
1504:Generated_Source\PSoC6\pdl\drivers/peripheral/gpio/cy_gpio.h ****     CY_ASSERT_L2(CY_GPIO_IS_PIN_VALID(pinNum));
1505:Generated_Source\PSoC6\pdl\drivers/peripheral/gpio/cy_gpio.h ****     CY_ASSERT_L2(CY_GPIO_IS_VOH_SEL_VALID(value));
1506:Generated_Source\PSoC6\pdl\drivers/peripheral/gpio/cy_gpio.h **** 
1507:Generated_Source\PSoC6\pdl\drivers/peripheral/gpio/cy_gpio.h ****     pinLoc = ((pinNum & CY_GPIO_SIO_ODD_PIN_MASK) << CY_GPIO_CFG_SIO_OFFSET) + CY_GPIO_VOH_SEL_SHIF
1508:Generated_Source\PSoC6\pdl\drivers/peripheral/gpio/cy_gpio.h ****     tempReg = (GPIO_PRT_CFG_SIO(base) & ~(CY_GPIO_VOH_SEL_MASK << pinLoc));
1509:Generated_Source\PSoC6\pdl\drivers/peripheral/gpio/cy_gpio.h ****     GPIO_PRT_CFG_SIO(base) = tempReg | ((value & CY_GPIO_VOH_SEL_MASK) << pinLoc);
1510:Generated_Source\PSoC6\pdl\drivers/peripheral/gpio/cy_gpio.h **** }
1511:Generated_Source\PSoC6\pdl\drivers/peripheral/gpio/cy_gpio.h **** 
1512:Generated_Source\PSoC6\pdl\drivers/peripheral/gpio/cy_gpio.h **** 
1513:Generated_Source\PSoC6\pdl\drivers/peripheral/gpio/cy_gpio.h **** /*******************************************************************************
1514:Generated_Source\PSoC6\pdl\drivers/peripheral/gpio/cy_gpio.h **** * Function Name: Cy_GPIO_GetVohSel
1515:Generated_Source\PSoC6\pdl\drivers/peripheral/gpio/cy_gpio.h **** ****************************************************************************//**
1516:Generated_Source\PSoC6\pdl\drivers/peripheral/gpio/cy_gpio.h **** *
1517:Generated_Source\PSoC6\pdl\drivers/peripheral/gpio/cy_gpio.h **** * Returns the regulated output reference multiplier for the SIO pin pair.
1518:Generated_Source\PSoC6\pdl\drivers/peripheral/gpio/cy_gpio.h **** *
1519:Generated_Source\PSoC6\pdl\drivers/peripheral/gpio/cy_gpio.h **** * Note that this function has no effect on non-SIO pins.
1520:Generated_Source\PSoC6\pdl\drivers/peripheral/gpio/cy_gpio.h **** *
1521:Generated_Source\PSoC6\pdl\drivers/peripheral/gpio/cy_gpio.h **** * \param base
1522:Generated_Source\PSoC6\pdl\drivers/peripheral/gpio/cy_gpio.h **** * Pointer to the pin's port register base address
1523:Generated_Source\PSoC6\pdl\drivers/peripheral/gpio/cy_gpio.h **** *
1524:Generated_Source\PSoC6\pdl\drivers/peripheral/gpio/cy_gpio.h **** * \param pinNum
1525:Generated_Source\PSoC6\pdl\drivers/peripheral/gpio/cy_gpio.h **** * Position of the pin bit-field within the port register
1526:Generated_Source\PSoC6\pdl\drivers/peripheral/gpio/cy_gpio.h **** *
1527:Generated_Source\PSoC6\pdl\drivers/peripheral/gpio/cy_gpio.h **** * \return
ARM GAS  C:\Users\markm\AppData\Local\Temp\ccA1bc6D.s 			page 50


1528:Generated_Source\PSoC6\pdl\drivers/peripheral/gpio/cy_gpio.h **** * SIO pair reference voltage. Options are detailed in \ref group_gpio_sioVoh macros
1529:Generated_Source\PSoC6\pdl\drivers/peripheral/gpio/cy_gpio.h **** *
1530:Generated_Source\PSoC6\pdl\drivers/peripheral/gpio/cy_gpio.h **** * \funcusage
1531:Generated_Source\PSoC6\pdl\drivers/peripheral/gpio/cy_gpio.h **** * \snippet gpio/gpio_v1_10_sut_01.cydsn/main_cm4.c snippet_Cy_GPIO_SetVohSel
1532:Generated_Source\PSoC6\pdl\drivers/peripheral/gpio/cy_gpio.h **** *
1533:Generated_Source\PSoC6\pdl\drivers/peripheral/gpio/cy_gpio.h **** *******************************************************************************/
1534:Generated_Source\PSoC6\pdl\drivers/peripheral/gpio/cy_gpio.h **** __STATIC_INLINE uint32_t Cy_GPIO_GetVohSel(GPIO_PRT_Type* base, uint32_t pinNum)
1535:Generated_Source\PSoC6\pdl\drivers/peripheral/gpio/cy_gpio.h **** {
1536:Generated_Source\PSoC6\pdl\drivers/peripheral/gpio/cy_gpio.h ****     CY_ASSERT_L2(CY_GPIO_IS_PIN_VALID(pinNum));
1537:Generated_Source\PSoC6\pdl\drivers/peripheral/gpio/cy_gpio.h ****     
1538:Generated_Source\PSoC6\pdl\drivers/peripheral/gpio/cy_gpio.h ****     return (GPIO_PRT_CFG_SIO(base) >> (((pinNum & CY_GPIO_SIO_ODD_PIN_MASK) << CY_GPIO_CFG_SIO_OFFS
1539:Generated_Source\PSoC6\pdl\drivers/peripheral/gpio/cy_gpio.h **** }
1540:Generated_Source\PSoC6\pdl\drivers/peripheral/gpio/cy_gpio.h **** 
1541:Generated_Source\PSoC6\pdl\drivers/peripheral/gpio/cy_gpio.h **** /** \} group_gpio_functions_sio */
1542:Generated_Source\PSoC6\pdl\drivers/peripheral/gpio/cy_gpio.h **** 
1543:Generated_Source\PSoC6\pdl\drivers/peripheral/gpio/cy_gpio.h **** /**
1544:Generated_Source\PSoC6\pdl\drivers/peripheral/gpio/cy_gpio.h **** * \addtogroup group_gpio_functions_interrupt
