ARM GAS  C:\Users\vicpa\AppData\Local\Temp\ccqS0gg1.s 			page 1


   1              		.syntax unified
   2              		.cpu cortex-m4
   3              		.eabi_attribute 27, 1
   4              		.fpu fpv4-sp-d16
   5              		.eabi_attribute 20, 1
   6              		.eabi_attribute 21, 1
   7              		.eabi_attribute 23, 3
   8              		.eabi_attribute 24, 1
   9              		.eabi_attribute 25, 1
  10              		.eabi_attribute 26, 1
  11              		.eabi_attribute 30, 1
  12              		.eabi_attribute 34, 1
  13              		.eabi_attribute 18, 4
  14              		.thumb
  15              		.syntax unified
  16              		.file	"TasksInterface.c"
  17              		.text
  18              	.Ltext0:
  19              		.cfi_sections	.debug_frame
  20              		.section	.text.UpdateDisplay,"ax",%progbits
  21              		.align	2
  22              		.global	UpdateDisplay
  23              		.thumb
  24              		.thumb_func
  25              		.type	UpdateDisplay, %function
  26              	UpdateDisplay:
  27              	.LFB561:
  28              		.file 1 "TasksInterface.c"
   1:TasksInterface.c **** #include "project.h"
   2:TasksInterface.c **** #include "FreeRTOS.h"
   3:TasksInterface.c **** #include "task.h"
   4:TasksInterface.c **** #include "semphr.h"
   5:TasksInterface.c **** #include "queue.h"
   6:TasksInterface.c **** #include "GUI.h"
   7:TasksInterface.c **** #include "pervasive_eink_hardware_driver.h"
   8:TasksInterface.c **** #include "cy_eink_library.h"
   9:TasksInterface.c **** #include "LCDConf.h"
  10:TasksInterface.c **** #include <stdlib.h>
  11:TasksInterface.c **** #include "math.h"
  12:TasksInterface.c **** #include "TasksInterface.h"
  13:TasksInterface.c **** 
  14:TasksInterface.c **** //---------------------------------------------------- Fonctions d'affichage / Fonctions appelées 
  15:TasksInterface.c **** 
  16:TasksInterface.c **** // 1)Fonction pour mettre à jour l'écran
  17:TasksInterface.c **** uint8 imageBufferCache[CY_EINK_FRAME_SIZE] = {0};
  18:TasksInterface.c **** void UpdateDisplay(cy_eink_update_t updateMethod, bool powerCycle)
  19:TasksInterface.c **** {
  29              		.loc 1 19 0
  30              		.cfi_startproc
  31              		@ args = 0, pretend = 0, frame = 0
  32              		@ frame_needed = 0, uses_anonymous_args = 0
  33              	.LVL0:
  34 0000 F8B5     		push	{r3, r4, r5, r6, r7, lr}
  35              		.cfi_def_cfa_offset 24
  36              		.cfi_offset 3, -24
  37              		.cfi_offset 4, -20
  38              		.cfi_offset 5, -16
ARM GAS  C:\Users\vicpa\AppData\Local\Temp\ccqS0gg1.s 			page 2


  39              		.cfi_offset 6, -12
  40              		.cfi_offset 7, -8
  41              		.cfi_offset 14, -4
  42 0002 0646     		mov	r6, r0
  43 0004 0F46     		mov	r7, r1
  20:TasksInterface.c ****     cy_eink_frame_t* pEmwinBuffer;
  21:TasksInterface.c ****     pEmwinBuffer = (cy_eink_frame_t*)LCD_GetDisplayBuffer();
  44              		.loc 1 21 0
  45 0006 FFF7FEFF 		bl	LCD_GetDisplayBuffer
  46              	.LVL1:
  47 000a 0546     		mov	r5, r0
  48              	.LVL2:
  22:TasksInterface.c ****     Cy_EINK_ShowFrame(imageBufferCache, pEmwinBuffer, updateMethod, powerCycle);
  49              		.loc 1 22 0
  50 000c 064C     		ldr	r4, .L3
  51 000e 3B46     		mov	r3, r7
  52 0010 3246     		mov	r2, r6
  53 0012 0146     		mov	r1, r0
  54 0014 2046     		mov	r0, r4
  55              	.LVL3:
  56 0016 FFF7FEFF 		bl	Cy_EINK_ShowFrame
  57              	.LVL4:
  23:TasksInterface.c ****     memcpy(imageBufferCache, pEmwinBuffer, CY_EINK_FRAME_SIZE);
  58              		.loc 1 23 0
  59 001a 41F2B062 		movw	r2, #5808
  60 001e 2946     		mov	r1, r5
  61 0020 2046     		mov	r0, r4
  62 0022 FFF7FEFF 		bl	memcpy
  63              	.LVL5:
  64 0026 F8BD     		pop	{r3, r4, r5, r6, r7, pc}
  65              	.LVL6:
  66              	.L4:
  67              		.align	2
  68              	.L3:
  69 0028 00000000 		.word	.LANCHOR0
  70              		.cfi_endproc
  71              	.LFE561:
  72              		.size	UpdateDisplay, .-UpdateDisplay
  73              		.section	.text.ClearScreen,"ax",%progbits
  74              		.align	2
  75              		.global	ClearScreen
  76              		.thumb
  77              		.thumb_func
  78              		.type	ClearScreen, %function
  79              	ClearScreen:
  80              	.LFB562:
  24:TasksInterface.c **** }
  25:TasksInterface.c **** 
  26:TasksInterface.c **** // 2)Fonction pour effacer l'écran
  27:TasksInterface.c **** void ClearScreen(void)
  28:TasksInterface.c **** {
  81              		.loc 1 28 0
  82              		.cfi_startproc
  83              		@ args = 0, pretend = 0, frame = 0
  84              		@ frame_needed = 0, uses_anonymous_args = 0
  85 0000 08B5     		push	{r3, lr}
  86              		.cfi_def_cfa_offset 8
ARM GAS  C:\Users\vicpa\AppData\Local\Temp\ccqS0gg1.s 			page 3


  87              		.cfi_offset 3, -8
  88              		.cfi_offset 14, -4
  29:TasksInterface.c ****     GUI_SetColor(GUI_BLACK);
  89              		.loc 1 29 0
  90 0002 0020     		movs	r0, #0
  91 0004 FFF7FEFF 		bl	GUI_SetColor
  92              	.LVL7:
  30:TasksInterface.c ****     GUI_SetBkColor(GUI_WHITE);
  93              		.loc 1 30 0
  94 0008 6FF07F40 		mvn	r0, #-16777216
  95 000c FFF7FEFF 		bl	GUI_SetBkColor
  96              	.LVL8:
  31:TasksInterface.c ****     GUI_Clear();
  97              		.loc 1 31 0
  98 0010 FFF7FEFF 		bl	GUI_Clear
  99              	.LVL9:
  32:TasksInterface.c ****     UpdateDisplay(CY_EINK_FULL_4STAGE, true);
 100              		.loc 1 32 0
 101 0014 0121     		movs	r1, #1
 102 0016 0846     		mov	r0, r1
 103 0018 FFF7FEFF 		bl	UpdateDisplay
 104              	.LVL10:
 105 001c 08BD     		pop	{r3, pc}
 106              		.cfi_endproc
 107              	.LFE562:
 108              		.size	ClearScreen, .-ClearScreen
 109              		.global	__aeabi_f2d
 110              		.global	__aeabi_d2iz
 111 001e 00BF     		.section	.text.drawGraph,"ax",%progbits
 112              		.align	2
 113              		.global	drawGraph
 114              		.thumb
 115              		.thumb_func
 116              		.type	drawGraph, %function
 117              	drawGraph:
 118              	.LFB563:
  33:TasksInterface.c **** }
  34:TasksInterface.c **** 
  35:TasksInterface.c **** // 3)Fonction pour tracer le graphe d'un vecteur de 750 éléments
  36:TasksInterface.c **** void drawGraph(float *vector750elements) 
  37:TasksInterface.c **** {
 119              		.loc 1 37 0
 120              		.cfi_startproc
 121              		@ args = 0, pretend = 0, frame = 1000
 122              		@ frame_needed = 0, uses_anonymous_args = 0
 123              	.LVL11:
 124 0000 70B5     		push	{r4, r5, r6, lr}
 125              		.cfi_def_cfa_offset 16
 126              		.cfi_offset 4, -16
 127              		.cfi_offset 5, -12
 128              		.cfi_offset 6, -8
 129              		.cfi_offset 14, -4
 130 0002 2DED028B 		vpush.64	{d8}
 131              		.cfi_def_cfa_offset 24
 132              		.cfi_offset 80, -24
 133              		.cfi_offset 81, -20
 134 0006 ADF57A7D 		sub	sp, sp, #1000
ARM GAS  C:\Users\vicpa\AppData\Local\Temp\ccqS0gg1.s 			page 4


 135              		.cfi_def_cfa_offset 1024
 136              	.LVL12:
 137              	.LBB6:
  38:TasksInterface.c ****     int x=0; uint32_t max=0;
  39:TasksInterface.c ****     float vector250elements[250];
  40:TasksInterface.c ****     for (int i=0; i < 250; i++)
 138              		.loc 1 40 0
 139 000a 0023     		movs	r3, #0
 140              	.LBE6:
  38:TasksInterface.c ****     int x=0; uint32_t max=0;
 141              		.loc 1 38 0
 142 000c 08EE903A 		vmov	s17, r3	@ int
 143              	.LBB7:
 144              		.loc 1 40 0
 145 0010 13E0     		b	.L8
 146              	.LVL13:
 147              	.L11:
  41:TasksInterface.c ****     {
  42:TasksInterface.c ****         vector250elements[i]=vector750elements[3*i];
 148              		.loc 1 42 0
 149 0012 03EB4301 		add	r1, r3, r3, lsl #1
 150 0016 8A00     		lsls	r2, r1, #2
 151 0018 0244     		add	r2, r2, r0
 152 001a D2ED007A 		vldr.32	s15, [r2]
 153 001e 0DEB8302 		add	r2, sp, r3, lsl #2
 154 0022 C2ED007A 		vstr.32	s15, [r2]
  43:TasksInterface.c ****         if (vector250elements[i]>max){
 155              		.loc 1 43 0
 156 0026 B8EE687A 		vcvt.f32.u32	s14, s17
 157 002a F4EEC77A 		vcmpe.f32	s15, s14
 158 002e F1EE10FA 		vmrs	APSR_nzcv, FPSCR
 159 0032 01DD     		ble	.L9
  44:TasksInterface.c ****             max=vector250elements[i];
 160              		.loc 1 44 0
 161 0034 FCEEE78A 		vcvt.u32.f32	s17, s15
 162              	.LVL14:
 163              	.L9:
  40:TasksInterface.c ****     {
 164              		.loc 1 40 0 discriminator 2
 165 0038 0133     		adds	r3, r3, #1
 166              	.LVL15:
 167              	.L8:
  40:TasksInterface.c ****     {
 168              		.loc 1 40 0 is_stmt 0 discriminator 1
 169 003a F92B     		cmp	r3, #249
 170 003c E9DD     		ble	.L11
 171 003e 0024     		movs	r4, #0
 172 0040 2546     		mov	r5, r4
 173 0042 2DE0     		b	.L12
 174              	.LVL16:
 175              	.L14:
 176              	.LBE7:
 177              	.LBB8:
 178              	.LBB9:
  45:TasksInterface.c ****         }
  46:TasksInterface.c ****     }
  47:TasksInterface.c ****     for (int i=0; i < 250; i++)
ARM GAS  C:\Users\vicpa\AppData\Local\Temp\ccqS0gg1.s 			page 5


  48:TasksInterface.c ****     {
  49:TasksInterface.c ****         int y0=round((vector250elements[i])/max); 
 179              		.loc 1 49 0 is_stmt 1
 180 0044 0DEB8403 		add	r3, sp, r4, lsl #2
 181 0048 D3ED007A 		vldr.32	s15, [r3]
 182 004c B8EE688A 		vcvt.f32.u32	s16, s17
 183 0050 87EE887A 		vdiv.f32	s14, s15, s16
 184 0054 17EE100A 		vmov	r0, s14
 185 0058 FFF7FEFF 		bl	__aeabi_f2d
 186              	.LVL17:
 187 005c FFF7FEFF 		bl	round
 188              	.LVL18:
 189 0060 FFF7FEFF 		bl	__aeabi_d2iz
 190              	.LVL19:
 191 0064 0646     		mov	r6, r0
 192              	.LVL20:
  50:TasksInterface.c ****         GUI_DrawPoint(x,y0); 
 193              		.loc 1 50 0
 194 0066 0146     		mov	r1, r0
 195 0068 2846     		mov	r0, r5
 196              	.LVL21:
 197 006a FFF7FEFF 		bl	GUI_DrawPoint
 198              	.LVL22:
  51:TasksInterface.c ****         if (i<249)
 199              		.loc 1 51 0
 200 006e F82C     		cmp	r4, #248
 201 0070 14DC     		bgt	.L13
 202              	.LBB10:
  52:TasksInterface.c ****         {
  53:TasksInterface.c ****             int y1=round((vector250elements[i+1])/max);
 203              		.loc 1 53 0
 204 0072 631C     		adds	r3, r4, #1
 205 0074 0DEB8303 		add	r3, sp, r3, lsl #2
 206 0078 D3ED007A 		vldr.32	s15, [r3]
 207 007c 87EE887A 		vdiv.f32	s14, s15, s16
 208 0080 17EE100A 		vmov	r0, s14
 209 0084 FFF7FEFF 		bl	__aeabi_f2d
 210              	.LVL23:
 211 0088 FFF7FEFF 		bl	round
 212              	.LVL24:
 213 008c FFF7FEFF 		bl	__aeabi_d2iz
 214              	.LVL25:
  54:TasksInterface.c ****             GUI_DrawLine(x,y0,(x+1),y1); 
 215              		.loc 1 54 0
 216 0090 0346     		mov	r3, r0
 217 0092 6A1C     		adds	r2, r5, #1
 218 0094 3146     		mov	r1, r6
 219 0096 2846     		mov	r0, r5
 220              	.LVL26:
 221 0098 FFF7FEFF 		bl	GUI_DrawLine
 222              	.LVL27:
 223              	.L13:
 224              	.LBE10:
  55:TasksInterface.c ****         }
  56:TasksInterface.c ****         x++;   
 225              		.loc 1 56 0 discriminator 2
 226 009c 0135     		adds	r5, r5, #1
ARM GAS  C:\Users\vicpa\AppData\Local\Temp\ccqS0gg1.s 			page 6


 227              	.LVL28:
 228              	.LBE9:
  47:TasksInterface.c ****     {
 229              		.loc 1 47 0 discriminator 2
 230 009e 0134     		adds	r4, r4, #1
 231              	.LVL29:
 232              	.L12:
  47:TasksInterface.c ****     {
 233              		.loc 1 47 0 is_stmt 0 discriminator 1
 234 00a0 F92C     		cmp	r4, #249
 235 00a2 CFDD     		ble	.L14
 236              	.LBE8:
  57:TasksInterface.c ****     }
  58:TasksInterface.c ****     UpdateDisplay(CY_EINK_FULL_4STAGE, true);
 237              		.loc 1 58 0 is_stmt 1
 238 00a4 0121     		movs	r1, #1
 239 00a6 0846     		mov	r0, r1
 240 00a8 FFF7FEFF 		bl	UpdateDisplay
 241              	.LVL30:
  59:TasksInterface.c **** }
 242              		.loc 1 59 0
 243 00ac 0DF57A7D 		add	sp, sp, #1000
 244              		.cfi_def_cfa_offset 24
 245              		@ sp needed
 246 00b0 BDEC028B 		vldm	sp!, {d8}
 247              		.cfi_restore 80
 248              		.cfi_restore 81
 249              		.cfi_def_cfa_offset 16
 250 00b4 70BD     		pop	{r4, r5, r6, pc}
 251              		.cfi_endproc
 252              	.LFE563:
 253              		.size	drawGraph, .-drawGraph
 254 00b6 00BF     		.section	.text.updateParameters,"ax",%progbits
 255              		.align	2
 256              		.global	updateParameters
 257              		.thumb
 258              		.thumb_func
 259              		.type	updateParameters, %function
 260              	updateParameters:
 261              	.LFB564:
  60:TasksInterface.c **** 
  61:TasksInterface.c **** // 4)Fonction pour afficher des données à jour (param1 et param2) sur l'écran
  62:TasksInterface.c **** void updateParameters(int param1, int param2) 
  63:TasksInterface.c **** {
 262              		.loc 1 63 0
 263              		.cfi_startproc
 264              		@ args = 0, pretend = 0, frame = 16
 265              		@ frame_needed = 0, uses_anonymous_args = 0
 266              	.LVL31:
 267 0000 30B5     		push	{r4, r5, lr}
 268              		.cfi_def_cfa_offset 12
 269              		.cfi_offset 4, -12
 270              		.cfi_offset 5, -8
 271              		.cfi_offset 14, -4
 272 0002 85B0     		sub	sp, sp, #20
 273              		.cfi_def_cfa_offset 32
 274 0004 0D46     		mov	r5, r1
ARM GAS  C:\Users\vicpa\AppData\Local\Temp\ccqS0gg1.s 			page 7


  64:TasksInterface.c ****     char Parametre1[6]; char Parametre2[6];
  65:TasksInterface.c ****     sprintf(Parametre1,"%d",param1); sprintf(Parametre2,"%d",param2); 
 275              		.loc 1 65 0
 276 0006 1F4C     		ldr	r4, .L19
 277 0008 0246     		mov	r2, r0
 278 000a 2146     		mov	r1, r4
 279              	.LVL32:
 280 000c 02A8     		add	r0, sp, #8
 281              	.LVL33:
 282 000e FFF7FEFF 		bl	sprintf
 283              	.LVL34:
 284 0012 2A46     		mov	r2, r5
 285 0014 2146     		mov	r1, r4
 286 0016 6846     		mov	r0, sp
 287 0018 FFF7FEFF 		bl	sprintf
 288              	.LVL35:
  66:TasksInterface.c ****     GUI_SetPenSize(8); GUI_DrawRect(10,155,255,175); 
 289              		.loc 1 66 0
 290 001c 0820     		movs	r0, #8
 291 001e FFF7FEFF 		bl	GUI_SetPenSize
 292              	.LVL36:
 293 0022 AF23     		movs	r3, #175
 294 0024 FF22     		movs	r2, #255
 295 0026 9B21     		movs	r1, #155
 296 0028 0A20     		movs	r0, #10
 297 002a FFF7FEFF 		bl	GUI_DrawRect
 298              	.LVL37:
  67:TasksInterface.c ****     GUI_SetPenSize(6); GUI_SetFont(GUI_FONT_10_1); 
 299              		.loc 1 67 0
 300 002e 0620     		movs	r0, #6
 301 0030 FFF7FEFF 		bl	GUI_SetPenSize
 302              	.LVL38:
 303 0034 1448     		ldr	r0, .L19+4
 304 0036 FFF7FEFF 		bl	GUI_SetFont
 305              	.LVL39:
  68:TasksInterface.c ****     GUI_DispStringAt("Oxygen saturation:",20,160); GUI_DispStringAt(Parametre1,90,160); GUI_DispStr
 306              		.loc 1 68 0
 307 003a A022     		movs	r2, #160
 308 003c 1421     		movs	r1, #20
 309 003e 1348     		ldr	r0, .L19+8
 310 0040 FFF7FEFF 		bl	GUI_DispStringAt
 311              	.LVL40:
 312 0044 A022     		movs	r2, #160
 313 0046 5A21     		movs	r1, #90
 314 0048 02A8     		add	r0, sp, #8
 315 004a FFF7FEFF 		bl	GUI_DispStringAt
 316              	.LVL41:
 317 004e A022     		movs	r2, #160
 318 0050 6421     		movs	r1, #100
 319 0052 0F48     		ldr	r0, .L19+12
 320 0054 FFF7FEFF 		bl	GUI_DispStringAt
 321              	.LVL42:
  69:TasksInterface.c ****     GUI_DispStringAt("Heart rate:",150,160); GUI_DispStringAt(Parametre2,210,160); GUI_DispStringAt
 322              		.loc 1 69 0
 323 0058 A022     		movs	r2, #160
 324 005a 9621     		movs	r1, #150
 325 005c 0D48     		ldr	r0, .L19+16
ARM GAS  C:\Users\vicpa\AppData\Local\Temp\ccqS0gg1.s 			page 8


 326 005e FFF7FEFF 		bl	GUI_DispStringAt
 327              	.LVL43:
 328 0062 A022     		movs	r2, #160
 329 0064 D221     		movs	r1, #210
 330 0066 6846     		mov	r0, sp
 331 0068 FFF7FEFF 		bl	GUI_DispStringAt
 332              	.LVL44:
 333 006c A022     		movs	r2, #160
 334 006e E621     		movs	r1, #230
 335 0070 0948     		ldr	r0, .L19+20
 336 0072 FFF7FEFF 		bl	GUI_DispStringAt
 337              	.LVL45:
  70:TasksInterface.c ****     UpdateDisplay(CY_EINK_FULL_4STAGE, true); 
 338              		.loc 1 70 0
 339 0076 0121     		movs	r1, #1
 340 0078 0846     		mov	r0, r1
 341 007a FFF7FEFF 		bl	UpdateDisplay
 342              	.LVL46:
  71:TasksInterface.c **** }
 343              		.loc 1 71 0
 344 007e 05B0     		add	sp, sp, #20
 345              		.cfi_def_cfa_offset 12
 346              		@ sp needed
 347 0080 30BD     		pop	{r4, r5, pc}
 348              	.LVL47:
 349              	.L20:
 350 0082 00BF     		.align	2
 351              	.L19:
 352 0084 00000000 		.word	.LC0
 353 0088 00000000 		.word	GUI_Font10_1
 354 008c 04000000 		.word	.LC1
 355 0090 18000000 		.word	.LC2
 356 0094 1C000000 		.word	.LC3
 357 0098 28000000 		.word	.LC4
 358              		.cfi_endproc
 359              	.LFE564:
 360              		.size	updateParameters, .-updateParameters
 361              		.section	.text.updateLowHeartRateLimit,"ax",%progbits
 362              		.align	2
 363              		.global	updateLowHeartRateLimit
 364              		.thumb
 365              		.thumb_func
 366              		.type	updateLowHeartRateLimit, %function
 367              	updateLowHeartRateLimit:
 368              	.LFB565:
  72:TasksInterface.c **** 
  73:TasksInterface.c **** // 5)Fonction pour afficher la valeur inférieure du rythme cardiaque définie par l'utilisateur
  74:TasksInterface.c **** void updateLowHeartRateLimit(int HeartRate)
  75:TasksInterface.c **** {
 369              		.loc 1 75 0
 370              		.cfi_startproc
 371              		@ args = 0, pretend = 0, frame = 8
 372              		@ frame_needed = 0, uses_anonymous_args = 0
 373              	.LVL48:
 374 0000 10B5     		push	{r4, lr}
 375              		.cfi_def_cfa_offset 8
 376              		.cfi_offset 4, -8
ARM GAS  C:\Users\vicpa\AppData\Local\Temp\ccqS0gg1.s 			page 9


 377              		.cfi_offset 14, -4
 378 0002 82B0     		sub	sp, sp, #8
 379              		.cfi_def_cfa_offset 16
 380 0004 0446     		mov	r4, r0
  76:TasksInterface.c ****     ClearScreen();
 381              		.loc 1 76 0
 382 0006 FFF7FEFF 		bl	ClearScreen
 383              	.LVL49:
  77:TasksInterface.c ****     char HeartRateLow[6];
  78:TasksInterface.c ****     sprintf(HeartRateLow,"%d",HeartRate);
 384              		.loc 1 78 0
 385 000a 2246     		mov	r2, r4
 386 000c 0F49     		ldr	r1, .L23
 387 000e 6846     		mov	r0, sp
 388 0010 FFF7FEFF 		bl	sprintf
 389              	.LVL50:
  79:TasksInterface.c ****     GUI_SetPenSize(18); GUI_SetFont(GUI_FONT_24_1); 
 390              		.loc 1 79 0
 391 0014 1220     		movs	r0, #18
 392 0016 FFF7FEFF 		bl	GUI_SetPenSize
 393              	.LVL51:
 394 001a 0D48     		ldr	r0, .L23+4
 395 001c FFF7FEFF 		bl	GUI_SetFont
 396              	.LVL52:
  80:TasksInterface.c ****     GUI_DispStringAt(HeartRateLow,115,90); 
 397              		.loc 1 80 0
 398 0020 5A22     		movs	r2, #90
 399 0022 7321     		movs	r1, #115
 400 0024 6846     		mov	r0, sp
 401 0026 FFF7FEFF 		bl	GUI_DispStringAt
 402              	.LVL53:
  81:TasksInterface.c ****     GUI_SetPenSize(7); GUI_SetFont(GUI_FONT_13_1); 
 403              		.loc 1 81 0
 404 002a 0720     		movs	r0, #7
 405 002c FFF7FEFF 		bl	GUI_SetPenSize
 406              	.LVL54:
 407 0030 0848     		ldr	r0, .L23+8
 408 0032 FFF7FEFF 		bl	GUI_SetFont
 409              	.LVL55:
  82:TasksInterface.c ****     GUI_DispStringAt("Low heart rate limit",80,20);
 410              		.loc 1 82 0
 411 0036 1422     		movs	r2, #20
 412 0038 5021     		movs	r1, #80
 413 003a 0748     		ldr	r0, .L23+12
 414 003c FFF7FEFF 		bl	GUI_DispStringAt
 415              	.LVL56:
  83:TasksInterface.c ****     UpdateDisplay(CY_EINK_FULL_4STAGE, true);
 416              		.loc 1 83 0
 417 0040 0121     		movs	r1, #1
 418 0042 0846     		mov	r0, r1
 419 0044 FFF7FEFF 		bl	UpdateDisplay
 420              	.LVL57:
  84:TasksInterface.c **** }
 421              		.loc 1 84 0
 422 0048 02B0     		add	sp, sp, #8
 423              		.cfi_def_cfa_offset 8
 424              		@ sp needed
ARM GAS  C:\Users\vicpa\AppData\Local\Temp\ccqS0gg1.s 			page 10


 425 004a 10BD     		pop	{r4, pc}
 426              	.LVL58:
 427              	.L24:
 428              		.align	2
 429              	.L23:
 430 004c 00000000 		.word	.LC0
 431 0050 00000000 		.word	GUI_Font24_1
 432 0054 00000000 		.word	GUI_Font13_1
 433 0058 2C000000 		.word	.LC5
 434              		.cfi_endproc
 435              	.LFE565:
 436              		.size	updateLowHeartRateLimit, .-updateLowHeartRateLimit
 437              		.section	.text.updateHighHeartRateLimit,"ax",%progbits
 438              		.align	2
 439              		.global	updateHighHeartRateLimit
 440              		.thumb
 441              		.thumb_func
 442              		.type	updateHighHeartRateLimit, %function
 443              	updateHighHeartRateLimit:
 444              	.LFB566:
  85:TasksInterface.c **** 
  86:TasksInterface.c **** // 6)Fonction pour afficher la valeur supérieure du rythme cardiaque définie par l'utilisatuer
  87:TasksInterface.c **** void updateHighHeartRateLimit(int HeartRate)
  88:TasksInterface.c **** {
 445              		.loc 1 88 0
 446              		.cfi_startproc
 447              		@ args = 0, pretend = 0, frame = 8
 448              		@ frame_needed = 0, uses_anonymous_args = 0
 449              	.LVL59:
 450 0000 10B5     		push	{r4, lr}
 451              		.cfi_def_cfa_offset 8
 452              		.cfi_offset 4, -8
 453              		.cfi_offset 14, -4
 454 0002 82B0     		sub	sp, sp, #8
 455              		.cfi_def_cfa_offset 16
 456 0004 0446     		mov	r4, r0
  89:TasksInterface.c ****     ClearScreen();
 457              		.loc 1 89 0
 458 0006 FFF7FEFF 		bl	ClearScreen
 459              	.LVL60:
  90:TasksInterface.c ****     char HeartRateHigh[6];
  91:TasksInterface.c ****     sprintf(HeartRateHigh,"%d",HeartRate);
 460              		.loc 1 91 0
 461 000a 2246     		mov	r2, r4
 462 000c 0F49     		ldr	r1, .L27
 463 000e 6846     		mov	r0, sp
 464 0010 FFF7FEFF 		bl	sprintf
 465              	.LVL61:
  92:TasksInterface.c ****     GUI_SetPenSize(18); GUI_SetFont(GUI_FONT_24_1); 
 466              		.loc 1 92 0
 467 0014 1220     		movs	r0, #18
 468 0016 FFF7FEFF 		bl	GUI_SetPenSize
 469              	.LVL62:
 470 001a 0D48     		ldr	r0, .L27+4
 471 001c FFF7FEFF 		bl	GUI_SetFont
 472              	.LVL63:
  93:TasksInterface.c ****     GUI_DispStringAt(HeartRateHigh,115,90); 
ARM GAS  C:\Users\vicpa\AppData\Local\Temp\ccqS0gg1.s 			page 11


 473              		.loc 1 93 0
 474 0020 5A22     		movs	r2, #90
 475 0022 7321     		movs	r1, #115
 476 0024 6846     		mov	r0, sp
 477 0026 FFF7FEFF 		bl	GUI_DispStringAt
 478              	.LVL64:
  94:TasksInterface.c ****     GUI_SetPenSize(7); GUI_SetFont(GUI_FONT_13_1); 
 479              		.loc 1 94 0
 480 002a 0720     		movs	r0, #7
 481 002c FFF7FEFF 		bl	GUI_SetPenSize
 482              	.LVL65:
 483 0030 0848     		ldr	r0, .L27+8
 484 0032 FFF7FEFF 		bl	GUI_SetFont
 485              	.LVL66:
  95:TasksInterface.c ****     GUI_DispStringAt("High heart rate limit",80,20);
 486              		.loc 1 95 0
 487 0036 1422     		movs	r2, #20
 488 0038 5021     		movs	r1, #80
 489 003a 0748     		ldr	r0, .L27+12
 490 003c FFF7FEFF 		bl	GUI_DispStringAt
 491              	.LVL67:
  96:TasksInterface.c ****     UpdateDisplay(CY_EINK_FULL_4STAGE, true);
 492              		.loc 1 96 0
 493 0040 0121     		movs	r1, #1
 494 0042 0846     		mov	r0, r1
 495 0044 FFF7FEFF 		bl	UpdateDisplay
 496              	.LVL68:
  97:TasksInterface.c **** }
 497              		.loc 1 97 0
 498 0048 02B0     		add	sp, sp, #8
 499              		.cfi_def_cfa_offset 8
 500              		@ sp needed
 501 004a 10BD     		pop	{r4, pc}
 502              	.LVL69:
 503              	.L28:
 504              		.align	2
 505              	.L27:
 506 004c 00000000 		.word	.LC0
 507 0050 00000000 		.word	GUI_Font24_1
 508 0054 00000000 		.word	GUI_Font13_1
 509 0058 44000000 		.word	.LC6
 510              		.cfi_endproc
 511              	.LFE566:
 512              		.size	updateHighHeartRateLimit, .-updateHighHeartRateLimit
 513              		.section	.text.DisplayPage,"ax",%progbits
 514              		.align	2
 515              		.global	DisplayPage
 516              		.thumb
 517              		.thumb_func
 518              		.type	DisplayPage, %function
 519              	DisplayPage:
 520              	.LFB567:
  98:TasksInterface.c **** 
  99:TasksInterface.c **** // 7)Fonction pour afficher la page actuelle et le curseur définissant le paramètre à modifier d
 100:TasksInterface.c **** void DisplayPage(int PageNumber, int ParamP1, int ParamP2){
 521              		.loc 1 100 0
 522              		.cfi_startproc
ARM GAS  C:\Users\vicpa\AppData\Local\Temp\ccqS0gg1.s 			page 12


 523              		@ args = 0, pretend = 0, frame = 0
 524              		@ frame_needed = 0, uses_anonymous_args = 0
 525              	.LVL70:
 526 0000 70B5     		push	{r4, r5, r6, lr}
 527              		.cfi_def_cfa_offset 16
 528              		.cfi_offset 4, -16
 529              		.cfi_offset 5, -12
 530              		.cfi_offset 6, -8
 531              		.cfi_offset 14, -4
 532 0002 0446     		mov	r4, r0
 533 0004 0E46     		mov	r6, r1
 534 0006 1546     		mov	r5, r2
 101:TasksInterface.c ****     ClearScreen();
 535              		.loc 1 101 0
 536 0008 FFF7FEFF 		bl	ClearScreen
 537              	.LVL71:
 102:TasksInterface.c ****     GUI_SetPenSize(7); GUI_SetFont(GUI_FONT_13_1);
 538              		.loc 1 102 0
 539 000c 0720     		movs	r0, #7
 540 000e FFF7FEFF 		bl	GUI_SetPenSize
 541              	.LVL72:
 542 0012 2848     		ldr	r0, .L36
 543 0014 FFF7FEFF 		bl	GUI_SetFont
 544              	.LVL73:
 103:TasksInterface.c ****     if (PageNumber==0)
 545              		.loc 1 103 0
 546 0018 4CB9     		cbnz	r4, .L30
 104:TasksInterface.c ****     {
 105:TasksInterface.c ****         GUI_DispStringAt("Press SW2 to show graphs",20,20);
 547              		.loc 1 105 0
 548 001a 1422     		movs	r2, #20
 549 001c 1146     		mov	r1, r2
 550 001e 2648     		ldr	r0, .L36+4
 551 0020 FFF7FEFF 		bl	GUI_DispStringAt
 552              	.LVL74:
 106:TasksInterface.c ****         GUI_DispStringAt("Use the CapSense buttons to modify parameters",20,50);
 553              		.loc 1 106 0
 554 0024 3222     		movs	r2, #50
 555 0026 1421     		movs	r1, #20
 556 0028 2448     		ldr	r0, .L36+8
 557 002a FFF7FEFF 		bl	GUI_DispStringAt
 558              	.LVL75:
 559              	.L30:
 107:TasksInterface.c ****     }
 108:TasksInterface.c ****     if (PageNumber==1)
 560              		.loc 1 108 0
 561 002e 012C     		cmp	r4, #1
 562 0030 1CD1     		bne	.L31
 109:TasksInterface.c ****     {
 110:TasksInterface.c ****         GUI_DispStringAt("Parameters page 1",80,0);
 563              		.loc 1 110 0
 564 0032 0022     		movs	r2, #0
 565 0034 5021     		movs	r1, #80
 566 0036 2248     		ldr	r0, .L36+12
 567 0038 FFF7FEFF 		bl	GUI_DispStringAt
 568              	.LVL76:
 111:TasksInterface.c ****         GUI_DispStringAt("1)Change LED intensity",30,50);
ARM GAS  C:\Users\vicpa\AppData\Local\Temp\ccqS0gg1.s 			page 13


 569              		.loc 1 111 0
 570 003c 3222     		movs	r2, #50
 571 003e 1E21     		movs	r1, #30
 572 0040 2048     		ldr	r0, .L36+16
 573 0042 FFF7FEFF 		bl	GUI_DispStringAt
 574              	.LVL77:
 112:TasksInterface.c ****         GUI_DispStringAt("2)Enable/Disable motion sensor alarm",30,80);
 575              		.loc 1 112 0
 576 0046 5022     		movs	r2, #80
 577 0048 1E21     		movs	r1, #30
 578 004a 1F48     		ldr	r0, .L36+20
 579 004c FFF7FEFF 		bl	GUI_DispStringAt
 580              	.LVL78:
 113:TasksInterface.c ****         if (ParamP1==1)
 581              		.loc 1 113 0
 582 0050 012E     		cmp	r6, #1
 583 0052 04D1     		bne	.L32
 114:TasksInterface.c ****         {
 115:TasksInterface.c ****             GUI_DrawCircle(15,55,5);
 584              		.loc 1 115 0
 585 0054 0522     		movs	r2, #5
 586 0056 3721     		movs	r1, #55
 587 0058 0F20     		movs	r0, #15
 588 005a FFF7FEFF 		bl	GUI_DrawCircle
 589              	.LVL79:
 590              	.L32:
 116:TasksInterface.c ****         }
 117:TasksInterface.c ****         if (ParamP1==2)
 591              		.loc 1 117 0
 592 005e 022E     		cmp	r6, #2
 593 0060 04D1     		bne	.L31
 118:TasksInterface.c ****         {
 119:TasksInterface.c ****             GUI_DrawCircle(15,85,5);
 594              		.loc 1 119 0
 595 0062 0522     		movs	r2, #5
 596 0064 5521     		movs	r1, #85
 597 0066 0F20     		movs	r0, #15
 598 0068 FFF7FEFF 		bl	GUI_DrawCircle
 599              	.LVL80:
 600              	.L31:
 120:TasksInterface.c ****         }
 121:TasksInterface.c ****     }
 122:TasksInterface.c ****     if (PageNumber==2)
 601              		.loc 1 122 0
 602 006c 022C     		cmp	r4, #2
 603 006e 1CD1     		bne	.L33
 123:TasksInterface.c ****     {
 124:TasksInterface.c ****         
 125:TasksInterface.c ****         GUI_DispStringAt("Parameters page 2",80,0);
 604              		.loc 1 125 0
 605 0070 0022     		movs	r2, #0
 606 0072 5021     		movs	r1, #80
 607 0074 1548     		ldr	r0, .L36+24
 608 0076 FFF7FEFF 		bl	GUI_DispStringAt
 609              	.LVL81:
 126:TasksInterface.c ****         GUI_DispStringAt("1)Set low heart rate limit",30,50);
 610              		.loc 1 126 0
ARM GAS  C:\Users\vicpa\AppData\Local\Temp\ccqS0gg1.s 			page 14


 611 007a 3222     		movs	r2, #50
 612 007c 1E21     		movs	r1, #30
 613 007e 1448     		ldr	r0, .L36+28
 614 0080 FFF7FEFF 		bl	GUI_DispStringAt
 615              	.LVL82:
 127:TasksInterface.c ****         GUI_DispStringAt("2)Set high heart rate limit",30,80);
 616              		.loc 1 127 0
 617 0084 5022     		movs	r2, #80
 618 0086 1E21     		movs	r1, #30
 619 0088 1248     		ldr	r0, .L36+32
 620 008a FFF7FEFF 		bl	GUI_DispStringAt
 621              	.LVL83:
 128:TasksInterface.c ****         if (ParamP2==1)
 622              		.loc 1 128 0
 623 008e 012D     		cmp	r5, #1
 624 0090 04D1     		bne	.L34
 129:TasksInterface.c ****         {
 130:TasksInterface.c ****             GUI_DrawCircle(15,55,5);
 625              		.loc 1 130 0
 626 0092 0522     		movs	r2, #5
 627 0094 3721     		movs	r1, #55
 628 0096 0F20     		movs	r0, #15
 629 0098 FFF7FEFF 		bl	GUI_DrawCircle
 630              	.LVL84:
 631              	.L34:
 131:TasksInterface.c ****         }
 132:TasksInterface.c ****         if (ParamP2==2)
 632              		.loc 1 132 0
 633 009c 022D     		cmp	r5, #2
 634 009e 04D1     		bne	.L33
 133:TasksInterface.c ****         {
 134:TasksInterface.c ****             GUI_DrawCircle(15,85,5);
 635              		.loc 1 134 0
 636 00a0 0522     		movs	r2, #5
 637 00a2 5521     		movs	r1, #85
 638 00a4 0F20     		movs	r0, #15
 639 00a6 FFF7FEFF 		bl	GUI_DrawCircle
 640              	.LVL85:
 641              	.L33:
 135:TasksInterface.c ****         }
 136:TasksInterface.c ****     }
 137:TasksInterface.c ****     UpdateDisplay(CY_EINK_FULL_4STAGE, true);
 642              		.loc 1 137 0
 643 00aa 0121     		movs	r1, #1
 644 00ac 0846     		mov	r0, r1
 645 00ae FFF7FEFF 		bl	UpdateDisplay
 646              	.LVL86:
 647 00b2 70BD     		pop	{r4, r5, r6, pc}
 648              	.LVL87:
 649              	.L37:
 650              		.align	2
 651              	.L36:
 652 00b4 00000000 		.word	GUI_Font13_1
 653 00b8 5C000000 		.word	.LC7
 654 00bc 78000000 		.word	.LC8
 655 00c0 A8000000 		.word	.LC9
 656 00c4 BC000000 		.word	.LC10
ARM GAS  C:\Users\vicpa\AppData\Local\Temp\ccqS0gg1.s 			page 15


 657 00c8 D4000000 		.word	.LC11
 658 00cc FC000000 		.word	.LC12
 659 00d0 10010000 		.word	.LC13
 660 00d4 2C010000 		.word	.LC14
 661              		.cfi_endproc
 662              	.LFE567:
 663              		.size	DisplayPage, .-DisplayPage
 664              		.section	.text.CapSense_ChangeLedIntensity,"ax",%progbits
 665              		.align	2
 666              		.global	CapSense_ChangeLedIntensity
 667              		.thumb
 668              		.thumb_func
 669              		.type	CapSense_ChangeLedIntensity, %function
 670              	CapSense_ChangeLedIntensity:
 671              	.LFB568:
 138:TasksInterface.c **** }
 139:TasksInterface.c **** 
 140:TasksInterface.c **** // 8)Fonction pour changer l'intensité de la LED du capteur SpO2
 141:TasksInterface.c **** volatile uint32_t SliderPosI=0; volatile bool StopChangeLedIntensity=false; 
 142:TasksInterface.c **** void CapSense_ChangeLedIntensity()
 143:TasksInterface.c **** {      
 672              		.loc 1 143 0
 673              		.cfi_startproc
 674              		@ args = 0, pretend = 0, frame = 0
 675              		@ frame_needed = 0, uses_anonymous_args = 0
 676 0000 08B5     		push	{r3, lr}
 677              		.cfi_def_cfa_offset 8
 678              		.cfi_offset 3, -8
 679              		.cfi_offset 14, -4
 144:TasksInterface.c ****         CapSense_ProcessAllWidgets();
 680              		.loc 1 144 0
 681 0002 FFF7FEFF 		bl	CapSense_ProcessAllWidgets
 682              	.LVL88:
 145:TasksInterface.c ****         SliderPosI=CapSense_GetCentroidPos(CapSense_LINEARSLIDER0_WDGT_ID);
 683              		.loc 1 145 0
 684 0006 0020     		movs	r0, #0
 685 0008 FFF7FEFF 		bl	CapSense_GetCentroidPos
 686              	.LVL89:
 687 000c 0E4B     		ldr	r3, .L42
 688 000e C3F8B805 		str	r0, [r3, #1464]
 146:TasksInterface.c ****         if (SliderPosI<65534)
 689              		.loc 1 146 0
 690 0012 D3F8B825 		ldr	r2, [r3, #1464]
 691 0016 4FF6FD73 		movw	r3, #65533
 692 001a 9A42     		cmp	r2, r3
 693 001c 02D8     		bhi	.L39
 694              	.LBB11:
 147:TasksInterface.c ****         {
 148:TasksInterface.c ****             int Current=2*SliderPosI;
 695              		.loc 1 148 0
 696 001e 0A4B     		ldr	r3, .L42
 697 0020 D3F8B835 		ldr	r3, [r3, #1464]
 698              	.LVL90:
 699              	.L39:
 700              	.LBE11:
 149:TasksInterface.c ****             // Write Register
 150:TasksInterface.c ****         }
ARM GAS  C:\Users\vicpa\AppData\Local\Temp\ccqS0gg1.s 			page 16


 151:TasksInterface.c ****         SliderPosI=0;
 701              		.loc 1 151 0
 702 0024 0022     		movs	r2, #0
 703 0026 084B     		ldr	r3, .L42
 704 0028 C3F8B825 		str	r2, [r3, #1464]
 152:TasksInterface.c ****         CapSense_UpdateAllBaselines();
 705              		.loc 1 152 0
 706 002c FFF7FEFF 		bl	CapSense_UpdateAllBaselines
 707              	.LVL91:
 153:TasksInterface.c ****         CapSense_ScanAllWidgets();
 708              		.loc 1 153 0
 709 0030 FFF7FEFF 		bl	CapSense_ScanAllWidgets
 710              	.LVL92:
 154:TasksInterface.c ****         if (CapSense_IsWidgetActive(CapSense_BUTTON0_WDGT_ID)){
 711              		.loc 1 154 0
 712 0034 0120     		movs	r0, #1
 713 0036 FFF7FEFF 		bl	CapSense_IsWidgetActive
 714              	.LVL93:
 715 003a 18B1     		cbz	r0, .L38
 155:TasksInterface.c ****         StopChangeLedIntensity=true;
 716              		.loc 1 155 0
 717 003c 0122     		movs	r2, #1
 718 003e 024B     		ldr	r3, .L42
 719 0040 83F8BC25 		strb	r2, [r3, #1468]
 720              	.L38:
 721 0044 08BD     		pop	{r3, pc}
 722              	.L43:
 723 0046 00BF     		.align	2
 724              	.L42:
 725 0048 F8100000 		.word	.LANCHOR1
 726              		.cfi_endproc
 727              	.LFE568:
 728              		.size	CapSense_ChangeLedIntensity, .-CapSense_ChangeLedIntensity
 729              		.section	.text.CapSense_ChangeLowHeartRateLimit,"ax",%progbits
 730              		.align	2
 731              		.global	CapSense_ChangeLowHeartRateLimit
 732              		.thumb
 733              		.thumb_func
 734              		.type	CapSense_ChangeLowHeartRateLimit, %function
 735              	CapSense_ChangeLowHeartRateLimit:
 736              	.LFB569:
 156:TasksInterface.c ****         }
 157:TasksInterface.c **** }
 158:TasksInterface.c **** 
 159:TasksInterface.c **** // 9)Fonction pour changer la valeur inférieure du rythme cardiaque définie par l'utilisateur
 160:TasksInterface.c **** volatile int LowHeartRateI=60; volatile int LowHeartRateF=60; volatile uint32_t SliderPosIII=50; vo
 161:TasksInterface.c **** void CapSense_ChangeLowHeartRateLimit()
 162:TasksInterface.c **** {      
 737              		.loc 1 162 0
 738              		.cfi_startproc
 739              		@ args = 0, pretend = 0, frame = 0
 740              		@ frame_needed = 0, uses_anonymous_args = 0
 741 0000 10B5     		push	{r4, lr}
 742              		.cfi_def_cfa_offset 8
 743              		.cfi_offset 4, -8
 744              		.cfi_offset 14, -4
 163:TasksInterface.c ****     CapSense_ProcessAllWidgets();
ARM GAS  C:\Users\vicpa\AppData\Local\Temp\ccqS0gg1.s 			page 17


 745              		.loc 1 163 0
 746 0002 FFF7FEFF 		bl	CapSense_ProcessAllWidgets
 747              	.LVL94:
 164:TasksInterface.c ****     SliderPosIII=CapSense_GetCentroidPos(CapSense_LINEARSLIDER0_WDGT_ID);
 748              		.loc 1 164 0
 749 0006 0020     		movs	r0, #0
 750 0008 FFF7FEFF 		bl	CapSense_GetCentroidPos
 751              	.LVL95:
 752 000c 254B     		ldr	r3, .L52
 753 000e 1860     		str	r0, [r3]
 165:TasksInterface.c ****     if (SliderPosIII<65534&&SliderPosIII>=80)
 754              		.loc 1 165 0
 755 0010 1A68     		ldr	r2, [r3]
 756 0012 4FF6FD73 		movw	r3, #65533
 757 0016 9A42     		cmp	r2, r3
 758 0018 07D8     		bhi	.L45
 759              		.loc 1 165 0 is_stmt 0 discriminator 1
 760 001a 224B     		ldr	r3, .L52
 761 001c 1B68     		ldr	r3, [r3]
 762 001e 4F2B     		cmp	r3, #79
 763 0020 03D9     		bls	.L45
 166:TasksInterface.c ****     {
 167:TasksInterface.c ****         LowHeartRateI=LowHeartRateI+2;
 764              		.loc 1 167 0 is_stmt 1
 765 0022 204A     		ldr	r2, .L52
 766 0024 5368     		ldr	r3, [r2, #4]
 767 0026 0233     		adds	r3, r3, #2
 768 0028 5360     		str	r3, [r2, #4]
 769              	.L45:
 168:TasksInterface.c ****     }
 169:TasksInterface.c ****     if (SliderPosIII<80&&SliderPosIII>50)
 770              		.loc 1 169 0
 771 002a 1E4B     		ldr	r3, .L52
 772 002c 1B68     		ldr	r3, [r3]
 773 002e 4F2B     		cmp	r3, #79
 774 0030 07D8     		bhi	.L46
 775              		.loc 1 169 0 is_stmt 0 discriminator 1
 776 0032 1C4B     		ldr	r3, .L52
 777 0034 1B68     		ldr	r3, [r3]
 778 0036 322B     		cmp	r3, #50
 779 0038 03D9     		bls	.L46
 170:TasksInterface.c ****     {
 171:TasksInterface.c ****         LowHeartRateI++;
 780              		.loc 1 171 0 is_stmt 1
 781 003a 1A4A     		ldr	r2, .L52
 782 003c 5368     		ldr	r3, [r2, #4]
 783 003e 0133     		adds	r3, r3, #1
 784 0040 5360     		str	r3, [r2, #4]
 785              	.L46:
 172:TasksInterface.c ****     }
 173:TasksInterface.c ****     if (SliderPosIII<50&&SliderPosIII>20)
 786              		.loc 1 173 0
 787 0042 184B     		ldr	r3, .L52
 788 0044 1B68     		ldr	r3, [r3]
 789 0046 312B     		cmp	r3, #49
 790 0048 07D8     		bhi	.L47
 791              		.loc 1 173 0 is_stmt 0 discriminator 1
ARM GAS  C:\Users\vicpa\AppData\Local\Temp\ccqS0gg1.s 			page 18


 792 004a 164B     		ldr	r3, .L52
 793 004c 1B68     		ldr	r3, [r3]
 794 004e 142B     		cmp	r3, #20
 795 0050 03D9     		bls	.L47
 174:TasksInterface.c ****     {
 175:TasksInterface.c ****         LowHeartRateI--;
 796              		.loc 1 175 0 is_stmt 1
 797 0052 144A     		ldr	r2, .L52
 798 0054 5368     		ldr	r3, [r2, #4]
 799 0056 013B     		subs	r3, r3, #1
 800 0058 5360     		str	r3, [r2, #4]
 801              	.L47:
 176:TasksInterface.c ****     }
 177:TasksInterface.c ****     if (SliderPosIII<=20)
 802              		.loc 1 177 0
 803 005a 124B     		ldr	r3, .L52
 804 005c 1B68     		ldr	r3, [r3]
 805 005e 142B     		cmp	r3, #20
 806 0060 03D8     		bhi	.L48
 178:TasksInterface.c ****     {
 179:TasksInterface.c ****         LowHeartRateI=LowHeartRateI-2;
 807              		.loc 1 179 0
 808 0062 104A     		ldr	r2, .L52
 809 0064 5368     		ldr	r3, [r2, #4]
 810 0066 023B     		subs	r3, r3, #2
 811 0068 5360     		str	r3, [r2, #4]
 812              	.L48:
 180:TasksInterface.c ****     }
 181:TasksInterface.c ****     SliderPosIII=50;
 813              		.loc 1 181 0
 814 006a 0E4C     		ldr	r4, .L52
 815 006c 3223     		movs	r3, #50
 816 006e 2360     		str	r3, [r4]
 182:TasksInterface.c ****     CapSense_UpdateAllBaselines();
 817              		.loc 1 182 0
 818 0070 FFF7FEFF 		bl	CapSense_UpdateAllBaselines
 819              	.LVL96:
 183:TasksInterface.c ****     CapSense_ScanAllWidgets();
 820              		.loc 1 183 0
 821 0074 FFF7FEFF 		bl	CapSense_ScanAllWidgets
 822              	.LVL97:
 184:TasksInterface.c ****     if (LowHeartRateI != LowHeartRateF)
 823              		.loc 1 184 0
 824 0078 6268     		ldr	r2, [r4, #4]
 825 007a A368     		ldr	r3, [r4, #8]
 826 007c 9A42     		cmp	r2, r3
 827 007e 02D0     		beq	.L49
 185:TasksInterface.c ****     {
 186:TasksInterface.c ****         updateLowHeartRateLimit(LowHeartRateI);
 828              		.loc 1 186 0
 829 0080 6068     		ldr	r0, [r4, #4]
 830 0082 FFF7FEFF 		bl	updateLowHeartRateLimit
 831              	.LVL98:
 832              	.L49:
 187:TasksInterface.c ****     }
 188:TasksInterface.c ****     LowHeartRateF=LowHeartRateI;
 833              		.loc 1 188 0
ARM GAS  C:\Users\vicpa\AppData\Local\Temp\ccqS0gg1.s 			page 19


 834 0086 074B     		ldr	r3, .L52
 835 0088 5A68     		ldr	r2, [r3, #4]
 836 008a 9A60     		str	r2, [r3, #8]
 189:TasksInterface.c ****     CapSense_ProcessAllWidgets();
 837              		.loc 1 189 0
 838 008c FFF7FEFF 		bl	CapSense_ProcessAllWidgets
 839              	.LVL99:
 190:TasksInterface.c ****     if (CapSense_IsWidgetActive(CapSense_BUTTON0_WDGT_ID)){
 840              		.loc 1 190 0
 841 0090 0120     		movs	r0, #1
 842 0092 FFF7FEFF 		bl	CapSense_IsWidgetActive
 843              	.LVL100:
 844 0096 18B1     		cbz	r0, .L44
 191:TasksInterface.c ****         StopChangeLowHeartRate=true;
 845              		.loc 1 191 0
 846 0098 0122     		movs	r2, #1
 847 009a 034B     		ldr	r3, .L52+4
 848 009c 83F8BD25 		strb	r2, [r3, #1469]
 849              	.L44:
 850 00a0 10BD     		pop	{r4, pc}
 851              	.L53:
 852 00a2 00BF     		.align	2
 853              	.L52:
 854 00a4 00000000 		.word	.LANCHOR2
 855 00a8 F8100000 		.word	.LANCHOR1
 856              		.cfi_endproc
 857              	.LFE569:
 858              		.size	CapSense_ChangeLowHeartRateLimit, .-CapSense_ChangeLowHeartRateLimit
 859              		.section	.text.CapSense_ChangeHighHeartRateLimit,"ax",%progbits
 860              		.align	2
 861              		.global	CapSense_ChangeHighHeartRateLimit
 862              		.thumb
 863              		.thumb_func
 864              		.type	CapSense_ChangeHighHeartRateLimit, %function
 865              	CapSense_ChangeHighHeartRateLimit:
 866              	.LFB570:
 192:TasksInterface.c ****     }
 193:TasksInterface.c **** }
 194:TasksInterface.c **** 
 195:TasksInterface.c **** // 10)Fonction pour changer la valeur supérieure du rythme cardiaque définie par l'utilisateur
 196:TasksInterface.c **** volatile int HighHeartRateI=70; volatile int HighHeartRateF=70; volatile uint32_t SliderPosIV=50; v
 197:TasksInterface.c **** void CapSense_ChangeHighHeartRateLimit()
 198:TasksInterface.c **** {      
 867              		.loc 1 198 0
 868              		.cfi_startproc
 869              		@ args = 0, pretend = 0, frame = 0
 870              		@ frame_needed = 0, uses_anonymous_args = 0
 871 0000 10B5     		push	{r4, lr}
 872              		.cfi_def_cfa_offset 8
 873              		.cfi_offset 4, -8
 874              		.cfi_offset 14, -4
 199:TasksInterface.c ****     CapSense_ProcessAllWidgets();
 875              		.loc 1 199 0
 876 0002 FFF7FEFF 		bl	CapSense_ProcessAllWidgets
 877              	.LVL101:
 200:TasksInterface.c ****     SliderPosIV=CapSense_GetCentroidPos(CapSense_LINEARSLIDER0_WDGT_ID);
 878              		.loc 1 200 0
ARM GAS  C:\Users\vicpa\AppData\Local\Temp\ccqS0gg1.s 			page 20


 879 0006 0020     		movs	r0, #0
 880 0008 FFF7FEFF 		bl	CapSense_GetCentroidPos
 881              	.LVL102:
 882 000c 254B     		ldr	r3, .L62
 883 000e D860     		str	r0, [r3, #12]
 201:TasksInterface.c ****     if (SliderPosIV<65534&&SliderPosIV>=80)
 884              		.loc 1 201 0
 885 0010 DA68     		ldr	r2, [r3, #12]
 886 0012 4FF6FD73 		movw	r3, #65533
 887 0016 9A42     		cmp	r2, r3
 888 0018 07D8     		bhi	.L55
 889              		.loc 1 201 0 is_stmt 0 discriminator 1
 890 001a 224B     		ldr	r3, .L62
 891 001c DB68     		ldr	r3, [r3, #12]
 892 001e 4F2B     		cmp	r3, #79
 893 0020 03D9     		bls	.L55
 202:TasksInterface.c ****     {
 203:TasksInterface.c ****         HighHeartRateI=HighHeartRateI+2;
 894              		.loc 1 203 0 is_stmt 1
 895 0022 204A     		ldr	r2, .L62
 896 0024 1369     		ldr	r3, [r2, #16]
 897 0026 0233     		adds	r3, r3, #2
 898 0028 1361     		str	r3, [r2, #16]
 899              	.L55:
 204:TasksInterface.c ****     }
 205:TasksInterface.c ****     if (SliderPosIV<80&&SliderPosIV>50)
 900              		.loc 1 205 0
 901 002a 1E4B     		ldr	r3, .L62
 902 002c DB68     		ldr	r3, [r3, #12]
 903 002e 4F2B     		cmp	r3, #79
 904 0030 07D8     		bhi	.L56
 905              		.loc 1 205 0 is_stmt 0 discriminator 1
 906 0032 1C4B     		ldr	r3, .L62
 907 0034 DB68     		ldr	r3, [r3, #12]
 908 0036 322B     		cmp	r3, #50
 909 0038 03D9     		bls	.L56
 206:TasksInterface.c ****     {
 207:TasksInterface.c ****         HighHeartRateI++;
 910              		.loc 1 207 0 is_stmt 1
 911 003a 1A4A     		ldr	r2, .L62
 912 003c 1369     		ldr	r3, [r2, #16]
 913 003e 0133     		adds	r3, r3, #1
 914 0040 1361     		str	r3, [r2, #16]
 915              	.L56:
 208:TasksInterface.c ****     }
 209:TasksInterface.c ****     if (SliderPosIV<50&&SliderPosIV>20)
 916              		.loc 1 209 0
 917 0042 184B     		ldr	r3, .L62
 918 0044 DB68     		ldr	r3, [r3, #12]
 919 0046 312B     		cmp	r3, #49
 920 0048 07D8     		bhi	.L57
 921              		.loc 1 209 0 is_stmt 0 discriminator 1
 922 004a 164B     		ldr	r3, .L62
 923 004c DB68     		ldr	r3, [r3, #12]
 924 004e 142B     		cmp	r3, #20
 925 0050 03D9     		bls	.L57
 210:TasksInterface.c ****     {
ARM GAS  C:\Users\vicpa\AppData\Local\Temp\ccqS0gg1.s 			page 21


 211:TasksInterface.c ****         HighHeartRateI--;
 926              		.loc 1 211 0 is_stmt 1
 927 0052 144A     		ldr	r2, .L62
 928 0054 1369     		ldr	r3, [r2, #16]
 929 0056 013B     		subs	r3, r3, #1
 930 0058 1361     		str	r3, [r2, #16]
 931              	.L57:
 212:TasksInterface.c ****     }
 213:TasksInterface.c ****     if (SliderPosIV<=20)
 932              		.loc 1 213 0
 933 005a 124B     		ldr	r3, .L62
 934 005c DB68     		ldr	r3, [r3, #12]
 935 005e 142B     		cmp	r3, #20
 936 0060 03D8     		bhi	.L58
 214:TasksInterface.c ****     {
 215:TasksInterface.c ****         HighHeartRateI=HighHeartRateI-2;
 937              		.loc 1 215 0
 938 0062 104A     		ldr	r2, .L62
 939 0064 1369     		ldr	r3, [r2, #16]
 940 0066 023B     		subs	r3, r3, #2
 941 0068 1361     		str	r3, [r2, #16]
 942              	.L58:
 216:TasksInterface.c ****     }
 217:TasksInterface.c ****     SliderPosIV=50;
 943              		.loc 1 217 0
 944 006a 0E4C     		ldr	r4, .L62
 945 006c 3223     		movs	r3, #50
 946 006e E360     		str	r3, [r4, #12]
 218:TasksInterface.c ****     CapSense_UpdateAllBaselines();
 947              		.loc 1 218 0
 948 0070 FFF7FEFF 		bl	CapSense_UpdateAllBaselines
 949              	.LVL103:
 219:TasksInterface.c ****     CapSense_ScanAllWidgets();
 950              		.loc 1 219 0
 951 0074 FFF7FEFF 		bl	CapSense_ScanAllWidgets
 952              	.LVL104:
 220:TasksInterface.c ****     if (HighHeartRateI != HighHeartRateF)
 953              		.loc 1 220 0
 954 0078 2269     		ldr	r2, [r4, #16]
 955 007a 6369     		ldr	r3, [r4, #20]
 956 007c 9A42     		cmp	r2, r3
 957 007e 02D0     		beq	.L59
 221:TasksInterface.c ****     {
 222:TasksInterface.c ****         updateHighHeartRateLimit(HighHeartRateI);
 958              		.loc 1 222 0
 959 0080 2069     		ldr	r0, [r4, #16]
 960 0082 FFF7FEFF 		bl	updateHighHeartRateLimit
 961              	.LVL105:
 962              	.L59:
 223:TasksInterface.c ****     }
 224:TasksInterface.c ****     HighHeartRateF=HighHeartRateI;
 963              		.loc 1 224 0
 964 0086 074B     		ldr	r3, .L62
 965 0088 1A69     		ldr	r2, [r3, #16]
 966 008a 5A61     		str	r2, [r3, #20]
 225:TasksInterface.c ****     CapSense_ProcessAllWidgets();
 967              		.loc 1 225 0
ARM GAS  C:\Users\vicpa\AppData\Local\Temp\ccqS0gg1.s 			page 22


 968 008c FFF7FEFF 		bl	CapSense_ProcessAllWidgets
 969              	.LVL106:
 226:TasksInterface.c ****     if (CapSense_IsWidgetActive(CapSense_BUTTON0_WDGT_ID)){
 970              		.loc 1 226 0
 971 0090 0120     		movs	r0, #1
 972 0092 FFF7FEFF 		bl	CapSense_IsWidgetActive
 973              	.LVL107:
 974 0096 18B1     		cbz	r0, .L54
 227:TasksInterface.c ****         StopChangeHighHeartRate=true;
 975              		.loc 1 227 0
 976 0098 0122     		movs	r2, #1
 977 009a 034B     		ldr	r3, .L62+4
 978 009c 83F8BE25 		strb	r2, [r3, #1470]
 979              	.L54:
 980 00a0 10BD     		pop	{r4, pc}
 981              	.L63:
 982 00a2 00BF     		.align	2
 983              	.L62:
 984 00a4 00000000 		.word	.LANCHOR2
 985 00a8 F8100000 		.word	.LANCHOR1
 986              		.cfi_endproc
 987              	.LFE570:
 988              		.size	CapSense_ChangeHighHeartRateLimit, .-CapSense_ChangeHighHeartRateLimit
 989              		.section	.text.updateMotionAlarm,"ax",%progbits
 990              		.align	2
 991              		.global	updateMotionAlarm
 992              		.thumb
 993              		.thumb_func
 994              		.type	updateMotionAlarm, %function
 995              	updateMotionAlarm:
 996              	.LFB571:
 228:TasksInterface.c ****     }
 229:TasksInterface.c **** }
 230:TasksInterface.c **** 
 231:TasksInterface.c **** // 11)Fonction pour afficher l'état de l'alarme (enabled/disabled) issue de l'accéléromètre
 232:TasksInterface.c **** volatile bool MotionAlarmEnable=true;
 233:TasksInterface.c **** void updateMotionAlarm(){
 997              		.loc 1 233 0
 998              		.cfi_startproc
 999              		@ args = 0, pretend = 0, frame = 0
 1000              		@ frame_needed = 0, uses_anonymous_args = 0
 1001 0000 08B5     		push	{r3, lr}
 1002              		.cfi_def_cfa_offset 8
 1003              		.cfi_offset 3, -8
 1004              		.cfi_offset 14, -4
 234:TasksInterface.c ****     ClearScreen();GUI_SetPenSize(7); GUI_SetFont(GUI_FONT_13_1);
 1005              		.loc 1 234 0
 1006 0002 FFF7FEFF 		bl	ClearScreen
 1007              	.LVL108:
 1008 0006 0720     		movs	r0, #7
 1009 0008 FFF7FEFF 		bl	GUI_SetPenSize
 1010              	.LVL109:
 1011 000c 0D48     		ldr	r0, .L68
 1012 000e FFF7FEFF 		bl	GUI_SetFont
 1013              	.LVL110:
 235:TasksInterface.c ****     if (MotionAlarmEnable==true)
 1014              		.loc 1 235 0
ARM GAS  C:\Users\vicpa\AppData\Local\Temp\ccqS0gg1.s 			page 23


 1015 0012 0D4B     		ldr	r3, .L68+4
 1016 0014 1B7E     		ldrb	r3, [r3, #24]	@ zero_extendqisi2
 1017 0016 13F0FF0F 		tst	r3, #255
 1018 001a 04D0     		beq	.L65
 236:TasksInterface.c ****     {
 237:TasksInterface.c ****         GUI_DispStringAt("Alarm enabled",80,80);
 1019              		.loc 1 237 0
 1020 001c 5022     		movs	r2, #80
 1021 001e 1146     		mov	r1, r2
 1022 0020 0A48     		ldr	r0, .L68+8
 1023 0022 FFF7FEFF 		bl	GUI_DispStringAt
 1024              	.LVL111:
 1025              	.L65:
 238:TasksInterface.c ****     }
 239:TasksInterface.c ****     if (MotionAlarmEnable==false)
 1026              		.loc 1 239 0
 1027 0026 084B     		ldr	r3, .L68+4
 1028 0028 1B7E     		ldrb	r3, [r3, #24]	@ zero_extendqisi2
 1029 002a 13F0FF0F 		tst	r3, #255
 1030 002e 04D1     		bne	.L66
 240:TasksInterface.c ****     {
 241:TasksInterface.c ****         GUI_DispStringAt("Alarm disabled",80,80);
 1031              		.loc 1 241 0
 1032 0030 5022     		movs	r2, #80
 1033 0032 1146     		mov	r1, r2
 1034 0034 0648     		ldr	r0, .L68+12
 1035 0036 FFF7FEFF 		bl	GUI_DispStringAt
 1036              	.LVL112:
 1037              	.L66:
 242:TasksInterface.c ****     }
 243:TasksInterface.c ****     UpdateDisplay(CY_EINK_FULL_4STAGE, true);
 1038              		.loc 1 243 0
 1039 003a 0121     		movs	r1, #1
 1040 003c 0846     		mov	r0, r1
 1041 003e FFF7FEFF 		bl	UpdateDisplay
 1042              	.LVL113:
 1043 0042 08BD     		pop	{r3, pc}
 1044              	.L69:
 1045              		.align	2
 1046              	.L68:
 1047 0044 00000000 		.word	GUI_Font13_1
 1048 0048 00000000 		.word	.LANCHOR2
 1049 004c 48010000 		.word	.LC15
 1050 0050 58010000 		.word	.LC16
 1051              		.cfi_endproc
 1052              	.LFE571:
 1053              		.size	updateMotionAlarm, .-updateMotionAlarm
 1054              		.section	.text.CapSense_EnableDisableMotionAlarm,"ax",%progbits
 1055              		.align	2
 1056              		.global	CapSense_EnableDisableMotionAlarm
 1057              		.thumb
 1058              		.thumb_func
 1059              		.type	CapSense_EnableDisableMotionAlarm, %function
 1060              	CapSense_EnableDisableMotionAlarm:
 1061              	.LFB572:
 244:TasksInterface.c **** }
 245:TasksInterface.c **** 
ARM GAS  C:\Users\vicpa\AppData\Local\Temp\ccqS0gg1.s 			page 24


 246:TasksInterface.c **** // 12)Fonction pour changer un flag correspondant à l'état de l'alarme (enabled/disabled) issue d
 247:TasksInterface.c **** volatile uint32_t SliderPosV=50; volatile bool StopDisableAlarm=false;
 248:TasksInterface.c **** void CapSense_EnableDisableMotionAlarm()
 249:TasksInterface.c **** {      
 1062              		.loc 1 249 0
 1063              		.cfi_startproc
 1064              		@ args = 0, pretend = 0, frame = 0
 1065              		@ frame_needed = 0, uses_anonymous_args = 0
 1066 0000 08B5     		push	{r3, lr}
 1067              		.cfi_def_cfa_offset 8
 1068              		.cfi_offset 3, -8
 1069              		.cfi_offset 14, -4
 250:TasksInterface.c ****     CapSense_ProcessAllWidgets();
 1070              		.loc 1 250 0
 1071 0002 FFF7FEFF 		bl	CapSense_ProcessAllWidgets
 1072              	.LVL114:
 251:TasksInterface.c ****     SliderPosV=CapSense_GetCentroidPos(CapSense_LINEARSLIDER0_WDGT_ID);
 1073              		.loc 1 251 0
 1074 0006 0020     		movs	r0, #0
 1075 0008 FFF7FEFF 		bl	CapSense_GetCentroidPos
 1076              	.LVL115:
 1077 000c 154B     		ldr	r3, .L75
 1078 000e D861     		str	r0, [r3, #28]
 252:TasksInterface.c ****     if (SliderPosV<65534&&SliderPosV>50)
 1079              		.loc 1 252 0
 1080 0010 DA69     		ldr	r2, [r3, #28]
 1081 0012 4FF6FD73 		movw	r3, #65533
 1082 0016 9A42     		cmp	r2, r3
 1083 0018 08D8     		bhi	.L71
 1084              		.loc 1 252 0 is_stmt 0 discriminator 1
 1085 001a 124B     		ldr	r3, .L75
 1086 001c DB69     		ldr	r3, [r3, #28]
 1087 001e 322B     		cmp	r3, #50
 1088 0020 04D9     		bls	.L71
 253:TasksInterface.c ****     {
 254:TasksInterface.c ****         MotionAlarmEnable=true;
 1089              		.loc 1 254 0 is_stmt 1
 1090 0022 0122     		movs	r2, #1
 1091 0024 0F4B     		ldr	r3, .L75
 1092 0026 1A76     		strb	r2, [r3, #24]
 255:TasksInterface.c ****         updateMotionAlarm();
 1093              		.loc 1 255 0
 1094 0028 FFF7FEFF 		bl	updateMotionAlarm
 1095              	.LVL116:
 1096              	.L71:
 256:TasksInterface.c ****     }
 257:TasksInterface.c ****     if (SliderPosV<50)
 1097              		.loc 1 257 0
 1098 002c 0D4B     		ldr	r3, .L75
 1099 002e DB69     		ldr	r3, [r3, #28]
 1100 0030 312B     		cmp	r3, #49
 1101 0032 04D8     		bhi	.L72
 258:TasksInterface.c ****     {
 259:TasksInterface.c ****         MotionAlarmEnable=false;
 1102              		.loc 1 259 0
 1103 0034 0022     		movs	r2, #0
 1104 0036 0B4B     		ldr	r3, .L75
ARM GAS  C:\Users\vicpa\AppData\Local\Temp\ccqS0gg1.s 			page 25


 1105 0038 1A76     		strb	r2, [r3, #24]
 260:TasksInterface.c ****         updateMotionAlarm();
 1106              		.loc 1 260 0
 1107 003a FFF7FEFF 		bl	updateMotionAlarm
 1108              	.LVL117:
 1109              	.L72:
 261:TasksInterface.c ****     }
 262:TasksInterface.c ****     SliderPosV=50;
 1110              		.loc 1 262 0
 1111 003e 3222     		movs	r2, #50
 1112 0040 084B     		ldr	r3, .L75
 1113 0042 DA61     		str	r2, [r3, #28]
 263:TasksInterface.c ****     CapSense_UpdateAllBaselines();
 1114              		.loc 1 263 0
 1115 0044 FFF7FEFF 		bl	CapSense_UpdateAllBaselines
 1116              	.LVL118:
 264:TasksInterface.c ****     CapSense_ScanAllWidgets();
 1117              		.loc 1 264 0
 1118 0048 FFF7FEFF 		bl	CapSense_ScanAllWidgets
 1119              	.LVL119:
 265:TasksInterface.c ****     CapSense_ProcessAllWidgets();
 1120              		.loc 1 265 0
 1121 004c FFF7FEFF 		bl	CapSense_ProcessAllWidgets
 1122              	.LVL120:
 266:TasksInterface.c ****     if (CapSense_IsWidgetActive(CapSense_BUTTON0_WDGT_ID)){
 1123              		.loc 1 266 0
 1124 0050 0120     		movs	r0, #1
 1125 0052 FFF7FEFF 		bl	CapSense_IsWidgetActive
 1126              	.LVL121:
 1127 0056 18B1     		cbz	r0, .L70
 267:TasksInterface.c ****         StopDisableAlarm=true;
 1128              		.loc 1 267 0
 1129 0058 0122     		movs	r2, #1
 1130 005a 034B     		ldr	r3, .L75+4
 1131 005c 83F8BF25 		strb	r2, [r3, #1471]
 1132              	.L70:
 1133 0060 08BD     		pop	{r3, pc}
 1134              	.L76:
 1135 0062 00BF     		.align	2
 1136              	.L75:
 1137 0064 00000000 		.word	.LANCHOR2
 1138 0068 F8100000 		.word	.LANCHOR1
 1139              		.cfi_endproc
 1140              	.LFE572:
 1141              		.size	CapSense_EnableDisableMotionAlarm, .-CapSense_EnableDisableMotionAlarm
 1142              		.section	.text.ChangeGraph,"ax",%progbits
 1143              		.align	2
 1144              		.global	ChangeGraph
 1145              		.thumb
 1146              		.thumb_func
 1147              		.type	ChangeGraph, %function
 1148              	ChangeGraph:
 1149              	.LFB573:
 268:TasksInterface.c ****     }
 269:TasksInterface.c **** }
 270:TasksInterface.c **** 
 271:TasksInterface.c **** //------------------------------------------------------------------- Tâches ---------------------
ARM GAS  C:\Users\vicpa\AppData\Local\Temp\ccqS0gg1.s 			page 26


 272:TasksInterface.c **** 
 273:TasksInterface.c **** // 1)Tâche pour afficher les graphiques ainsi que pour changer la courbe affichée 
 274:TasksInterface.c **** volatile int CompteurSW2; volatile bool AffichageGraph; float bufferInfrarouge[750]; float bufferRo
 275:TasksInterface.c **** void ChangeGraph()
 276:TasksInterface.c **** {
 1150              		.loc 1 276 0
 1151              		.cfi_startproc
 1152              		@ Volatile: function does not return.
 1153              		@ args = 0, pretend = 0, frame = 0
 1154              		@ frame_needed = 0, uses_anonymous_args = 0
 1155 0000 08B5     		push	{r3, lr}
 1156              		.cfi_def_cfa_offset 8
 1157              		.cfi_offset 3, -8
 1158              		.cfi_offset 14, -4
 1159              	.L80:
 277:TasksInterface.c ****     for (;;)
 278:TasksInterface.c ****     {
 279:TasksInterface.c ****         //Remplissage des buffers des courbes rouge et infrarouge et des paramètres
 280:TasksInterface.c ****         
 281:TasksInterface.c ****         
 282:TasksInterface.c ****         if (AffichageGraph==true){
 1160              		.loc 1 282 0
 1161 0002 1D4B     		ldr	r3, .L82
 1162 0004 1B78     		ldrb	r3, [r3]	@ zero_extendqisi2
 1163 0006 13F0FF0F 		tst	r3, #255
 1164 000a 31D0     		beq	.L78
 283:TasksInterface.c ****             ClearScreen();
 1165              		.loc 1 283 0
 1166 000c FFF7FEFF 		bl	ClearScreen
 1167              	.LVL122:
 284:TasksInterface.c ****             if (CompteurSW2%2==0)
 1168              		.loc 1 284 0
 1169 0010 1A4B     		ldr	r3, .L82+4
 1170 0012 1B68     		ldr	r3, [r3]
 1171 0014 13F0010F 		tst	r3, #1
 1172 0018 15D1     		bne	.L79
 285:TasksInterface.c ****             {
 286:TasksInterface.c ****                 drawGraph(bufferInfrarouge);
 1173              		.loc 1 286 0
 1174 001a 1948     		ldr	r0, .L82+8
 1175 001c FFF7FEFF 		bl	drawGraph
 1176              	.LVL123:
 287:TasksInterface.c ****                 updateParameters(Saturation, RythmeCardiaque);
 1177              		.loc 1 287 0
 1178 0020 184B     		ldr	r3, .L82+12
 1179 0022 D3F8C005 		ldr	r0, [r3, #1472]
 1180 0026 184B     		ldr	r3, .L82+16
 1181 0028 196A     		ldr	r1, [r3, #32]
 1182 002a FFF7FEFF 		bl	updateParameters
 1183              	.LVL124:
 288:TasksInterface.c ****                 GUI_SetPenSize(10); GUI_SetFont(GUI_FONT_16_1); GUI_DispStringAt("Red curve:",80,0)
 1184              		.loc 1 288 0
 1185 002e 0A20     		movs	r0, #10
 1186 0030 FFF7FEFF 		bl	GUI_SetPenSize
 1187              	.LVL125:
 1188 0034 1548     		ldr	r0, .L82+20
 1189 0036 FFF7FEFF 		bl	GUI_SetFont
ARM GAS  C:\Users\vicpa\AppData\Local\Temp\ccqS0gg1.s 			page 27


 1190              	.LVL126:
 1191 003a 0022     		movs	r2, #0
 1192 003c 5021     		movs	r1, #80
 1193 003e 1448     		ldr	r0, .L82+24
 1194 0040 FFF7FEFF 		bl	GUI_DispStringAt
 1195              	.LVL127:
 1196 0044 14E0     		b	.L78
 1197              	.L79:
 289:TasksInterface.c ****             }
 290:TasksInterface.c ****             else
 291:TasksInterface.c ****             {
 292:TasksInterface.c ****                 drawGraph(bufferRouge);
 1198              		.loc 1 292 0
 1199 0046 1348     		ldr	r0, .L82+28
 1200 0048 FFF7FEFF 		bl	drawGraph
 1201              	.LVL128:
 293:TasksInterface.c ****                 updateParameters(Saturation, RythmeCardiaque);
 1202              		.loc 1 293 0
 1203 004c 0D4B     		ldr	r3, .L82+12
 1204 004e D3F8C005 		ldr	r0, [r3, #1472]
 1205 0052 0D4B     		ldr	r3, .L82+16
 1206 0054 196A     		ldr	r1, [r3, #32]
 1207 0056 FFF7FEFF 		bl	updateParameters
 1208              	.LVL129:
 294:TasksInterface.c ****                 GUI_SetPenSize(10); GUI_SetFont(GUI_FONT_16_1); GUI_DispStringAt("Infrared curve:",
 1209              		.loc 1 294 0
 1210 005a 0A20     		movs	r0, #10
 1211 005c FFF7FEFF 		bl	GUI_SetPenSize
 1212              	.LVL130:
 1213 0060 0A48     		ldr	r0, .L82+20
 1214 0062 FFF7FEFF 		bl	GUI_SetFont
 1215              	.LVL131:
 1216 0066 0022     		movs	r2, #0
 1217 0068 3C21     		movs	r1, #60
 1218 006a 0B48     		ldr	r0, .L82+32
 1219 006c FFF7FEFF 		bl	GUI_DispStringAt
 1220              	.LVL132:
 1221              	.L78:
 295:TasksInterface.c ****             }
 296:TasksInterface.c ****         }
 297:TasksInterface.c ****         vTaskDelay(pdMS_TO_TICKS(200));
 1222              		.loc 1 297 0
 1223 0070 C820     		movs	r0, #200
 1224 0072 FFF7FEFF 		bl	vTaskDelay
 1225              	.LVL133:
 298:TasksInterface.c ****     }
 1226              		.loc 1 298 0
 1227 0076 C4E7     		b	.L80
 1228              	.L83:
 1229              		.align	2
 1230              	.L82:
 1231 0078 00000000 		.word	AffichageGraph
 1232 007c 00000000 		.word	CompteurSW2
 1233 0080 00000000 		.word	bufferInfrarouge
 1234 0084 F8100000 		.word	.LANCHOR1
 1235 0088 00000000 		.word	.LANCHOR2
 1236 008c 00000000 		.word	GUI_Font16_1
ARM GAS  C:\Users\vicpa\AppData\Local\Temp\ccqS0gg1.s 			page 28


 1237 0090 68010000 		.word	.LC17
 1238 0094 00000000 		.word	bufferRouge
 1239 0098 74010000 		.word	.LC18
 1240              		.cfi_endproc
 1241              	.LFE573:
 1242              		.size	ChangeGraph, .-ChangeGraph
 1243              		.section	.text.HeartRateAlarm,"ax",%progbits
 1244              		.align	2
 1245              		.global	HeartRateAlarm
 1246              		.thumb
 1247              		.thumb_func
 1248              		.type	HeartRateAlarm, %function
 1249              	HeartRateAlarm:
 1250              	.LFB574:
 299:TasksInterface.c **** }
 300:TasksInterface.c **** 
 301:TasksInterface.c **** // 2)Tâche pour allumer ou éteindre une alarme lorsque le rythme cardiaque est à l'extérieur de
 302:TasksInterface.c **** void HeartRateAlarm()
 303:TasksInterface.c **** {
 1251              		.loc 1 303 0
 1252              		.cfi_startproc
 1253              		@ Volatile: function does not return.
 1254              		@ args = 0, pretend = 0, frame = 0
 1255              		@ frame_needed = 0, uses_anonymous_args = 0
 1256 0000 08B5     		push	{r3, lr}
 1257              		.cfi_def_cfa_offset 8
 1258              		.cfi_offset 3, -8
 1259              		.cfi_offset 14, -4
 1260              	.L88:
 304:TasksInterface.c ****     for(;;)
 305:TasksInterface.c ****     {
 306:TasksInterface.c ****         if (RythmeCardiaque>HighHeartRateI || RythmeCardiaque<LowHeartRateI)
 1261              		.loc 1 306 0
 1262 0002 0A4B     		ldr	r3, .L90
 1263 0004 1A6A     		ldr	r2, [r3, #32]
 1264 0006 1B69     		ldr	r3, [r3, #16]
 1265 0008 9A42     		cmp	r2, r3
 1266 000a 04DC     		bgt	.L85
 1267              		.loc 1 306 0 is_stmt 0 discriminator 1
 1268 000c 074B     		ldr	r3, .L90
 1269 000e 1A6A     		ldr	r2, [r3, #32]
 1270 0010 5B68     		ldr	r3, [r3, #4]
 1271 0012 9A42     		cmp	r2, r3
 1272 0014 03DA     		bge	.L86
 1273              	.L85:
 1274              	.LVL134:
 1275              	.LBB12:
 1276              	.LBB13:
 1277              		.file 2 "Generated_Source\\PSoC6\\pdl\\drivers/peripheral/gpio/cy_gpio.h"
   1:Generated_Source\PSoC6\pdl\drivers/peripheral/gpio/cy_gpio.h **** /***************************************************************************//**
   2:Generated_Source\PSoC6\pdl\drivers/peripheral/gpio/cy_gpio.h **** * \file cy_gpio.h
   3:Generated_Source\PSoC6\pdl\drivers/peripheral/gpio/cy_gpio.h **** * \version 1.20
   4:Generated_Source\PSoC6\pdl\drivers/peripheral/gpio/cy_gpio.h **** *
   5:Generated_Source\PSoC6\pdl\drivers/peripheral/gpio/cy_gpio.h **** * Provides an API declaration of the GPIO driver
   6:Generated_Source\PSoC6\pdl\drivers/peripheral/gpio/cy_gpio.h **** *
   7:Generated_Source\PSoC6\pdl\drivers/peripheral/gpio/cy_gpio.h **** ********************************************************************************
   8:Generated_Source\PSoC6\pdl\drivers/peripheral/gpio/cy_gpio.h **** * \copyright
ARM GAS  C:\Users\vicpa\AppData\Local\Temp\ccqS0gg1.s 			page 29


   9:Generated_Source\PSoC6\pdl\drivers/peripheral/gpio/cy_gpio.h **** * Copyright 2016-2018, Cypress Semiconductor Corporation. All rights reserved.
  10:Generated_Source\PSoC6\pdl\drivers/peripheral/gpio/cy_gpio.h **** * You may use this file only in accordance with the license, terms, conditions,
  11:Generated_Source\PSoC6\pdl\drivers/peripheral/gpio/cy_gpio.h **** * disclaimers, and limitations in the end user license agreement accompanying
  12:Generated_Source\PSoC6\pdl\drivers/peripheral/gpio/cy_gpio.h **** * the software package with which this file was provided.
  13:Generated_Source\PSoC6\pdl\drivers/peripheral/gpio/cy_gpio.h **** *******************************************************************************/
  14:Generated_Source\PSoC6\pdl\drivers/peripheral/gpio/cy_gpio.h **** 
  15:Generated_Source\PSoC6\pdl\drivers/peripheral/gpio/cy_gpio.h **** /**
  16:Generated_Source\PSoC6\pdl\drivers/peripheral/gpio/cy_gpio.h **** * \addtogroup group_gpio
  17:Generated_Source\PSoC6\pdl\drivers/peripheral/gpio/cy_gpio.h **** * \{
  18:Generated_Source\PSoC6\pdl\drivers/peripheral/gpio/cy_gpio.h **** * The GPIO driver provides an API to configure and access device Input/Output pins.
  19:Generated_Source\PSoC6\pdl\drivers/peripheral/gpio/cy_gpio.h **** *
  20:Generated_Source\PSoC6\pdl\drivers/peripheral/gpio/cy_gpio.h **** * The functions and other declarations used in this driver are in cy_gpio.h. 
  21:Generated_Source\PSoC6\pdl\drivers/peripheral/gpio/cy_gpio.h **** * You can include cy_pdl.h (ModusToolbox only) to get access to all functions 
  22:Generated_Source\PSoC6\pdl\drivers/peripheral/gpio/cy_gpio.h **** * and declarations in the PDL.
  23:Generated_Source\PSoC6\pdl\drivers/peripheral/gpio/cy_gpio.h **** *
  24:Generated_Source\PSoC6\pdl\drivers/peripheral/gpio/cy_gpio.h **** * IO pins include all general purpose types such as GPIO, SIO, HSIO, AUXIO, and
  25:Generated_Source\PSoC6\pdl\drivers/peripheral/gpio/cy_gpio.h **** * their variants.
  26:Generated_Source\PSoC6\pdl\drivers/peripheral/gpio/cy_gpio.h **** *
  27:Generated_Source\PSoC6\pdl\drivers/peripheral/gpio/cy_gpio.h **** * Initialization can be performed either at the port level or by configuring the
  28:Generated_Source\PSoC6\pdl\drivers/peripheral/gpio/cy_gpio.h **** * individual pins. For efficient use of code space, port
  29:Generated_Source\PSoC6\pdl\drivers/peripheral/gpio/cy_gpio.h **** * configuration should be used in the field. Refer to the product device header files 
  30:Generated_Source\PSoC6\pdl\drivers/peripheral/gpio/cy_gpio.h **** * for the list of supported ports and pins.
  31:Generated_Source\PSoC6\pdl\drivers/peripheral/gpio/cy_gpio.h **** * 
  32:Generated_Source\PSoC6\pdl\drivers/peripheral/gpio/cy_gpio.h **** * - Single pin configuration is performed by using \ref Cy_GPIO_Pin_FastInit 
  33:Generated_Source\PSoC6\pdl\drivers/peripheral/gpio/cy_gpio.h **** *   (provide specific values) or \ref Cy_GPIO_Pin_Init (provide a filled
  34:Generated_Source\PSoC6\pdl\drivers/peripheral/gpio/cy_gpio.h **** *   cy_stc_gpio_pin_config_t structure).
  35:Generated_Source\PSoC6\pdl\drivers/peripheral/gpio/cy_gpio.h **** * - An entire port can be configured using \ref Cy_GPIO_Port_Init. Provide a filled 
  36:Generated_Source\PSoC6\pdl\drivers/peripheral/gpio/cy_gpio.h **** *   cy_stc_gpio_prt_config_t structure. The values in the structure are 
  37:Generated_Source\PSoC6\pdl\drivers/peripheral/gpio/cy_gpio.h **** *   bitfields representing the desired value for each pin in the port.
  38:Generated_Source\PSoC6\pdl\drivers/peripheral/gpio/cy_gpio.h **** * - Pin configuration and management is based on the port address and pin number.
  39:Generated_Source\PSoC6\pdl\drivers/peripheral/gpio/cy_gpio.h **** *   \ref Cy_GPIO_PortToAddr function can optionally be used to calculate the port
  40:Generated_Source\PSoC6\pdl\drivers/peripheral/gpio/cy_gpio.h **** *   address from the port number at run-time.
  41:Generated_Source\PSoC6\pdl\drivers/peripheral/gpio/cy_gpio.h **** *
  42:Generated_Source\PSoC6\pdl\drivers/peripheral/gpio/cy_gpio.h **** * Once the pin/port initialization is complete, each pin can be accessed by 
  43:Generated_Source\PSoC6\pdl\drivers/peripheral/gpio/cy_gpio.h **** * specifying the port (GPIO_PRT_Type) and the pin (0-7) in the provided API 
  44:Generated_Source\PSoC6\pdl\drivers/peripheral/gpio/cy_gpio.h **** * functions.
  45:Generated_Source\PSoC6\pdl\drivers/peripheral/gpio/cy_gpio.h **** *
  46:Generated_Source\PSoC6\pdl\drivers/peripheral/gpio/cy_gpio.h **** * \section group_gpio_configuration Configuration Considerations
  47:Generated_Source\PSoC6\pdl\drivers/peripheral/gpio/cy_gpio.h **** *
  48:Generated_Source\PSoC6\pdl\drivers/peripheral/gpio/cy_gpio.h **** * 1. Pin multiplexing is controlled through the High-Speed IO Matrix (HSIOM) selection.
  49:Generated_Source\PSoC6\pdl\drivers/peripheral/gpio/cy_gpio.h **** *    This allows the pin to connect to signal sources/sinks throughout the device,
  50:Generated_Source\PSoC6\pdl\drivers/peripheral/gpio/cy_gpio.h **** *    as defined by the pin HSIOM selection options (en_hsiom_sel_t).
  51:Generated_Source\PSoC6\pdl\drivers/peripheral/gpio/cy_gpio.h **** * 2. All pins are initialized to High-Z drive mode with HSIOM connected to CPU (SW
  52:Generated_Source\PSoC6\pdl\drivers/peripheral/gpio/cy_gpio.h **** *    control digital pin only) at Power-On-Reset(POR).
  53:Generated_Source\PSoC6\pdl\drivers/peripheral/gpio/cy_gpio.h **** * 3. Some API functions perform read-modify-write operations on shared port
  54:Generated_Source\PSoC6\pdl\drivers/peripheral/gpio/cy_gpio.h **** *    registers. These functions are not thread safe and care must be taken when
  55:Generated_Source\PSoC6\pdl\drivers/peripheral/gpio/cy_gpio.h **** *    called by the application.
  56:Generated_Source\PSoC6\pdl\drivers/peripheral/gpio/cy_gpio.h **** * 4. Digital input buffer provides a high-impedance buffer for the external 
  57:Generated_Source\PSoC6\pdl\drivers/peripheral/gpio/cy_gpio.h **** *    digital input. The input buffer is connected to the HSIOM for routing to 
  58:Generated_Source\PSoC6\pdl\drivers/peripheral/gpio/cy_gpio.h **** *    the CPU port registers and selected peripheral. Enabling the input 
  59:Generated_Source\PSoC6\pdl\drivers/peripheral/gpio/cy_gpio.h **** *    buffer provides possibility to read the pin state via the CPU.
  60:Generated_Source\PSoC6\pdl\drivers/peripheral/gpio/cy_gpio.h **** *    If pin is connected to an analog signal, the input buffer should be 
  61:Generated_Source\PSoC6\pdl\drivers/peripheral/gpio/cy_gpio.h **** *    disabled to avoid crowbar currents. For more information refer to device 
  62:Generated_Source\PSoC6\pdl\drivers/peripheral/gpio/cy_gpio.h **** *    TRM and the device datasheet.
  63:Generated_Source\PSoC6\pdl\drivers/peripheral/gpio/cy_gpio.h **** *
  64:Generated_Source\PSoC6\pdl\drivers/peripheral/gpio/cy_gpio.h **** * Multiple pins on a port can be updated using direct port register writes with an
  65:Generated_Source\PSoC6\pdl\drivers/peripheral/gpio/cy_gpio.h **** * appropriate port mask. An example is shown below, highlighting the different ways of 
ARM GAS  C:\Users\vicpa\AppData\Local\Temp\ccqS0gg1.s 			page 30


  66:Generated_Source\PSoC6\pdl\drivers/peripheral/gpio/cy_gpio.h **** * configuring Port 1 pins using:
  67:Generated_Source\PSoC6\pdl\drivers/peripheral/gpio/cy_gpio.h **** * 
  68:Generated_Source\PSoC6\pdl\drivers/peripheral/gpio/cy_gpio.h **** * - Port output data register
  69:Generated_Source\PSoC6\pdl\drivers/peripheral/gpio/cy_gpio.h **** * - Port output data set register
  70:Generated_Source\PSoC6\pdl\drivers/peripheral/gpio/cy_gpio.h **** * - Port output data clear register
  71:Generated_Source\PSoC6\pdl\drivers/peripheral/gpio/cy_gpio.h **** *
  72:Generated_Source\PSoC6\pdl\drivers/peripheral/gpio/cy_gpio.h **** * \snippet gpio/gpio_v1_10_sut_01.cydsn/main_cm4.c Cy_GPIO_Snippet
  73:Generated_Source\PSoC6\pdl\drivers/peripheral/gpio/cy_gpio.h **** *
  74:Generated_Source\PSoC6\pdl\drivers/peripheral/gpio/cy_gpio.h **** * \section group_gpio_more_information More Information
  75:Generated_Source\PSoC6\pdl\drivers/peripheral/gpio/cy_gpio.h **** *
  76:Generated_Source\PSoC6\pdl\drivers/peripheral/gpio/cy_gpio.h **** * Refer to the technical reference manual (TRM) and the device datasheet.
  77:Generated_Source\PSoC6\pdl\drivers/peripheral/gpio/cy_gpio.h **** *
  78:Generated_Source\PSoC6\pdl\drivers/peripheral/gpio/cy_gpio.h **** * \section group_gpio_MISRA MISRA-C Compliance
  79:Generated_Source\PSoC6\pdl\drivers/peripheral/gpio/cy_gpio.h **** * The GPIO driver has the following specific deviations:
  80:Generated_Source\PSoC6\pdl\drivers/peripheral/gpio/cy_gpio.h **** *
  81:Generated_Source\PSoC6\pdl\drivers/peripheral/gpio/cy_gpio.h **** * <table class="doxtable">
  82:Generated_Source\PSoC6\pdl\drivers/peripheral/gpio/cy_gpio.h **** *   <tr>
  83:Generated_Source\PSoC6\pdl\drivers/peripheral/gpio/cy_gpio.h **** *     <th>MISRA Rule</th>
  84:Generated_Source\PSoC6\pdl\drivers/peripheral/gpio/cy_gpio.h **** *     <th>Rule Class (Required/Advisory)</th>
  85:Generated_Source\PSoC6\pdl\drivers/peripheral/gpio/cy_gpio.h **** *     <th>Rule Description</th>
  86:Generated_Source\PSoC6\pdl\drivers/peripheral/gpio/cy_gpio.h **** *     <th>Description of Deviation(s)</th>
  87:Generated_Source\PSoC6\pdl\drivers/peripheral/gpio/cy_gpio.h **** *   </tr>
  88:Generated_Source\PSoC6\pdl\drivers/peripheral/gpio/cy_gpio.h **** *   <tr>
  89:Generated_Source\PSoC6\pdl\drivers/peripheral/gpio/cy_gpio.h **** *     <td>11.4</td>
  90:Generated_Source\PSoC6\pdl\drivers/peripheral/gpio/cy_gpio.h **** *     <td>A</td>
  91:Generated_Source\PSoC6\pdl\drivers/peripheral/gpio/cy_gpio.h **** *     <td>A cast should not be performed between a pointer to object type and
  92:Generated_Source\PSoC6\pdl\drivers/peripheral/gpio/cy_gpio.h **** *         a different pointer to object type.</td>
  93:Generated_Source\PSoC6\pdl\drivers/peripheral/gpio/cy_gpio.h **** *     <td> This code is safe because the elements of both GPIO_PRT_V1_Type and GPIO_PRT_V2_Type 
  94:Generated_Source\PSoC6\pdl\drivers/peripheral/gpio/cy_gpio.h **** *          types have identical alignment.</td>
  95:Generated_Source\PSoC6\pdl\drivers/peripheral/gpio/cy_gpio.h **** *   </tr>
  96:Generated_Source\PSoC6\pdl\drivers/peripheral/gpio/cy_gpio.h **** *   <tr>
  97:Generated_Source\PSoC6\pdl\drivers/peripheral/gpio/cy_gpio.h **** *     <td>16.7</td>
  98:Generated_Source\PSoC6\pdl\drivers/peripheral/gpio/cy_gpio.h **** *     <td>A</td>
  99:Generated_Source\PSoC6\pdl\drivers/peripheral/gpio/cy_gpio.h **** *     <td>A pointer parameter in a function prototype should be declared as pointer 
 100:Generated_Source\PSoC6\pdl\drivers/peripheral/gpio/cy_gpio.h **** *         to const if the pointer is not used to modify the addressed object.</td>
 101:Generated_Source\PSoC6\pdl\drivers/peripheral/gpio/cy_gpio.h **** *     <td>The objects pointed to by the base addresses of the GPIO port are not always modified.
 102:Generated_Source\PSoC6\pdl\drivers/peripheral/gpio/cy_gpio.h **** *         While a const qualifier can be used in select scenarios, it brings little benefit
 103:Generated_Source\PSoC6\pdl\drivers/peripheral/gpio/cy_gpio.h **** *         in adding this to the affected functions. </td>
 104:Generated_Source\PSoC6\pdl\drivers/peripheral/gpio/cy_gpio.h **** *   </tr>
 105:Generated_Source\PSoC6\pdl\drivers/peripheral/gpio/cy_gpio.h **** * </table>
 106:Generated_Source\PSoC6\pdl\drivers/peripheral/gpio/cy_gpio.h **** *
 107:Generated_Source\PSoC6\pdl\drivers/peripheral/gpio/cy_gpio.h **** * \section group_gpio_changelog Changelog
 108:Generated_Source\PSoC6\pdl\drivers/peripheral/gpio/cy_gpio.h **** * <table class="doxtable">
 109:Generated_Source\PSoC6\pdl\drivers/peripheral/gpio/cy_gpio.h **** *   <tr><th>Version</th><th>Changes</th><th>Reason for Change</th></tr>
 110:Generated_Source\PSoC6\pdl\drivers/peripheral/gpio/cy_gpio.h **** *   <tr>
 111:Generated_Source\PSoC6\pdl\drivers/peripheral/gpio/cy_gpio.h **** *     <td rowspan="3">1.20</td>
 112:Generated_Source\PSoC6\pdl\drivers/peripheral/gpio/cy_gpio.h **** *     <td>Flattened the organization of the driver source code into the single source directory and
 113:Generated_Source\PSoC6\pdl\drivers/peripheral/gpio/cy_gpio.h **** *     <td>Driver library directory-structure simplification.</td>
 114:Generated_Source\PSoC6\pdl\drivers/peripheral/gpio/cy_gpio.h **** *   </tr>
 115:Generated_Source\PSoC6\pdl\drivers/peripheral/gpio/cy_gpio.h **** *   <tr>
 116:Generated_Source\PSoC6\pdl\drivers/peripheral/gpio/cy_gpio.h **** *     <td>Added the functions for configuring the AMux bus splitter switch cells:
 117:Generated_Source\PSoC6\pdl\drivers/peripheral/gpio/cy_gpio.h **** *     - \ref Cy_GPIO_SetAmuxSplit
 118:Generated_Source\PSoC6\pdl\drivers/peripheral/gpio/cy_gpio.h **** *     - \ref Cy_GPIO_GetAmuxSplit
 119:Generated_Source\PSoC6\pdl\drivers/peripheral/gpio/cy_gpio.h **** *     </td>
 120:Generated_Source\PSoC6\pdl\drivers/peripheral/gpio/cy_gpio.h **** *     <td>Added a new functionality related to AMux bus.</td>
 121:Generated_Source\PSoC6\pdl\drivers/peripheral/gpio/cy_gpio.h **** *   </tr>
 122:Generated_Source\PSoC6\pdl\drivers/peripheral/gpio/cy_gpio.h **** *   <tr>
ARM GAS  C:\Users\vicpa\AppData\Local\Temp\ccqS0gg1.s 			page 31


 123:Generated_Source\PSoC6\pdl\drivers/peripheral/gpio/cy_gpio.h **** *     <td>Added register access layer. Use register access macros instead
 124:Generated_Source\PSoC6\pdl\drivers/peripheral/gpio/cy_gpio.h **** *         of direct register access using dereferenced pointers.</td>
 125:Generated_Source\PSoC6\pdl\drivers/peripheral/gpio/cy_gpio.h **** *     <td>Makes register access device-independent, so that the PDL does 
 126:Generated_Source\PSoC6\pdl\drivers/peripheral/gpio/cy_gpio.h **** *         not need to be recompiled for each supported part number.</td>
 127:Generated_Source\PSoC6\pdl\drivers/peripheral/gpio/cy_gpio.h **** *   </tr>
 128:Generated_Source\PSoC6\pdl\drivers/peripheral/gpio/cy_gpio.h **** *   <tr>
 129:Generated_Source\PSoC6\pdl\drivers/peripheral/gpio/cy_gpio.h **** *     <td>1.10.1</td>
 130:Generated_Source\PSoC6\pdl\drivers/peripheral/gpio/cy_gpio.h **** *     <td>Updated description for the functions: \ref Cy_GPIO_GetInterruptStatus, 
 131:Generated_Source\PSoC6\pdl\drivers/peripheral/gpio/cy_gpio.h **** *         \ref Cy_GPIO_GetInterruptMask, \ref Cy_GPIO_GetInterruptStatusMasked.
 132:Generated_Source\PSoC6\pdl\drivers/peripheral/gpio/cy_gpio.h **** *
 133:Generated_Source\PSoC6\pdl\drivers/peripheral/gpio/cy_gpio.h **** *         Minor documentation edits.
 134:Generated_Source\PSoC6\pdl\drivers/peripheral/gpio/cy_gpio.h **** *     </td>
 135:Generated_Source\PSoC6\pdl\drivers/peripheral/gpio/cy_gpio.h **** *     <td>Documentation update and clarification</td>
 136:Generated_Source\PSoC6\pdl\drivers/peripheral/gpio/cy_gpio.h **** *   </tr>
 137:Generated_Source\PSoC6\pdl\drivers/peripheral/gpio/cy_gpio.h **** *   <tr>
 138:Generated_Source\PSoC6\pdl\drivers/peripheral/gpio/cy_gpio.h **** *     <td>1.10</td>
 139:Generated_Source\PSoC6\pdl\drivers/peripheral/gpio/cy_gpio.h **** *     <td>Added input parameter validation to the API functions</td>
 140:Generated_Source\PSoC6\pdl\drivers/peripheral/gpio/cy_gpio.h **** *     <td></td>
 141:Generated_Source\PSoC6\pdl\drivers/peripheral/gpio/cy_gpio.h **** *   </tr>
 142:Generated_Source\PSoC6\pdl\drivers/peripheral/gpio/cy_gpio.h **** *   <tr>
 143:Generated_Source\PSoC6\pdl\drivers/peripheral/gpio/cy_gpio.h **** *     <td>1.0</td>
 144:Generated_Source\PSoC6\pdl\drivers/peripheral/gpio/cy_gpio.h **** *     <td>Initial version</td>
 145:Generated_Source\PSoC6\pdl\drivers/peripheral/gpio/cy_gpio.h **** *     <td></td>
 146:Generated_Source\PSoC6\pdl\drivers/peripheral/gpio/cy_gpio.h **** *   </tr>
 147:Generated_Source\PSoC6\pdl\drivers/peripheral/gpio/cy_gpio.h **** * </table>
 148:Generated_Source\PSoC6\pdl\drivers/peripheral/gpio/cy_gpio.h **** *
 149:Generated_Source\PSoC6\pdl\drivers/peripheral/gpio/cy_gpio.h **** * \defgroup group_gpio_macros Macros
 150:Generated_Source\PSoC6\pdl\drivers/peripheral/gpio/cy_gpio.h **** * \defgroup group_gpio_functions Functions
 151:Generated_Source\PSoC6\pdl\drivers/peripheral/gpio/cy_gpio.h **** * \{
 152:Generated_Source\PSoC6\pdl\drivers/peripheral/gpio/cy_gpio.h **** *   \defgroup group_gpio_functions_init       Initialization Functions
 153:Generated_Source\PSoC6\pdl\drivers/peripheral/gpio/cy_gpio.h **** *   \defgroup group_gpio_functions_gpio       GPIO Functions
 154:Generated_Source\PSoC6\pdl\drivers/peripheral/gpio/cy_gpio.h **** *   \defgroup group_gpio_functions_sio        SIO Functions
 155:Generated_Source\PSoC6\pdl\drivers/peripheral/gpio/cy_gpio.h **** *   \defgroup group_gpio_functions_interrupt  Port Interrupt Functions
 156:Generated_Source\PSoC6\pdl\drivers/peripheral/gpio/cy_gpio.h **** * \}
 157:Generated_Source\PSoC6\pdl\drivers/peripheral/gpio/cy_gpio.h **** * \defgroup group_gpio_data_structures Data Structures
 158:Generated_Source\PSoC6\pdl\drivers/peripheral/gpio/cy_gpio.h **** * \defgroup group_gpio_enums Enumerated Types
 159:Generated_Source\PSoC6\pdl\drivers/peripheral/gpio/cy_gpio.h **** */
 160:Generated_Source\PSoC6\pdl\drivers/peripheral/gpio/cy_gpio.h **** 
 161:Generated_Source\PSoC6\pdl\drivers/peripheral/gpio/cy_gpio.h **** #if !defined(CY_GPIO_H)
 162:Generated_Source\PSoC6\pdl\drivers/peripheral/gpio/cy_gpio.h **** #define CY_GPIO_H
 163:Generated_Source\PSoC6\pdl\drivers/peripheral/gpio/cy_gpio.h **** 
 164:Generated_Source\PSoC6\pdl\drivers/peripheral/gpio/cy_gpio.h **** #include <stddef.h>
 165:Generated_Source\PSoC6\pdl\drivers/peripheral/gpio/cy_gpio.h **** #include "cy_device.h"
 166:Generated_Source\PSoC6\pdl\drivers/peripheral/gpio/cy_gpio.h **** #include "cy_device_headers.h"
 167:Generated_Source\PSoC6\pdl\drivers/peripheral/gpio/cy_gpio.h **** #include "cy_syslib.h"
 168:Generated_Source\PSoC6\pdl\drivers/peripheral/gpio/cy_gpio.h **** 
 169:Generated_Source\PSoC6\pdl\drivers/peripheral/gpio/cy_gpio.h **** #if defined(__cplusplus)
 170:Generated_Source\PSoC6\pdl\drivers/peripheral/gpio/cy_gpio.h **** extern "C" {
 171:Generated_Source\PSoC6\pdl\drivers/peripheral/gpio/cy_gpio.h **** #endif
 172:Generated_Source\PSoC6\pdl\drivers/peripheral/gpio/cy_gpio.h **** 
 173:Generated_Source\PSoC6\pdl\drivers/peripheral/gpio/cy_gpio.h **** /** \addtogroup group_gpio_macros
 174:Generated_Source\PSoC6\pdl\drivers/peripheral/gpio/cy_gpio.h **** * \{
 175:Generated_Source\PSoC6\pdl\drivers/peripheral/gpio/cy_gpio.h **** */
 176:Generated_Source\PSoC6\pdl\drivers/peripheral/gpio/cy_gpio.h **** 
 177:Generated_Source\PSoC6\pdl\drivers/peripheral/gpio/cy_gpio.h **** /** Driver major version */
 178:Generated_Source\PSoC6\pdl\drivers/peripheral/gpio/cy_gpio.h **** #define CY_GPIO_DRV_VERSION_MAJOR       1
 179:Generated_Source\PSoC6\pdl\drivers/peripheral/gpio/cy_gpio.h **** 
ARM GAS  C:\Users\vicpa\AppData\Local\Temp\ccqS0gg1.s 			page 32


 180:Generated_Source\PSoC6\pdl\drivers/peripheral/gpio/cy_gpio.h **** /** Driver minor version */
 181:Generated_Source\PSoC6\pdl\drivers/peripheral/gpio/cy_gpio.h **** #define CY_GPIO_DRV_VERSION_MINOR       20
 182:Generated_Source\PSoC6\pdl\drivers/peripheral/gpio/cy_gpio.h **** 
 183:Generated_Source\PSoC6\pdl\drivers/peripheral/gpio/cy_gpio.h **** /** GPIO driver ID */
 184:Generated_Source\PSoC6\pdl\drivers/peripheral/gpio/cy_gpio.h **** #define CY_GPIO_ID CY_PDL_DRV_ID(0x16U)
 185:Generated_Source\PSoC6\pdl\drivers/peripheral/gpio/cy_gpio.h **** 
 186:Generated_Source\PSoC6\pdl\drivers/peripheral/gpio/cy_gpio.h **** /** \} group_gpio_macros */
 187:Generated_Source\PSoC6\pdl\drivers/peripheral/gpio/cy_gpio.h **** 
 188:Generated_Source\PSoC6\pdl\drivers/peripheral/gpio/cy_gpio.h **** 
 189:Generated_Source\PSoC6\pdl\drivers/peripheral/gpio/cy_gpio.h **** /***************************************
 190:Generated_Source\PSoC6\pdl\drivers/peripheral/gpio/cy_gpio.h **** *       Enumerations
 191:Generated_Source\PSoC6\pdl\drivers/peripheral/gpio/cy_gpio.h **** ***************************************/
 192:Generated_Source\PSoC6\pdl\drivers/peripheral/gpio/cy_gpio.h **** /**
 193:Generated_Source\PSoC6\pdl\drivers/peripheral/gpio/cy_gpio.h **** * \addtogroup group_gpio_enums
 194:Generated_Source\PSoC6\pdl\drivers/peripheral/gpio/cy_gpio.h **** * \{
 195:Generated_Source\PSoC6\pdl\drivers/peripheral/gpio/cy_gpio.h **** */
 196:Generated_Source\PSoC6\pdl\drivers/peripheral/gpio/cy_gpio.h **** 
 197:Generated_Source\PSoC6\pdl\drivers/peripheral/gpio/cy_gpio.h **** /** GPIO Driver error codes */
 198:Generated_Source\PSoC6\pdl\drivers/peripheral/gpio/cy_gpio.h **** typedef enum 
 199:Generated_Source\PSoC6\pdl\drivers/peripheral/gpio/cy_gpio.h **** {
 200:Generated_Source\PSoC6\pdl\drivers/peripheral/gpio/cy_gpio.h ****     CY_GPIO_SUCCESS   = 0x00U,                                    /**< Returned successful */
 201:Generated_Source\PSoC6\pdl\drivers/peripheral/gpio/cy_gpio.h ****     CY_GPIO_BAD_PARAM = CY_GPIO_ID | CY_PDL_STATUS_ERROR | 0x01U, /**< Bad parameter was passed */
 202:Generated_Source\PSoC6\pdl\drivers/peripheral/gpio/cy_gpio.h **** } cy_en_gpio_status_t;
 203:Generated_Source\PSoC6\pdl\drivers/peripheral/gpio/cy_gpio.h **** 
 204:Generated_Source\PSoC6\pdl\drivers/peripheral/gpio/cy_gpio.h **** /** AMux switch open/close config */
 205:Generated_Source\PSoC6\pdl\drivers/peripheral/gpio/cy_gpio.h **** typedef enum
 206:Generated_Source\PSoC6\pdl\drivers/peripheral/gpio/cy_gpio.h **** {
 207:Generated_Source\PSoC6\pdl\drivers/peripheral/gpio/cy_gpio.h ****     CY_GPIO_AMUX_OPENALL,   /**< Open ground switch. Open right switch. Open left switch */
 208:Generated_Source\PSoC6\pdl\drivers/peripheral/gpio/cy_gpio.h ****     CY_GPIO_AMUX_L,         /**< Open ground switch. Open right switch. Close left switch */
 209:Generated_Source\PSoC6\pdl\drivers/peripheral/gpio/cy_gpio.h ****     CY_GPIO_AMUX_R,         /**< Open ground switch. Close right switch. Open left switch */
 210:Generated_Source\PSoC6\pdl\drivers/peripheral/gpio/cy_gpio.h ****     CY_GPIO_AMUX_LR,        /**< Open ground switch. Close right switch. Close left switch */
 211:Generated_Source\PSoC6\pdl\drivers/peripheral/gpio/cy_gpio.h ****     CY_GPIO_AMUX_G,         /**< Close ground switch. Open right switch. Open left switch */
 212:Generated_Source\PSoC6\pdl\drivers/peripheral/gpio/cy_gpio.h ****     CY_GPIO_AMUX_GL,        /**< Close ground switch. Open right switch. Close left switch */
 213:Generated_Source\PSoC6\pdl\drivers/peripheral/gpio/cy_gpio.h ****     CY_GPIO_AMUX_GR,        /**< Close ground switch. Close right switch. Open left switch */
 214:Generated_Source\PSoC6\pdl\drivers/peripheral/gpio/cy_gpio.h ****     CY_GPIO_AMUX_GLR,       /**< Close ground switch. Close right switch. Close left switch */
 215:Generated_Source\PSoC6\pdl\drivers/peripheral/gpio/cy_gpio.h **** }cy_en_gpio_amuxconnect_t;
 216:Generated_Source\PSoC6\pdl\drivers/peripheral/gpio/cy_gpio.h **** 
 217:Generated_Source\PSoC6\pdl\drivers/peripheral/gpio/cy_gpio.h **** /**
 218:Generated_Source\PSoC6\pdl\drivers/peripheral/gpio/cy_gpio.h **** * AMux Bus selection
 219:Generated_Source\PSoC6\pdl\drivers/peripheral/gpio/cy_gpio.h **** */
 220:Generated_Source\PSoC6\pdl\drivers/peripheral/gpio/cy_gpio.h **** typedef enum
 221:Generated_Source\PSoC6\pdl\drivers/peripheral/gpio/cy_gpio.h **** {
 222:Generated_Source\PSoC6\pdl\drivers/peripheral/gpio/cy_gpio.h ****     CY_GPIO_AMUXBUSA,       /**< AMuxBus A */
 223:Generated_Source\PSoC6\pdl\drivers/peripheral/gpio/cy_gpio.h ****     CY_GPIO_AMUXBUSB        /**< AMuxBus B */
 224:Generated_Source\PSoC6\pdl\drivers/peripheral/gpio/cy_gpio.h **** }cy_en_gpio_amuxselect_t;
 225:Generated_Source\PSoC6\pdl\drivers/peripheral/gpio/cy_gpio.h **** 
 226:Generated_Source\PSoC6\pdl\drivers/peripheral/gpio/cy_gpio.h **** /** \} group_gpio_enums */
 227:Generated_Source\PSoC6\pdl\drivers/peripheral/gpio/cy_gpio.h **** 
 228:Generated_Source\PSoC6\pdl\drivers/peripheral/gpio/cy_gpio.h **** 
 229:Generated_Source\PSoC6\pdl\drivers/peripheral/gpio/cy_gpio.h **** /***************************************
 230:Generated_Source\PSoC6\pdl\drivers/peripheral/gpio/cy_gpio.h **** *       Configuration Structures
 231:Generated_Source\PSoC6\pdl\drivers/peripheral/gpio/cy_gpio.h **** ***************************************/
 232:Generated_Source\PSoC6\pdl\drivers/peripheral/gpio/cy_gpio.h **** 
 233:Generated_Source\PSoC6\pdl\drivers/peripheral/gpio/cy_gpio.h **** /**
 234:Generated_Source\PSoC6\pdl\drivers/peripheral/gpio/cy_gpio.h **** * \addtogroup group_gpio_data_structures
 235:Generated_Source\PSoC6\pdl\drivers/peripheral/gpio/cy_gpio.h **** * \{
 236:Generated_Source\PSoC6\pdl\drivers/peripheral/gpio/cy_gpio.h **** */
ARM GAS  C:\Users\vicpa\AppData\Local\Temp\ccqS0gg1.s 			page 33


 237:Generated_Source\PSoC6\pdl\drivers/peripheral/gpio/cy_gpio.h **** 
 238:Generated_Source\PSoC6\pdl\drivers/peripheral/gpio/cy_gpio.h **** /** This structure is used to initialize a port of GPIO pins */
 239:Generated_Source\PSoC6\pdl\drivers/peripheral/gpio/cy_gpio.h **** typedef struct 
 240:Generated_Source\PSoC6\pdl\drivers/peripheral/gpio/cy_gpio.h **** {
 241:Generated_Source\PSoC6\pdl\drivers/peripheral/gpio/cy_gpio.h ****     uint32_t out;           /**< Initial output data for the IO pins in the port */
 242:Generated_Source\PSoC6\pdl\drivers/peripheral/gpio/cy_gpio.h ****     uint32_t intrMask;      /**< Interrupt enable mask for the port interrupt */
 243:Generated_Source\PSoC6\pdl\drivers/peripheral/gpio/cy_gpio.h ****     uint32_t intrCfg;       /**< Port pin interrupt edge detection configuration */
 244:Generated_Source\PSoC6\pdl\drivers/peripheral/gpio/cy_gpio.h ****     uint32_t cfg;           /**< Port pin drive modes and input buffer enable configuration */
 245:Generated_Source\PSoC6\pdl\drivers/peripheral/gpio/cy_gpio.h ****     uint32_t cfgIn;         /**< Port pin input buffer configuration */
 246:Generated_Source\PSoC6\pdl\drivers/peripheral/gpio/cy_gpio.h ****     uint32_t cfgOut;        /**< Port pin output buffer configuration */
 247:Generated_Source\PSoC6\pdl\drivers/peripheral/gpio/cy_gpio.h ****     uint32_t cfgSIO;        /**< Port SIO pins configuration */
 248:Generated_Source\PSoC6\pdl\drivers/peripheral/gpio/cy_gpio.h ****     uint32_t sel0Active;    /**< HSIOM selection for port pins 0,1,2,3 */
 249:Generated_Source\PSoC6\pdl\drivers/peripheral/gpio/cy_gpio.h ****     uint32_t sel1Active;    /**< HSIOM selection for port pins 4,5,6,7 */
 250:Generated_Source\PSoC6\pdl\drivers/peripheral/gpio/cy_gpio.h **** } cy_stc_gpio_prt_config_t;
 251:Generated_Source\PSoC6\pdl\drivers/peripheral/gpio/cy_gpio.h **** 
 252:Generated_Source\PSoC6\pdl\drivers/peripheral/gpio/cy_gpio.h **** /** This structure is used to initialize a single GPIO pin */
 253:Generated_Source\PSoC6\pdl\drivers/peripheral/gpio/cy_gpio.h **** typedef struct
 254:Generated_Source\PSoC6\pdl\drivers/peripheral/gpio/cy_gpio.h **** {
 255:Generated_Source\PSoC6\pdl\drivers/peripheral/gpio/cy_gpio.h ****     uint32_t outVal;         /**< Pin output state */
 256:Generated_Source\PSoC6\pdl\drivers/peripheral/gpio/cy_gpio.h ****     uint32_t driveMode;      /**< Drive mode */
 257:Generated_Source\PSoC6\pdl\drivers/peripheral/gpio/cy_gpio.h ****     en_hsiom_sel_t hsiom;    /**< HSIOM selection */
 258:Generated_Source\PSoC6\pdl\drivers/peripheral/gpio/cy_gpio.h ****     uint32_t intEdge;        /**< Interrupt Edge type */
 259:Generated_Source\PSoC6\pdl\drivers/peripheral/gpio/cy_gpio.h ****     uint32_t intMask;        /**< Interrupt enable mask */
 260:Generated_Source\PSoC6\pdl\drivers/peripheral/gpio/cy_gpio.h ****     uint32_t vtrip;          /**< Input buffer voltage trip type */
 261:Generated_Source\PSoC6\pdl\drivers/peripheral/gpio/cy_gpio.h ****     uint32_t slewRate;       /**< Output buffer slew rate */
 262:Generated_Source\PSoC6\pdl\drivers/peripheral/gpio/cy_gpio.h ****     uint32_t driveSel;       /**< Drive strength */
 263:Generated_Source\PSoC6\pdl\drivers/peripheral/gpio/cy_gpio.h ****     uint32_t vregEn;         /**< SIO pair output buffer mode */
 264:Generated_Source\PSoC6\pdl\drivers/peripheral/gpio/cy_gpio.h ****     uint32_t ibufMode;       /**< SIO pair input buffer mode */
 265:Generated_Source\PSoC6\pdl\drivers/peripheral/gpio/cy_gpio.h ****     uint32_t vtripSel;       /**< SIO pair input buffer trip point */
 266:Generated_Source\PSoC6\pdl\drivers/peripheral/gpio/cy_gpio.h ****     uint32_t vrefSel;        /**< SIO pair reference voltage for input buffer trip point */
 267:Generated_Source\PSoC6\pdl\drivers/peripheral/gpio/cy_gpio.h ****     uint32_t vohSel;         /**< SIO pair regulated voltage output level */
 268:Generated_Source\PSoC6\pdl\drivers/peripheral/gpio/cy_gpio.h **** } cy_stc_gpio_pin_config_t;
 269:Generated_Source\PSoC6\pdl\drivers/peripheral/gpio/cy_gpio.h **** 
 270:Generated_Source\PSoC6\pdl\drivers/peripheral/gpio/cy_gpio.h **** /** \} group_gpio_data_structures */
 271:Generated_Source\PSoC6\pdl\drivers/peripheral/gpio/cy_gpio.h **** 
 272:Generated_Source\PSoC6\pdl\drivers/peripheral/gpio/cy_gpio.h **** /***************************************
 273:Generated_Source\PSoC6\pdl\drivers/peripheral/gpio/cy_gpio.h **** *        Constants
 274:Generated_Source\PSoC6\pdl\drivers/peripheral/gpio/cy_gpio.h **** ***************************************/
 275:Generated_Source\PSoC6\pdl\drivers/peripheral/gpio/cy_gpio.h **** 
 276:Generated_Source\PSoC6\pdl\drivers/peripheral/gpio/cy_gpio.h **** /** \cond INTERNAL */
 277:Generated_Source\PSoC6\pdl\drivers/peripheral/gpio/cy_gpio.h **** 
 278:Generated_Source\PSoC6\pdl\drivers/peripheral/gpio/cy_gpio.h **** /* General Constants */
 279:Generated_Source\PSoC6\pdl\drivers/peripheral/gpio/cy_gpio.h **** #define CY_GPIO_PRT_HALF                       (4UL)      /**< Half-way point of a GPIO port */
 280:Generated_Source\PSoC6\pdl\drivers/peripheral/gpio/cy_gpio.h **** #define CY_GPIO_PRT_DEINIT                     (0UL)      /**< De-init value for port registers */
 281:Generated_Source\PSoC6\pdl\drivers/peripheral/gpio/cy_gpio.h **** 
 282:Generated_Source\PSoC6\pdl\drivers/peripheral/gpio/cy_gpio.h **** /* GPIO Masks */
 283:Generated_Source\PSoC6\pdl\drivers/peripheral/gpio/cy_gpio.h **** #define CY_GPIO_HSIOM_MASK                     (0x1FUL)   /**< HSIOM selection mask */
 284:Generated_Source\PSoC6\pdl\drivers/peripheral/gpio/cy_gpio.h **** #define CY_GPIO_OUT_MASK                       (0x01UL)   /**< Single pin mask for OUT register */
 285:Generated_Source\PSoC6\pdl\drivers/peripheral/gpio/cy_gpio.h **** #define CY_GPIO_IN_MASK                        (0x01UL)   /**< Single pin mask for IN register */
 286:Generated_Source\PSoC6\pdl\drivers/peripheral/gpio/cy_gpio.h **** #define CY_GPIO_CFG_DM_MASK                    (0x0FUL)   /**< Single pin mask for drive mode in CF
 287:Generated_Source\PSoC6\pdl\drivers/peripheral/gpio/cy_gpio.h **** #define CY_GPIO_CFG_IN_VTRIP_SEL_MASK          (0x01UL)   /**< Single pin mask for VTRIP selection 
 288:Generated_Source\PSoC6\pdl\drivers/peripheral/gpio/cy_gpio.h **** #define CY_GPIO_CFG_OUT_SLOW_MASK              (0x01UL)   /**< Single pin mask for slew rate in CFG
 289:Generated_Source\PSoC6\pdl\drivers/peripheral/gpio/cy_gpio.h **** #define CY_GPIO_CFG_OUT_DRIVE_SEL_MASK         (0x03UL)   /**< Single pin mask for drive strength i
 290:Generated_Source\PSoC6\pdl\drivers/peripheral/gpio/cy_gpio.h **** #define CY_GPIO_INTR_STATUS_MASK               (0x01UL)   /**< Single pin mask for interrupt status
 291:Generated_Source\PSoC6\pdl\drivers/peripheral/gpio/cy_gpio.h **** #define CY_GPIO_INTR_EN_MASK                   (0x01UL)   /**< Single pin mask for interrupt status
 292:Generated_Source\PSoC6\pdl\drivers/peripheral/gpio/cy_gpio.h **** #define CY_GPIO_INTR_MASKED_MASK               (0x01UL)   /**< Single pin mask for masked interrupt
 293:Generated_Source\PSoC6\pdl\drivers/peripheral/gpio/cy_gpio.h **** #define CY_GPIO_INTR_SET_MASK                  (0x01UL)   /**< Single pin mask for setting the inte
ARM GAS  C:\Users\vicpa\AppData\Local\Temp\ccqS0gg1.s 			page 34


 294:Generated_Source\PSoC6\pdl\drivers/peripheral/gpio/cy_gpio.h **** #define CY_GPIO_INTR_EDGE_MASK                 (0x03UL)   /**< Single pin mask for interrupt edge t
 295:Generated_Source\PSoC6\pdl\drivers/peripheral/gpio/cy_gpio.h **** #define CY_GPIO_INTR_FLT_EDGE_MASK             (0x07UL)   /**< Single pin mask for setting filtered
 296:Generated_Source\PSoC6\pdl\drivers/peripheral/gpio/cy_gpio.h **** 
 297:Generated_Source\PSoC6\pdl\drivers/peripheral/gpio/cy_gpio.h **** /* SIO Masks */
 298:Generated_Source\PSoC6\pdl\drivers/peripheral/gpio/cy_gpio.h **** #define CY_GPIO_VREG_EN_MASK                   (0x01UL)   /**< Single SIO pin mask for voltage regu
 299:Generated_Source\PSoC6\pdl\drivers/peripheral/gpio/cy_gpio.h **** #define CY_GPIO_IBUF_MASK                      (0x01UL)   /**< Single SIO pin mask for input buffer
 300:Generated_Source\PSoC6\pdl\drivers/peripheral/gpio/cy_gpio.h **** #define CY_GPIO_IBUF_SHIFT                     (0x01UL)   /**< Single SIO pin shift for input buffe
 301:Generated_Source\PSoC6\pdl\drivers/peripheral/gpio/cy_gpio.h **** #define CY_GPIO_VTRIP_SEL_MASK                 (0x01UL)   /**< Single SIO pin mask for the input bu
 302:Generated_Source\PSoC6\pdl\drivers/peripheral/gpio/cy_gpio.h **** #define CY_GPIO_VTRIP_SEL_SHIFT                (0x02UL)   /**< Single SIO pin shift for the input b
 303:Generated_Source\PSoC6\pdl\drivers/peripheral/gpio/cy_gpio.h **** #define CY_GPIO_VREF_SEL_MASK                  (0x03UL)   /**< Single SIO pin mask for voltage refe
 304:Generated_Source\PSoC6\pdl\drivers/peripheral/gpio/cy_gpio.h **** #define CY_GPIO_VREF_SEL_SHIFT                 (0x03UL)   /**< Single SIO pin shift for voltage ref
 305:Generated_Source\PSoC6\pdl\drivers/peripheral/gpio/cy_gpio.h **** #define CY_GPIO_VOH_SEL_MASK                   (0x07UL)   /**< Single SIO pin mask for VOH */
 306:Generated_Source\PSoC6\pdl\drivers/peripheral/gpio/cy_gpio.h **** #define CY_GPIO_VOH_SEL_SHIFT                  (0x05UL)   /**< Single SIO pin shift for VOH */
 307:Generated_Source\PSoC6\pdl\drivers/peripheral/gpio/cy_gpio.h **** 
 308:Generated_Source\PSoC6\pdl\drivers/peripheral/gpio/cy_gpio.h **** /* Special mask for SIO pin pair setting */
 309:Generated_Source\PSoC6\pdl\drivers/peripheral/gpio/cy_gpio.h **** #define CY_GPIO_SIO_ODD_PIN_MASK               (0x00FEUL) /**< SIO pin pair selection mask */
 310:Generated_Source\PSoC6\pdl\drivers/peripheral/gpio/cy_gpio.h **** #define CY_GPIO_SIO_PIN_MASK                   (0x00FFUL) /**< SIO pin pair mask */
 311:Generated_Source\PSoC6\pdl\drivers/peripheral/gpio/cy_gpio.h **** 
 312:Generated_Source\PSoC6\pdl\drivers/peripheral/gpio/cy_gpio.h **** /* Offsets */
 313:Generated_Source\PSoC6\pdl\drivers/peripheral/gpio/cy_gpio.h **** #define CY_GPIO_HSIOM_OFFSET                   (3UL)      /**< Offset for HSIOM */
 314:Generated_Source\PSoC6\pdl\drivers/peripheral/gpio/cy_gpio.h **** #define CY_GPIO_DRIVE_MODE_OFFSET              (2UL)      /**< Offset for Drive mode */
 315:Generated_Source\PSoC6\pdl\drivers/peripheral/gpio/cy_gpio.h **** #define CY_GPIO_INBUF_OFFSET                   (3UL)      /**< Offset for input buffer */
 316:Generated_Source\PSoC6\pdl\drivers/peripheral/gpio/cy_gpio.h **** #define CY_GPIO_CFG_OUT_DRIVE_OFFSET           (16UL)     /**< Offset for drive strength */
 317:Generated_Source\PSoC6\pdl\drivers/peripheral/gpio/cy_gpio.h **** #define CY_GPIO_INTR_CFG_OFFSET                (1UL)      /**< Offset for interrupt config */
 318:Generated_Source\PSoC6\pdl\drivers/peripheral/gpio/cy_gpio.h **** #define CY_GPIO_INTR_FILT_OFFSET               (18UL)     /**< Offset for filtered interrupt config
 319:Generated_Source\PSoC6\pdl\drivers/peripheral/gpio/cy_gpio.h **** #define CY_GPIO_CFG_SIO_OFFSET                 (2UL)      /**< Offset for SIO config */
 320:Generated_Source\PSoC6\pdl\drivers/peripheral/gpio/cy_gpio.h **** 
 321:Generated_Source\PSoC6\pdl\drivers/peripheral/gpio/cy_gpio.h **** /* Parameter validation constants */
 322:Generated_Source\PSoC6\pdl\drivers/peripheral/gpio/cy_gpio.h **** #define CY_GPIO_PINS_MAX                       (8UL)      /**< Number of pins in the port */
 323:Generated_Source\PSoC6\pdl\drivers/peripheral/gpio/cy_gpio.h **** #define CY_GPIO_PRT_PINS_MASK                  (0x0000000FFUL)
 324:Generated_Source\PSoC6\pdl\drivers/peripheral/gpio/cy_gpio.h **** #define CY_GPIO_PRT_INTR_CFG_EDGE_SEL_MASK     (GPIO_PRT_INTR_CFG_EDGE0_SEL_Msk | \
 325:Generated_Source\PSoC6\pdl\drivers/peripheral/gpio/cy_gpio.h ****                                                 GPIO_PRT_INTR_CFG_EDGE1_SEL_Msk | \
 326:Generated_Source\PSoC6\pdl\drivers/peripheral/gpio/cy_gpio.h ****                                                 GPIO_PRT_INTR_CFG_EDGE2_SEL_Msk | \
 327:Generated_Source\PSoC6\pdl\drivers/peripheral/gpio/cy_gpio.h ****                                                 GPIO_PRT_INTR_CFG_EDGE3_SEL_Msk | \
 328:Generated_Source\PSoC6\pdl\drivers/peripheral/gpio/cy_gpio.h ****                                                 GPIO_PRT_INTR_CFG_EDGE4_SEL_Msk | \
 329:Generated_Source\PSoC6\pdl\drivers/peripheral/gpio/cy_gpio.h ****                                                 GPIO_PRT_INTR_CFG_EDGE5_SEL_Msk | \
 330:Generated_Source\PSoC6\pdl\drivers/peripheral/gpio/cy_gpio.h ****                                                 GPIO_PRT_INTR_CFG_EDGE6_SEL_Msk | \
 331:Generated_Source\PSoC6\pdl\drivers/peripheral/gpio/cy_gpio.h ****                                                 GPIO_PRT_INTR_CFG_EDGE7_SEL_Msk)
 332:Generated_Source\PSoC6\pdl\drivers/peripheral/gpio/cy_gpio.h **** #define CY_GPIO_PRT_INTR_CFG_RANGE_MASK        (CY_GPIO_PRT_INTR_CFG_EDGE_SEL_MASK | \
 333:Generated_Source\PSoC6\pdl\drivers/peripheral/gpio/cy_gpio.h ****                                                 GPIO_PRT_INTR_CFG_FLT_EDGE_SEL_Msk | \
 334:Generated_Source\PSoC6\pdl\drivers/peripheral/gpio/cy_gpio.h ****                                                 GPIO_PRT_INTR_CFG_FLT_SEL_Msk)
 335:Generated_Source\PSoC6\pdl\drivers/peripheral/gpio/cy_gpio.h **** #define CY_GPIO_PRT_INT_MASK_MASK              (0x0000001FFUL)
 336:Generated_Source\PSoC6\pdl\drivers/peripheral/gpio/cy_gpio.h **** #define CY_GPIO_PRT_SEL_ACTIVE_MASK            (0x1FFFFFFFUL)
 337:Generated_Source\PSoC6\pdl\drivers/peripheral/gpio/cy_gpio.h **** 
 338:Generated_Source\PSoC6\pdl\drivers/peripheral/gpio/cy_gpio.h **** #define GPIO_MAX_SPLIT_CELL_SEGMENTS           (9U)
 339:Generated_Source\PSoC6\pdl\drivers/peripheral/gpio/cy_gpio.h **** 
 340:Generated_Source\PSoC6\pdl\drivers/peripheral/gpio/cy_gpio.h **** /* Parameter validation macros */
 341:Generated_Source\PSoC6\pdl\drivers/peripheral/gpio/cy_gpio.h **** #define CY_GPIO_IS_PIN_VALID(pinNum)           (CY_GPIO_PINS_MAX > (pinNum))
 342:Generated_Source\PSoC6\pdl\drivers/peripheral/gpio/cy_gpio.h **** #define CY_GPIO_IS_FILTER_PIN_VALID(pinNum)    (CY_GPIO_PINS_MAX >= (pinNum))
 343:Generated_Source\PSoC6\pdl\drivers/peripheral/gpio/cy_gpio.h **** #define CY_GPIO_IS_VALUE_VALID(outVal)         (1UL >= (outVal))
 344:Generated_Source\PSoC6\pdl\drivers/peripheral/gpio/cy_gpio.h **** #define CY_GPIO_IS_DM_VALID(driveMode)         (0U == ((driveMode) & (uint32_t)~CY_GPIO_CFG_DM_MASK
 345:Generated_Source\PSoC6\pdl\drivers/peripheral/gpio/cy_gpio.h **** 
 346:Generated_Source\PSoC6\pdl\drivers/peripheral/gpio/cy_gpio.h **** #define CY_GPIO_IS_HSIOM_VALID(hsiom)          (0U == ((hsiom) & (uint32_t)~CY_GPIO_HSIOM_MASK))
 347:Generated_Source\PSoC6\pdl\drivers/peripheral/gpio/cy_gpio.h **** 
 348:Generated_Source\PSoC6\pdl\drivers/peripheral/gpio/cy_gpio.h **** #define CY_GPIO_IS_INT_EDGE_VALID(intEdge)     ((CY_GPIO_INTR_DISABLE  == (intEdge)) || \
 349:Generated_Source\PSoC6\pdl\drivers/peripheral/gpio/cy_gpio.h ****                                                 (CY_GPIO_INTR_RISING   == (intEdge)) || \
 350:Generated_Source\PSoC6\pdl\drivers/peripheral/gpio/cy_gpio.h ****                                                 (CY_GPIO_INTR_FALLING  == (intEdge)) || \
ARM GAS  C:\Users\vicpa\AppData\Local\Temp\ccqS0gg1.s 			page 35


 351:Generated_Source\PSoC6\pdl\drivers/peripheral/gpio/cy_gpio.h ****                                                 (CY_GPIO_INTR_BOTH     == (intEdge)))
 352:Generated_Source\PSoC6\pdl\drivers/peripheral/gpio/cy_gpio.h **** 
 353:Generated_Source\PSoC6\pdl\drivers/peripheral/gpio/cy_gpio.h **** #define CY_GPIO_IS_DRIVE_SEL_VALID(driveSel)   ((CY_GPIO_DRIVE_FULL    == (driveSel)) || \
 354:Generated_Source\PSoC6\pdl\drivers/peripheral/gpio/cy_gpio.h ****                                                 (CY_GPIO_DRIVE_1_2     == (driveSel)) || \
 355:Generated_Source\PSoC6\pdl\drivers/peripheral/gpio/cy_gpio.h ****                                                 (CY_GPIO_DRIVE_1_4     == (driveSel)) || \
 356:Generated_Source\PSoC6\pdl\drivers/peripheral/gpio/cy_gpio.h ****                                                 (CY_GPIO_DRIVE_1_8     == (driveSel)))
 357:Generated_Source\PSoC6\pdl\drivers/peripheral/gpio/cy_gpio.h **** 
 358:Generated_Source\PSoC6\pdl\drivers/peripheral/gpio/cy_gpio.h **** #define CY_GPIO_IS_VREF_SEL_VALID(vrefSel)     ((CY_SIO_VREF_PINREF    == (vrefSel)) || \
 359:Generated_Source\PSoC6\pdl\drivers/peripheral/gpio/cy_gpio.h ****                                                 (CY_SIO_VREF_1_2V      == (vrefSel)) || \
 360:Generated_Source\PSoC6\pdl\drivers/peripheral/gpio/cy_gpio.h ****                                                 (CY_SIO_VREF_AMUX_A    == (vrefSel)) || \
 361:Generated_Source\PSoC6\pdl\drivers/peripheral/gpio/cy_gpio.h ****                                                 (CY_SIO_VREF_AMUX_B    == (vrefSel)))
 362:Generated_Source\PSoC6\pdl\drivers/peripheral/gpio/cy_gpio.h **** 
 363:Generated_Source\PSoC6\pdl\drivers/peripheral/gpio/cy_gpio.h **** #define CY_GPIO_IS_VOH_SEL_VALID(vrefSel)      ((CY_SIO_VOH_1_00       == (vrefSel)) || \
 364:Generated_Source\PSoC6\pdl\drivers/peripheral/gpio/cy_gpio.h ****                                                 (CY_SIO_VOH_1_25       == (vrefSel)) || \
 365:Generated_Source\PSoC6\pdl\drivers/peripheral/gpio/cy_gpio.h ****                                                 (CY_SIO_VOH_1_49       == (vrefSel)) || \
 366:Generated_Source\PSoC6\pdl\drivers/peripheral/gpio/cy_gpio.h ****                                                 (CY_SIO_VOH_1_67       == (vrefSel)) || \
 367:Generated_Source\PSoC6\pdl\drivers/peripheral/gpio/cy_gpio.h ****                                                 (CY_SIO_VOH_2_08       == (vrefSel)) || \
 368:Generated_Source\PSoC6\pdl\drivers/peripheral/gpio/cy_gpio.h ****                                                 (CY_SIO_VOH_2_50       == (vrefSel)) || \
 369:Generated_Source\PSoC6\pdl\drivers/peripheral/gpio/cy_gpio.h ****                                                 (CY_SIO_VOH_2_78       == (vrefSel)) || \
 370:Generated_Source\PSoC6\pdl\drivers/peripheral/gpio/cy_gpio.h ****                                                 (CY_SIO_VOH_4_16       == (vrefSel)))
 371:Generated_Source\PSoC6\pdl\drivers/peripheral/gpio/cy_gpio.h ****                    
 372:Generated_Source\PSoC6\pdl\drivers/peripheral/gpio/cy_gpio.h **** #define CY_GPIO_IS_PIN_BIT_VALID(pinBit)       (0U == ((pinBit) & (uint32_t)~CY_GPIO_PRT_PINS_MASK)
 373:Generated_Source\PSoC6\pdl\drivers/peripheral/gpio/cy_gpio.h **** #define CY_GPIO_IS_INTR_CFG_VALID(intrCfg)     (0U == ((intrCfg) & (uint32_t)~CY_GPIO_PRT_INTR_CFG_
 374:Generated_Source\PSoC6\pdl\drivers/peripheral/gpio/cy_gpio.h **** #define CY_GPIO_IS_INTR_MASK_VALID(intrMask)   (0U == ((intrMask) & (uint32_t)~CY_GPIO_PRT_INT_MASK
 375:Generated_Source\PSoC6\pdl\drivers/peripheral/gpio/cy_gpio.h **** #define CY_GPIO_IS_SEL_ACT_VALID(selActive)    (0U == ((selActive) & (uint32_t)~CY_GPIO_PRT_SEL_ACT
 376:Generated_Source\PSoC6\pdl\drivers/peripheral/gpio/cy_gpio.h **** 
 377:Generated_Source\PSoC6\pdl\drivers/peripheral/gpio/cy_gpio.h **** #define CY_GPIO_IS_AMUX_SPLIT_VALID(switchCtrl)       (((uint32_t) (switchCtrl)) < GPIO_MAX_SPLIT_C
 378:Generated_Source\PSoC6\pdl\drivers/peripheral/gpio/cy_gpio.h **** 
 379:Generated_Source\PSoC6\pdl\drivers/peripheral/gpio/cy_gpio.h **** #define CY_GPIO_IS_AMUX_CONNECT_VALID(amuxConnect)    ((CY_GPIO_AMUX_OPENALL == (amuxConnect)) || \
 380:Generated_Source\PSoC6\pdl\drivers/peripheral/gpio/cy_gpio.h ****                                                        (CY_GPIO_AMUX_L       == (amuxConnect)) || \
 381:Generated_Source\PSoC6\pdl\drivers/peripheral/gpio/cy_gpio.h ****                                                        (CY_GPIO_AMUX_R       == (amuxConnect)) || \
 382:Generated_Source\PSoC6\pdl\drivers/peripheral/gpio/cy_gpio.h ****                                                        (CY_GPIO_AMUX_LR      == (amuxConnect)) || \
 383:Generated_Source\PSoC6\pdl\drivers/peripheral/gpio/cy_gpio.h ****                                                        (CY_GPIO_AMUX_G       == (amuxConnect)) || \
 384:Generated_Source\PSoC6\pdl\drivers/peripheral/gpio/cy_gpio.h ****                                                        (CY_GPIO_AMUX_GL      == (amuxConnect)) || \
 385:Generated_Source\PSoC6\pdl\drivers/peripheral/gpio/cy_gpio.h ****                                                        (CY_GPIO_AMUX_GR      == (amuxConnect)) || \
 386:Generated_Source\PSoC6\pdl\drivers/peripheral/gpio/cy_gpio.h ****                                                        (CY_GPIO_AMUX_GLR     == (amuxConnect)))
 387:Generated_Source\PSoC6\pdl\drivers/peripheral/gpio/cy_gpio.h **** 
 388:Generated_Source\PSoC6\pdl\drivers/peripheral/gpio/cy_gpio.h **** #define CY_GPIO_IS_AMUX_SELECT_VALID(amuxBus)       ((CY_GPIO_AMUXBUSA       == (amuxBus)) || \
 389:Generated_Source\PSoC6\pdl\drivers/peripheral/gpio/cy_gpio.h ****                                                      (CY_GPIO_AMUXBUSB       == (amuxBus)))
 390:Generated_Source\PSoC6\pdl\drivers/peripheral/gpio/cy_gpio.h **** /** \endcond */
 391:Generated_Source\PSoC6\pdl\drivers/peripheral/gpio/cy_gpio.h **** 
 392:Generated_Source\PSoC6\pdl\drivers/peripheral/gpio/cy_gpio.h **** 
 393:Generated_Source\PSoC6\pdl\drivers/peripheral/gpio/cy_gpio.h **** /***************************************
 394:Generated_Source\PSoC6\pdl\drivers/peripheral/gpio/cy_gpio.h **** *        Function Constants
 395:Generated_Source\PSoC6\pdl\drivers/peripheral/gpio/cy_gpio.h **** ***************************************/
 396:Generated_Source\PSoC6\pdl\drivers/peripheral/gpio/cy_gpio.h **** 
 397:Generated_Source\PSoC6\pdl\drivers/peripheral/gpio/cy_gpio.h **** /**
 398:Generated_Source\PSoC6\pdl\drivers/peripheral/gpio/cy_gpio.h **** * \addtogroup group_gpio_macros
 399:Generated_Source\PSoC6\pdl\drivers/peripheral/gpio/cy_gpio.h **** * \{
 400:Generated_Source\PSoC6\pdl\drivers/peripheral/gpio/cy_gpio.h **** */
 401:Generated_Source\PSoC6\pdl\drivers/peripheral/gpio/cy_gpio.h **** 
 402:Generated_Source\PSoC6\pdl\drivers/peripheral/gpio/cy_gpio.h **** /**
 403:Generated_Source\PSoC6\pdl\drivers/peripheral/gpio/cy_gpio.h **** * \defgroup group_gpio_driveModes Pin drive mode
 404:Generated_Source\PSoC6\pdl\drivers/peripheral/gpio/cy_gpio.h **** * \{
 405:Generated_Source\PSoC6\pdl\drivers/peripheral/gpio/cy_gpio.h **** * Constants to be used for setting the drive mode of the pin.
 406:Generated_Source\PSoC6\pdl\drivers/peripheral/gpio/cy_gpio.h **** */
 407:Generated_Source\PSoC6\pdl\drivers/peripheral/gpio/cy_gpio.h **** #define CY_GPIO_DM_ANALOG                      (0x00UL) /**< Analog High-Z. Input buffer off */
ARM GAS  C:\Users\vicpa\AppData\Local\Temp\ccqS0gg1.s 			page 36


 408:Generated_Source\PSoC6\pdl\drivers/peripheral/gpio/cy_gpio.h **** #define CY_GPIO_DM_PULLUP_IN_OFF               (0x02UL) /**< Resistive Pull-Up. Input buffer off */
 409:Generated_Source\PSoC6\pdl\drivers/peripheral/gpio/cy_gpio.h **** #define CY_GPIO_DM_PULLDOWN_IN_OFF             (0x03UL) /**< Resistive Pull-Down. Input buffer off 
 410:Generated_Source\PSoC6\pdl\drivers/peripheral/gpio/cy_gpio.h **** #define CY_GPIO_DM_OD_DRIVESLOW_IN_OFF         (0x04UL) /**< Open Drain, Drives Low. Input buffer o
 411:Generated_Source\PSoC6\pdl\drivers/peripheral/gpio/cy_gpio.h **** #define CY_GPIO_DM_OD_DRIVESHIGH_IN_OFF        (0x05UL) /**< Open Drain, Drives High. Input buffer 
 412:Generated_Source\PSoC6\pdl\drivers/peripheral/gpio/cy_gpio.h **** #define CY_GPIO_DM_STRONG_IN_OFF               (0x06UL) /**< Strong Drive. Input buffer off */
 413:Generated_Source\PSoC6\pdl\drivers/peripheral/gpio/cy_gpio.h **** #define CY_GPIO_DM_PULLUP_DOWN_IN_OFF          (0x07UL) /**< Resistive Pull-Up/Down. Input buffer o
 414:Generated_Source\PSoC6\pdl\drivers/peripheral/gpio/cy_gpio.h **** #define CY_GPIO_DM_HIGHZ                       (0x08UL) /**< Digital High-Z. Input buffer on */
 415:Generated_Source\PSoC6\pdl\drivers/peripheral/gpio/cy_gpio.h **** #define CY_GPIO_DM_PULLUP                      (0x0AUL) /**< Resistive Pull-Up. Input buffer on */
 416:Generated_Source\PSoC6\pdl\drivers/peripheral/gpio/cy_gpio.h **** #define CY_GPIO_DM_PULLDOWN                    (0x0BUL) /**< Resistive Pull-Down. Input buffer on *
 417:Generated_Source\PSoC6\pdl\drivers/peripheral/gpio/cy_gpio.h **** #define CY_GPIO_DM_OD_DRIVESLOW                (0x0CUL) /**< Open Drain, Drives Low. Input buffer o
 418:Generated_Source\PSoC6\pdl\drivers/peripheral/gpio/cy_gpio.h **** #define CY_GPIO_DM_OD_DRIVESHIGH               (0x0DUL) /**< Open Drain, Drives High. Input buffer 
 419:Generated_Source\PSoC6\pdl\drivers/peripheral/gpio/cy_gpio.h **** #define CY_GPIO_DM_STRONG                      (0x0EUL) /**< Strong Drive. Input buffer on */
 420:Generated_Source\PSoC6\pdl\drivers/peripheral/gpio/cy_gpio.h **** #define CY_GPIO_DM_PULLUP_DOWN                 (0x0FUL) /**< Resistive Pull-Up/Down. Input buffer o
 421:Generated_Source\PSoC6\pdl\drivers/peripheral/gpio/cy_gpio.h **** /** \} */
 422:Generated_Source\PSoC6\pdl\drivers/peripheral/gpio/cy_gpio.h **** 
 423:Generated_Source\PSoC6\pdl\drivers/peripheral/gpio/cy_gpio.h **** /**
 424:Generated_Source\PSoC6\pdl\drivers/peripheral/gpio/cy_gpio.h **** * \defgroup group_gpio_vtrip Voltage trip mode
 425:Generated_Source\PSoC6\pdl\drivers/peripheral/gpio/cy_gpio.h **** * \{
 426:Generated_Source\PSoC6\pdl\drivers/peripheral/gpio/cy_gpio.h **** * Constants to be used for setting the voltage trip type on the pin.
 427:Generated_Source\PSoC6\pdl\drivers/peripheral/gpio/cy_gpio.h **** */
 428:Generated_Source\PSoC6\pdl\drivers/peripheral/gpio/cy_gpio.h **** #define CY_GPIO_VTRIP_CMOS                     (0x00UL) /**< Input buffer compatible with CMOS and 
 429:Generated_Source\PSoC6\pdl\drivers/peripheral/gpio/cy_gpio.h **** #define CY_GPIO_VTRIP_TTL                      (0x01UL) /**< Input buffer compatible with TTL and M
 430:Generated_Source\PSoC6\pdl\drivers/peripheral/gpio/cy_gpio.h **** /** \} */
 431:Generated_Source\PSoC6\pdl\drivers/peripheral/gpio/cy_gpio.h **** 
 432:Generated_Source\PSoC6\pdl\drivers/peripheral/gpio/cy_gpio.h **** /**
 433:Generated_Source\PSoC6\pdl\drivers/peripheral/gpio/cy_gpio.h **** * \defgroup group_gpio_slewRate Slew Rate Mode
 434:Generated_Source\PSoC6\pdl\drivers/peripheral/gpio/cy_gpio.h **** * \{
 435:Generated_Source\PSoC6\pdl\drivers/peripheral/gpio/cy_gpio.h **** * Constants to be used for setting the slew rate of the pin.
 436:Generated_Source\PSoC6\pdl\drivers/peripheral/gpio/cy_gpio.h **** */
 437:Generated_Source\PSoC6\pdl\drivers/peripheral/gpio/cy_gpio.h **** #define CY_GPIO_SLEW_FAST                      (0x00UL) /**< Fast slew rate */
 438:Generated_Source\PSoC6\pdl\drivers/peripheral/gpio/cy_gpio.h **** #define CY_GPIO_SLEW_SLOW                      (0x01UL) /**< Slow slew rate */
 439:Generated_Source\PSoC6\pdl\drivers/peripheral/gpio/cy_gpio.h **** /** \} */
 440:Generated_Source\PSoC6\pdl\drivers/peripheral/gpio/cy_gpio.h **** 
 441:Generated_Source\PSoC6\pdl\drivers/peripheral/gpio/cy_gpio.h **** /**
 442:Generated_Source\PSoC6\pdl\drivers/peripheral/gpio/cy_gpio.h **** * \defgroup group_gpio_driveStrength Pin drive strength
 443:Generated_Source\PSoC6\pdl\drivers/peripheral/gpio/cy_gpio.h **** * \{
 444:Generated_Source\PSoC6\pdl\drivers/peripheral/gpio/cy_gpio.h **** * Constants to be used for setting the drive strength of the pin.
 445:Generated_Source\PSoC6\pdl\drivers/peripheral/gpio/cy_gpio.h **** */
 446:Generated_Source\PSoC6\pdl\drivers/peripheral/gpio/cy_gpio.h **** #define CY_GPIO_DRIVE_FULL                     (0x00UL) /**< Full drive strength: Max drive current
 447:Generated_Source\PSoC6\pdl\drivers/peripheral/gpio/cy_gpio.h **** #define CY_GPIO_DRIVE_1_2                      (0x01UL) /**< 1/2 drive strength: 1/2 drive current 
 448:Generated_Source\PSoC6\pdl\drivers/peripheral/gpio/cy_gpio.h **** #define CY_GPIO_DRIVE_1_4                      (0x02UL) /**< 1/4 drive strength: 1/4 drive current 
 449:Generated_Source\PSoC6\pdl\drivers/peripheral/gpio/cy_gpio.h **** #define CY_GPIO_DRIVE_1_8                      (0x03UL) /**< 1/8 drive strength: 1/8 drive current 
 450:Generated_Source\PSoC6\pdl\drivers/peripheral/gpio/cy_gpio.h **** /** \} */
 451:Generated_Source\PSoC6\pdl\drivers/peripheral/gpio/cy_gpio.h **** 
 452:Generated_Source\PSoC6\pdl\drivers/peripheral/gpio/cy_gpio.h **** /**
 453:Generated_Source\PSoC6\pdl\drivers/peripheral/gpio/cy_gpio.h **** * \defgroup group_gpio_interruptTrigger Interrupt trigger type
 454:Generated_Source\PSoC6\pdl\drivers/peripheral/gpio/cy_gpio.h **** * \{
 455:Generated_Source\PSoC6\pdl\drivers/peripheral/gpio/cy_gpio.h **** * Constants to be used for setting the interrupt trigger type on the pin.
 456:Generated_Source\PSoC6\pdl\drivers/peripheral/gpio/cy_gpio.h **** */
 457:Generated_Source\PSoC6\pdl\drivers/peripheral/gpio/cy_gpio.h **** #define CY_GPIO_INTR_DISABLE                   (0x00UL) /**< Disable the pin interrupt generation *
 458:Generated_Source\PSoC6\pdl\drivers/peripheral/gpio/cy_gpio.h **** #define CY_GPIO_INTR_RISING                    (0x01UL) /**< Rising-Edge interrupt */
 459:Generated_Source\PSoC6\pdl\drivers/peripheral/gpio/cy_gpio.h **** #define CY_GPIO_INTR_FALLING                   (0x02UL) /**< Falling-Edge interrupt */
 460:Generated_Source\PSoC6\pdl\drivers/peripheral/gpio/cy_gpio.h **** #define CY_GPIO_INTR_BOTH                      (0x03UL) /**< Both-Edge interrupt */
 461:Generated_Source\PSoC6\pdl\drivers/peripheral/gpio/cy_gpio.h **** /** \} */
 462:Generated_Source\PSoC6\pdl\drivers/peripheral/gpio/cy_gpio.h **** 
 463:Generated_Source\PSoC6\pdl\drivers/peripheral/gpio/cy_gpio.h **** /**
 464:Generated_Source\PSoC6\pdl\drivers/peripheral/gpio/cy_gpio.h **** * \defgroup group_gpio_sioVreg SIO output buffer mode
ARM GAS  C:\Users\vicpa\AppData\Local\Temp\ccqS0gg1.s 			page 37


 465:Generated_Source\PSoC6\pdl\drivers/peripheral/gpio/cy_gpio.h **** * \{
 466:Generated_Source\PSoC6\pdl\drivers/peripheral/gpio/cy_gpio.h **** * Constants to be used for setting the SIO output buffer mode on the pin.
 467:Generated_Source\PSoC6\pdl\drivers/peripheral/gpio/cy_gpio.h **** */
 468:Generated_Source\PSoC6\pdl\drivers/peripheral/gpio/cy_gpio.h **** #define CY_SIO_VREG_UNREGULATED                (0x00UL) /**< Unregulated output buffer */
 469:Generated_Source\PSoC6\pdl\drivers/peripheral/gpio/cy_gpio.h **** #define CY_SIO_VREG_REGULATED                  (0x01UL) /**< Regulated output buffer */
 470:Generated_Source\PSoC6\pdl\drivers/peripheral/gpio/cy_gpio.h **** /** \} */
 471:Generated_Source\PSoC6\pdl\drivers/peripheral/gpio/cy_gpio.h **** 
 472:Generated_Source\PSoC6\pdl\drivers/peripheral/gpio/cy_gpio.h **** /**
 473:Generated_Source\PSoC6\pdl\drivers/peripheral/gpio/cy_gpio.h **** * \defgroup group_gpio_sioIbuf SIO input buffer mode
 474:Generated_Source\PSoC6\pdl\drivers/peripheral/gpio/cy_gpio.h **** * \{
 475:Generated_Source\PSoC6\pdl\drivers/peripheral/gpio/cy_gpio.h **** * Constants to be used for setting the SIO input buffer mode on the pin.
 476:Generated_Source\PSoC6\pdl\drivers/peripheral/gpio/cy_gpio.h **** */
 477:Generated_Source\PSoC6\pdl\drivers/peripheral/gpio/cy_gpio.h **** #define CY_SIO_IBUF_SINGLEENDED                (0x00UL) /**< Single ended input buffer */
 478:Generated_Source\PSoC6\pdl\drivers/peripheral/gpio/cy_gpio.h **** #define CY_SIO_IBUF_DIFFERENTIAL               (0x01UL) /**< Differential input buffer */
 479:Generated_Source\PSoC6\pdl\drivers/peripheral/gpio/cy_gpio.h **** /** \} */
 480:Generated_Source\PSoC6\pdl\drivers/peripheral/gpio/cy_gpio.h **** 
 481:Generated_Source\PSoC6\pdl\drivers/peripheral/gpio/cy_gpio.h **** /**
 482:Generated_Source\PSoC6\pdl\drivers/peripheral/gpio/cy_gpio.h **** * \defgroup group_gpio_sioVtrip SIO input buffer trip-point
 483:Generated_Source\PSoC6\pdl\drivers/peripheral/gpio/cy_gpio.h **** * \{
 484:Generated_Source\PSoC6\pdl\drivers/peripheral/gpio/cy_gpio.h **** * Constants to be used for setting the SIO input buffer trip-point of the pin.
 485:Generated_Source\PSoC6\pdl\drivers/peripheral/gpio/cy_gpio.h **** */
 486:Generated_Source\PSoC6\pdl\drivers/peripheral/gpio/cy_gpio.h **** #define CY_SIO_VTRIP_CMOS                      (0x00UL) /**< CMOS input buffer (single-ended) */
 487:Generated_Source\PSoC6\pdl\drivers/peripheral/gpio/cy_gpio.h **** #define CY_SIO_VTRIP_TTL                       (0x01UL) /**< TTL input buffer (single-ended) */
 488:Generated_Source\PSoC6\pdl\drivers/peripheral/gpio/cy_gpio.h **** #define CY_SIO_VTRIP_0_5VDDIO_0_5VOH           (0x00UL) /**< 0.5xVddio or 0.5xVoh (differential) */
 489:Generated_Source\PSoC6\pdl\drivers/peripheral/gpio/cy_gpio.h **** #define CY_SIO_VTRIP_0_4VDDIO_1_0VREF          (0x01UL) /**< 0.4xVddio or 0.4xVoh (differential) */
 490:Generated_Source\PSoC6\pdl\drivers/peripheral/gpio/cy_gpio.h **** /** \} */
 491:Generated_Source\PSoC6\pdl\drivers/peripheral/gpio/cy_gpio.h **** 
 492:Generated_Source\PSoC6\pdl\drivers/peripheral/gpio/cy_gpio.h **** /**
 493:Generated_Source\PSoC6\pdl\drivers/peripheral/gpio/cy_gpio.h **** * \defgroup group_gpio_sioVref SIO reference voltage for input buffer trip-point
 494:Generated_Source\PSoC6\pdl\drivers/peripheral/gpio/cy_gpio.h **** * \{
 495:Generated_Source\PSoC6\pdl\drivers/peripheral/gpio/cy_gpio.h **** * Constants to be used for setting the reference voltage of SIO input buffer trip-point.
 496:Generated_Source\PSoC6\pdl\drivers/peripheral/gpio/cy_gpio.h **** */
 497:Generated_Source\PSoC6\pdl\drivers/peripheral/gpio/cy_gpio.h **** #define CY_SIO_VREF_PINREF                     (0x00UL) /**< Vref from analog pin */
 498:Generated_Source\PSoC6\pdl\drivers/peripheral/gpio/cy_gpio.h **** #define CY_SIO_VREF_1_2V                       (0x01UL) /**< Vref from internal 1.2V reference */
 499:Generated_Source\PSoC6\pdl\drivers/peripheral/gpio/cy_gpio.h **** #define CY_SIO_VREF_AMUX_A                     (0x02UL) /**< Vref from AMUXBUS_A */
 500:Generated_Source\PSoC6\pdl\drivers/peripheral/gpio/cy_gpio.h **** #define CY_SIO_VREF_AMUX_B                     (0x03UL) /**< Vref from AMUXBUS_B */
 501:Generated_Source\PSoC6\pdl\drivers/peripheral/gpio/cy_gpio.h **** /** \} */
 502:Generated_Source\PSoC6\pdl\drivers/peripheral/gpio/cy_gpio.h **** 
 503:Generated_Source\PSoC6\pdl\drivers/peripheral/gpio/cy_gpio.h **** /**
 504:Generated_Source\PSoC6\pdl\drivers/peripheral/gpio/cy_gpio.h **** * \defgroup group_gpio_sioVoh Regulated output voltage level (Voh) and input buffer trip-point of a
 505:Generated_Source\PSoC6\pdl\drivers/peripheral/gpio/cy_gpio.h **** * \{
 506:Generated_Source\PSoC6\pdl\drivers/peripheral/gpio/cy_gpio.h **** * Constants to be used for setting the Voh and input buffer trip-point of an SIO pair
 507:Generated_Source\PSoC6\pdl\drivers/peripheral/gpio/cy_gpio.h **** */
 508:Generated_Source\PSoC6\pdl\drivers/peripheral/gpio/cy_gpio.h **** #define CY_SIO_VOH_1_00                        (0x00UL) /**< Voh = 1 x Reference */
 509:Generated_Source\PSoC6\pdl\drivers/peripheral/gpio/cy_gpio.h **** #define CY_SIO_VOH_1_25                        (0x01UL) /**< Voh = 1.25 x Reference */
 510:Generated_Source\PSoC6\pdl\drivers/peripheral/gpio/cy_gpio.h **** #define CY_SIO_VOH_1_49                        (0x02UL) /**< Voh = 1.49 x Reference */
 511:Generated_Source\PSoC6\pdl\drivers/peripheral/gpio/cy_gpio.h **** #define CY_SIO_VOH_1_67                        (0x03UL) /**< Voh = 1.67 x Reference */
 512:Generated_Source\PSoC6\pdl\drivers/peripheral/gpio/cy_gpio.h **** #define CY_SIO_VOH_2_08                        (0x04UL) /**< Voh = 2.08 x Reference */
 513:Generated_Source\PSoC6\pdl\drivers/peripheral/gpio/cy_gpio.h **** #define CY_SIO_VOH_2_50                        (0x05UL) /**< Voh = 2.50 x Reference */
 514:Generated_Source\PSoC6\pdl\drivers/peripheral/gpio/cy_gpio.h **** #define CY_SIO_VOH_2_78                        (0x06UL) /**< Voh = 2.78 x Reference */
 515:Generated_Source\PSoC6\pdl\drivers/peripheral/gpio/cy_gpio.h **** #define CY_SIO_VOH_4_16                        (0x07UL) /**< Voh = 4.16 x Reference */
 516:Generated_Source\PSoC6\pdl\drivers/peripheral/gpio/cy_gpio.h **** /** \} */
 517:Generated_Source\PSoC6\pdl\drivers/peripheral/gpio/cy_gpio.h **** 
 518:Generated_Source\PSoC6\pdl\drivers/peripheral/gpio/cy_gpio.h **** /** \} group_gpio_macros */
 519:Generated_Source\PSoC6\pdl\drivers/peripheral/gpio/cy_gpio.h **** 
 520:Generated_Source\PSoC6\pdl\drivers/peripheral/gpio/cy_gpio.h **** /***************************************
 521:Generated_Source\PSoC6\pdl\drivers/peripheral/gpio/cy_gpio.h **** *        Function Prototypes
ARM GAS  C:\Users\vicpa\AppData\Local\Temp\ccqS0gg1.s 			page 38


 522:Generated_Source\PSoC6\pdl\drivers/peripheral/gpio/cy_gpio.h **** ***************************************/
 523:Generated_Source\PSoC6\pdl\drivers/peripheral/gpio/cy_gpio.h **** 
 524:Generated_Source\PSoC6\pdl\drivers/peripheral/gpio/cy_gpio.h **** /**
 525:Generated_Source\PSoC6\pdl\drivers/peripheral/gpio/cy_gpio.h **** * \addtogroup group_gpio_functions
 526:Generated_Source\PSoC6\pdl\drivers/peripheral/gpio/cy_gpio.h **** * \{
 527:Generated_Source\PSoC6\pdl\drivers/peripheral/gpio/cy_gpio.h **** */
 528:Generated_Source\PSoC6\pdl\drivers/peripheral/gpio/cy_gpio.h **** 
 529:Generated_Source\PSoC6\pdl\drivers/peripheral/gpio/cy_gpio.h **** /**
 530:Generated_Source\PSoC6\pdl\drivers/peripheral/gpio/cy_gpio.h **** * \addtogroup group_gpio_functions_init
 531:Generated_Source\PSoC6\pdl\drivers/peripheral/gpio/cy_gpio.h **** * \{
 532:Generated_Source\PSoC6\pdl\drivers/peripheral/gpio/cy_gpio.h **** */
 533:Generated_Source\PSoC6\pdl\drivers/peripheral/gpio/cy_gpio.h **** 
 534:Generated_Source\PSoC6\pdl\drivers/peripheral/gpio/cy_gpio.h **** cy_en_gpio_status_t Cy_GPIO_Pin_Init(GPIO_PRT_Type* base, uint32_t pinNum, const cy_stc_gpio_pin_co
 535:Generated_Source\PSoC6\pdl\drivers/peripheral/gpio/cy_gpio.h **** cy_en_gpio_status_t Cy_GPIO_Port_Init(GPIO_PRT_Type* base, const cy_stc_gpio_prt_config_t *config);
 536:Generated_Source\PSoC6\pdl\drivers/peripheral/gpio/cy_gpio.h **** void Cy_GPIO_Pin_FastInit(GPIO_PRT_Type* base, uint32_t pinNum, uint32_t driveMode, uint32_t outVal
 537:Generated_Source\PSoC6\pdl\drivers/peripheral/gpio/cy_gpio.h **** void Cy_GPIO_Port_Deinit(GPIO_PRT_Type* base);
 538:Generated_Source\PSoC6\pdl\drivers/peripheral/gpio/cy_gpio.h **** __STATIC_INLINE void Cy_GPIO_SetHSIOM(GPIO_PRT_Type* base, uint32_t pinNum, en_hsiom_sel_t value);
 539:Generated_Source\PSoC6\pdl\drivers/peripheral/gpio/cy_gpio.h **** __STATIC_INLINE en_hsiom_sel_t Cy_GPIO_GetHSIOM(GPIO_PRT_Type* base, uint32_t pinNum);
 540:Generated_Source\PSoC6\pdl\drivers/peripheral/gpio/cy_gpio.h **** __STATIC_INLINE GPIO_PRT_Type* Cy_GPIO_PortToAddr(uint32_t portNum);
 541:Generated_Source\PSoC6\pdl\drivers/peripheral/gpio/cy_gpio.h **** 
 542:Generated_Source\PSoC6\pdl\drivers/peripheral/gpio/cy_gpio.h **** /** \} group_gpio_functions_init */
 543:Generated_Source\PSoC6\pdl\drivers/peripheral/gpio/cy_gpio.h **** 
 544:Generated_Source\PSoC6\pdl\drivers/peripheral/gpio/cy_gpio.h **** /**
 545:Generated_Source\PSoC6\pdl\drivers/peripheral/gpio/cy_gpio.h **** * \addtogroup group_gpio_functions_gpio
 546:Generated_Source\PSoC6\pdl\drivers/peripheral/gpio/cy_gpio.h **** * \{
 547:Generated_Source\PSoC6\pdl\drivers/peripheral/gpio/cy_gpio.h **** */
 548:Generated_Source\PSoC6\pdl\drivers/peripheral/gpio/cy_gpio.h **** 
 549:Generated_Source\PSoC6\pdl\drivers/peripheral/gpio/cy_gpio.h **** void Cy_GPIO_SetAmuxSplit(cy_en_amux_split_t switchCtrl, cy_en_gpio_amuxconnect_t amuxConnect, cy_e
 550:Generated_Source\PSoC6\pdl\drivers/peripheral/gpio/cy_gpio.h **** cy_en_gpio_amuxconnect_t Cy_GPIO_GetAmuxSplit(cy_en_amux_split_t switchCtrl, cy_en_gpio_amuxselect_
 551:Generated_Source\PSoC6\pdl\drivers/peripheral/gpio/cy_gpio.h **** 
 552:Generated_Source\PSoC6\pdl\drivers/peripheral/gpio/cy_gpio.h **** __STATIC_INLINE uint32_t Cy_GPIO_Read(GPIO_PRT_Type* base, uint32_t pinNum);
 553:Generated_Source\PSoC6\pdl\drivers/peripheral/gpio/cy_gpio.h **** __STATIC_INLINE void Cy_GPIO_Write(GPIO_PRT_Type* base, uint32_t pinNum, uint32_t value);
 554:Generated_Source\PSoC6\pdl\drivers/peripheral/gpio/cy_gpio.h **** __STATIC_INLINE uint32_t Cy_GPIO_ReadOut(GPIO_PRT_Type* base, uint32_t pinNum);
 555:Generated_Source\PSoC6\pdl\drivers/peripheral/gpio/cy_gpio.h **** __STATIC_INLINE void Cy_GPIO_Set(GPIO_PRT_Type* base, uint32_t pinNum);
 556:Generated_Source\PSoC6\pdl\drivers/peripheral/gpio/cy_gpio.h **** __STATIC_INLINE void Cy_GPIO_Clr(GPIO_PRT_Type* base, uint32_t pinNum);
 557:Generated_Source\PSoC6\pdl\drivers/peripheral/gpio/cy_gpio.h **** __STATIC_INLINE void Cy_GPIO_Inv(GPIO_PRT_Type* base, uint32_t pinNum);
 558:Generated_Source\PSoC6\pdl\drivers/peripheral/gpio/cy_gpio.h **** __STATIC_INLINE void Cy_GPIO_SetDrivemode(GPIO_PRT_Type* base, uint32_t pinNum, uint32_t value);
 559:Generated_Source\PSoC6\pdl\drivers/peripheral/gpio/cy_gpio.h **** __STATIC_INLINE uint32_t Cy_GPIO_GetDrivemode(GPIO_PRT_Type* base, uint32_t pinNum);
 560:Generated_Source\PSoC6\pdl\drivers/peripheral/gpio/cy_gpio.h **** __STATIC_INLINE void Cy_GPIO_SetVtrip(GPIO_PRT_Type* base, uint32_t pinNum, uint32_t value);
 561:Generated_Source\PSoC6\pdl\drivers/peripheral/gpio/cy_gpio.h **** __STATIC_INLINE uint32_t Cy_GPIO_GetVtrip(GPIO_PRT_Type* base, uint32_t pinNum);
 562:Generated_Source\PSoC6\pdl\drivers/peripheral/gpio/cy_gpio.h **** __STATIC_INLINE void Cy_GPIO_SetSlewRate(GPIO_PRT_Type* base, uint32_t pinNum, uint32_t value);
 563:Generated_Source\PSoC6\pdl\drivers/peripheral/gpio/cy_gpio.h **** __STATIC_INLINE uint32_t Cy_GPIO_GetSlewRate(GPIO_PRT_Type* base, uint32_t pinNum);
 564:Generated_Source\PSoC6\pdl\drivers/peripheral/gpio/cy_gpio.h **** __STATIC_INLINE void Cy_GPIO_SetDriveSel(GPIO_PRT_Type* base, uint32_t pinNum, uint32_t value);
 565:Generated_Source\PSoC6\pdl\drivers/peripheral/gpio/cy_gpio.h **** __STATIC_INLINE uint32_t Cy_GPIO_GetDriveSel(GPIO_PRT_Type* base, uint32_t pinNum);
 566:Generated_Source\PSoC6\pdl\drivers/peripheral/gpio/cy_gpio.h **** 
 567:Generated_Source\PSoC6\pdl\drivers/peripheral/gpio/cy_gpio.h **** /** \} group_gpio_functions_gpio */
 568:Generated_Source\PSoC6\pdl\drivers/peripheral/gpio/cy_gpio.h **** 
 569:Generated_Source\PSoC6\pdl\drivers/peripheral/gpio/cy_gpio.h **** /**
 570:Generated_Source\PSoC6\pdl\drivers/peripheral/gpio/cy_gpio.h **** * \addtogroup group_gpio_functions_sio
 571:Generated_Source\PSoC6\pdl\drivers/peripheral/gpio/cy_gpio.h **** * \{
 572:Generated_Source\PSoC6\pdl\drivers/peripheral/gpio/cy_gpio.h **** */
 573:Generated_Source\PSoC6\pdl\drivers/peripheral/gpio/cy_gpio.h **** 
 574:Generated_Source\PSoC6\pdl\drivers/peripheral/gpio/cy_gpio.h **** __STATIC_INLINE void Cy_GPIO_SetVregEn(GPIO_PRT_Type* base, uint32_t pinNum, uint32_t value);
 575:Generated_Source\PSoC6\pdl\drivers/peripheral/gpio/cy_gpio.h **** __STATIC_INLINE uint32_t Cy_GPIO_GetVregEn(GPIO_PRT_Type* base, uint32_t pinNum);
 576:Generated_Source\PSoC6\pdl\drivers/peripheral/gpio/cy_gpio.h **** __STATIC_INLINE void Cy_GPIO_SetIbufMode(GPIO_PRT_Type* base, uint32_t pinNum, uint32_t value);
 577:Generated_Source\PSoC6\pdl\drivers/peripheral/gpio/cy_gpio.h **** __STATIC_INLINE uint32_t Cy_GPIO_GetIbufMode(GPIO_PRT_Type* base, uint32_t pinNum);
 578:Generated_Source\PSoC6\pdl\drivers/peripheral/gpio/cy_gpio.h **** __STATIC_INLINE void Cy_GPIO_SetVtripSel(GPIO_PRT_Type* base, uint32_t pinNum, uint32_t value);
ARM GAS  C:\Users\vicpa\AppData\Local\Temp\ccqS0gg1.s 			page 39


 579:Generated_Source\PSoC6\pdl\drivers/peripheral/gpio/cy_gpio.h **** __STATIC_INLINE uint32_t Cy_GPIO_GetVtripSel(GPIO_PRT_Type* base, uint32_t pinNum);
 580:Generated_Source\PSoC6\pdl\drivers/peripheral/gpio/cy_gpio.h **** __STATIC_INLINE void Cy_GPIO_SetVrefSel(GPIO_PRT_Type* base, uint32_t pinNum, uint32_t value);
 581:Generated_Source\PSoC6\pdl\drivers/peripheral/gpio/cy_gpio.h **** __STATIC_INLINE uint32_t Cy_GPIO_GetVrefSel(GPIO_PRT_Type* base, uint32_t pinNum);
 582:Generated_Source\PSoC6\pdl\drivers/peripheral/gpio/cy_gpio.h **** __STATIC_INLINE void Cy_GPIO_SetVohSel(GPIO_PRT_Type* base, uint32_t pinNum, uint32_t value);
 583:Generated_Source\PSoC6\pdl\drivers/peripheral/gpio/cy_gpio.h **** __STATIC_INLINE uint32_t Cy_GPIO_GetVohSel(GPIO_PRT_Type* base, uint32_t pinNum);
 584:Generated_Source\PSoC6\pdl\drivers/peripheral/gpio/cy_gpio.h **** 
 585:Generated_Source\PSoC6\pdl\drivers/peripheral/gpio/cy_gpio.h **** /** \} group_gpio_functions_sio */
 586:Generated_Source\PSoC6\pdl\drivers/peripheral/gpio/cy_gpio.h **** 
 587:Generated_Source\PSoC6\pdl\drivers/peripheral/gpio/cy_gpio.h **** /**
 588:Generated_Source\PSoC6\pdl\drivers/peripheral/gpio/cy_gpio.h **** * \addtogroup group_gpio_functions_interrupt
 589:Generated_Source\PSoC6\pdl\drivers/peripheral/gpio/cy_gpio.h **** * \{
 590:Generated_Source\PSoC6\pdl\drivers/peripheral/gpio/cy_gpio.h **** */
 591:Generated_Source\PSoC6\pdl\drivers/peripheral/gpio/cy_gpio.h **** 
 592:Generated_Source\PSoC6\pdl\drivers/peripheral/gpio/cy_gpio.h **** __STATIC_INLINE uint32_t Cy_GPIO_GetInterruptStatus(GPIO_PRT_Type* base, uint32_t pinNum);
 593:Generated_Source\PSoC6\pdl\drivers/peripheral/gpio/cy_gpio.h **** __STATIC_INLINE void Cy_GPIO_ClearInterrupt(GPIO_PRT_Type* base, uint32_t pinNum);
 594:Generated_Source\PSoC6\pdl\drivers/peripheral/gpio/cy_gpio.h **** __STATIC_INLINE void Cy_GPIO_SetInterruptMask(GPIO_PRT_Type* base, uint32_t pinNum, uint32_t value)
 595:Generated_Source\PSoC6\pdl\drivers/peripheral/gpio/cy_gpio.h **** __STATIC_INLINE uint32_t Cy_GPIO_GetInterruptMask(GPIO_PRT_Type* base, uint32_t pinNum);
 596:Generated_Source\PSoC6\pdl\drivers/peripheral/gpio/cy_gpio.h **** __STATIC_INLINE uint32_t Cy_GPIO_GetInterruptStatusMasked(GPIO_PRT_Type* base, uint32_t pinNum);
 597:Generated_Source\PSoC6\pdl\drivers/peripheral/gpio/cy_gpio.h **** __STATIC_INLINE void Cy_GPIO_SetSwInterrupt(GPIO_PRT_Type* base, uint32_t pinNum);
 598:Generated_Source\PSoC6\pdl\drivers/peripheral/gpio/cy_gpio.h **** __STATIC_INLINE void Cy_GPIO_SetInterruptEdge(GPIO_PRT_Type* base, uint32_t pinNum, uint32_t value)
 599:Generated_Source\PSoC6\pdl\drivers/peripheral/gpio/cy_gpio.h **** __STATIC_INLINE uint32_t Cy_GPIO_GetInterruptEdge(GPIO_PRT_Type* base, uint32_t pinNum);
 600:Generated_Source\PSoC6\pdl\drivers/peripheral/gpio/cy_gpio.h **** __STATIC_INLINE void Cy_GPIO_SetFilter(GPIO_PRT_Type* base, uint32_t value);
 601:Generated_Source\PSoC6\pdl\drivers/peripheral/gpio/cy_gpio.h **** __STATIC_INLINE uint32_t Cy_GPIO_GetFilter(GPIO_PRT_Type* base);
 602:Generated_Source\PSoC6\pdl\drivers/peripheral/gpio/cy_gpio.h **** 
 603:Generated_Source\PSoC6\pdl\drivers/peripheral/gpio/cy_gpio.h **** __STATIC_INLINE uint32_t Cy_GPIO_GetInterruptCause0(void);
 604:Generated_Source\PSoC6\pdl\drivers/peripheral/gpio/cy_gpio.h **** __STATIC_INLINE uint32_t Cy_GPIO_GetInterruptCause1(void);
 605:Generated_Source\PSoC6\pdl\drivers/peripheral/gpio/cy_gpio.h **** __STATIC_INLINE uint32_t Cy_GPIO_GetInterruptCause2(void);
 606:Generated_Source\PSoC6\pdl\drivers/peripheral/gpio/cy_gpio.h **** __STATIC_INLINE uint32_t Cy_GPIO_GetInterruptCause3(void);
 607:Generated_Source\PSoC6\pdl\drivers/peripheral/gpio/cy_gpio.h **** 
 608:Generated_Source\PSoC6\pdl\drivers/peripheral/gpio/cy_gpio.h **** /** \} group_gpio_functions_interrupt */
 609:Generated_Source\PSoC6\pdl\drivers/peripheral/gpio/cy_gpio.h **** 
 610:Generated_Source\PSoC6\pdl\drivers/peripheral/gpio/cy_gpio.h **** 
 611:Generated_Source\PSoC6\pdl\drivers/peripheral/gpio/cy_gpio.h **** /**
 612:Generated_Source\PSoC6\pdl\drivers/peripheral/gpio/cy_gpio.h **** * \addtogroup group_gpio_functions_init
 613:Generated_Source\PSoC6\pdl\drivers/peripheral/gpio/cy_gpio.h **** * \{
 614:Generated_Source\PSoC6\pdl\drivers/peripheral/gpio/cy_gpio.h **** */
 615:Generated_Source\PSoC6\pdl\drivers/peripheral/gpio/cy_gpio.h **** 
 616:Generated_Source\PSoC6\pdl\drivers/peripheral/gpio/cy_gpio.h **** /*******************************************************************************
 617:Generated_Source\PSoC6\pdl\drivers/peripheral/gpio/cy_gpio.h **** * Function Name: Cy_GPIO_SetHSIOM
 618:Generated_Source\PSoC6\pdl\drivers/peripheral/gpio/cy_gpio.h **** ****************************************************************************//**
 619:Generated_Source\PSoC6\pdl\drivers/peripheral/gpio/cy_gpio.h **** *
 620:Generated_Source\PSoC6\pdl\drivers/peripheral/gpio/cy_gpio.h **** * Configures the HSIOM connection to the pin.
 621:Generated_Source\PSoC6\pdl\drivers/peripheral/gpio/cy_gpio.h **** *
 622:Generated_Source\PSoC6\pdl\drivers/peripheral/gpio/cy_gpio.h **** * Connects the specified High-Speed Input Output Multiplexer (HSIOM) selection
 623:Generated_Source\PSoC6\pdl\drivers/peripheral/gpio/cy_gpio.h **** * to the pin.
 624:Generated_Source\PSoC6\pdl\drivers/peripheral/gpio/cy_gpio.h **** *
 625:Generated_Source\PSoC6\pdl\drivers/peripheral/gpio/cy_gpio.h **** * \param base
 626:Generated_Source\PSoC6\pdl\drivers/peripheral/gpio/cy_gpio.h **** * Pointer to the pin's port register base address
 627:Generated_Source\PSoC6\pdl\drivers/peripheral/gpio/cy_gpio.h **** *
 628:Generated_Source\PSoC6\pdl\drivers/peripheral/gpio/cy_gpio.h **** * \param pinNum
 629:Generated_Source\PSoC6\pdl\drivers/peripheral/gpio/cy_gpio.h **** * Position of the pin bit-field within the port register
 630:Generated_Source\PSoC6\pdl\drivers/peripheral/gpio/cy_gpio.h **** *
 631:Generated_Source\PSoC6\pdl\drivers/peripheral/gpio/cy_gpio.h **** * \param value
 632:Generated_Source\PSoC6\pdl\drivers/peripheral/gpio/cy_gpio.h **** * HSIOM input selection
 633:Generated_Source\PSoC6\pdl\drivers/peripheral/gpio/cy_gpio.h **** *
 634:Generated_Source\PSoC6\pdl\drivers/peripheral/gpio/cy_gpio.h **** * \note 
 635:Generated_Source\PSoC6\pdl\drivers/peripheral/gpio/cy_gpio.h **** * This function modifies a port register in a read-modify-write operation. It is
ARM GAS  C:\Users\vicpa\AppData\Local\Temp\ccqS0gg1.s 			page 40


 636:Generated_Source\PSoC6\pdl\drivers/peripheral/gpio/cy_gpio.h **** * not thread safe as the resource is shared among multiple pins on a port.
 637:Generated_Source\PSoC6\pdl\drivers/peripheral/gpio/cy_gpio.h **** *
 638:Generated_Source\PSoC6\pdl\drivers/peripheral/gpio/cy_gpio.h **** * \funcusage
 639:Generated_Source\PSoC6\pdl\drivers/peripheral/gpio/cy_gpio.h **** * \snippet gpio/gpio_v1_10_sut_01.cydsn/main_cm4.c snippet_Cy_GPIO_SetHSIOM
 640:Generated_Source\PSoC6\pdl\drivers/peripheral/gpio/cy_gpio.h **** *
 641:Generated_Source\PSoC6\pdl\drivers/peripheral/gpio/cy_gpio.h **** *******************************************************************************/
 642:Generated_Source\PSoC6\pdl\drivers/peripheral/gpio/cy_gpio.h **** __STATIC_INLINE void Cy_GPIO_SetHSIOM(GPIO_PRT_Type* base, uint32_t pinNum, en_hsiom_sel_t value)
 643:Generated_Source\PSoC6\pdl\drivers/peripheral/gpio/cy_gpio.h **** {
 644:Generated_Source\PSoC6\pdl\drivers/peripheral/gpio/cy_gpio.h ****     uint32_t portNum;
 645:Generated_Source\PSoC6\pdl\drivers/peripheral/gpio/cy_gpio.h ****     uint32_t tempReg;
 646:Generated_Source\PSoC6\pdl\drivers/peripheral/gpio/cy_gpio.h ****     HSIOM_PRT_V1_Type* portAddrHSIOM;
 647:Generated_Source\PSoC6\pdl\drivers/peripheral/gpio/cy_gpio.h **** 
 648:Generated_Source\PSoC6\pdl\drivers/peripheral/gpio/cy_gpio.h ****     CY_ASSERT_L2(CY_GPIO_IS_PIN_VALID(pinNum));
 649:Generated_Source\PSoC6\pdl\drivers/peripheral/gpio/cy_gpio.h ****     CY_ASSERT_L2(CY_GPIO_IS_HSIOM_VALID(value));
 650:Generated_Source\PSoC6\pdl\drivers/peripheral/gpio/cy_gpio.h **** 
 651:Generated_Source\PSoC6\pdl\drivers/peripheral/gpio/cy_gpio.h ****     portNum = ((uint32_t)(base) - CY_GPIO_BASE) / GPIO_PRT_SECTION_SIZE;
 652:Generated_Source\PSoC6\pdl\drivers/peripheral/gpio/cy_gpio.h ****     portAddrHSIOM = (HSIOM_PRT_V1_Type*)(CY_HSIOM_BASE + (HSIOM_PRT_SECTION_SIZE * portNum));
 653:Generated_Source\PSoC6\pdl\drivers/peripheral/gpio/cy_gpio.h **** 
 654:Generated_Source\PSoC6\pdl\drivers/peripheral/gpio/cy_gpio.h ****     if(pinNum < CY_GPIO_PRT_HALF)
 655:Generated_Source\PSoC6\pdl\drivers/peripheral/gpio/cy_gpio.h ****     {
 656:Generated_Source\PSoC6\pdl\drivers/peripheral/gpio/cy_gpio.h ****         tempReg = HSIOM_PRT_PORT_SEL0(portAddrHSIOM) & ~(CY_GPIO_HSIOM_MASK << (pinNum << CY_GPIO_H
 657:Generated_Source\PSoC6\pdl\drivers/peripheral/gpio/cy_gpio.h ****         HSIOM_PRT_PORT_SEL0(portAddrHSIOM) = tempReg | ((value & CY_GPIO_HSIOM_MASK) << (pinNum << 
 658:Generated_Source\PSoC6\pdl\drivers/peripheral/gpio/cy_gpio.h ****     }
 659:Generated_Source\PSoC6\pdl\drivers/peripheral/gpio/cy_gpio.h ****     else
 660:Generated_Source\PSoC6\pdl\drivers/peripheral/gpio/cy_gpio.h ****     {
 661:Generated_Source\PSoC6\pdl\drivers/peripheral/gpio/cy_gpio.h ****         pinNum -= CY_GPIO_PRT_HALF;
 662:Generated_Source\PSoC6\pdl\drivers/peripheral/gpio/cy_gpio.h ****         tempReg = HSIOM_PRT_PORT_SEL1(portAddrHSIOM) & ~(CY_GPIO_HSIOM_MASK << (pinNum << CY_GPIO_H
 663:Generated_Source\PSoC6\pdl\drivers/peripheral/gpio/cy_gpio.h ****         HSIOM_PRT_PORT_SEL1(portAddrHSIOM) = tempReg | ((value & CY_GPIO_HSIOM_MASK) << (pinNum << 
 664:Generated_Source\PSoC6\pdl\drivers/peripheral/gpio/cy_gpio.h ****     }
 665:Generated_Source\PSoC6\pdl\drivers/peripheral/gpio/cy_gpio.h **** }
 666:Generated_Source\PSoC6\pdl\drivers/peripheral/gpio/cy_gpio.h **** 
 667:Generated_Source\PSoC6\pdl\drivers/peripheral/gpio/cy_gpio.h **** 
 668:Generated_Source\PSoC6\pdl\drivers/peripheral/gpio/cy_gpio.h **** /*******************************************************************************
 669:Generated_Source\PSoC6\pdl\drivers/peripheral/gpio/cy_gpio.h **** * Function Name: Cy_GPIO_GetHSIOM
 670:Generated_Source\PSoC6\pdl\drivers/peripheral/gpio/cy_gpio.h **** ****************************************************************************//**
 671:Generated_Source\PSoC6\pdl\drivers/peripheral/gpio/cy_gpio.h **** *
 672:Generated_Source\PSoC6\pdl\drivers/peripheral/gpio/cy_gpio.h **** * Returns the current HSIOM multiplexer connection to the pin.
 673:Generated_Source\PSoC6\pdl\drivers/peripheral/gpio/cy_gpio.h **** *
 674:Generated_Source\PSoC6\pdl\drivers/peripheral/gpio/cy_gpio.h **** * \param base
 675:Generated_Source\PSoC6\pdl\drivers/peripheral/gpio/cy_gpio.h **** * Pointer to the pin's port register base address
 676:Generated_Source\PSoC6\pdl\drivers/peripheral/gpio/cy_gpio.h **** *
 677:Generated_Source\PSoC6\pdl\drivers/peripheral/gpio/cy_gpio.h **** * \param pinNum
 678:Generated_Source\PSoC6\pdl\drivers/peripheral/gpio/cy_gpio.h **** * Position of the pin bit-field within the port register
 679:Generated_Source\PSoC6\pdl\drivers/peripheral/gpio/cy_gpio.h **** *
 680:Generated_Source\PSoC6\pdl\drivers/peripheral/gpio/cy_gpio.h **** * \return
 681:Generated_Source\PSoC6\pdl\drivers/peripheral/gpio/cy_gpio.h **** * HSIOM input selection
 682:Generated_Source\PSoC6\pdl\drivers/peripheral/gpio/cy_gpio.h **** *
 683:Generated_Source\PSoC6\pdl\drivers/peripheral/gpio/cy_gpio.h **** * \funcusage
 684:Generated_Source\PSoC6\pdl\drivers/peripheral/gpio/cy_gpio.h **** * \snippet gpio/gpio_v1_10_sut_01.cydsn/main_cm4.c snippet_Cy_GPIO_SetHSIOM
 685:Generated_Source\PSoC6\pdl\drivers/peripheral/gpio/cy_gpio.h **** *
 686:Generated_Source\PSoC6\pdl\drivers/peripheral/gpio/cy_gpio.h **** *******************************************************************************/
 687:Generated_Source\PSoC6\pdl\drivers/peripheral/gpio/cy_gpio.h **** __STATIC_INLINE en_hsiom_sel_t Cy_GPIO_GetHSIOM(GPIO_PRT_Type* base, uint32_t pinNum)
 688:Generated_Source\PSoC6\pdl\drivers/peripheral/gpio/cy_gpio.h **** {
 689:Generated_Source\PSoC6\pdl\drivers/peripheral/gpio/cy_gpio.h ****     uint32_t returnValue;
 690:Generated_Source\PSoC6\pdl\drivers/peripheral/gpio/cy_gpio.h ****     uint32_t portNum;
 691:Generated_Source\PSoC6\pdl\drivers/peripheral/gpio/cy_gpio.h ****     HSIOM_PRT_V1_Type* portAddrHSIOM;
 692:Generated_Source\PSoC6\pdl\drivers/peripheral/gpio/cy_gpio.h ****     
ARM GAS  C:\Users\vicpa\AppData\Local\Temp\ccqS0gg1.s 			page 41


 693:Generated_Source\PSoC6\pdl\drivers/peripheral/gpio/cy_gpio.h ****     CY_ASSERT_L2(CY_GPIO_IS_PIN_VALID(pinNum));
 694:Generated_Source\PSoC6\pdl\drivers/peripheral/gpio/cy_gpio.h **** 
 695:Generated_Source\PSoC6\pdl\drivers/peripheral/gpio/cy_gpio.h ****     portNum = ((uint32_t)(base) - CY_GPIO_BASE) / GPIO_PRT_SECTION_SIZE;
 696:Generated_Source\PSoC6\pdl\drivers/peripheral/gpio/cy_gpio.h ****     portAddrHSIOM = (HSIOM_PRT_V1_Type*)(CY_HSIOM_BASE + (HSIOM_PRT_SECTION_SIZE * portNum));
 697:Generated_Source\PSoC6\pdl\drivers/peripheral/gpio/cy_gpio.h **** 
 698:Generated_Source\PSoC6\pdl\drivers/peripheral/gpio/cy_gpio.h ****     if(pinNum < CY_GPIO_PRT_HALF)
 699:Generated_Source\PSoC6\pdl\drivers/peripheral/gpio/cy_gpio.h ****     {
 700:Generated_Source\PSoC6\pdl\drivers/peripheral/gpio/cy_gpio.h ****         returnValue = (HSIOM_PRT_PORT_SEL0(portAddrHSIOM) >> (pinNum << CY_GPIO_HSIOM_OFFSET)) & CY
 701:Generated_Source\PSoC6\pdl\drivers/peripheral/gpio/cy_gpio.h ****     }
 702:Generated_Source\PSoC6\pdl\drivers/peripheral/gpio/cy_gpio.h ****     else
 703:Generated_Source\PSoC6\pdl\drivers/peripheral/gpio/cy_gpio.h ****     {
 704:Generated_Source\PSoC6\pdl\drivers/peripheral/gpio/cy_gpio.h ****         pinNum -= CY_GPIO_PRT_HALF;
 705:Generated_Source\PSoC6\pdl\drivers/peripheral/gpio/cy_gpio.h ****         returnValue = (HSIOM_PRT_PORT_SEL1(portAddrHSIOM) >> (pinNum << CY_GPIO_HSIOM_OFFSET)) & CY
 706:Generated_Source\PSoC6\pdl\drivers/peripheral/gpio/cy_gpio.h ****     }
 707:Generated_Source\PSoC6\pdl\drivers/peripheral/gpio/cy_gpio.h **** 
 708:Generated_Source\PSoC6\pdl\drivers/peripheral/gpio/cy_gpio.h ****     return (en_hsiom_sel_t)returnValue;
 709:Generated_Source\PSoC6\pdl\drivers/peripheral/gpio/cy_gpio.h **** }
 710:Generated_Source\PSoC6\pdl\drivers/peripheral/gpio/cy_gpio.h **** 
 711:Generated_Source\PSoC6\pdl\drivers/peripheral/gpio/cy_gpio.h **** 
 712:Generated_Source\PSoC6\pdl\drivers/peripheral/gpio/cy_gpio.h **** /*******************************************************************************
 713:Generated_Source\PSoC6\pdl\drivers/peripheral/gpio/cy_gpio.h **** * Function Name: Cy_GPIO_PortToAddr
 714:Generated_Source\PSoC6\pdl\drivers/peripheral/gpio/cy_gpio.h **** ****************************************************************************//**
 715:Generated_Source\PSoC6\pdl\drivers/peripheral/gpio/cy_gpio.h **** *
 716:Generated_Source\PSoC6\pdl\drivers/peripheral/gpio/cy_gpio.h **** * Retrieves the port address based on the given port number.
 717:Generated_Source\PSoC6\pdl\drivers/peripheral/gpio/cy_gpio.h **** *
 718:Generated_Source\PSoC6\pdl\drivers/peripheral/gpio/cy_gpio.h **** * This is a helper function to calculate the port base address when given a port
 719:Generated_Source\PSoC6\pdl\drivers/peripheral/gpio/cy_gpio.h **** * number. It is to be used when pin access needs to be calculated at runtime.
 720:Generated_Source\PSoC6\pdl\drivers/peripheral/gpio/cy_gpio.h **** *
 721:Generated_Source\PSoC6\pdl\drivers/peripheral/gpio/cy_gpio.h **** * \param portNum
 722:Generated_Source\PSoC6\pdl\drivers/peripheral/gpio/cy_gpio.h **** * Port number
 723:Generated_Source\PSoC6\pdl\drivers/peripheral/gpio/cy_gpio.h **** *
 724:Generated_Source\PSoC6\pdl\drivers/peripheral/gpio/cy_gpio.h **** * \return
 725:Generated_Source\PSoC6\pdl\drivers/peripheral/gpio/cy_gpio.h **** * Base address of the port register structure
 726:Generated_Source\PSoC6\pdl\drivers/peripheral/gpio/cy_gpio.h **** *
 727:Generated_Source\PSoC6\pdl\drivers/peripheral/gpio/cy_gpio.h **** * \funcusage
 728:Generated_Source\PSoC6\pdl\drivers/peripheral/gpio/cy_gpio.h **** * \snippet gpio/gpio_v1_10_sut_01.cydsn/main_cm4.c snippet_Cy_GPIO_PortToAddr
 729:Generated_Source\PSoC6\pdl\drivers/peripheral/gpio/cy_gpio.h **** *
 730:Generated_Source\PSoC6\pdl\drivers/peripheral/gpio/cy_gpio.h **** *******************************************************************************/
 731:Generated_Source\PSoC6\pdl\drivers/peripheral/gpio/cy_gpio.h **** __STATIC_INLINE GPIO_PRT_Type* Cy_GPIO_PortToAddr(uint32_t portNum)
 732:Generated_Source\PSoC6\pdl\drivers/peripheral/gpio/cy_gpio.h **** {
 733:Generated_Source\PSoC6\pdl\drivers/peripheral/gpio/cy_gpio.h ****     GPIO_PRT_Type* portBase;
 734:Generated_Source\PSoC6\pdl\drivers/peripheral/gpio/cy_gpio.h ****     
 735:Generated_Source\PSoC6\pdl\drivers/peripheral/gpio/cy_gpio.h ****     if(portNum < (uint32_t)IOSS_GPIO_GPIO_PORT_NR)
 736:Generated_Source\PSoC6\pdl\drivers/peripheral/gpio/cy_gpio.h ****     {
 737:Generated_Source\PSoC6\pdl\drivers/peripheral/gpio/cy_gpio.h ****         portBase = (GPIO_PRT_Type *)(CY_GPIO_BASE + (GPIO_PRT_SECTION_SIZE * portNum));
 738:Generated_Source\PSoC6\pdl\drivers/peripheral/gpio/cy_gpio.h ****     }
 739:Generated_Source\PSoC6\pdl\drivers/peripheral/gpio/cy_gpio.h ****     else
 740:Generated_Source\PSoC6\pdl\drivers/peripheral/gpio/cy_gpio.h ****     {
 741:Generated_Source\PSoC6\pdl\drivers/peripheral/gpio/cy_gpio.h ****         /* Error: Return default base address */
 742:Generated_Source\PSoC6\pdl\drivers/peripheral/gpio/cy_gpio.h ****         portBase = (GPIO_PRT_Type *)(CY_GPIO_BASE);
 743:Generated_Source\PSoC6\pdl\drivers/peripheral/gpio/cy_gpio.h ****     }
 744:Generated_Source\PSoC6\pdl\drivers/peripheral/gpio/cy_gpio.h **** 
 745:Generated_Source\PSoC6\pdl\drivers/peripheral/gpio/cy_gpio.h ****     return (portBase);
 746:Generated_Source\PSoC6\pdl\drivers/peripheral/gpio/cy_gpio.h **** }
 747:Generated_Source\PSoC6\pdl\drivers/peripheral/gpio/cy_gpio.h **** 
 748:Generated_Source\PSoC6\pdl\drivers/peripheral/gpio/cy_gpio.h **** /** \} group_gpio_functions_init */
 749:Generated_Source\PSoC6\pdl\drivers/peripheral/gpio/cy_gpio.h **** 
ARM GAS  C:\Users\vicpa\AppData\Local\Temp\ccqS0gg1.s 			page 42


 750:Generated_Source\PSoC6\pdl\drivers/peripheral/gpio/cy_gpio.h **** /**
 751:Generated_Source\PSoC6\pdl\drivers/peripheral/gpio/cy_gpio.h **** * \addtogroup group_gpio_functions_gpio
 752:Generated_Source\PSoC6\pdl\drivers/peripheral/gpio/cy_gpio.h **** * \{
 753:Generated_Source\PSoC6\pdl\drivers/peripheral/gpio/cy_gpio.h **** */
 754:Generated_Source\PSoC6\pdl\drivers/peripheral/gpio/cy_gpio.h **** 
 755:Generated_Source\PSoC6\pdl\drivers/peripheral/gpio/cy_gpio.h **** /*******************************************************************************
 756:Generated_Source\PSoC6\pdl\drivers/peripheral/gpio/cy_gpio.h **** * Function Name: Cy_GPIO_Read
 757:Generated_Source\PSoC6\pdl\drivers/peripheral/gpio/cy_gpio.h **** ****************************************************************************//**
 758:Generated_Source\PSoC6\pdl\drivers/peripheral/gpio/cy_gpio.h **** *
 759:Generated_Source\PSoC6\pdl\drivers/peripheral/gpio/cy_gpio.h **** * Reads the current logic level on the input buffer of the pin.
 760:Generated_Source\PSoC6\pdl\drivers/peripheral/gpio/cy_gpio.h **** *
 761:Generated_Source\PSoC6\pdl\drivers/peripheral/gpio/cy_gpio.h **** * \param base
 762:Generated_Source\PSoC6\pdl\drivers/peripheral/gpio/cy_gpio.h **** * Pointer to the pin's port register base address
 763:Generated_Source\PSoC6\pdl\drivers/peripheral/gpio/cy_gpio.h **** *
 764:Generated_Source\PSoC6\pdl\drivers/peripheral/gpio/cy_gpio.h **** * \param pinNum
 765:Generated_Source\PSoC6\pdl\drivers/peripheral/gpio/cy_gpio.h **** * Position of the pin bit-field within the port register.
 766:Generated_Source\PSoC6\pdl\drivers/peripheral/gpio/cy_gpio.h **** * Bit position 8 is the routed pin through the port glitch filter.
 767:Generated_Source\PSoC6\pdl\drivers/peripheral/gpio/cy_gpio.h **** *
 768:Generated_Source\PSoC6\pdl\drivers/peripheral/gpio/cy_gpio.h **** * \return
 769:Generated_Source\PSoC6\pdl\drivers/peripheral/gpio/cy_gpio.h **** * Logic level present on the pin
 770:Generated_Source\PSoC6\pdl\drivers/peripheral/gpio/cy_gpio.h **** *
 771:Generated_Source\PSoC6\pdl\drivers/peripheral/gpio/cy_gpio.h **** * \funcusage
 772:Generated_Source\PSoC6\pdl\drivers/peripheral/gpio/cy_gpio.h **** * \snippet gpio/gpio_v1_10_sut_01.cydsn/main_cm4.c snippet_Cy_GPIO_Read
 773:Generated_Source\PSoC6\pdl\drivers/peripheral/gpio/cy_gpio.h **** *
 774:Generated_Source\PSoC6\pdl\drivers/peripheral/gpio/cy_gpio.h **** *******************************************************************************/
 775:Generated_Source\PSoC6\pdl\drivers/peripheral/gpio/cy_gpio.h **** __STATIC_INLINE uint32_t Cy_GPIO_Read(GPIO_PRT_Type* base, uint32_t pinNum)
 776:Generated_Source\PSoC6\pdl\drivers/peripheral/gpio/cy_gpio.h **** {
 777:Generated_Source\PSoC6\pdl\drivers/peripheral/gpio/cy_gpio.h ****     CY_ASSERT_L2(CY_GPIO_IS_FILTER_PIN_VALID(pinNum));
 778:Generated_Source\PSoC6\pdl\drivers/peripheral/gpio/cy_gpio.h ****     
 779:Generated_Source\PSoC6\pdl\drivers/peripheral/gpio/cy_gpio.h ****     return (GPIO_PRT_IN(base) >> (pinNum)) & CY_GPIO_IN_MASK;
 780:Generated_Source\PSoC6\pdl\drivers/peripheral/gpio/cy_gpio.h **** }
 781:Generated_Source\PSoC6\pdl\drivers/peripheral/gpio/cy_gpio.h **** 
 782:Generated_Source\PSoC6\pdl\drivers/peripheral/gpio/cy_gpio.h **** 
 783:Generated_Source\PSoC6\pdl\drivers/peripheral/gpio/cy_gpio.h **** /*******************************************************************************
 784:Generated_Source\PSoC6\pdl\drivers/peripheral/gpio/cy_gpio.h **** * Function Name: Cy_GPIO_Write
 785:Generated_Source\PSoC6\pdl\drivers/peripheral/gpio/cy_gpio.h **** ****************************************************************************//**
 786:Generated_Source\PSoC6\pdl\drivers/peripheral/gpio/cy_gpio.h **** *
 787:Generated_Source\PSoC6\pdl\drivers/peripheral/gpio/cy_gpio.h **** * Write a logic 0 or logic 1 state to the output driver.
 788:Generated_Source\PSoC6\pdl\drivers/peripheral/gpio/cy_gpio.h **** *
 789:Generated_Source\PSoC6\pdl\drivers/peripheral/gpio/cy_gpio.h **** * This function should be used only for software driven pins. It does not have
 790:Generated_Source\PSoC6\pdl\drivers/peripheral/gpio/cy_gpio.h **** * any effect on peripheral driven pins.
 791:Generated_Source\PSoC6\pdl\drivers/peripheral/gpio/cy_gpio.h **** *
 792:Generated_Source\PSoC6\pdl\drivers/peripheral/gpio/cy_gpio.h **** * \param base
 793:Generated_Source\PSoC6\pdl\drivers/peripheral/gpio/cy_gpio.h **** * Pointer to the pin's port register base address
 794:Generated_Source\PSoC6\pdl\drivers/peripheral/gpio/cy_gpio.h **** *
 795:Generated_Source\PSoC6\pdl\drivers/peripheral/gpio/cy_gpio.h **** * \param pinNum
 796:Generated_Source\PSoC6\pdl\drivers/peripheral/gpio/cy_gpio.h **** * Position of the pin bit-field within the port register
 797:Generated_Source\PSoC6\pdl\drivers/peripheral/gpio/cy_gpio.h **** *
 798:Generated_Source\PSoC6\pdl\drivers/peripheral/gpio/cy_gpio.h **** * \param value
 799:Generated_Source\PSoC6\pdl\drivers/peripheral/gpio/cy_gpio.h **** * Logic level to drive out on the pin
 800:Generated_Source\PSoC6\pdl\drivers/peripheral/gpio/cy_gpio.h **** *
 801:Generated_Source\PSoC6\pdl\drivers/peripheral/gpio/cy_gpio.h **** * \funcusage
 802:Generated_Source\PSoC6\pdl\drivers/peripheral/gpio/cy_gpio.h **** * \snippet gpio/gpio_v1_10_sut_01.cydsn/main_cm4.c snippet_Cy_GPIO_Write
 803:Generated_Source\PSoC6\pdl\drivers/peripheral/gpio/cy_gpio.h **** *
 804:Generated_Source\PSoC6\pdl\drivers/peripheral/gpio/cy_gpio.h **** *******************************************************************************/
 805:Generated_Source\PSoC6\pdl\drivers/peripheral/gpio/cy_gpio.h **** __STATIC_INLINE void Cy_GPIO_Write(GPIO_PRT_Type* base, uint32_t pinNum, uint32_t value)
 806:Generated_Source\PSoC6\pdl\drivers/peripheral/gpio/cy_gpio.h **** {
ARM GAS  C:\Users\vicpa\AppData\Local\Temp\ccqS0gg1.s 			page 43


 807:Generated_Source\PSoC6\pdl\drivers/peripheral/gpio/cy_gpio.h ****     CY_ASSERT_L2(CY_GPIO_IS_PIN_VALID(pinNum));
 808:Generated_Source\PSoC6\pdl\drivers/peripheral/gpio/cy_gpio.h ****     CY_ASSERT_L2(CY_GPIO_IS_VALUE_VALID(value));
 809:Generated_Source\PSoC6\pdl\drivers/peripheral/gpio/cy_gpio.h **** 
 810:Generated_Source\PSoC6\pdl\drivers/peripheral/gpio/cy_gpio.h ****     /* Thread-safe: Directly access the pin registers instead of base->OUT */
 811:Generated_Source\PSoC6\pdl\drivers/peripheral/gpio/cy_gpio.h ****     if(0UL == value)
 812:Generated_Source\PSoC6\pdl\drivers/peripheral/gpio/cy_gpio.h ****     {
 813:Generated_Source\PSoC6\pdl\drivers/peripheral/gpio/cy_gpio.h ****         GPIO_PRT_OUT_CLR(base) = CY_GPIO_OUT_MASK << pinNum;
 1278              		.loc 2 813 0 is_stmt 1
 1279 0016 0222     		movs	r2, #2
 1280 0018 054B     		ldr	r3, .L90+4
 1281 001a 5A60     		str	r2, [r3, #4]
 1282 001c 02E0     		b	.L87
 1283              	.LVL135:
 1284              	.L86:
 1285              	.LBE13:
 1286              	.LBE12:
 1287              	.LBB14:
 1288              	.LBB15:
 814:Generated_Source\PSoC6\pdl\drivers/peripheral/gpio/cy_gpio.h ****     }
 815:Generated_Source\PSoC6\pdl\drivers/peripheral/gpio/cy_gpio.h ****     else
 816:Generated_Source\PSoC6\pdl\drivers/peripheral/gpio/cy_gpio.h ****     {
 817:Generated_Source\PSoC6\pdl\drivers/peripheral/gpio/cy_gpio.h ****         GPIO_PRT_OUT_SET(base) = CY_GPIO_OUT_MASK << pinNum;
 1289              		.loc 2 817 0
 1290 001e 0222     		movs	r2, #2
 1291 0020 034B     		ldr	r3, .L90+4
 1292 0022 9A60     		str	r2, [r3, #8]
 1293              	.LVL136:
 1294              	.L87:
 1295              	.LBE15:
 1296              	.LBE14:
 307:TasksInterface.c ****         {
 308:TasksInterface.c ****             Cy_GPIO_Write(Blue_0_PORT,Blue_0_NUM,0);
 309:TasksInterface.c ****         }
 310:TasksInterface.c ****         else
 311:TasksInterface.c ****         {
 312:TasksInterface.c ****             Cy_GPIO_Write(Blue_0_PORT,Blue_0_NUM,1);
 313:TasksInterface.c ****         }
 314:TasksInterface.c ****         vTaskDelay(pdMS_TO_TICKS(200));
 1297              		.loc 1 314 0
 1298 0024 C820     		movs	r0, #200
 1299 0026 FFF7FEFF 		bl	vTaskDelay
 1300              	.LVL137:
 315:TasksInterface.c ****     }
 1301              		.loc 1 315 0
 1302 002a EAE7     		b	.L88
 1303              	.L91:
 1304              		.align	2
 1305              	.L90:
 1306 002c 00000000 		.word	.LANCHOR2
 1307 0030 80053240 		.word	1077020032
 1308              		.cfi_endproc
 1309              	.LFE574:
 1310              		.size	HeartRateAlarm, .-HeartRateAlarm
 1311              		.section	.text.CapSense_ChangeMenu,"ax",%progbits
 1312              		.align	2
 1313              		.global	CapSense_ChangeMenu
 1314              		.thumb
ARM GAS  C:\Users\vicpa\AppData\Local\Temp\ccqS0gg1.s 			page 44


 1315              		.thumb_func
 1316              		.type	CapSense_ChangeMenu, %function
 1317              	CapSense_ChangeMenu:
 1318              	.LFB575:
 316:TasksInterface.c **** }
 317:TasksInterface.c **** 
 318:TasksInterface.c **** // 3)Tâche pour naviguer entre les pages et les paramètres en fonction des boutons appuyés par l
 319:TasksInterface.c **** /*
 320:TasksInterface.c **** Page1: 2 paramètres; 1)ChangeLedIntensity 2)Enable/Disable BLed 
 321:TasksInterface.c **** Page2: 2 paramètres; 1)Borne inférieure bpm 2)Borne supérieure bpm 
 322:TasksInterface.c **** */
 323:TasksInterface.c **** volatile int Page1Params=0;
 324:TasksInterface.c **** volatile int Page2Params=0;
 325:TasksInterface.c **** volatile int ScreenNumber=0;
 326:TasksInterface.c **** void CapSense_ChangeMenu()
 327:TasksInterface.c **** {   
 1319              		.loc 1 327 0
 1320              		.cfi_startproc
 1321              		@ args = 0, pretend = 0, frame = 8
 1322              		@ frame_needed = 0, uses_anonymous_args = 0
 1323 0000 00B5     		push	{lr}
 1324              		.cfi_def_cfa_offset 4
 1325              		.cfi_offset 14, -4
 1326 0002 83B0     		sub	sp, sp, #12
 1327              		.cfi_def_cfa_offset 16
 1328              	.L117:
 1329              	.LBB16:
 328:TasksInterface.c ****     for(;;)
 329:TasksInterface.c ****     {   
 330:TasksInterface.c ****         volatile int SliderPosII=50;
 1330              		.loc 1 330 0
 1331 0004 3223     		movs	r3, #50
 1332 0006 0193     		str	r3, [sp, #4]
 331:TasksInterface.c ****         CapSense_ProcessAllWidgets();
 1333              		.loc 1 331 0
 1334 0008 FFF7FEFF 		bl	CapSense_ProcessAllWidgets
 1335              	.LVL138:
 332:TasksInterface.c ****         if(CapSense_IsWidgetActive(CapSense_BUTTON0_WDGT_ID))
 1336              		.loc 1 332 0
 1337 000c 0120     		movs	r0, #1
 1338 000e FFF7FEFF 		bl	CapSense_IsWidgetActive
 1339              	.LVL139:
 1340 0012 08B3     		cbz	r0, .L93
 333:TasksInterface.c ****         {
 334:TasksInterface.c ****             AffichageGraph=false;
 1341              		.loc 1 334 0
 1342 0014 0022     		movs	r2, #0
 1343 0016 B34B     		ldr	r3, .L119
 1344 0018 1A70     		strb	r2, [r3]
 335:TasksInterface.c ****             if (Page1Params==0&&Page2Params==0){
 1345              		.loc 1 335 0
 1346 001a B34B     		ldr	r3, .L119+4
 1347 001c D3F8C435 		ldr	r3, [r3, #1476]
 1348 0020 D3B9     		cbnz	r3, .L93
 1349              		.loc 1 335 0 is_stmt 0 discriminator 1
 1350 0022 B14B     		ldr	r3, .L119+4
 1351 0024 D3F8C835 		ldr	r3, [r3, #1480]
ARM GAS  C:\Users\vicpa\AppData\Local\Temp\ccqS0gg1.s 			page 45


 1352 0028 B3B9     		cbnz	r3, .L93
 336:TasksInterface.c ****                 ScreenNumber--;
 1353              		.loc 1 336 0 is_stmt 1
 1354 002a AF4B     		ldr	r3, .L119+4
 1355 002c D3F8CC25 		ldr	r2, [r3, #1484]
 1356 0030 013A     		subs	r2, r2, #1
 1357 0032 C3F8CC25 		str	r2, [r3, #1484]
 337:TasksInterface.c ****                 if (ScreenNumber<0)
 1358              		.loc 1 337 0
 1359 0036 D3F8CC35 		ldr	r3, [r3, #1484]
 1360 003a 002B     		cmp	r3, #0
 1361 003c 03DA     		bge	.L94
 338:TasksInterface.c ****                 {
 339:TasksInterface.c ****                     ScreenNumber=2; 
 1362              		.loc 1 339 0
 1363 003e 0222     		movs	r2, #2
 1364 0040 A94B     		ldr	r3, .L119+4
 1365 0042 C3F8CC25 		str	r2, [r3, #1484]
 1366              	.L94:
 340:TasksInterface.c ****                 }
 341:TasksInterface.c ****                 DisplayPage(ScreenNumber, Page1Params, Page2Params);
 1367              		.loc 1 341 0
 1368 0046 A84B     		ldr	r3, .L119+4
 1369 0048 D3F8CC05 		ldr	r0, [r3, #1484]
 1370 004c D3F8C415 		ldr	r1, [r3, #1476]
 1371 0050 D3F8C825 		ldr	r2, [r3, #1480]
 1372 0054 FFF7FEFF 		bl	DisplayPage
 1373              	.LVL140:
 1374              	.L93:
 342:TasksInterface.c ****             }
 343:TasksInterface.c ****         }
 344:TasksInterface.c ****         if(CapSense_IsWidgetActive(CapSense_BUTTON1_WDGT_ID))
 1375              		.loc 1 344 0
 1376 0058 0220     		movs	r0, #2
 1377 005a FFF7FEFF 		bl	CapSense_IsWidgetActive
 1378              	.LVL141:
 1379 005e 08B3     		cbz	r0, .L95
 345:TasksInterface.c ****         {
 346:TasksInterface.c ****             AffichageGraph=false;
 1380              		.loc 1 346 0
 1381 0060 0022     		movs	r2, #0
 1382 0062 A04B     		ldr	r3, .L119
 1383 0064 1A70     		strb	r2, [r3]
 347:TasksInterface.c ****             if (Page1Params==0&&Page2Params==0){
 1384              		.loc 1 347 0
 1385 0066 A04B     		ldr	r3, .L119+4
 1386 0068 D3F8C435 		ldr	r3, [r3, #1476]
 1387 006c D3B9     		cbnz	r3, .L95
 1388              		.loc 1 347 0 is_stmt 0 discriminator 1
 1389 006e 9E4B     		ldr	r3, .L119+4
 1390 0070 D3F8C835 		ldr	r3, [r3, #1480]
 1391 0074 B3B9     		cbnz	r3, .L95
 348:TasksInterface.c ****                 ScreenNumber++;
 1392              		.loc 1 348 0 is_stmt 1
 1393 0076 9C4B     		ldr	r3, .L119+4
 1394 0078 D3F8CC25 		ldr	r2, [r3, #1484]
 1395 007c 0132     		adds	r2, r2, #1
ARM GAS  C:\Users\vicpa\AppData\Local\Temp\ccqS0gg1.s 			page 46


 1396 007e C3F8CC25 		str	r2, [r3, #1484]
 349:TasksInterface.c ****                 if (ScreenNumber>2)
 1397              		.loc 1 349 0
 1398 0082 D3F8CC35 		ldr	r3, [r3, #1484]
 1399 0086 022B     		cmp	r3, #2
 1400 0088 03DD     		ble	.L96
 350:TasksInterface.c ****                 {
 351:TasksInterface.c ****                     ScreenNumber=0; 
 1401              		.loc 1 351 0
 1402 008a 0022     		movs	r2, #0
 1403 008c 964B     		ldr	r3, .L119+4
 1404 008e C3F8CC25 		str	r2, [r3, #1484]
 1405              	.L96:
 352:TasksInterface.c ****                 }
 353:TasksInterface.c ****             DisplayPage(ScreenNumber, Page1Params,Page2Params);
 1406              		.loc 1 353 0
 1407 0092 954B     		ldr	r3, .L119+4
 1408 0094 D3F8CC05 		ldr	r0, [r3, #1484]
 1409 0098 D3F8C415 		ldr	r1, [r3, #1476]
 1410 009c D3F8C825 		ldr	r2, [r3, #1480]
 1411 00a0 FFF7FEFF 		bl	DisplayPage
 1412              	.LVL142:
 1413              	.L95:
 354:TasksInterface.c ****             }
 355:TasksInterface.c ****         }
 356:TasksInterface.c ****         if (ScreenNumber==1)
 1414              		.loc 1 356 0
 1415 00a4 904B     		ldr	r3, .L119+4
 1416 00a6 D3F8CC35 		ldr	r3, [r3, #1484]
 1417 00aa 012B     		cmp	r3, #1
 1418 00ac 7ED1     		bne	.L97
 357:TasksInterface.c ****         { 
 358:TasksInterface.c ****             CapSense_ProcessAllWidgets();
 1419              		.loc 1 358 0
 1420 00ae FFF7FEFF 		bl	CapSense_ProcessAllWidgets
 1421              	.LVL143:
 359:TasksInterface.c ****             SliderPosII=CapSense_GetCentroidPos(CapSense_LINEARSLIDER0_WDGT_ID);
 1422              		.loc 1 359 0
 1423 00b2 0020     		movs	r0, #0
 1424 00b4 FFF7FEFF 		bl	CapSense_GetCentroidPos
 1425              	.LVL144:
 1426 00b8 0190     		str	r0, [sp, #4]
 360:TasksInterface.c ****             if (SliderPosII>50 && SliderPosII<65535)
 1427              		.loc 1 360 0
 1428 00ba 019B     		ldr	r3, [sp, #4]
 1429 00bc 322B     		cmp	r3, #50
 1430 00be 1BDD     		ble	.L98
 1431              		.loc 1 360 0 is_stmt 0 discriminator 1
 1432 00c0 019A     		ldr	r2, [sp, #4]
 1433 00c2 4FF6FE73 		movw	r3, #65534
 1434 00c6 9A42     		cmp	r2, r3
 1435 00c8 16DC     		bgt	.L98
 361:TasksInterface.c ****             {
 362:TasksInterface.c ****                 Page1Params++;
 1436              		.loc 1 362 0 is_stmt 1
 1437 00ca 874B     		ldr	r3, .L119+4
 1438 00cc D3F8C425 		ldr	r2, [r3, #1476]
ARM GAS  C:\Users\vicpa\AppData\Local\Temp\ccqS0gg1.s 			page 47


 1439 00d0 0132     		adds	r2, r2, #1
 1440 00d2 C3F8C425 		str	r2, [r3, #1476]
 363:TasksInterface.c ****                 if (Page1Params>2)
 1441              		.loc 1 363 0
 1442 00d6 D3F8C435 		ldr	r3, [r3, #1476]
 1443 00da 022B     		cmp	r3, #2
 1444 00dc 03DD     		ble	.L99
 364:TasksInterface.c ****                 {
 365:TasksInterface.c ****                     Page1Params=0;
 1445              		.loc 1 365 0
 1446 00de 0022     		movs	r2, #0
 1447 00e0 814B     		ldr	r3, .L119+4
 1448 00e2 C3F8C425 		str	r2, [r3, #1476]
 1449              	.L99:
 366:TasksInterface.c ****                 }
 367:TasksInterface.c ****                 DisplayPage(ScreenNumber,Page1Params,Page2Params);
 1450              		.loc 1 367 0
 1451 00e6 804B     		ldr	r3, .L119+4
 1452 00e8 D3F8CC05 		ldr	r0, [r3, #1484]
 1453 00ec D3F8C415 		ldr	r1, [r3, #1476]
 1454 00f0 D3F8C825 		ldr	r2, [r3, #1480]
 1455 00f4 FFF7FEFF 		bl	DisplayPage
 1456              	.LVL145:
 1457              	.L98:
 368:TasksInterface.c ****             }
 369:TasksInterface.c ****             if (SliderPosII<50)
 1458              		.loc 1 369 0
 1459 00f8 019B     		ldr	r3, [sp, #4]
 1460 00fa 312B     		cmp	r3, #49
 1461 00fc 16DC     		bgt	.L100
 370:TasksInterface.c ****             {
 371:TasksInterface.c ****                 Page1Params--;
 1462              		.loc 1 371 0
 1463 00fe 7A4B     		ldr	r3, .L119+4
 1464 0100 D3F8C425 		ldr	r2, [r3, #1476]
 1465 0104 013A     		subs	r2, r2, #1
 1466 0106 C3F8C425 		str	r2, [r3, #1476]
 372:TasksInterface.c ****                 if (Page1Params<0)
 1467              		.loc 1 372 0
 1468 010a D3F8C435 		ldr	r3, [r3, #1476]
 1469 010e 002B     		cmp	r3, #0
 1470 0110 03DA     		bge	.L101
 373:TasksInterface.c ****                 {
 374:TasksInterface.c ****                     Page1Params=2;
 1471              		.loc 1 374 0
 1472 0112 0222     		movs	r2, #2
 1473 0114 744B     		ldr	r3, .L119+4
 1474 0116 C3F8C425 		str	r2, [r3, #1476]
 1475              	.L101:
 375:TasksInterface.c ****                 }  
 376:TasksInterface.c ****                 DisplayPage(ScreenNumber,Page1Params,Page2Params);
 1476              		.loc 1 376 0
 1477 011a 734B     		ldr	r3, .L119+4
 1478 011c D3F8CC05 		ldr	r0, [r3, #1484]
 1479 0120 D3F8C415 		ldr	r1, [r3, #1476]
 1480 0124 D3F8C825 		ldr	r2, [r3, #1480]
 1481 0128 FFF7FEFF 		bl	DisplayPage
ARM GAS  C:\Users\vicpa\AppData\Local\Temp\ccqS0gg1.s 			page 48


 1482              	.LVL146:
 1483              	.L100:
 377:TasksInterface.c ****             }
 378:TasksInterface.c ****             if (Page1Params==1)
 1484              		.loc 1 378 0
 1485 012c 6E4B     		ldr	r3, .L119+4
 1486 012e D3F8C435 		ldr	r3, [r3, #1476]
 1487 0132 012B     		cmp	r3, #1
 1488 0134 15D1     		bne	.L102
 379:TasksInterface.c ****             {
 380:TasksInterface.c ****                 CapSense_ProcessAllWidgets();
 1489              		.loc 1 380 0
 1490 0136 FFF7FEFF 		bl	CapSense_ProcessAllWidgets
 1491              	.LVL147:
 381:TasksInterface.c ****                 if(CapSense_IsWidgetActive(CapSense_BUTTON1_WDGT_ID))
 1492              		.loc 1 381 0
 1493 013a 0220     		movs	r0, #2
 1494 013c FFF7FEFF 		bl	CapSense_IsWidgetActive
 1495              	.LVL148:
 1496 0140 28B9     		cbnz	r0, .L103
 1497 0142 0EE0     		b	.L102
 1498              	.L104:
 382:TasksInterface.c ****                 {
 383:TasksInterface.c ****                     while (StopChangeLedIntensity==false)
 384:TasksInterface.c ****                     {
 385:TasksInterface.c ****                         CapSense_ChangeLedIntensity();
 1499              		.loc 1 385 0
 1500 0144 FFF7FEFF 		bl	CapSense_ChangeLedIntensity
 1501              	.LVL149:
 386:TasksInterface.c ****                         vTaskDelay(pdMS_TO_TICKS(10));
 1502              		.loc 1 386 0
 1503 0148 0A20     		movs	r0, #10
 1504 014a FFF7FEFF 		bl	vTaskDelay
 1505              	.LVL150:
 1506              	.L103:
 383:TasksInterface.c ****                     {
 1507              		.loc 1 383 0
 1508 014e 664B     		ldr	r3, .L119+4
 1509 0150 93F8BC35 		ldrb	r3, [r3, #1468]	@ zero_extendqisi2
 1510 0154 13F0FF0F 		tst	r3, #255
 1511 0158 F4D0     		beq	.L104
 387:TasksInterface.c ****                     }
 388:TasksInterface.c ****                     StopChangeLedIntensity=false;
 1512              		.loc 1 388 0
 1513 015a 0022     		movs	r2, #0
 1514 015c 624B     		ldr	r3, .L119+4
 1515 015e 83F8BC25 		strb	r2, [r3, #1468]
 1516              	.L102:
 389:TasksInterface.c ****                     //DisplayPage(ScreenNumber,Page1Params,Page2Params);
 390:TasksInterface.c ****                 }
 391:TasksInterface.c ****             }
 392:TasksInterface.c ****             if (Page1Params==2)
 1517              		.loc 1 392 0
 1518 0162 614B     		ldr	r3, .L119+4
 1519 0164 D3F8C435 		ldr	r3, [r3, #1476]
 1520 0168 022B     		cmp	r3, #2
 1521 016a 1FD1     		bne	.L97
ARM GAS  C:\Users\vicpa\AppData\Local\Temp\ccqS0gg1.s 			page 49


 393:TasksInterface.c ****             {
 394:TasksInterface.c ****                 CapSense_ProcessAllWidgets();
 1522              		.loc 1 394 0
 1523 016c FFF7FEFF 		bl	CapSense_ProcessAllWidgets
 1524              	.LVL151:
 395:TasksInterface.c ****                 if(CapSense_IsWidgetActive(CapSense_BUTTON1_WDGT_ID))
 1525              		.loc 1 395 0
 1526 0170 0220     		movs	r0, #2
 1527 0172 FFF7FEFF 		bl	CapSense_IsWidgetActive
 1528              	.LVL152:
 1529 0176 C8B1     		cbz	r0, .L97
 396:TasksInterface.c ****                 {
 397:TasksInterface.c ****                     updateMotionAlarm();
 1530              		.loc 1 397 0
 1531 0178 FFF7FEFF 		bl	updateMotionAlarm
 1532              	.LVL153:
 398:TasksInterface.c ****                     while (StopDisableAlarm==false)
 1533              		.loc 1 398 0
 1534 017c 04E0     		b	.L105
 1535              	.L106:
 399:TasksInterface.c ****                     {
 400:TasksInterface.c ****                         CapSense_EnableDisableMotionAlarm();
 1536              		.loc 1 400 0
 1537 017e FFF7FEFF 		bl	CapSense_EnableDisableMotionAlarm
 1538              	.LVL154:
 401:TasksInterface.c ****                         vTaskDelay(pdMS_TO_TICKS(200));
 1539              		.loc 1 401 0
 1540 0182 C820     		movs	r0, #200
 1541 0184 FFF7FEFF 		bl	vTaskDelay
 1542              	.LVL155:
 1543              	.L105:
 398:TasksInterface.c ****                     while (StopDisableAlarm==false)
 1544              		.loc 1 398 0
 1545 0188 574B     		ldr	r3, .L119+4
 1546 018a 93F8BF35 		ldrb	r3, [r3, #1471]	@ zero_extendqisi2
 1547 018e 13F0FF0F 		tst	r3, #255
 1548 0192 F4D0     		beq	.L106
 402:TasksInterface.c ****                     }
 403:TasksInterface.c ****                     StopDisableAlarm=false;
 1549              		.loc 1 403 0
 1550 0194 544B     		ldr	r3, .L119+4
 1551 0196 0022     		movs	r2, #0
 1552 0198 83F8BF25 		strb	r2, [r3, #1471]
 404:TasksInterface.c ****                     DisplayPage(ScreenNumber,Page1Params,Page2Params);
 1553              		.loc 1 404 0
 1554 019c D3F8CC05 		ldr	r0, [r3, #1484]
 1555 01a0 D3F8C415 		ldr	r1, [r3, #1476]
 1556 01a4 D3F8C825 		ldr	r2, [r3, #1480]
 1557 01a8 FFF7FEFF 		bl	DisplayPage
 1558              	.LVL156:
 1559              	.L97:
 405:TasksInterface.c ****                 }
 406:TasksInterface.c ****             }
 407:TasksInterface.c ****         }
 408:TasksInterface.c ****         if (ScreenNumber==2)
 1560              		.loc 1 408 0
 1561 01ac 4E4B     		ldr	r3, .L119+4
ARM GAS  C:\Users\vicpa\AppData\Local\Temp\ccqS0gg1.s 			page 50


 1562 01ae D3F8CC35 		ldr	r3, [r3, #1484]
 1563 01b2 022B     		cmp	r3, #2
 1564 01b4 40F08D80 		bne	.L107
 409:TasksInterface.c ****         { 
 410:TasksInterface.c ****             CapSense_ProcessAllWidgets();
 1565              		.loc 1 410 0
 1566 01b8 FFF7FEFF 		bl	CapSense_ProcessAllWidgets
 1567              	.LVL157:
 411:TasksInterface.c ****             SliderPosII=CapSense_GetCentroidPos(CapSense_LINEARSLIDER0_WDGT_ID);
 1568              		.loc 1 411 0
 1569 01bc 0020     		movs	r0, #0
 1570 01be FFF7FEFF 		bl	CapSense_GetCentroidPos
 1571              	.LVL158:
 1572 01c2 0190     		str	r0, [sp, #4]
 412:TasksInterface.c ****             if (SliderPosII>50 && SliderPosII<65535)
 1573              		.loc 1 412 0
 1574 01c4 019B     		ldr	r3, [sp, #4]
 1575 01c6 322B     		cmp	r3, #50
 1576 01c8 1BDD     		ble	.L108
 1577              		.loc 1 412 0 is_stmt 0 discriminator 1
 1578 01ca 019A     		ldr	r2, [sp, #4]
 1579 01cc 4FF6FE73 		movw	r3, #65534
 1580 01d0 9A42     		cmp	r2, r3
 1581 01d2 16DC     		bgt	.L108
 413:TasksInterface.c ****             {
 414:TasksInterface.c ****                 Page2Params++;
 1582              		.loc 1 414 0 is_stmt 1
 1583 01d4 444B     		ldr	r3, .L119+4
 1584 01d6 D3F8C825 		ldr	r2, [r3, #1480]
 1585 01da 0132     		adds	r2, r2, #1
 1586 01dc C3F8C825 		str	r2, [r3, #1480]
 415:TasksInterface.c ****                 if (Page2Params>2)
 1587              		.loc 1 415 0
 1588 01e0 D3F8C835 		ldr	r3, [r3, #1480]
 1589 01e4 022B     		cmp	r3, #2
 1590 01e6 03DD     		ble	.L109
 416:TasksInterface.c ****                 {
 417:TasksInterface.c ****                     Page2Params=0;
 1591              		.loc 1 417 0
 1592 01e8 0022     		movs	r2, #0
 1593 01ea 3F4B     		ldr	r3, .L119+4
 1594 01ec C3F8C825 		str	r2, [r3, #1480]
 1595              	.L109:
 418:TasksInterface.c ****                 }
 419:TasksInterface.c ****                 DisplayPage(ScreenNumber,Page1Params,Page2Params);
 1596              		.loc 1 419 0
 1597 01f0 3D4B     		ldr	r3, .L119+4
 1598 01f2 D3F8CC05 		ldr	r0, [r3, #1484]
 1599 01f6 D3F8C415 		ldr	r1, [r3, #1476]
 1600 01fa D3F8C825 		ldr	r2, [r3, #1480]
 1601 01fe FFF7FEFF 		bl	DisplayPage
 1602              	.LVL159:
 1603              	.L108:
 420:TasksInterface.c ****             }
 421:TasksInterface.c ****             if (SliderPosII<50)
 1604              		.loc 1 421 0
 1605 0202 019B     		ldr	r3, [sp, #4]
ARM GAS  C:\Users\vicpa\AppData\Local\Temp\ccqS0gg1.s 			page 51


 1606 0204 312B     		cmp	r3, #49
 1607 0206 16DC     		bgt	.L110
 422:TasksInterface.c ****             {
 423:TasksInterface.c ****                 Page2Params--;
 1608              		.loc 1 423 0
 1609 0208 374B     		ldr	r3, .L119+4
 1610 020a D3F8C825 		ldr	r2, [r3, #1480]
 1611 020e 013A     		subs	r2, r2, #1
 1612 0210 C3F8C825 		str	r2, [r3, #1480]
 424:TasksInterface.c **** 
 425:TasksInterface.c ****                 if (Page2Params<0)
 1613              		.loc 1 425 0
 1614 0214 D3F8C835 		ldr	r3, [r3, #1480]
 1615 0218 002B     		cmp	r3, #0
 1616 021a 03DA     		bge	.L111
 426:TasksInterface.c ****                 {
 427:TasksInterface.c ****                     Page2Params=2;
 1617              		.loc 1 427 0
 1618 021c 0222     		movs	r2, #2
 1619 021e 324B     		ldr	r3, .L119+4
 1620 0220 C3F8C825 		str	r2, [r3, #1480]
 1621              	.L111:
 428:TasksInterface.c ****                 }
 429:TasksInterface.c ****                 DisplayPage(ScreenNumber,Page1Params,Page2Params);                
 1622              		.loc 1 429 0
 1623 0224 304B     		ldr	r3, .L119+4
 1624 0226 D3F8CC05 		ldr	r0, [r3, #1484]
 1625 022a D3F8C415 		ldr	r1, [r3, #1476]
 1626 022e D3F8C825 		ldr	r2, [r3, #1480]
 1627 0232 FFF7FEFF 		bl	DisplayPage
 1628              	.LVL160:
 1629              	.L110:
 430:TasksInterface.c ****             }
 431:TasksInterface.c ****             if (Page2Params==1)
 1630              		.loc 1 431 0
 1631 0236 2C4B     		ldr	r3, .L119+4
 1632 0238 D3F8C835 		ldr	r3, [r3, #1480]
 1633 023c 012B     		cmp	r3, #1
 1634 023e 21D1     		bne	.L112
 432:TasksInterface.c ****             {
 433:TasksInterface.c ****                 CapSense_ProcessAllWidgets();
 1635              		.loc 1 433 0
 1636 0240 FFF7FEFF 		bl	CapSense_ProcessAllWidgets
 1637              	.LVL161:
 434:TasksInterface.c ****                 if(CapSense_IsWidgetActive(CapSense_BUTTON1_WDGT_ID))
 1638              		.loc 1 434 0
 1639 0244 0220     		movs	r0, #2
 1640 0246 FFF7FEFF 		bl	CapSense_IsWidgetActive
 1641              	.LVL162:
 1642 024a D8B1     		cbz	r0, .L112
 435:TasksInterface.c ****                 {
 436:TasksInterface.c ****                     updateLowHeartRateLimit(LowHeartRateI);
 1643              		.loc 1 436 0
 1644 024c 274B     		ldr	r3, .L119+8
 1645 024e 5868     		ldr	r0, [r3, #4]
 1646 0250 FFF7FEFF 		bl	updateLowHeartRateLimit
 1647              	.LVL163:
ARM GAS  C:\Users\vicpa\AppData\Local\Temp\ccqS0gg1.s 			page 52


 437:TasksInterface.c ****                     while (StopChangeLowHeartRate==false)
 1648              		.loc 1 437 0
 1649 0254 04E0     		b	.L113
 1650              	.L114:
 438:TasksInterface.c ****                     {
 439:TasksInterface.c ****                         CapSense_ChangeLowHeartRateLimit();
 1651              		.loc 1 439 0
 1652 0256 FFF7FEFF 		bl	CapSense_ChangeLowHeartRateLimit
 1653              	.LVL164:
 440:TasksInterface.c ****                         vTaskDelay(pdMS_TO_TICKS(200));
 1654              		.loc 1 440 0
 1655 025a C820     		movs	r0, #200
 1656 025c FFF7FEFF 		bl	vTaskDelay
 1657              	.LVL165:
 1658              	.L113:
 437:TasksInterface.c ****                     while (StopChangeLowHeartRate==false)
 1659              		.loc 1 437 0
 1660 0260 214B     		ldr	r3, .L119+4
 1661 0262 93F8BD35 		ldrb	r3, [r3, #1469]	@ zero_extendqisi2
 1662 0266 13F0FF0F 		tst	r3, #255
 1663 026a F4D0     		beq	.L114
 441:TasksInterface.c ****                     }
 442:TasksInterface.c ****                     StopChangeLowHeartRate=false;
 1664              		.loc 1 442 0
 1665 026c 1E4B     		ldr	r3, .L119+4
 1666 026e 0022     		movs	r2, #0
 1667 0270 83F8BD25 		strb	r2, [r3, #1469]
 443:TasksInterface.c ****                     DisplayPage(ScreenNumber,Page1Params,Page2Params);
 1668              		.loc 1 443 0
 1669 0274 D3F8CC05 		ldr	r0, [r3, #1484]
 1670 0278 D3F8C415 		ldr	r1, [r3, #1476]
 1671 027c D3F8C825 		ldr	r2, [r3, #1480]
 1672 0280 FFF7FEFF 		bl	DisplayPage
 1673              	.LVL166:
 1674              	.L112:
 444:TasksInterface.c ****                 }
 445:TasksInterface.c ****             }
 446:TasksInterface.c ****             if (Page2Params==2)
 1675              		.loc 1 446 0
 1676 0284 184B     		ldr	r3, .L119+4
 1677 0286 D3F8C835 		ldr	r3, [r3, #1480]
 1678 028a 022B     		cmp	r3, #2
 1679 028c 21D1     		bne	.L107
 447:TasksInterface.c ****             {
 448:TasksInterface.c ****                 CapSense_ProcessAllWidgets();
 1680              		.loc 1 448 0
 1681 028e FFF7FEFF 		bl	CapSense_ProcessAllWidgets
 1682              	.LVL167:
 449:TasksInterface.c ****                 if(CapSense_IsWidgetActive(CapSense_BUTTON1_WDGT_ID))
 1683              		.loc 1 449 0
 1684 0292 0220     		movs	r0, #2
 1685 0294 FFF7FEFF 		bl	CapSense_IsWidgetActive
 1686              	.LVL168:
 1687 0298 D8B1     		cbz	r0, .L107
 450:TasksInterface.c ****                 {
 451:TasksInterface.c ****                     updateHighHeartRateLimit(HighHeartRateI);
 1688              		.loc 1 451 0
ARM GAS  C:\Users\vicpa\AppData\Local\Temp\ccqS0gg1.s 			page 53


 1689 029a 144B     		ldr	r3, .L119+8
 1690 029c 1869     		ldr	r0, [r3, #16]
 1691 029e FFF7FEFF 		bl	updateHighHeartRateLimit
 1692              	.LVL169:
 452:TasksInterface.c ****                     while (StopChangeHighHeartRate==false)
 1693              		.loc 1 452 0
 1694 02a2 04E0     		b	.L115
 1695              	.L116:
 453:TasksInterface.c ****                     {
 454:TasksInterface.c ****                         CapSense_ChangeHighHeartRateLimit();
 1696              		.loc 1 454 0
 1697 02a4 FFF7FEFF 		bl	CapSense_ChangeHighHeartRateLimit
 1698              	.LVL170:
 455:TasksInterface.c ****                         vTaskDelay(pdMS_TO_TICKS(200));
 1699              		.loc 1 455 0
 1700 02a8 C820     		movs	r0, #200
 1701 02aa FFF7FEFF 		bl	vTaskDelay
 1702              	.LVL171:
 1703              	.L115:
 452:TasksInterface.c ****                     while (StopChangeHighHeartRate==false)
 1704              		.loc 1 452 0
 1705 02ae 0E4B     		ldr	r3, .L119+4
 1706 02b0 93F8BE35 		ldrb	r3, [r3, #1470]	@ zero_extendqisi2
 1707 02b4 13F0FF0F 		tst	r3, #255
 1708 02b8 F4D0     		beq	.L116
 456:TasksInterface.c ****                     }
 457:TasksInterface.c ****                     StopChangeHighHeartRate=false;
 1709              		.loc 1 457 0
 1710 02ba 0B4B     		ldr	r3, .L119+4
 1711 02bc 0022     		movs	r2, #0
 1712 02be 83F8BE25 		strb	r2, [r3, #1470]
 458:TasksInterface.c ****                     DisplayPage(ScreenNumber,Page1Params,Page2Params);
 1713              		.loc 1 458 0
 1714 02c2 D3F8CC05 		ldr	r0, [r3, #1484]
 1715 02c6 D3F8C415 		ldr	r1, [r3, #1476]
 1716 02ca D3F8C825 		ldr	r2, [r3, #1480]
 1717 02ce FFF7FEFF 		bl	DisplayPage
 1718              	.LVL172:
 1719              	.L107:
 459:TasksInterface.c ****                 }
 460:TasksInterface.c ****             }
 461:TasksInterface.c ****             
 462:TasksInterface.c ****         }
 463:TasksInterface.c ****         CapSense_UpdateAllBaselines();
 1720              		.loc 1 463 0
 1721 02d2 FFF7FEFF 		bl	CapSense_UpdateAllBaselines
 1722              	.LVL173:
 464:TasksInterface.c ****         CapSense_ScanAllWidgets();
 1723              		.loc 1 464 0
 1724 02d6 FFF7FEFF 		bl	CapSense_ScanAllWidgets
 1725              	.LVL174:
 465:TasksInterface.c ****         vTaskDelay(pdMS_TO_TICKS(200));
 1726              		.loc 1 465 0
 1727 02da C820     		movs	r0, #200
 1728 02dc FFF7FEFF 		bl	vTaskDelay
 1729              	.LVL175:
 1730              	.LBE16:
ARM GAS  C:\Users\vicpa\AppData\Local\Temp\ccqS0gg1.s 			page 54


 466:TasksInterface.c ****     }
 1731              		.loc 1 466 0
 1732 02e0 90E6     		b	.L117
 1733              	.L120:
 1734 02e2 00BF     		.align	2
 1735              	.L119:
 1736 02e4 00000000 		.word	AffichageGraph
 1737 02e8 F8100000 		.word	.LANCHOR1
 1738 02ec 00000000 		.word	.LANCHOR2
 1739              		.cfi_endproc
 1740              	.LFE575:
 1741              		.size	CapSense_ChangeMenu, .-CapSense_ChangeMenu
 1742              		.global	ScreenNumber
 1743              		.global	Page2Params
 1744              		.global	Page1Params
 1745              		.global	RythmeCardiaque
 1746              		.global	Saturation
 1747              		.comm	bufferRouge,3000,4
 1748              		.comm	bufferInfrarouge,3000,4
 1749              		.comm	AffichageGraph,1,1
 1750              		.comm	CompteurSW2,4,4
 1751              		.global	StopDisableAlarm
 1752              		.global	SliderPosV
 1753              		.global	MotionAlarmEnable
 1754              		.global	StopChangeHighHeartRate
 1755              		.global	SliderPosIV
 1756              		.global	HighHeartRateF
 1757              		.global	HighHeartRateI
 1758              		.global	StopChangeLowHeartRate
 1759              		.global	SliderPosIII
 1760              		.global	LowHeartRateF
 1761              		.global	LowHeartRateI
 1762              		.global	StopChangeLedIntensity
 1763              		.global	SliderPosI
 1764              		.global	imageBufferCache
 1765              		.data
 1766              		.align	2
 1767              		.set	.LANCHOR2,. + 0
 1768              		.type	SliderPosIII, %object
 1769              		.size	SliderPosIII, 4
 1770              	SliderPosIII:
 1771 0000 32000000 		.word	50
 1772              		.type	LowHeartRateI, %object
 1773              		.size	LowHeartRateI, 4
 1774              	LowHeartRateI:
 1775 0004 3C000000 		.word	60
 1776              		.type	LowHeartRateF, %object
 1777              		.size	LowHeartRateF, 4
 1778              	LowHeartRateF:
 1779 0008 3C000000 		.word	60
 1780              		.type	SliderPosIV, %object
 1781              		.size	SliderPosIV, 4
 1782              	SliderPosIV:
 1783 000c 32000000 		.word	50
 1784              		.type	HighHeartRateI, %object
 1785              		.size	HighHeartRateI, 4
 1786              	HighHeartRateI:
ARM GAS  C:\Users\vicpa\AppData\Local\Temp\ccqS0gg1.s 			page 55


 1787 0010 46000000 		.word	70
 1788              		.type	HighHeartRateF, %object
 1789              		.size	HighHeartRateF, 4
 1790              	HighHeartRateF:
 1791 0014 46000000 		.word	70
 1792              		.type	MotionAlarmEnable, %object
 1793              		.size	MotionAlarmEnable, 1
 1794              	MotionAlarmEnable:
 1795 0018 01       		.byte	1
 1796 0019 000000   		.space	3
 1797              		.type	SliderPosV, %object
 1798              		.size	SliderPosV, 4
 1799              	SliderPosV:
 1800 001c 32000000 		.word	50
 1801              		.type	RythmeCardiaque, %object
 1802              		.size	RythmeCardiaque, 4
 1803              	RythmeCardiaque:
 1804 0020 41000000 		.word	65
 1805              		.section	.rodata.str1.4,"aMS",%progbits,1
 1806              		.align	2
 1807              	.LC0:
 1808 0000 256400   		.ascii	"%d\000"
 1809 0003 00       		.space	1
 1810              	.LC1:
 1811 0004 4F787967 		.ascii	"Oxygen saturation:\000"
 1811      656E2073 
 1811      61747572 
 1811      6174696F 
 1811      6E3A00
 1812 0017 00       		.space	1
 1813              	.LC2:
 1814 0018 2500     		.ascii	"%\000"
 1815 001a 0000     		.space	2
 1816              	.LC3:
 1817 001c 48656172 		.ascii	"Heart rate:\000"
 1817      74207261 
 1817      74653A00 
 1818              	.LC4:
 1819 0028 62706D00 		.ascii	"bpm\000"
 1820              	.LC5:
 1821 002c 4C6F7720 		.ascii	"Low heart rate limit\000"
 1821      68656172 
 1821      74207261 
 1821      7465206C 
 1821      696D6974 
 1822 0041 000000   		.space	3
 1823              	.LC6:
 1824 0044 48696768 		.ascii	"High heart rate limit\000"
 1824      20686561 
 1824      72742072 
 1824      61746520 
 1824      6C696D69 
 1825 005a 0000     		.space	2
 1826              	.LC7:
 1827 005c 50726573 		.ascii	"Press SW2 to show graphs\000"
 1827      73205357 
 1827      3220746F 
ARM GAS  C:\Users\vicpa\AppData\Local\Temp\ccqS0gg1.s 			page 56


 1827      2073686F 
 1827      77206772 
 1828 0075 000000   		.space	3
 1829              	.LC8:
 1830 0078 55736520 		.ascii	"Use the CapSense buttons to modify parameters\000"
 1830      74686520 
 1830      43617053 
 1830      656E7365 
 1830      20627574 
 1831 00a6 0000     		.space	2
 1832              	.LC9:
 1833 00a8 50617261 		.ascii	"Parameters page 1\000"
 1833      6D657465 
 1833      72732070 
 1833      61676520 
 1833      3100
 1834 00ba 0000     		.space	2
 1835              	.LC10:
 1836 00bc 31294368 		.ascii	"1)Change LED intensity\000"
 1836      616E6765 
 1836      204C4544 
 1836      20696E74 
 1836      656E7369 
 1837 00d3 00       		.space	1
 1838              	.LC11:
 1839 00d4 3229456E 		.ascii	"2)Enable/Disable motion sensor alarm\000"
 1839      61626C65 
 1839      2F446973 
 1839      61626C65 
 1839      206D6F74 
 1840 00f9 000000   		.space	3
 1841              	.LC12:
 1842 00fc 50617261 		.ascii	"Parameters page 2\000"
 1842      6D657465 
 1842      72732070 
 1842      61676520 
 1842      3200
 1843 010e 0000     		.space	2
 1844              	.LC13:
 1845 0110 31295365 		.ascii	"1)Set low heart rate limit\000"
 1845      74206C6F 
 1845      77206865 
 1845      61727420 
 1845      72617465 
 1846 012b 00       		.space	1
 1847              	.LC14:
 1848 012c 32295365 		.ascii	"2)Set high heart rate limit\000"
 1848      74206869 
 1848      67682068 
 1848      65617274 
 1848      20726174 
 1849              	.LC15:
 1850 0148 416C6172 		.ascii	"Alarm enabled\000"
 1850      6D20656E 
 1850      61626C65 
 1850      6400
 1851 0156 0000     		.space	2
ARM GAS  C:\Users\vicpa\AppData\Local\Temp\ccqS0gg1.s 			page 57


 1852              	.LC16:
 1853 0158 416C6172 		.ascii	"Alarm disabled\000"
 1853      6D206469 
 1853      7361626C 
 1853      656400
 1854 0167 00       		.space	1
 1855              	.LC17:
 1856 0168 52656420 		.ascii	"Red curve:\000"
 1856      63757276 
 1856      653A00
 1857 0173 00       		.space	1
 1858              	.LC18:
 1859 0174 496E6672 		.ascii	"Infrared curve:\000"
 1859      61726564 
 1859      20637572 
 1859      76653A00 
 1860              		.bss
 1861              		.align	2
 1862              		.set	.LANCHOR0,. + 0
 1863              		.set	.LANCHOR1,. + 4344
 1864              		.type	imageBufferCache, %object
 1865              		.size	imageBufferCache, 5808
 1866              	imageBufferCache:
 1867 0000 00000000 		.space	5808
 1867      00000000 
 1867      00000000 
 1867      00000000 
 1867      00000000 
 1868              		.type	SliderPosI, %object
 1869              		.size	SliderPosI, 4
 1870              	SliderPosI:
 1871 16b0 00000000 		.space	4
 1872              		.type	StopChangeLedIntensity, %object
 1873              		.size	StopChangeLedIntensity, 1
 1874              	StopChangeLedIntensity:
 1875 16b4 00       		.space	1
 1876              		.type	StopChangeLowHeartRate, %object
 1877              		.size	StopChangeLowHeartRate, 1
 1878              	StopChangeLowHeartRate:
 1879 16b5 00       		.space	1
 1880              		.type	StopChangeHighHeartRate, %object
 1881              		.size	StopChangeHighHeartRate, 1
 1882              	StopChangeHighHeartRate:
 1883 16b6 00       		.space	1
 1884              		.type	StopDisableAlarm, %object
 1885              		.size	StopDisableAlarm, 1
 1886              	StopDisableAlarm:
 1887 16b7 00       		.space	1
 1888              		.type	Saturation, %object
 1889              		.size	Saturation, 4
 1890              	Saturation:
 1891 16b8 00000000 		.space	4
 1892              		.type	Page1Params, %object
 1893              		.size	Page1Params, 4
 1894              	Page1Params:
 1895 16bc 00000000 		.space	4
 1896              		.type	Page2Params, %object
ARM GAS  C:\Users\vicpa\AppData\Local\Temp\ccqS0gg1.s 			page 58


 1897              		.size	Page2Params, 4
 1898              	Page2Params:
 1899 16c0 00000000 		.space	4
 1900              		.type	ScreenNumber, %object
 1901              		.size	ScreenNumber, 4
 1902              	ScreenNumber:
 1903 16c4 00000000 		.space	4
 1904              		.text
 1905              	.Letext0:
 1906              		.file 3 "c:\\program files (x86)\\cypress\\psoc creator\\4.4\\psoc creator\\import\\gnu\\arm\\5.4.
 1907              		.file 4 "c:\\program files (x86)\\cypress\\psoc creator\\4.4\\psoc creator\\import\\gnu\\arm\\5.4.
 1908              		.file 5 "Generated_Source\\PSoC6\\pdl\\devices/psoc6/include/ip/cyip_gpio.h"
 1909              		.file 6 "Generated_Source\\PSoC6\\pdl\\devices/psoc6/include/psoc6_01_config.h"
 1910              		.file 7 "Generated_Source\\PSoC6\\pdl\\drivers/peripheral/device/cy_device.h"
 1911              		.file 8 "Generated_Source\\PSoC6\\pdl\\drivers/peripheral/syslib/cy_syslib.h"
 1912              		.file 9 "Generated_Source\\PSoC6\\pdl\\drivers/peripheral/scb/cy_scb_spi.h"
 1913              		.file 10 "Generated_Source\\PSoC6\\pdl\\drivers/peripheral/tcpwm/cy_tcpwm_counter.h"
 1914              		.file 11 "Generated_Source\\PSoC6\\pdl\\rtos/FreeRTOS/10.0.1/Source/portable/GCC/CM4F/portmacro.h"
 1915              		.file 12 "Generated_Source\\PSoC6\\pdl\\middleware/emWin/code/include/GUI_Type.h"
 1916              		.file 13 ".\\eInk Library/pervasive_eink_hardware_driver.h"
 1917              		.file 14 ".\\eInk Library/cy_eink_library.h"
 1918              		.file 15 "Generated_Source\\PSoC6\\pdl\\cmsis/include/core_cm4.h"
 1919              		.file 16 "Generated_Source\\PSoC6/CY_EINK_SPIM.h"
 1920              		.file 17 "Generated_Source\\PSoC6/CY_EINK_Timer.h"
 1921              		.file 18 "Generated_Source\\PSoC6\\pdl\\middleware/emWin/code/include/GUI.h"
 1922              		.file 19 "LCDConf.h"
 1923              		.file 20 "c:\\program files (x86)\\cypress\\psoc creator\\4.4\\psoc creator\\import\\gnu\\arm\\5.4
 1924              		.file 21 "c:\\program files (x86)\\cypress\\psoc creator\\4.4\\psoc creator\\import\\gnu\\arm\\5.4
 1925              		.file 22 "Generated_Source\\PSoC6/CapSense_Control.h"
 1926              		.file 23 "Generated_Source\\PSoC6/CapSense_Structure.h"
 1927              		.file 24 "Generated_Source\\PSoC6/CapSense_Filter.h"
 1928              		.file 25 "Generated_Source\\PSoC6/CapSense_Sensing.h"
 1929              		.file 26 "Generated_Source\\PSoC6\\pdl\\rtos/FreeRTOS/10.0.1/Source/include/task.h"
 1930              		.section	.debug_info,"",%progbits
 1931              	.Ldebug_info0:
 1932 0000 FE1E0000 		.4byte	0x1efe
 1933 0004 0400     		.2byte	0x4
 1934 0006 00000000 		.4byte	.Ldebug_abbrev0
 1935 000a 04       		.byte	0x4
 1936 000b 01       		.uleb128 0x1
 1937 000c 17030000 		.4byte	.LASF320
 1938 0010 0C       		.byte	0xc
 1939 0011 7D0B0000 		.4byte	.LASF321
 1940 0015 D6030000 		.4byte	.LASF322
 1941 0019 18000000 		.4byte	.Ldebug_ranges0+0x18
 1942 001d 00000000 		.4byte	0
 1943 0021 00000000 		.4byte	.Ldebug_line0
 1944 0025 02       		.uleb128 0x2
 1945 0026 02       		.byte	0x2
 1946 0027 05       		.byte	0x5
 1947 0028 250D0000 		.4byte	.LASF0
 1948 002c 02       		.uleb128 0x2
 1949 002d 01       		.byte	0x1
 1950 002e 06       		.byte	0x6
 1951 002f AA100000 		.4byte	.LASF1
 1952 0033 03       		.uleb128 0x3
 1953 0034 880E0000 		.4byte	.LASF3
ARM GAS  C:\Users\vicpa\AppData\Local\Temp\ccqS0gg1.s 			page 59


 1954 0038 03       		.byte	0x3
 1955 0039 1D       		.byte	0x1d
 1956 003a 3E000000 		.4byte	0x3e
 1957 003e 02       		.uleb128 0x2
 1958 003f 01       		.byte	0x1
 1959 0040 08       		.byte	0x8
 1960 0041 A90F0000 		.4byte	.LASF2
 1961 0045 03       		.uleb128 0x3
 1962 0046 4E0A0000 		.4byte	.LASF4
 1963 004a 03       		.byte	0x3
 1964 004b 29       		.byte	0x29
 1965 004c 25000000 		.4byte	0x25
 1966 0050 03       		.uleb128 0x3
 1967 0051 DA070000 		.4byte	.LASF5
 1968 0055 03       		.byte	0x3
 1969 0056 2B       		.byte	0x2b
 1970 0057 5B000000 		.4byte	0x5b
 1971 005b 02       		.uleb128 0x2
 1972 005c 02       		.byte	0x2
 1973 005d 07       		.byte	0x7
 1974 005e 0B0C0000 		.4byte	.LASF6
 1975 0062 03       		.uleb128 0x3
 1976 0063 02020000 		.4byte	.LASF7
 1977 0067 03       		.byte	0x3
 1978 0068 3F       		.byte	0x3f
 1979 0069 6D000000 		.4byte	0x6d
 1980 006d 02       		.uleb128 0x2
 1981 006e 04       		.byte	0x4
 1982 006f 05       		.byte	0x5
 1983 0070 500D0000 		.4byte	.LASF8
 1984 0074 03       		.uleb128 0x3
 1985 0075 B70F0000 		.4byte	.LASF9
 1986 0079 03       		.byte	0x3
 1987 007a 41       		.byte	0x41
 1988 007b 7F000000 		.4byte	0x7f
 1989 007f 02       		.uleb128 0x2
 1990 0080 04       		.byte	0x4
 1991 0081 07       		.byte	0x7
 1992 0082 300F0000 		.4byte	.LASF10
 1993 0086 02       		.uleb128 0x2
 1994 0087 08       		.byte	0x8
 1995 0088 05       		.byte	0x5
 1996 0089 82090000 		.4byte	.LASF11
 1997 008d 02       		.uleb128 0x2
 1998 008e 08       		.byte	0x8
 1999 008f 07       		.byte	0x7
 2000 0090 97050000 		.4byte	.LASF12
 2001 0094 04       		.uleb128 0x4
 2002 0095 04       		.byte	0x4
 2003 0096 05       		.byte	0x5
 2004 0097 696E7400 		.ascii	"int\000"
 2005 009b 02       		.uleb128 0x2
 2006 009c 04       		.byte	0x4
 2007 009d 07       		.byte	0x7
 2008 009e A1010000 		.4byte	.LASF13
 2009 00a2 03       		.uleb128 0x3
 2010 00a3 F1080000 		.4byte	.LASF14
ARM GAS  C:\Users\vicpa\AppData\Local\Temp\ccqS0gg1.s 			page 60


 2011 00a7 04       		.byte	0x4
 2012 00a8 18       		.byte	0x18
 2013 00a9 33000000 		.4byte	0x33
 2014 00ad 03       		.uleb128 0x3
 2015 00ae 7C050000 		.4byte	.LASF15
 2016 00b2 04       		.byte	0x4
 2017 00b3 20       		.byte	0x20
 2018 00b4 45000000 		.4byte	0x45
 2019 00b8 03       		.uleb128 0x3
 2020 00b9 320C0000 		.4byte	.LASF16
 2021 00bd 04       		.byte	0x4
 2022 00be 24       		.byte	0x24
 2023 00bf 50000000 		.4byte	0x50
 2024 00c3 03       		.uleb128 0x3
 2025 00c4 670F0000 		.4byte	.LASF17
 2026 00c8 04       		.byte	0x4
 2027 00c9 2C       		.byte	0x2c
 2028 00ca 62000000 		.4byte	0x62
 2029 00ce 03       		.uleb128 0x3
 2030 00cf B9010000 		.4byte	.LASF18
 2031 00d3 04       		.byte	0x4
 2032 00d4 30       		.byte	0x30
 2033 00d5 74000000 		.4byte	0x74
 2034 00d9 02       		.uleb128 0x2
 2035 00da 04       		.byte	0x4
 2036 00db 07       		.byte	0x7
 2037 00dc C00C0000 		.4byte	.LASF19
 2038 00e0 05       		.uleb128 0x5
 2039 00e1 CE000000 		.4byte	0xce
 2040 00e5 06       		.uleb128 0x6
 2041 00e6 E0000000 		.4byte	0xe0
 2042 00ea 07       		.uleb128 0x7
 2043 00eb E5000000 		.4byte	0xe5
 2044 00ef FA000000 		.4byte	0xfa
 2045 00f3 08       		.uleb128 0x8
 2046 00f4 D9000000 		.4byte	0xd9
 2047 00f8 0F       		.byte	0xf
 2048 00f9 00       		.byte	0
 2049 00fa 09       		.uleb128 0x9
 2050 00fb 80       		.byte	0x80
 2051 00fc 05       		.byte	0x5
 2052 00fd 22       		.byte	0x22
 2053 00fe CE010000 		.4byte	0x1ce
 2054 0102 0A       		.uleb128 0xa
 2055 0103 4F555400 		.ascii	"OUT\000"
 2056 0107 05       		.byte	0x5
 2057 0108 23       		.byte	0x23
 2058 0109 E0000000 		.4byte	0xe0
 2059 010d 00       		.byte	0
 2060 010e 0B       		.uleb128 0xb
 2061 010f 5E050000 		.4byte	.LASF20
 2062 0113 05       		.byte	0x5
 2063 0114 24       		.byte	0x24
 2064 0115 E0000000 		.4byte	0xe0
 2065 0119 04       		.byte	0x4
 2066 011a 0B       		.uleb128 0xb
 2067 011b 22050000 		.4byte	.LASF21
ARM GAS  C:\Users\vicpa\AppData\Local\Temp\ccqS0gg1.s 			page 61


 2068 011f 05       		.byte	0x5
 2069 0120 25       		.byte	0x25
 2070 0121 E0000000 		.4byte	0xe0
 2071 0125 08       		.byte	0x8
 2072 0126 0B       		.uleb128 0xb
 2073 0127 6B0E0000 		.4byte	.LASF22
 2074 012b 05       		.byte	0x5
 2075 012c 26       		.byte	0x26
 2076 012d E0000000 		.4byte	0xe0
 2077 0131 0C       		.byte	0xc
 2078 0132 0A       		.uleb128 0xa
 2079 0133 494E00   		.ascii	"IN\000"
 2080 0136 05       		.byte	0x5
 2081 0137 27       		.byte	0x27
 2082 0138 E5000000 		.4byte	0xe5
 2083 013c 10       		.byte	0x10
 2084 013d 0B       		.uleb128 0xb
 2085 013e B30A0000 		.4byte	.LASF23
 2086 0142 05       		.byte	0x5
 2087 0143 28       		.byte	0x28
 2088 0144 E0000000 		.4byte	0xe0
 2089 0148 14       		.byte	0x14
 2090 0149 0B       		.uleb128 0xb
 2091 014a E5070000 		.4byte	.LASF24
 2092 014e 05       		.byte	0x5
 2093 014f 29       		.byte	0x29
 2094 0150 E0000000 		.4byte	0xe0
 2095 0154 18       		.byte	0x18
 2096 0155 0B       		.uleb128 0xb
 2097 0156 F10E0000 		.4byte	.LASF25
 2098 015a 05       		.byte	0x5
 2099 015b 2A       		.byte	0x2a
 2100 015c E5000000 		.4byte	0xe5
 2101 0160 1C       		.byte	0x1c
 2102 0161 0B       		.uleb128 0xb
 2103 0162 99020000 		.4byte	.LASF26
 2104 0166 05       		.byte	0x5
 2105 0167 2B       		.byte	0x2b
 2106 0168 E0000000 		.4byte	0xe0
 2107 016c 20       		.byte	0x20
 2108 016d 0B       		.uleb128 0xb
 2109 016e EB0F0000 		.4byte	.LASF27
 2110 0172 05       		.byte	0x5
 2111 0173 2C       		.byte	0x2c
 2112 0174 E0000000 		.4byte	0xe0
 2113 0178 24       		.byte	0x24
 2114 0179 0A       		.uleb128 0xa
 2115 017a 43464700 		.ascii	"CFG\000"
 2116 017e 05       		.byte	0x5
 2117 017f 2D       		.byte	0x2d
 2118 0180 E0000000 		.4byte	0xe0
 2119 0184 28       		.byte	0x28
 2120 0185 0B       		.uleb128 0xb
 2121 0186 5A040000 		.4byte	.LASF28
 2122 018a 05       		.byte	0x5
 2123 018b 2E       		.byte	0x2e
 2124 018c E0000000 		.4byte	0xe0
ARM GAS  C:\Users\vicpa\AppData\Local\Temp\ccqS0gg1.s 			page 62


 2125 0190 2C       		.byte	0x2c
 2126 0191 0B       		.uleb128 0xb
 2127 0192 5C060000 		.4byte	.LASF29
 2128 0196 05       		.byte	0x5
 2129 0197 2F       		.byte	0x2f
 2130 0198 E0000000 		.4byte	0xe0
 2131 019c 30       		.byte	0x30
 2132 019d 0B       		.uleb128 0xb
 2133 019e E0110000 		.4byte	.LASF30
 2134 01a2 05       		.byte	0x5
 2135 01a3 30       		.byte	0x30
 2136 01a4 E0000000 		.4byte	0xe0
 2137 01a8 34       		.byte	0x34
 2138 01a9 0B       		.uleb128 0xb
 2139 01aa 14000000 		.4byte	.LASF31
 2140 01ae 05       		.byte	0x5
 2141 01af 31       		.byte	0x31
 2142 01b0 E5000000 		.4byte	0xe5
 2143 01b4 38       		.byte	0x38
 2144 01b5 0B       		.uleb128 0xb
 2145 01b6 480E0000 		.4byte	.LASF32
 2146 01ba 05       		.byte	0x5
 2147 01bb 32       		.byte	0x32
 2148 01bc E0000000 		.4byte	0xe0
 2149 01c0 3C       		.byte	0x3c
 2150 01c1 0B       		.uleb128 0xb
 2151 01c2 66050000 		.4byte	.LASF33
 2152 01c6 05       		.byte	0x5
 2153 01c7 33       		.byte	0x33
 2154 01c8 D3010000 		.4byte	0x1d3
 2155 01cc 40       		.byte	0x40
 2156 01cd 00       		.byte	0
 2157 01ce 05       		.uleb128 0x5
 2158 01cf EA000000 		.4byte	0xea
 2159 01d3 06       		.uleb128 0x6
 2160 01d4 CE010000 		.4byte	0x1ce
 2161 01d8 03       		.uleb128 0x3
 2162 01d9 E70D0000 		.4byte	.LASF34
 2163 01dd 05       		.byte	0x5
 2164 01de 34       		.byte	0x34
 2165 01df FA000000 		.4byte	0xfa
 2166 01e3 0C       		.uleb128 0xc
 2167 01e4 2440     		.2byte	0x4024
 2168 01e6 05       		.byte	0x5
 2169 01e7 39       		.byte	0x39
 2170 01e8 6E020000 		.4byte	0x26e
 2171 01ec 0A       		.uleb128 0xa
 2172 01ed 50525400 		.ascii	"PRT\000"
 2173 01f1 05       		.byte	0x5
 2174 01f2 3A       		.byte	0x3a
 2175 01f3 6E020000 		.4byte	0x26e
 2176 01f7 00       		.byte	0
 2177 01f8 0D       		.uleb128 0xd
 2178 01f9 1D000000 		.4byte	.LASF35
 2179 01fd 05       		.byte	0x5
 2180 01fe 3B       		.byte	0x3b
 2181 01ff E5000000 		.4byte	0xe5
ARM GAS  C:\Users\vicpa\AppData\Local\Temp\ccqS0gg1.s 			page 63


 2182 0203 0040     		.2byte	0x4000
 2183 0205 0D       		.uleb128 0xd
 2184 0206 29000000 		.4byte	.LASF36
 2185 020a 05       		.byte	0x5
 2186 020b 3C       		.byte	0x3c
 2187 020c E5000000 		.4byte	0xe5
 2188 0210 0440     		.2byte	0x4004
 2189 0212 0D       		.uleb128 0xd
 2190 0213 35000000 		.4byte	.LASF37
 2191 0217 05       		.byte	0x5
 2192 0218 3D       		.byte	0x3d
 2193 0219 E5000000 		.4byte	0xe5
 2194 021d 0840     		.2byte	0x4008
 2195 021f 0D       		.uleb128 0xd
 2196 0220 24090000 		.4byte	.LASF38
 2197 0224 05       		.byte	0x5
 2198 0225 3E       		.byte	0x3e
 2199 0226 E5000000 		.4byte	0xe5
 2200 022a 0C40     		.2byte	0x400c
 2201 022c 0D       		.uleb128 0xd
 2202 022d 57110000 		.4byte	.LASF39
 2203 0231 05       		.byte	0x5
 2204 0232 3F       		.byte	0x3f
 2205 0233 E5000000 		.4byte	0xe5
 2206 0237 1040     		.2byte	0x4010
 2207 0239 0D       		.uleb128 0xd
 2208 023a 3D070000 		.4byte	.LASF40
 2209 023e 05       		.byte	0x5
 2210 023f 40       		.byte	0x40
 2211 0240 E0000000 		.4byte	0xe0
 2212 0244 1440     		.2byte	0x4014
 2213 0246 0D       		.uleb128 0xd
 2214 0247 9C100000 		.4byte	.LASF41
 2215 024b 05       		.byte	0x5
 2216 024c 41       		.byte	0x41
 2217 024d E0000000 		.4byte	0xe0
 2218 0251 1840     		.2byte	0x4018
 2219 0253 0D       		.uleb128 0xd
 2220 0254 91010000 		.4byte	.LASF42
 2221 0258 05       		.byte	0x5
 2222 0259 42       		.byte	0x42
 2223 025a E5000000 		.4byte	0xe5
 2224 025e 1C40     		.2byte	0x401c
 2225 0260 0D       		.uleb128 0xd
 2226 0261 440C0000 		.4byte	.LASF43
 2227 0265 05       		.byte	0x5
 2228 0266 43       		.byte	0x43
 2229 0267 E0000000 		.4byte	0xe0
 2230 026b 2040     		.2byte	0x4020
 2231 026d 00       		.byte	0
 2232 026e 07       		.uleb128 0x7
 2233 026f D8010000 		.4byte	0x1d8
 2234 0273 7E020000 		.4byte	0x27e
 2235 0277 08       		.uleb128 0x8
 2236 0278 D9000000 		.4byte	0xd9
 2237 027c 7F       		.byte	0x7f
 2238 027d 00       		.byte	0
ARM GAS  C:\Users\vicpa\AppData\Local\Temp\ccqS0gg1.s 			page 64


 2239 027e 03       		.uleb128 0x3
 2240 027f E0040000 		.4byte	.LASF44
 2241 0283 05       		.byte	0x5
 2242 0284 44       		.byte	0x44
 2243 0285 E3010000 		.4byte	0x1e3
 2244 0289 0E       		.uleb128 0xe
 2245 028a BB070000 		.4byte	.LASF45
 2246 028e 06       		.byte	0x6
 2247 028f 3106     		.2byte	0x631
 2248 0291 D8010000 		.4byte	0x1d8
 2249 0295 0E       		.uleb128 0xe
 2250 0296 C20F0000 		.4byte	.LASF46
 2251 029a 06       		.byte	0x6
 2252 029b 3206     		.2byte	0x632
 2253 029d 7E020000 		.4byte	0x27e
 2254 02a1 02       		.uleb128 0x2
 2255 02a2 08       		.byte	0x8
 2256 02a3 04       		.byte	0x4
 2257 02a4 1E0C0000 		.4byte	.LASF47
 2258 02a8 09       		.uleb128 0x9
 2259 02a9 B8       		.byte	0xb8
 2260 02aa 07       		.byte	0x7
 2261 02ab 34       		.byte	0x34
 2262 02ac B9060000 		.4byte	0x6b9
 2263 02b0 0B       		.uleb128 0xb
 2264 02b1 0C020000 		.4byte	.LASF48
 2265 02b5 07       		.byte	0x7
 2266 02b6 37       		.byte	0x37
 2267 02b7 CE000000 		.4byte	0xce
 2268 02bb 00       		.byte	0
 2269 02bc 0B       		.uleb128 0xb
 2270 02bd 29080000 		.4byte	.LASF49
 2271 02c1 07       		.byte	0x7
 2272 02c2 38       		.byte	0x38
 2273 02c3 CE000000 		.4byte	0xce
 2274 02c7 04       		.byte	0x4
 2275 02c8 0B       		.uleb128 0xb
 2276 02c9 37010000 		.4byte	.LASF50
 2277 02cd 07       		.byte	0x7
 2278 02ce 39       		.byte	0x39
 2279 02cf CE000000 		.4byte	0xce
 2280 02d3 08       		.byte	0x8
 2281 02d4 0B       		.uleb128 0xb
 2282 02d5 1A060000 		.4byte	.LASF51
 2283 02d9 07       		.byte	0x7
 2284 02da 3A       		.byte	0x3a
 2285 02db CE000000 		.4byte	0xce
 2286 02df 0C       		.byte	0xc
 2287 02e0 0B       		.uleb128 0xb
 2288 02e1 3B0C0000 		.4byte	.LASF52
 2289 02e5 07       		.byte	0x7
 2290 02e6 3B       		.byte	0x3b
 2291 02e7 CE000000 		.4byte	0xce
 2292 02eb 10       		.byte	0x10
 2293 02ec 0B       		.uleb128 0xb
 2294 02ed 8E0A0000 		.4byte	.LASF53
 2295 02f1 07       		.byte	0x7
ARM GAS  C:\Users\vicpa\AppData\Local\Temp\ccqS0gg1.s 			page 65


 2296 02f2 3C       		.byte	0x3c
 2297 02f3 CE000000 		.4byte	0xce
 2298 02f7 14       		.byte	0x14
 2299 02f8 0B       		.uleb128 0xb
 2300 02f9 46070000 		.4byte	.LASF54
 2301 02fd 07       		.byte	0x7
 2302 02fe 3D       		.byte	0x3d
 2303 02ff CE000000 		.4byte	0xce
 2304 0303 18       		.byte	0x18
 2305 0304 0B       		.uleb128 0xb
 2306 0305 A0110000 		.4byte	.LASF55
 2307 0309 07       		.byte	0x7
 2308 030a 3E       		.byte	0x3e
 2309 030b CE000000 		.4byte	0xce
 2310 030f 1C       		.byte	0x1c
 2311 0310 0B       		.uleb128 0xb
 2312 0311 90090000 		.4byte	.LASF56
 2313 0315 07       		.byte	0x7
 2314 0316 3F       		.byte	0x3f
 2315 0317 CE000000 		.4byte	0xce
 2316 031b 20       		.byte	0x20
 2317 031c 0B       		.uleb128 0xb
 2318 031d B5090000 		.4byte	.LASF57
 2319 0321 07       		.byte	0x7
 2320 0322 40       		.byte	0x40
 2321 0323 CE000000 		.4byte	0xce
 2322 0327 24       		.byte	0x24
 2323 0328 0B       		.uleb128 0xb
 2324 0329 590D0000 		.4byte	.LASF58
 2325 032d 07       		.byte	0x7
 2326 032e 43       		.byte	0x43
 2327 032f A2000000 		.4byte	0xa2
 2328 0333 28       		.byte	0x28
 2329 0334 0B       		.uleb128 0xb
 2330 0335 2A050000 		.4byte	.LASF59
 2331 0339 07       		.byte	0x7
 2332 033a 44       		.byte	0x44
 2333 033b A2000000 		.4byte	0xa2
 2334 033f 29       		.byte	0x29
 2335 0340 0B       		.uleb128 0xb
 2336 0341 83070000 		.4byte	.LASF60
 2337 0345 07       		.byte	0x7
 2338 0346 45       		.byte	0x45
 2339 0347 A2000000 		.4byte	0xa2
 2340 034b 2A       		.byte	0x2a
 2341 034c 0B       		.uleb128 0xb
 2342 034d A50D0000 		.4byte	.LASF61
 2343 0351 07       		.byte	0x7
 2344 0352 46       		.byte	0x46
 2345 0353 A2000000 		.4byte	0xa2
 2346 0357 2B       		.byte	0x2b
 2347 0358 0B       		.uleb128 0xb
 2348 0359 930D0000 		.4byte	.LASF62
 2349 035d 07       		.byte	0x7
 2350 035e 47       		.byte	0x47
 2351 035f A2000000 		.4byte	0xa2
 2352 0363 2C       		.byte	0x2c
ARM GAS  C:\Users\vicpa\AppData\Local\Temp\ccqS0gg1.s 			page 66


 2353 0364 0B       		.uleb128 0xb
 2354 0365 230F0000 		.4byte	.LASF63
 2355 0369 07       		.byte	0x7
 2356 036a 48       		.byte	0x48
 2357 036b A2000000 		.4byte	0xa2
 2358 036f 2D       		.byte	0x2d
 2359 0370 0B       		.uleb128 0xb
 2360 0371 25120000 		.4byte	.LASF64
 2361 0375 07       		.byte	0x7
 2362 0376 49       		.byte	0x49
 2363 0377 A2000000 		.4byte	0xa2
 2364 037b 2E       		.byte	0x2e
 2365 037c 0B       		.uleb128 0xb
 2366 037d 72110000 		.4byte	.LASF65
 2367 0381 07       		.byte	0x7
 2368 0382 4A       		.byte	0x4a
 2369 0383 A2000000 		.4byte	0xa2
 2370 0387 2F       		.byte	0x2f
 2371 0388 0B       		.uleb128 0xb
 2372 0389 CA030000 		.4byte	.LASF66
 2373 038d 07       		.byte	0x7
 2374 038e 4B       		.byte	0x4b
 2375 038f A2000000 		.4byte	0xa2
 2376 0393 30       		.byte	0x30
 2377 0394 0B       		.uleb128 0xb
 2378 0395 FC0A0000 		.4byte	.LASF67
 2379 0399 07       		.byte	0x7
 2380 039a 4E       		.byte	0x4e
 2381 039b A2000000 		.4byte	0xa2
 2382 039f 31       		.byte	0x31
 2383 03a0 0B       		.uleb128 0xb
 2384 03a1 D4100000 		.4byte	.LASF68
 2385 03a5 07       		.byte	0x7
 2386 03a6 4F       		.byte	0x4f
 2387 03a7 A2000000 		.4byte	0xa2
 2388 03ab 32       		.byte	0x32
 2389 03ac 0B       		.uleb128 0xb
 2390 03ad BD0A0000 		.4byte	.LASF69
 2391 03b1 07       		.byte	0x7
 2392 03b2 50       		.byte	0x50
 2393 03b3 A2000000 		.4byte	0xa2
 2394 03b7 33       		.byte	0x33
 2395 03b8 0B       		.uleb128 0xb
 2396 03b9 0E080000 		.4byte	.LASF70
 2397 03bd 07       		.byte	0x7
 2398 03be 51       		.byte	0x51
 2399 03bf A2000000 		.4byte	0xa2
 2400 03c3 34       		.byte	0x34
 2401 03c4 0B       		.uleb128 0xb
 2402 03c5 EF050000 		.4byte	.LASF71
 2403 03c9 07       		.byte	0x7
 2404 03ca 52       		.byte	0x52
 2405 03cb AD000000 		.4byte	0xad
 2406 03cf 36       		.byte	0x36
 2407 03d0 0B       		.uleb128 0xb
 2408 03d1 20020000 		.4byte	.LASF72
 2409 03d5 07       		.byte	0x7
ARM GAS  C:\Users\vicpa\AppData\Local\Temp\ccqS0gg1.s 			page 67


 2410 03d6 53       		.byte	0x53
 2411 03d7 AD000000 		.4byte	0xad
 2412 03db 38       		.byte	0x38
 2413 03dc 0B       		.uleb128 0xb
 2414 03dd 3F020000 		.4byte	.LASF73
 2415 03e1 07       		.byte	0x7
 2416 03e2 54       		.byte	0x54
 2417 03e3 AD000000 		.4byte	0xad
 2418 03e7 3A       		.byte	0x3a
 2419 03e8 0B       		.uleb128 0xb
 2420 03e9 C3110000 		.4byte	.LASF74
 2421 03ed 07       		.byte	0x7
 2422 03ee 55       		.byte	0x55
 2423 03ef A2000000 		.4byte	0xa2
 2424 03f3 3C       		.byte	0x3c
 2425 03f4 0B       		.uleb128 0xb
 2426 03f5 CF020000 		.4byte	.LASF75
 2427 03f9 07       		.byte	0x7
 2428 03fa 56       		.byte	0x56
 2429 03fb A2000000 		.4byte	0xa2
 2430 03ff 3D       		.byte	0x3d
 2431 0400 0B       		.uleb128 0xb
 2432 0401 780C0000 		.4byte	.LASF76
 2433 0405 07       		.byte	0x7
 2434 0406 57       		.byte	0x57
 2435 0407 A2000000 		.4byte	0xa2
 2436 040b 3E       		.byte	0x3e
 2437 040c 0B       		.uleb128 0xb
 2438 040d C9000000 		.4byte	.LASF77
 2439 0411 07       		.byte	0x7
 2440 0412 58       		.byte	0x58
 2441 0413 A2000000 		.4byte	0xa2
 2442 0417 3F       		.byte	0x3f
 2443 0418 0B       		.uleb128 0xb
 2444 0419 C2010000 		.4byte	.LASF78
 2445 041d 07       		.byte	0x7
 2446 041e 59       		.byte	0x59
 2447 041f A2000000 		.4byte	0xa2
 2448 0423 40       		.byte	0x40
 2449 0424 0B       		.uleb128 0xb
 2450 0425 BF0E0000 		.4byte	.LASF79
 2451 0429 07       		.byte	0x7
 2452 042a 5A       		.byte	0x5a
 2453 042b A2000000 		.4byte	0xa2
 2454 042f 41       		.byte	0x41
 2455 0430 0B       		.uleb128 0xb
 2456 0431 46050000 		.4byte	.LASF80
 2457 0435 07       		.byte	0x7
 2458 0436 5B       		.byte	0x5b
 2459 0437 A2000000 		.4byte	0xa2
 2460 043b 42       		.byte	0x42
 2461 043c 0B       		.uleb128 0xb
 2462 043d A3070000 		.4byte	.LASF81
 2463 0441 07       		.byte	0x7
 2464 0442 5C       		.byte	0x5c
 2465 0443 A2000000 		.4byte	0xa2
 2466 0447 43       		.byte	0x43
ARM GAS  C:\Users\vicpa\AppData\Local\Temp\ccqS0gg1.s 			page 68


 2467 0448 0B       		.uleb128 0xb
 2468 0449 5E080000 		.4byte	.LASF82
 2469 044d 07       		.byte	0x7
 2470 044e 5D       		.byte	0x5d
 2471 044f A2000000 		.4byte	0xa2
 2472 0453 44       		.byte	0x44
 2473 0454 0B       		.uleb128 0xb
 2474 0455 61100000 		.4byte	.LASF83
 2475 0459 07       		.byte	0x7
 2476 045a 5E       		.byte	0x5e
 2477 045b CE000000 		.4byte	0xce
 2478 045f 48       		.byte	0x48
 2479 0460 0B       		.uleb128 0xb
 2480 0461 A2020000 		.4byte	.LASF84
 2481 0465 07       		.byte	0x7
 2482 0466 5F       		.byte	0x5f
 2483 0467 CE000000 		.4byte	0xce
 2484 046b 4C       		.byte	0x4c
 2485 046c 0B       		.uleb128 0xb
 2486 046d 73100000 		.4byte	.LASF85
 2487 0471 07       		.byte	0x7
 2488 0472 60       		.byte	0x60
 2489 0473 A2000000 		.4byte	0xa2
 2490 0477 50       		.byte	0x50
 2491 0478 0B       		.uleb128 0xb
 2492 0479 970F0000 		.4byte	.LASF86
 2493 047d 07       		.byte	0x7
 2494 047e 61       		.byte	0x61
 2495 047f A2000000 		.4byte	0xa2
 2496 0483 51       		.byte	0x51
 2497 0484 0B       		.uleb128 0xb
 2498 0485 FA090000 		.4byte	.LASF87
 2499 0489 07       		.byte	0x7
 2500 048a 62       		.byte	0x62
 2501 048b A2000000 		.4byte	0xa2
 2502 048f 52       		.byte	0x52
 2503 0490 0B       		.uleb128 0xb
 2504 0491 AC0B0000 		.4byte	.LASF88
 2505 0495 07       		.byte	0x7
 2506 0496 63       		.byte	0x63
 2507 0497 A2000000 		.4byte	0xa2
 2508 049b 53       		.byte	0x53
 2509 049c 0B       		.uleb128 0xb
 2510 049d 19100000 		.4byte	.LASF89
 2511 04a1 07       		.byte	0x7
 2512 04a2 64       		.byte	0x64
 2513 04a3 A2000000 		.4byte	0xa2
 2514 04a7 54       		.byte	0x54
 2515 04a8 0B       		.uleb128 0xb
 2516 04a9 35100000 		.4byte	.LASF90
 2517 04ad 07       		.byte	0x7
 2518 04ae 65       		.byte	0x65
 2519 04af A2000000 		.4byte	0xa2
 2520 04b3 55       		.byte	0x55
 2521 04b4 0B       		.uleb128 0xb
 2522 04b5 00000000 		.4byte	.LASF91
 2523 04b9 07       		.byte	0x7
ARM GAS  C:\Users\vicpa\AppData\Local\Temp\ccqS0gg1.s 			page 69


 2524 04ba 66       		.byte	0x66
 2525 04bb A2000000 		.4byte	0xa2
 2526 04bf 56       		.byte	0x56
 2527 04c0 0B       		.uleb128 0xb
 2528 04c1 AC0C0000 		.4byte	.LASF92
 2529 04c5 07       		.byte	0x7
 2530 04c6 67       		.byte	0x67
 2531 04c7 A2000000 		.4byte	0xa2
 2532 04cb 57       		.byte	0x57
 2533 04cc 0B       		.uleb128 0xb
 2534 04cd 75060000 		.4byte	.LASF93
 2535 04d1 07       		.byte	0x7
 2536 04d2 68       		.byte	0x68
 2537 04d3 A2000000 		.4byte	0xa2
 2538 04d7 58       		.byte	0x58
 2539 04d8 0B       		.uleb128 0xb
 2540 04d9 E8110000 		.4byte	.LASF94
 2541 04dd 07       		.byte	0x7
 2542 04de 69       		.byte	0x69
 2543 04df A2000000 		.4byte	0xa2
 2544 04e3 59       		.byte	0x59
 2545 04e4 0B       		.uleb128 0xb
 2546 04e5 C9100000 		.4byte	.LASF95
 2547 04e9 07       		.byte	0x7
 2548 04ea 6E       		.byte	0x6e
 2549 04eb B8000000 		.4byte	0xb8
 2550 04ef 5A       		.byte	0x5a
 2551 04f0 0B       		.uleb128 0xb
 2552 04f1 64010000 		.4byte	.LASF96
 2553 04f5 07       		.byte	0x7
 2554 04f6 6F       		.byte	0x6f
 2555 04f7 B8000000 		.4byte	0xb8
 2556 04fb 5C       		.byte	0x5c
 2557 04fc 0B       		.uleb128 0xb
 2558 04fd 98090000 		.4byte	.LASF97
 2559 0501 07       		.byte	0x7
 2560 0502 70       		.byte	0x70
 2561 0503 A2000000 		.4byte	0xa2
 2562 0507 5E       		.byte	0x5e
 2563 0508 0B       		.uleb128 0xb
 2564 0509 FE100000 		.4byte	.LASF98
 2565 050d 07       		.byte	0x7
 2566 050e 71       		.byte	0x71
 2567 050f A2000000 		.4byte	0xa2
 2568 0513 5F       		.byte	0x5f
 2569 0514 0B       		.uleb128 0xb
 2570 0515 C9070000 		.4byte	.LASF99
 2571 0519 07       		.byte	0x7
 2572 051a 72       		.byte	0x72
 2573 051b A2000000 		.4byte	0xa2
 2574 051f 60       		.byte	0x60
 2575 0520 0B       		.uleb128 0xb
 2576 0521 E0080000 		.4byte	.LASF100
 2577 0525 07       		.byte	0x7
 2578 0526 73       		.byte	0x73
 2579 0527 CE000000 		.4byte	0xce
 2580 052b 64       		.byte	0x64
ARM GAS  C:\Users\vicpa\AppData\Local\Temp\ccqS0gg1.s 			page 70


 2581 052c 0B       		.uleb128 0xb
 2582 052d 39120000 		.4byte	.LASF101
 2583 0531 07       		.byte	0x7
 2584 0532 76       		.byte	0x76
 2585 0533 B8000000 		.4byte	0xb8
 2586 0537 68       		.byte	0x68
 2587 0538 0B       		.uleb128 0xb
 2588 0539 590C0000 		.4byte	.LASF102
 2589 053d 07       		.byte	0x7
 2590 053e 77       		.byte	0x77
 2591 053f B8000000 		.4byte	0xb8
 2592 0543 6A       		.byte	0x6a
 2593 0544 0B       		.uleb128 0xb
 2594 0545 A40A0000 		.4byte	.LASF103
 2595 0549 07       		.byte	0x7
 2596 054a 78       		.byte	0x78
 2597 054b B8000000 		.4byte	0xb8
 2598 054f 6C       		.byte	0x6c
 2599 0550 0B       		.uleb128 0xb
 2600 0551 76020000 		.4byte	.LASF104
 2601 0555 07       		.byte	0x7
 2602 0556 79       		.byte	0x79
 2603 0557 B8000000 		.4byte	0xb8
 2604 055b 6E       		.byte	0x6e
 2605 055c 0B       		.uleb128 0xb
 2606 055d 10090000 		.4byte	.LASF105
 2607 0561 07       		.byte	0x7
 2608 0562 7B       		.byte	0x7b
 2609 0563 A2000000 		.4byte	0xa2
 2610 0567 70       		.byte	0x70
 2611 0568 0B       		.uleb128 0xb
 2612 0569 2F040000 		.4byte	.LASF106
 2613 056d 07       		.byte	0x7
 2614 056e 7C       		.byte	0x7c
 2615 056f A2000000 		.4byte	0xa2
 2616 0573 71       		.byte	0x71
 2617 0574 0B       		.uleb128 0xb
 2618 0575 83020000 		.4byte	.LASF107
 2619 0579 07       		.byte	0x7
 2620 057a 7D       		.byte	0x7d
 2621 057b A2000000 		.4byte	0xa2
 2622 057f 72       		.byte	0x72
 2623 0580 0B       		.uleb128 0xb
 2624 0581 CF010000 		.4byte	.LASF108
 2625 0585 07       		.byte	0x7
 2626 0586 7E       		.byte	0x7e
 2627 0587 A2000000 		.4byte	0xa2
 2628 058b 73       		.byte	0x73
 2629 058c 0B       		.uleb128 0xb
 2630 058d 070D0000 		.4byte	.LASF109
 2631 0591 07       		.byte	0x7
 2632 0592 80       		.byte	0x80
 2633 0593 B8000000 		.4byte	0xb8
 2634 0597 74       		.byte	0x74
 2635 0598 0B       		.uleb128 0xb
 2636 0599 BE0B0000 		.4byte	.LASF110
 2637 059d 07       		.byte	0x7
ARM GAS  C:\Users\vicpa\AppData\Local\Temp\ccqS0gg1.s 			page 71


 2638 059e 81       		.byte	0x81
 2639 059f B8000000 		.4byte	0xb8
 2640 05a3 76       		.byte	0x76
 2641 05a4 0B       		.uleb128 0xb
 2642 05a5 36090000 		.4byte	.LASF111
 2643 05a9 07       		.byte	0x7
 2644 05aa 82       		.byte	0x82
 2645 05ab B8000000 		.4byte	0xb8
 2646 05af 78       		.byte	0x78
 2647 05b0 0B       		.uleb128 0xb
 2648 05b1 AE050000 		.4byte	.LASF112
 2649 05b5 07       		.byte	0x7
 2650 05b6 83       		.byte	0x83
 2651 05b7 B8000000 		.4byte	0xb8
 2652 05bb 7A       		.byte	0x7a
 2653 05bc 0B       		.uleb128 0xb
 2654 05bd AA0E0000 		.4byte	.LASF113
 2655 05c1 07       		.byte	0x7
 2656 05c2 86       		.byte	0x86
 2657 05c3 A2000000 		.4byte	0xa2
 2658 05c7 7C       		.byte	0x7c
 2659 05c8 0B       		.uleb128 0xb
 2660 05c9 84100000 		.4byte	.LASF114
 2661 05cd 07       		.byte	0x7
 2662 05ce 87       		.byte	0x87
 2663 05cf A2000000 		.4byte	0xa2
 2664 05d3 7D       		.byte	0x7d
 2665 05d4 0B       		.uleb128 0xb
 2666 05d5 84050000 		.4byte	.LASF115
 2667 05d9 07       		.byte	0x7
 2668 05da 88       		.byte	0x88
 2669 05db A2000000 		.4byte	0xa2
 2670 05df 7E       		.byte	0x7e
 2671 05e0 0B       		.uleb128 0xb
 2672 05e1 ED040000 		.4byte	.LASF116
 2673 05e5 07       		.byte	0x7
 2674 05e6 89       		.byte	0x89
 2675 05e7 A2000000 		.4byte	0xa2
 2676 05eb 7F       		.byte	0x7f
 2677 05ec 0B       		.uleb128 0xb
 2678 05ed C3050000 		.4byte	.LASF117
 2679 05f1 07       		.byte	0x7
 2680 05f2 8A       		.byte	0x8a
 2681 05f3 A2000000 		.4byte	0xa2
 2682 05f7 80       		.byte	0x80
 2683 05f8 0B       		.uleb128 0xb
 2684 05f9 B2000000 		.4byte	.LASF118
 2685 05fd 07       		.byte	0x7
 2686 05fe 8D       		.byte	0x8d
 2687 05ff CE000000 		.4byte	0xce
 2688 0603 84       		.byte	0x84
 2689 0604 0B       		.uleb128 0xb
 2690 0605 DA0E0000 		.4byte	.LASF119
 2691 0609 07       		.byte	0x7
 2692 060a 8E       		.byte	0x8e
 2693 060b CE000000 		.4byte	0xce
 2694 060f 88       		.byte	0x88
ARM GAS  C:\Users\vicpa\AppData\Local\Temp\ccqS0gg1.s 			page 72


 2695 0610 0B       		.uleb128 0xb
 2696 0611 32110000 		.4byte	.LASF120
 2697 0615 07       		.byte	0x7
 2698 0616 8F       		.byte	0x8f
 2699 0617 CE000000 		.4byte	0xce
 2700 061b 8C       		.byte	0x8c
 2701 061c 0B       		.uleb128 0xb
 2702 061d 7C0F0000 		.4byte	.LASF121
 2703 0621 07       		.byte	0x7
 2704 0622 90       		.byte	0x90
 2705 0623 CE000000 		.4byte	0xce
 2706 0627 90       		.byte	0x90
 2707 0628 0B       		.uleb128 0xb
 2708 0629 730E0000 		.4byte	.LASF122
 2709 062d 07       		.byte	0x7
 2710 062e 91       		.byte	0x91
 2711 062f CE000000 		.4byte	0xce
 2712 0633 94       		.byte	0x94
 2713 0634 0B       		.uleb128 0xb
 2714 0635 44040000 		.4byte	.LASF123
 2715 0639 07       		.byte	0x7
 2716 063a 92       		.byte	0x92
 2717 063b CE000000 		.4byte	0xce
 2718 063f 98       		.byte	0x98
 2719 0640 0B       		.uleb128 0xb
 2720 0641 0D0F0000 		.4byte	.LASF124
 2721 0645 07       		.byte	0x7
 2722 0646 93       		.byte	0x93
 2723 0647 CE000000 		.4byte	0xce
 2724 064b 9C       		.byte	0x9c
 2725 064c 0B       		.uleb128 0xb
 2726 064d 8D070000 		.4byte	.LASF125
 2727 0651 07       		.byte	0x7
 2728 0652 94       		.byte	0x94
 2729 0653 CE000000 		.4byte	0xce
 2730 0657 A0       		.byte	0xa0
 2731 0658 0B       		.uleb128 0xb
 2732 0659 4F010000 		.4byte	.LASF126
 2733 065d 07       		.byte	0x7
 2734 065e 95       		.byte	0x95
 2735 065f B8000000 		.4byte	0xb8
 2736 0663 A4       		.byte	0xa4
 2737 0664 0B       		.uleb128 0xb
 2738 0665 E10C0000 		.4byte	.LASF127
 2739 0669 07       		.byte	0x7
 2740 066a 96       		.byte	0x96
 2741 066b B8000000 		.4byte	0xb8
 2742 066f A6       		.byte	0xa6
 2743 0670 0B       		.uleb128 0xb
 2744 0671 420F0000 		.4byte	.LASF128
 2745 0675 07       		.byte	0x7
 2746 0676 97       		.byte	0x97
 2747 0677 B8000000 		.4byte	0xb8
 2748 067b A8       		.byte	0xa8
 2749 067c 0B       		.uleb128 0xb
 2750 067d 60090000 		.4byte	.LASF129
 2751 0681 07       		.byte	0x7
ARM GAS  C:\Users\vicpa\AppData\Local\Temp\ccqS0gg1.s 			page 73


 2752 0682 98       		.byte	0x98
 2753 0683 B8000000 		.4byte	0xb8
 2754 0687 AA       		.byte	0xaa
 2755 0688 0B       		.uleb128 0xb
 2756 0689 B0020000 		.4byte	.LASF130
 2757 068d 07       		.byte	0x7
 2758 068e 99       		.byte	0x99
 2759 068f B8000000 		.4byte	0xb8
 2760 0693 AC       		.byte	0xac
 2761 0694 0B       		.uleb128 0xb
 2762 0695 4A0B0000 		.4byte	.LASF131
 2763 0699 07       		.byte	0x7
 2764 069a 9A       		.byte	0x9a
 2765 069b B8000000 		.4byte	0xb8
 2766 069f AE       		.byte	0xae
 2767 06a0 0B       		.uleb128 0xb
 2768 06a1 DA020000 		.4byte	.LASF132
 2769 06a5 07       		.byte	0x7
 2770 06a6 9D       		.byte	0x9d
 2771 06a7 B8000000 		.4byte	0xb8
 2772 06ab B0       		.byte	0xb0
 2773 06ac 0B       		.uleb128 0xb
 2774 06ad CC0F0000 		.4byte	.LASF133
 2775 06b1 07       		.byte	0x7
 2776 06b2 9E       		.byte	0x9e
 2777 06b3 CE000000 		.4byte	0xce
 2778 06b7 B4       		.byte	0xb4
 2779 06b8 00       		.byte	0
 2780 06b9 03       		.uleb128 0x3
 2781 06ba 47110000 		.4byte	.LASF134
 2782 06be 07       		.byte	0x7
 2783 06bf 9F       		.byte	0x9f
 2784 06c0 A8020000 		.4byte	0x2a8
 2785 06c4 0E       		.uleb128 0xe
 2786 06c5 060E0000 		.4byte	.LASF135
 2787 06c9 08       		.byte	0x8
 2788 06ca F601     		.2byte	0x1f6
 2789 06cc D0060000 		.4byte	0x6d0
 2790 06d0 02       		.uleb128 0x2
 2791 06d1 01       		.byte	0x1
 2792 06d2 08       		.byte	0x8
 2793 06d3 34080000 		.4byte	.LASF136
 2794 06d7 02       		.uleb128 0x2
 2795 06d8 04       		.byte	0x4
 2796 06d9 04       		.byte	0x4
 2797 06da 4E0F0000 		.4byte	.LASF137
 2798 06de 02       		.uleb128 0x2
 2799 06df 08       		.byte	0x8
 2800 06e0 04       		.byte	0x4
 2801 06e1 99110000 		.4byte	.LASF138
 2802 06e5 0E       		.uleb128 0xe
 2803 06e6 93110000 		.4byte	.LASF139
 2804 06ea 08       		.byte	0x8
 2805 06eb EA03     		.2byte	0x3ea
 2806 06ed A2000000 		.4byte	0xa2
 2807 06f1 0F       		.uleb128 0xf
 2808 06f2 04       		.byte	0x4
ARM GAS  C:\Users\vicpa\AppData\Local\Temp\ccqS0gg1.s 			page 74


 2809 06f3 02       		.uleb128 0x2
 2810 06f4 01       		.byte	0x1
 2811 06f5 02       		.byte	0x2
 2812 06f6 08070000 		.4byte	.LASF140
 2813 06fa 10       		.uleb128 0x10
 2814 06fb 04       		.byte	0x4
 2815 06fc 00070000 		.4byte	0x700
 2816 0700 11       		.uleb128 0x11
 2817 0701 0B070000 		.4byte	0x70b
 2818 0705 12       		.uleb128 0x12
 2819 0706 CE000000 		.4byte	0xce
 2820 070a 00       		.byte	0
 2821 070b 05       		.uleb128 0x5
 2822 070c F3060000 		.4byte	0x6f3
 2823 0710 0E       		.uleb128 0xe
 2824 0711 41000000 		.4byte	.LASF141
 2825 0715 09       		.byte	0x9
 2826 0716 F201     		.2byte	0x1f2
 2827 0718 FA060000 		.4byte	0x6fa
 2828 071c 13       		.uleb128 0x13
 2829 071d 02100000 		.4byte	.LASF152
 2830 0721 24       		.byte	0x24
 2831 0722 09       		.byte	0x9
 2832 0723 7402     		.2byte	0x274
 2833 0725 9F070000 		.4byte	0x79f
 2834 0729 14       		.uleb128 0x14
 2835 072a F9080000 		.4byte	.LASF142
 2836 072e 09       		.byte	0x9
 2837 072f 7702     		.2byte	0x277
 2838 0731 E0000000 		.4byte	0xe0
 2839 0735 00       		.byte	0
 2840 0736 14       		.uleb128 0x14
 2841 0737 6F060000 		.4byte	.LASF143
 2842 073b 09       		.byte	0x9
 2843 073c 7902     		.2byte	0x279
 2844 073e F1060000 		.4byte	0x6f1
 2845 0742 04       		.byte	0x4
 2846 0743 14       		.uleb128 0x14
 2847 0744 49120000 		.4byte	.LASF144
 2848 0748 09       		.byte	0x9
 2849 0749 7A02     		.2byte	0x27a
 2850 074b CE000000 		.4byte	0xce
 2851 074f 08       		.byte	0x8
 2852 0750 14       		.uleb128 0x14
 2853 0751 B2080000 		.4byte	.LASF145
 2854 0755 09       		.byte	0x9
 2855 0756 7B02     		.2byte	0x27b
 2856 0758 E0000000 		.4byte	0xe0
 2857 075c 0C       		.byte	0xc
 2858 075d 14       		.uleb128 0x14
 2859 075e 8E0B0000 		.4byte	.LASF146
 2860 0762 09       		.byte	0x9
 2861 0763 7D02     		.2byte	0x27d
 2862 0765 F1060000 		.4byte	0x6f1
 2863 0769 10       		.byte	0x10
 2864 076a 14       		.uleb128 0x14
 2865 076b F20A0000 		.4byte	.LASF147
ARM GAS  C:\Users\vicpa\AppData\Local\Temp\ccqS0gg1.s 			page 75


 2866 076f 09       		.byte	0x9
 2867 0770 7E02     		.2byte	0x27e
 2868 0772 CE000000 		.4byte	0xce
 2869 0776 14       		.byte	0x14
 2870 0777 14       		.uleb128 0x14
 2871 0778 E6010000 		.4byte	.LASF148
 2872 077c 09       		.byte	0x9
 2873 077d 7F02     		.2byte	0x27f
 2874 077f E0000000 		.4byte	0xe0
 2875 0783 18       		.byte	0x18
 2876 0784 14       		.uleb128 0x14
 2877 0785 C8060000 		.4byte	.LASF149
 2878 0789 09       		.byte	0x9
 2879 078a 8502     		.2byte	0x285
 2880 078c 10070000 		.4byte	0x710
 2881 0790 1C       		.byte	0x1c
 2882 0791 14       		.uleb128 0x14
 2883 0792 7E110000 		.4byte	.LASF150
 2884 0796 09       		.byte	0x9
 2885 0797 8802     		.2byte	0x288
 2886 0799 CE000000 		.4byte	0xce
 2887 079d 20       		.byte	0x20
 2888 079e 00       		.byte	0
 2889 079f 0E       		.uleb128 0xe
 2890 07a0 350A0000 		.4byte	.LASF151
 2891 07a4 09       		.byte	0x9
 2892 07a5 8B02     		.2byte	0x28b
 2893 07a7 1C070000 		.4byte	0x71c
 2894 07ab 15       		.uleb128 0x15
 2895 07ac E2100000 		.4byte	.LASF153
 2896 07b0 4C       		.byte	0x4c
 2897 07b1 0A       		.byte	0xa
 2898 07b2 2F       		.byte	0x2f
 2899 07b3 9C080000 		.4byte	0x89c
 2900 07b7 0B       		.uleb128 0xb
 2901 07b8 B6100000 		.4byte	.LASF154
 2902 07bc 0A       		.byte	0xa
 2903 07bd 31       		.byte	0x31
 2904 07be CE000000 		.4byte	0xce
 2905 07c2 00       		.byte	0
 2906 07c3 0B       		.uleb128 0xb
 2907 07c4 6F080000 		.4byte	.LASF155
 2908 07c8 0A       		.byte	0xa
 2909 07c9 33       		.byte	0x33
 2910 07ca CE000000 		.4byte	0xce
 2911 07ce 04       		.byte	0x4
 2912 07cf 0B       		.uleb128 0xb
 2913 07d0 510C0000 		.4byte	.LASF156
 2914 07d4 0A       		.byte	0xa
 2915 07d5 34       		.byte	0x34
 2916 07d6 CE000000 		.4byte	0xce
 2917 07da 08       		.byte	0x8
 2918 07db 0B       		.uleb128 0xb
 2919 07dc D80D0000 		.4byte	.LASF157
 2920 07e0 0A       		.byte	0xa
 2921 07e1 35       		.byte	0x35
 2922 07e2 CE000000 		.4byte	0xce
ARM GAS  C:\Users\vicpa\AppData\Local\Temp\ccqS0gg1.s 			page 76


 2923 07e6 0C       		.byte	0xc
 2924 07e7 0B       		.uleb128 0xb
 2925 07e8 F60C0000 		.4byte	.LASF158
 2926 07ec 0A       		.byte	0xa
 2927 07ed 37       		.byte	0x37
 2928 07ee CE000000 		.4byte	0xce
 2929 07f2 10       		.byte	0x10
 2930 07f3 0B       		.uleb128 0xb
 2931 07f4 EE020000 		.4byte	.LASF159
 2932 07f8 0A       		.byte	0xa
 2933 07f9 38       		.byte	0x38
 2934 07fa CE000000 		.4byte	0xce
 2935 07fe 14       		.byte	0x14
 2936 07ff 0B       		.uleb128 0xb
 2937 0800 F7020000 		.4byte	.LASF160
 2938 0804 0A       		.byte	0xa
 2939 0805 39       		.byte	0x39
 2940 0806 CE000000 		.4byte	0xce
 2941 080a 18       		.byte	0x18
 2942 080b 0B       		.uleb128 0xb
 2943 080c 380D0000 		.4byte	.LASF161
 2944 0810 0A       		.byte	0xa
 2945 0811 3A       		.byte	0x3a
 2946 0812 F3060000 		.4byte	0x6f3
 2947 0816 1C       		.byte	0x1c
 2948 0817 0B       		.uleb128 0xb
 2949 0818 7F040000 		.4byte	.LASF162
 2950 081c 0A       		.byte	0xa
 2951 081d 3C       		.byte	0x3c
 2952 081e CE000000 		.4byte	0xce
 2953 0822 20       		.byte	0x20
 2954 0823 0B       		.uleb128 0xb
 2955 0824 45060000 		.4byte	.LASF163
 2956 0828 0A       		.byte	0xa
 2957 0829 3D       		.byte	0x3d
 2958 082a CE000000 		.4byte	0xce
 2959 082e 24       		.byte	0x24
 2960 082f 0B       		.uleb128 0xb
 2961 0830 6F0F0000 		.4byte	.LASF164
 2962 0834 0A       		.byte	0xa
 2963 0835 3F       		.byte	0x3f
 2964 0836 CE000000 		.4byte	0xce
 2965 083a 28       		.byte	0x28
 2966 083b 0B       		.uleb128 0xb
 2967 083c C90A0000 		.4byte	.LASF165
 2968 0840 0A       		.byte	0xa
 2969 0841 40       		.byte	0x40
 2970 0842 CE000000 		.4byte	0xce
 2971 0846 2C       		.byte	0x2c
 2972 0847 0B       		.uleb128 0xb
 2973 0848 70050000 		.4byte	.LASF166
 2974 084c 0A       		.byte	0xa
 2975 084d 42       		.byte	0x42
 2976 084e CE000000 		.4byte	0xce
 2977 0852 30       		.byte	0x30
 2978 0853 0B       		.uleb128 0xb
 2979 0854 36060000 		.4byte	.LASF167
ARM GAS  C:\Users\vicpa\AppData\Local\Temp\ccqS0gg1.s 			page 77


 2980 0858 0A       		.byte	0xa
 2981 0859 43       		.byte	0x43
 2982 085a CE000000 		.4byte	0xce
 2983 085e 34       		.byte	0x34
 2984 085f 0B       		.uleb128 0xb
 2985 0860 F7010000 		.4byte	.LASF168
 2986 0864 0A       		.byte	0xa
 2987 0865 45       		.byte	0x45
 2988 0866 CE000000 		.4byte	0xce
 2989 086a 38       		.byte	0x38
 2990 086b 0B       		.uleb128 0xb
 2991 086c 88000000 		.4byte	.LASF169
 2992 0870 0A       		.byte	0xa
 2993 0871 46       		.byte	0x46
 2994 0872 CE000000 		.4byte	0xce
 2995 0876 3C       		.byte	0x3c
 2996 0877 0B       		.uleb128 0xb
 2997 0878 54020000 		.4byte	.LASF170
 2998 087c 0A       		.byte	0xa
 2999 087d 48       		.byte	0x48
 3000 087e CE000000 		.4byte	0xce
 3001 0882 40       		.byte	0x40
 3002 0883 0B       		.uleb128 0xb
 3003 0884 840D0000 		.4byte	.LASF171
 3004 0888 0A       		.byte	0xa
 3005 0889 49       		.byte	0x49
 3006 088a CE000000 		.4byte	0xce
 3007 088e 44       		.byte	0x44
 3008 088f 0B       		.uleb128 0xb
 3009 0890 E00F0000 		.4byte	.LASF172
 3010 0894 0A       		.byte	0xa
 3011 0895 4B       		.byte	0x4b
 3012 0896 CE000000 		.4byte	0xce
 3013 089a 48       		.byte	0x48
 3014 089b 00       		.byte	0
 3015 089c 03       		.uleb128 0x3
 3016 089d 860C0000 		.4byte	.LASF173
 3017 08a1 0A       		.byte	0xa
 3018 08a2 4C       		.byte	0x4c
 3019 08a3 AB070000 		.4byte	0x7ab
 3020 08a7 10       		.uleb128 0x10
 3021 08a8 04       		.byte	0x4
 3022 08a9 89020000 		.4byte	0x289
 3023 08ad 10       		.uleb128 0x10
 3024 08ae 04       		.byte	0x4
 3025 08af B3080000 		.4byte	0x8b3
 3026 08b3 16       		.uleb128 0x16
 3027 08b4 03       		.uleb128 0x3
 3028 08b5 A10B0000 		.4byte	.LASF174
 3029 08b9 0B       		.byte	0xb
 3030 08ba 3F       		.byte	0x3f
 3031 08bb CE000000 		.4byte	0xce
 3032 08bf 10       		.uleb128 0x10
 3033 08c0 04       		.byte	0x4
 3034 08c1 C5080000 		.4byte	0x8c5
 3035 08c5 06       		.uleb128 0x6
 3036 08c6 D0060000 		.4byte	0x6d0
ARM GAS  C:\Users\vicpa\AppData\Local\Temp\ccqS0gg1.s 			page 78


 3037 08ca 10       		.uleb128 0x10
 3038 08cb 04       		.byte	0x4
 3039 08cc D0080000 		.4byte	0x8d0
 3040 08d0 06       		.uleb128 0x6
 3041 08d1 3E000000 		.4byte	0x3e
 3042 08d5 09       		.uleb128 0x9
 3043 08d6 04       		.byte	0x4
 3044 08d7 0C       		.byte	0xc
 3045 08d8 B6       		.byte	0xb6
 3046 08d9 F4080000 		.4byte	0x8f4
 3047 08dd 0A       		.uleb128 0xa
 3048 08de 633000   		.ascii	"c0\000"
 3049 08e1 0C       		.byte	0xc
 3050 08e2 B7       		.byte	0xb7
 3051 08e3 25000000 		.4byte	0x25
 3052 08e7 00       		.byte	0
 3053 08e8 0A       		.uleb128 0xa
 3054 08e9 633100   		.ascii	"c1\000"
 3055 08ec 0C       		.byte	0xc
 3056 08ed B8       		.byte	0xb8
 3057 08ee 25000000 		.4byte	0x25
 3058 08f2 02       		.byte	0x2
 3059 08f3 00       		.byte	0
 3060 08f4 03       		.uleb128 0x3
 3061 08f5 540F0000 		.4byte	.LASF175
 3062 08f9 0C       		.byte	0xc
 3063 08fa B9       		.byte	0xb9
 3064 08fb D5080000 		.4byte	0x8d5
 3065 08ff 09       		.uleb128 0x9
 3066 0900 08       		.byte	0x8
 3067 0901 0C       		.byte	0xc
 3068 0902 BB       		.byte	0xbb
 3069 0903 2C090000 		.4byte	0x92c
 3070 0907 0B       		.uleb128 0xb
 3071 0908 1F080000 		.4byte	.LASF176
 3072 090c 0C       		.byte	0xc
 3073 090d BC       		.byte	0xbc
 3074 090e 5B000000 		.4byte	0x5b
 3075 0912 00       		.byte	0
 3076 0913 0B       		.uleb128 0xb
 3077 0914 B30D0000 		.4byte	.LASF177
 3078 0918 0C       		.byte	0xc
 3079 0919 BD       		.byte	0xbd
 3080 091a 5B000000 		.4byte	0x5b
 3081 091e 02       		.byte	0x2
 3082 091f 0B       		.uleb128 0xb
 3083 0920 8B010000 		.4byte	.LASF178
 3084 0924 0C       		.byte	0xc
 3085 0925 BE       		.byte	0xbe
 3086 0926 2C090000 		.4byte	0x92c
 3087 092a 04       		.byte	0x4
 3088 092b 00       		.byte	0
 3089 092c 10       		.uleb128 0x10
 3090 092d 04       		.byte	0x4
 3091 092e 32090000 		.4byte	0x932
 3092 0932 06       		.uleb128 0x6
 3093 0933 F4080000 		.4byte	0x8f4
ARM GAS  C:\Users\vicpa\AppData\Local\Temp\ccqS0gg1.s 			page 79


 3094 0937 03       		.uleb128 0x3
 3095 0938 90040000 		.4byte	.LASF179
 3096 093c 0C       		.byte	0xc
 3097 093d BF       		.byte	0xbf
 3098 093e FF080000 		.4byte	0x8ff
 3099 0942 09       		.uleb128 0x9
 3100 0943 08       		.byte	0x8
 3101 0944 0C       		.byte	0xc
 3102 0945 C1       		.byte	0xc1
 3103 0946 7B090000 		.4byte	0x97b
 3104 094a 0B       		.uleb128 0xb
 3105 094b 19110000 		.4byte	.LASF180
 3106 094f 0C       		.byte	0xc
 3107 0950 C2       		.byte	0xc2
 3108 0951 3E000000 		.4byte	0x3e
 3109 0955 00       		.byte	0
 3110 0956 0B       		.uleb128 0xb
 3111 0957 910F0000 		.4byte	.LASF181
 3112 095b 0C       		.byte	0xc
 3113 095c C3       		.byte	0xc3
 3114 095d 3E000000 		.4byte	0x3e
 3115 0961 01       		.byte	0x1
 3116 0962 0B       		.uleb128 0xb
 3117 0963 ED090000 		.4byte	.LASF182
 3118 0967 0C       		.byte	0xc
 3119 0968 C4       		.byte	0xc4
 3120 0969 3E000000 		.4byte	0x3e
 3121 096d 02       		.byte	0x2
 3122 096e 0B       		.uleb128 0xb
 3123 096f E8020000 		.4byte	.LASF183
 3124 0973 0C       		.byte	0xc
 3125 0974 C5       		.byte	0xc5
 3126 0975 CA080000 		.4byte	0x8ca
 3127 0979 04       		.byte	0x4
 3128 097a 00       		.byte	0
 3129 097b 03       		.uleb128 0x3
 3130 097c A9110000 		.4byte	.LASF184
 3131 0980 0C       		.byte	0xc
 3132 0981 C6       		.byte	0xc6
 3133 0982 42090000 		.4byte	0x942
 3134 0986 09       		.uleb128 0x9
 3135 0987 0C       		.byte	0xc
 3136 0988 0C       		.byte	0xc
 3137 0989 C8       		.byte	0xc8
 3138 098a D7090000 		.4byte	0x9d7
 3139 098e 0B       		.uleb128 0xb
 3140 098f 19110000 		.4byte	.LASF180
 3141 0993 0C       		.byte	0xc
 3142 0994 C9       		.byte	0xc9
 3143 0995 3E000000 		.4byte	0x3e
 3144 0999 00       		.byte	0
 3145 099a 0B       		.uleb128 0xb
 3146 099b 110B0000 		.4byte	.LASF185
 3147 099f 0C       		.byte	0xc
 3148 09a0 CA       		.byte	0xca
 3149 09a1 3E000000 		.4byte	0x3e
 3150 09a5 01       		.byte	0x1
ARM GAS  C:\Users\vicpa\AppData\Local\Temp\ccqS0gg1.s 			page 80


 3151 09a6 0B       		.uleb128 0xb
 3152 09a7 0B090000 		.4byte	.LASF186
 3153 09ab 0C       		.byte	0xc
 3154 09ac CB       		.byte	0xcb
 3155 09ad 2C000000 		.4byte	0x2c
 3156 09b1 02       		.byte	0x2
 3157 09b2 0B       		.uleb128 0xb
 3158 09b3 0B010000 		.4byte	.LASF187
 3159 09b7 0C       		.byte	0xc
 3160 09b8 CC       		.byte	0xcc
 3161 09b9 2C000000 		.4byte	0x2c
 3162 09bd 03       		.byte	0x3
 3163 09be 0B       		.uleb128 0xb
 3164 09bf 910F0000 		.4byte	.LASF181
 3165 09c3 0C       		.byte	0xc
 3166 09c4 CD       		.byte	0xcd
 3167 09c5 3E000000 		.4byte	0x3e
 3168 09c9 04       		.byte	0x4
 3169 09ca 0B       		.uleb128 0xb
 3170 09cb E8020000 		.4byte	.LASF183
 3171 09cf 0C       		.byte	0xc
 3172 09d0 CE       		.byte	0xce
 3173 09d1 CA080000 		.4byte	0x8ca
 3174 09d5 08       		.byte	0x8
 3175 09d6 00       		.byte	0
 3176 09d7 03       		.uleb128 0x3
 3177 09d8 FC050000 		.4byte	.LASF188
 3178 09dc 0C       		.byte	0xc
 3179 09dd CF       		.byte	0xcf
 3180 09de 86090000 		.4byte	0x986
 3181 09e2 15       		.uleb128 0x15
 3182 09e3 01050000 		.4byte	.LASF189
 3183 09e7 0C       		.byte	0xc
 3184 09e8 0C       		.byte	0xc
 3185 09e9 D1       		.byte	0xd1
 3186 09ea 1F0A0000 		.4byte	0xa1f
 3187 09ee 0B       		.uleb128 0xb
 3188 09ef 82000000 		.4byte	.LASF190
 3189 09f3 0C       		.byte	0xc
 3190 09f4 D2       		.byte	0xd2
 3191 09f5 5B000000 		.4byte	0x5b
 3192 09f9 00       		.byte	0
 3193 09fa 0B       		.uleb128 0xb
 3194 09fb B80A0000 		.4byte	.LASF191
 3195 09ff 0C       		.byte	0xc
 3196 0a00 D3       		.byte	0xd3
 3197 0a01 5B000000 		.4byte	0x5b
 3198 0a05 02       		.byte	0x2
 3199 0a06 0B       		.uleb128 0xb
 3200 0a07 00090000 		.4byte	.LASF192
 3201 0a0b 0C       		.byte	0xc
 3202 0a0c D4       		.byte	0xd4
 3203 0a0d 1F0A0000 		.4byte	0xa1f
 3204 0a11 04       		.byte	0x4
 3205 0a12 0B       		.uleb128 0xb
 3206 0a13 08120000 		.4byte	.LASF193
 3207 0a17 0C       		.byte	0xc
ARM GAS  C:\Users\vicpa\AppData\Local\Temp\ccqS0gg1.s 			page 81


 3208 0a18 D5       		.byte	0xd5
 3209 0a19 2A0A0000 		.4byte	0xa2a
 3210 0a1d 08       		.byte	0x8
 3211 0a1e 00       		.byte	0
 3212 0a1f 10       		.uleb128 0x10
 3213 0a20 04       		.byte	0x4
 3214 0a21 250A0000 		.4byte	0xa25
 3215 0a25 06       		.uleb128 0x6
 3216 0a26 7B090000 		.4byte	0x97b
 3217 0a2a 10       		.uleb128 0x10
 3218 0a2b 04       		.byte	0x4
 3219 0a2c 300A0000 		.4byte	0xa30
 3220 0a30 06       		.uleb128 0x6
 3221 0a31 E2090000 		.4byte	0x9e2
 3222 0a35 03       		.uleb128 0x3
 3223 0a36 01050000 		.4byte	.LASF189
 3224 0a3a 0C       		.byte	0xc
 3225 0a3b D6       		.byte	0xd6
 3226 0a3c E2090000 		.4byte	0x9e2
 3227 0a40 15       		.uleb128 0x15
 3228 0a41 F9000000 		.4byte	.LASF194
 3229 0a45 0C       		.byte	0xc
 3230 0a46 0C       		.byte	0xc
 3231 0a47 D8       		.byte	0xd8
 3232 0a48 7D0A0000 		.4byte	0xa7d
 3233 0a4c 0B       		.uleb128 0xb
 3234 0a4d 82000000 		.4byte	.LASF190
 3235 0a51 0C       		.byte	0xc
 3236 0a52 D9       		.byte	0xd9
 3237 0a53 5B000000 		.4byte	0x5b
 3238 0a57 00       		.byte	0
 3239 0a58 0B       		.uleb128 0xb
 3240 0a59 B80A0000 		.4byte	.LASF191
 3241 0a5d 0C       		.byte	0xc
 3242 0a5e DA       		.byte	0xda
 3243 0a5f 5B000000 		.4byte	0x5b
 3244 0a63 02       		.byte	0x2
 3245 0a64 0B       		.uleb128 0xb
 3246 0a65 00090000 		.4byte	.LASF192
 3247 0a69 0C       		.byte	0xc
 3248 0a6a DB       		.byte	0xdb
 3249 0a6b 7D0A0000 		.4byte	0xa7d
 3250 0a6f 04       		.byte	0x4
 3251 0a70 0B       		.uleb128 0xb
 3252 0a71 08120000 		.4byte	.LASF193
 3253 0a75 0C       		.byte	0xc
 3254 0a76 DC       		.byte	0xdc
 3255 0a77 880A0000 		.4byte	0xa88
 3256 0a7b 08       		.byte	0x8
 3257 0a7c 00       		.byte	0
 3258 0a7d 10       		.uleb128 0x10
 3259 0a7e 04       		.byte	0x4
 3260 0a7f 830A0000 		.4byte	0xa83
 3261 0a83 06       		.uleb128 0x6
 3262 0a84 D7090000 		.4byte	0x9d7
 3263 0a88 10       		.uleb128 0x10
 3264 0a89 04       		.byte	0x4
ARM GAS  C:\Users\vicpa\AppData\Local\Temp\ccqS0gg1.s 			page 82


 3265 0a8a 8E0A0000 		.4byte	0xa8e
 3266 0a8e 06       		.uleb128 0x6
 3267 0a8f 400A0000 		.4byte	0xa40
 3268 0a93 03       		.uleb128 0x3
 3269 0a94 F9000000 		.4byte	.LASF194
 3270 0a98 0C       		.byte	0xc
 3271 0a99 DD       		.byte	0xdd
 3272 0a9a 400A0000 		.4byte	0xa40
 3273 0a9e 09       		.uleb128 0x9
 3274 0a9f 14       		.byte	0x14
 3275 0aa0 0C       		.byte	0xc
 3276 0aa1 DF       		.byte	0xdf
 3277 0aa2 070B0000 		.4byte	0xb07
 3278 0aa6 0B       		.uleb128 0xb
 3279 0aa7 E8020000 		.4byte	.LASF183
 3280 0aab 0C       		.byte	0xc
 3281 0aac E0       		.byte	0xe0
 3282 0aad CA080000 		.4byte	0x8ca
 3283 0ab1 00       		.byte	0
 3284 0ab2 0B       		.uleb128 0xb
 3285 0ab3 22060000 		.4byte	.LASF195
 3286 0ab7 0C       		.byte	0xc
 3287 0ab8 E1       		.byte	0xe1
 3288 0ab9 CA080000 		.4byte	0x8ca
 3289 0abd 04       		.byte	0x4
 3290 0abe 0B       		.uleb128 0xb
 3291 0abf E20B0000 		.4byte	.LASF196
 3292 0ac3 0C       		.byte	0xc
 3293 0ac4 E2       		.byte	0xe2
 3294 0ac5 070B0000 		.4byte	0xb07
 3295 0ac9 08       		.byte	0x8
 3296 0aca 0B       		.uleb128 0xb
 3297 0acb 1F080000 		.4byte	.LASF176
 3298 0acf 0C       		.byte	0xc
 3299 0ad0 E3       		.byte	0xe3
 3300 0ad1 5B000000 		.4byte	0x5b
 3301 0ad5 0C       		.byte	0xc
 3302 0ad6 0B       		.uleb128 0xb
 3303 0ad7 B30D0000 		.4byte	.LASF177
 3304 0adb 0C       		.byte	0xc
 3305 0adc E4       		.byte	0xe4
 3306 0add 5B000000 		.4byte	0x5b
 3307 0ae1 0E       		.byte	0xe
 3308 0ae2 0B       		.uleb128 0xb
 3309 0ae3 19110000 		.4byte	.LASF180
 3310 0ae7 0C       		.byte	0xc
 3311 0ae8 E5       		.byte	0xe5
 3312 0ae9 3E000000 		.4byte	0x3e
 3313 0aed 10       		.byte	0x10
 3314 0aee 0B       		.uleb128 0xb
 3315 0aef 910F0000 		.4byte	.LASF181
 3316 0af3 0C       		.byte	0xc
 3317 0af4 E6       		.byte	0xe6
 3318 0af5 3E000000 		.4byte	0x3e
 3319 0af9 11       		.byte	0x11
 3320 0afa 0B       		.uleb128 0xb
 3321 0afb ED090000 		.4byte	.LASF182
ARM GAS  C:\Users\vicpa\AppData\Local\Temp\ccqS0gg1.s 			page 83


 3322 0aff 0C       		.byte	0xc
 3323 0b00 E7       		.byte	0xe7
 3324 0b01 3E000000 		.4byte	0x3e
 3325 0b05 12       		.byte	0x12
 3326 0b06 00       		.byte	0
 3327 0b07 10       		.uleb128 0x10
 3328 0b08 04       		.byte	0x4
 3329 0b09 0D0B0000 		.4byte	0xb0d
 3330 0b0d 06       		.uleb128 0x6
 3331 0b0e 37090000 		.4byte	0x937
 3332 0b12 03       		.uleb128 0x3
 3333 0b13 38050000 		.4byte	.LASF197
 3334 0b17 0C       		.byte	0xc
 3335 0b18 E8       		.byte	0xe8
 3336 0b19 9E0A0000 		.4byte	0xa9e
 3337 0b1d 09       		.uleb128 0x9
 3338 0b1e 06       		.byte	0x6
 3339 0b1f 0C       		.byte	0xc
 3340 0b20 F1       		.byte	0xf1
 3341 0b21 560B0000 		.4byte	0xb56
 3342 0b25 0B       		.uleb128 0xb
 3343 0b26 1C050000 		.4byte	.LASF198
 3344 0b2a 0C       		.byte	0xc
 3345 0b2b F2       		.byte	0xf2
 3346 0b2c 5B000000 		.4byte	0x5b
 3347 0b30 00       		.byte	0
 3348 0b31 0B       		.uleb128 0xb
 3349 0b32 2D060000 		.4byte	.LASF199
 3350 0b36 0C       		.byte	0xc
 3351 0b37 F3       		.byte	0xf3
 3352 0b38 3E000000 		.4byte	0x3e
 3353 0b3c 02       		.byte	0x2
 3354 0b3d 0B       		.uleb128 0xb
 3355 0b3e A40C0000 		.4byte	.LASF200
 3356 0b42 0C       		.byte	0xc
 3357 0b43 F4       		.byte	0xf4
 3358 0b44 3E000000 		.4byte	0x3e
 3359 0b48 03       		.byte	0x3
 3360 0b49 0B       		.uleb128 0xb
 3361 0b4a 170B0000 		.4byte	.LASF201
 3362 0b4e 0C       		.byte	0xc
 3363 0b4f F5       		.byte	0xf5
 3364 0b50 3E000000 		.4byte	0x3e
 3365 0b54 04       		.byte	0x4
 3366 0b55 00       		.byte	0
 3367 0b56 03       		.uleb128 0x3
 3368 0b57 B2040000 		.4byte	.LASF202
 3369 0b5b 0C       		.byte	0xc
 3370 0b5c F6       		.byte	0xf6
 3371 0b5d 1D0B0000 		.4byte	0xb1d
 3372 0b61 0E       		.uleb128 0xe
 3373 0b62 F90B0000 		.4byte	.LASF203
 3374 0b66 0C       		.byte	0xc
 3375 0b67 1301     		.2byte	0x113
 3376 0b69 6D0B0000 		.4byte	0xb6d
 3377 0b6d 17       		.uleb128 0x17
 3378 0b6e 94000000 		.4byte	0x94
ARM GAS  C:\Users\vicpa\AppData\Local\Temp\ccqS0gg1.s 			page 84


 3379 0b72 810B0000 		.4byte	0xb81
 3380 0b76 12       		.uleb128 0x12
 3381 0b77 BF080000 		.4byte	0x8bf
 3382 0b7b 12       		.uleb128 0x12
 3383 0b7c 94000000 		.4byte	0x94
 3384 0b80 00       		.byte	0
 3385 0b81 0E       		.uleb128 0xe
 3386 0b82 FD0E0000 		.4byte	.LASF204
 3387 0b86 0C       		.byte	0xc
 3388 0b87 1401     		.2byte	0x114
 3389 0b89 6D0B0000 		.4byte	0xb6d
 3390 0b8d 0E       		.uleb128 0xe
 3391 0b8e 810A0000 		.4byte	.LASF205
 3392 0b92 0C       		.byte	0xc
 3393 0b93 1501     		.2byte	0x115
 3394 0b95 990B0000 		.4byte	0xb99
 3395 0b99 11       		.uleb128 0x11
 3396 0b9a A90B0000 		.4byte	0xba9
 3397 0b9e 12       		.uleb128 0x12
 3398 0b9f BF080000 		.4byte	0x8bf
 3399 0ba3 12       		.uleb128 0x12
 3400 0ba4 94000000 		.4byte	0x94
 3401 0ba8 00       		.byte	0
 3402 0ba9 18       		.uleb128 0x18
 3403 0baa 0C       		.byte	0xc
 3404 0bab 0C       		.byte	0xc
 3405 0bac 1701     		.2byte	0x117
 3406 0bae DA0B0000 		.4byte	0xbda
 3407 0bb2 14       		.uleb128 0x14
 3408 0bb3 4F070000 		.4byte	.LASF206
 3409 0bb7 0C       		.byte	0xc
 3410 0bb8 1801     		.2byte	0x118
 3411 0bba DA0B0000 		.4byte	0xbda
 3412 0bbe 00       		.byte	0
 3413 0bbf 14       		.uleb128 0x14
 3414 0bc0 E50A0000 		.4byte	.LASF207
 3415 0bc4 0C       		.byte	0xc
 3416 0bc5 1901     		.2byte	0x119
 3417 0bc7 E00B0000 		.4byte	0xbe0
 3418 0bcb 04       		.byte	0x4
 3419 0bcc 14       		.uleb128 0x14
 3420 0bcd 9F0E0000 		.4byte	.LASF208
 3421 0bd1 0C       		.byte	0xc
 3422 0bd2 1A01     		.2byte	0x11a
 3423 0bd4 E60B0000 		.4byte	0xbe6
 3424 0bd8 08       		.byte	0x8
 3425 0bd9 00       		.byte	0
 3426 0bda 10       		.uleb128 0x10
 3427 0bdb 04       		.byte	0x4
 3428 0bdc 610B0000 		.4byte	0xb61
 3429 0be0 10       		.uleb128 0x10
 3430 0be1 04       		.byte	0x4
 3431 0be2 810B0000 		.4byte	0xb81
 3432 0be6 10       		.uleb128 0x10
 3433 0be7 04       		.byte	0x4
 3434 0be8 8D0B0000 		.4byte	0xb8d
 3435 0bec 0E       		.uleb128 0xe
ARM GAS  C:\Users\vicpa\AppData\Local\Temp\ccqS0gg1.s 			page 85


 3436 0bed 5F000000 		.4byte	.LASF209
 3437 0bf1 0C       		.byte	0xc
 3438 0bf2 1B01     		.2byte	0x11b
 3439 0bf4 A90B0000 		.4byte	0xba9
 3440 0bf8 0E       		.uleb128 0xe
 3441 0bf9 2F0D0000 		.4byte	.LASF210
 3442 0bfd 0C       		.byte	0xc
 3443 0bfe 2401     		.2byte	0x124
 3444 0c00 040C0000 		.4byte	0xc04
 3445 0c04 13       		.uleb128 0x13
 3446 0c05 2F0D0000 		.4byte	.LASF210
 3447 0c09 24       		.byte	0x24
 3448 0c0a 0C       		.byte	0xc
 3449 0c0b B101     		.2byte	0x1b1
 3450 0c0d C60C0000 		.4byte	0xcc6
 3451 0c11 14       		.uleb128 0x14
 3452 0c12 BD060000 		.4byte	.LASF211
 3453 0c16 0C       		.byte	0xc
 3454 0c17 B201     		.2byte	0x1b2
 3455 0c19 D10D0000 		.4byte	0xdd1
 3456 0c1d 00       		.byte	0
 3457 0c1e 14       		.uleb128 0x14
 3458 0c1f 40010000 		.4byte	.LASF212
 3459 0c23 0C       		.byte	0xc
 3460 0c24 B301     		.2byte	0x1b3
 3461 0c26 D70D0000 		.4byte	0xdd7
 3462 0c2a 04       		.byte	0x4
 3463 0c2b 14       		.uleb128 0x14
 3464 0c2c A7090000 		.4byte	.LASF213
 3465 0c30 0C       		.byte	0xc
 3466 0c31 B401     		.2byte	0x1b4
 3467 0c33 DD0D0000 		.4byte	0xddd
 3468 0c37 08       		.byte	0x8
 3469 0c38 14       		.uleb128 0x14
 3470 0c39 32070000 		.4byte	.LASF214
 3471 0c3d 0C       		.byte	0xc
 3472 0c3e B501     		.2byte	0x1b5
 3473 0c40 E30D0000 		.4byte	0xde3
 3474 0c44 0C       		.byte	0xc
 3475 0c45 14       		.uleb128 0x14
 3476 0c46 13070000 		.4byte	.LASF215
 3477 0c4a 0C       		.byte	0xc
 3478 0c4b B601     		.2byte	0x1b6
 3479 0c4d E90D0000 		.4byte	0xde9
 3480 0c51 10       		.byte	0x10
 3481 0c52 14       		.uleb128 0x14
 3482 0c53 2B0A0000 		.4byte	.LASF216
 3483 0c57 0C       		.byte	0xc
 3484 0c58 B701     		.2byte	0x1b7
 3485 0c5a EF0D0000 		.4byte	0xdef
 3486 0c5e 14       		.byte	0x14
 3487 0c5f 14       		.uleb128 0x14
 3488 0c60 110B0000 		.4byte	.LASF185
 3489 0c64 0C       		.byte	0xc
 3490 0c65 B801     		.2byte	0x1b8
 3491 0c67 3E000000 		.4byte	0x3e
 3492 0c6b 18       		.byte	0x18
ARM GAS  C:\Users\vicpa\AppData\Local\Temp\ccqS0gg1.s 			page 86


 3493 0c6c 14       		.uleb128 0x14
 3494 0c6d 30090000 		.4byte	.LASF217
 3495 0c71 0C       		.byte	0xc
 3496 0c72 B901     		.2byte	0x1b9
 3497 0c74 3E000000 		.4byte	0x3e
 3498 0c78 19       		.byte	0x19
 3499 0c79 14       		.uleb128 0x14
 3500 0c7a 0E070000 		.4byte	.LASF218
 3501 0c7e 0C       		.byte	0xc
 3502 0c7f BA01     		.2byte	0x1ba
 3503 0c81 3E000000 		.4byte	0x3e
 3504 0c85 1A       		.byte	0x1a
 3505 0c86 14       		.uleb128 0x14
 3506 0c87 14110000 		.4byte	.LASF219
 3507 0c8b 0C       		.byte	0xc
 3508 0c8c BB01     		.2byte	0x1bb
 3509 0c8e 3E000000 		.4byte	0x3e
 3510 0c92 1B       		.byte	0x1b
 3511 0c93 19       		.uleb128 0x19
 3512 0c94 7000     		.ascii	"p\000"
 3513 0c96 0C       		.byte	0xc
 3514 0c97 C101     		.2byte	0x1c1
 3515 0c99 760D0000 		.4byte	0xd76
 3516 0c9d 1C       		.byte	0x1c
 3517 0c9e 14       		.uleb128 0x14
 3518 0c9f 2D060000 		.4byte	.LASF199
 3519 0ca3 0C       		.byte	0xc
 3520 0ca4 C201     		.2byte	0x1c2
 3521 0ca6 3E000000 		.4byte	0x3e
 3522 0caa 20       		.byte	0x20
 3523 0cab 14       		.uleb128 0x14
 3524 0cac A40C0000 		.4byte	.LASF200
 3525 0cb0 0C       		.byte	0xc
 3526 0cb1 C301     		.2byte	0x1c3
 3527 0cb3 3E000000 		.4byte	0x3e
 3528 0cb7 21       		.byte	0x21
 3529 0cb8 14       		.uleb128 0x14
 3530 0cb9 170B0000 		.4byte	.LASF201
 3531 0cbd 0C       		.byte	0xc
 3532 0cbe C401     		.2byte	0x1c4
 3533 0cc0 3E000000 		.4byte	0x3e
 3534 0cc4 22       		.byte	0x22
 3535 0cc5 00       		.byte	0
 3536 0cc6 0E       		.uleb128 0xe
 3537 0cc7 AE070000 		.4byte	.LASF220
 3538 0ccb 0C       		.byte	0xc
 3539 0ccc 2601     		.2byte	0x126
 3540 0cce D20C0000 		.4byte	0xcd2
 3541 0cd2 11       		.uleb128 0x11
 3542 0cd3 DD0C0000 		.4byte	0xcdd
 3543 0cd7 12       		.uleb128 0x12
 3544 0cd8 5B000000 		.4byte	0x5b
 3545 0cdc 00       		.byte	0
 3546 0cdd 0E       		.uleb128 0xe
 3547 0cde DC090000 		.4byte	.LASF221
 3548 0ce2 0C       		.byte	0xc
 3549 0ce3 2701     		.2byte	0x127
ARM GAS  C:\Users\vicpa\AppData\Local\Temp\ccqS0gg1.s 			page 87


 3550 0ce5 E90C0000 		.4byte	0xce9
 3551 0ce9 17       		.uleb128 0x17
 3552 0cea 94000000 		.4byte	0x94
 3553 0cee FD0C0000 		.4byte	0xcfd
 3554 0cf2 12       		.uleb128 0x12
 3555 0cf3 5B000000 		.4byte	0x5b
 3556 0cf7 12       		.uleb128 0x12
 3557 0cf8 FD0C0000 		.4byte	0xcfd
 3558 0cfc 00       		.byte	0
 3559 0cfd 10       		.uleb128 0x10
 3560 0cfe 04       		.byte	0x4
 3561 0cff 94000000 		.4byte	0x94
 3562 0d03 0E       		.uleb128 0xe
 3563 0d04 AD060000 		.4byte	.LASF222
 3564 0d08 0C       		.byte	0xc
 3565 0d09 2801     		.2byte	0x128
 3566 0d0b 0F0D0000 		.4byte	0xd0f
 3567 0d0f 11       		.uleb128 0x11
 3568 0d10 1F0D0000 		.4byte	0xd1f
 3569 0d14 12       		.uleb128 0x12
 3570 0d15 1F0D0000 		.4byte	0xd1f
 3571 0d19 12       		.uleb128 0x12
 3572 0d1a 2A0D0000 		.4byte	0xd2a
 3573 0d1e 00       		.byte	0
 3574 0d1f 10       		.uleb128 0x10
 3575 0d20 04       		.byte	0x4
 3576 0d21 250D0000 		.4byte	0xd25
 3577 0d25 06       		.uleb128 0x6
 3578 0d26 F80B0000 		.4byte	0xbf8
 3579 0d2a 10       		.uleb128 0x10
 3580 0d2b 04       		.byte	0x4
 3581 0d2c 560B0000 		.4byte	0xb56
 3582 0d30 0E       		.uleb128 0xe
 3583 0d31 B6110000 		.4byte	.LASF223
 3584 0d35 0C       		.byte	0xc
 3585 0d36 2901     		.2byte	0x129
 3586 0d38 3C0D0000 		.4byte	0xd3c
 3587 0d3c 17       		.uleb128 0x17
 3588 0d3d D0060000 		.4byte	0x6d0
 3589 0d41 500D0000 		.4byte	0xd50
 3590 0d45 12       		.uleb128 0x12
 3591 0d46 1F0D0000 		.4byte	0xd1f
 3592 0d4a 12       		.uleb128 0x12
 3593 0d4b 5B000000 		.4byte	0x5b
 3594 0d4f 00       		.byte	0
 3595 0d50 0E       		.uleb128 0xe
 3596 0d51 3A0B0000 		.4byte	.LASF224
 3597 0d55 0C       		.byte	0xc
 3598 0d56 2A01     		.2byte	0x12a
 3599 0d58 5C0D0000 		.4byte	0xd5c
 3600 0d5c 17       		.uleb128 0x17
 3601 0d5d 94000000 		.4byte	0x94
 3602 0d61 700D0000 		.4byte	0xd70
 3603 0d65 12       		.uleb128 0x12
 3604 0d66 5B000000 		.4byte	0x5b
 3605 0d6a 12       		.uleb128 0x12
 3606 0d6b 700D0000 		.4byte	0xd70
ARM GAS  C:\Users\vicpa\AppData\Local\Temp\ccqS0gg1.s 			page 88


 3607 0d6f 00       		.byte	0
 3608 0d70 10       		.uleb128 0x10
 3609 0d71 04       		.byte	0x4
 3610 0d72 D7090000 		.4byte	0x9d7
 3611 0d76 1A       		.uleb128 0x1a
 3612 0d77 04       		.byte	0x4
 3613 0d78 0C       		.byte	0xc
 3614 0d79 BC01     		.2byte	0x1bc
 3615 0d7b B00D0000 		.4byte	0xdb0
 3616 0d7f 1B       		.uleb128 0x1b
 3617 0d80 16020000 		.4byte	.LASF225
 3618 0d84 0C       		.byte	0xc
 3619 0d85 BD01     		.2byte	0x1bd
 3620 0d87 AD080000 		.4byte	0x8ad
 3621 0d8b 1B       		.uleb128 0x1b
 3622 0d8c 9F0D0000 		.4byte	.LASF226
 3623 0d90 0C       		.byte	0xc
 3624 0d91 BE01     		.2byte	0x1be
 3625 0d93 B00D0000 		.4byte	0xdb0
 3626 0d97 1B       		.uleb128 0x1b
 3627 0d98 4A0D0000 		.4byte	.LASF227
 3628 0d9c 0C       		.byte	0xc
 3629 0d9d BF01     		.2byte	0x1bf
 3630 0d9f BB0D0000 		.4byte	0xdbb
 3631 0da3 1B       		.uleb128 0x1b
 3632 0da4 30120000 		.4byte	.LASF228
 3633 0da8 0C       		.byte	0xc
 3634 0da9 C001     		.2byte	0x1c0
 3635 0dab C60D0000 		.4byte	0xdc6
 3636 0daf 00       		.byte	0
 3637 0db0 10       		.uleb128 0x10
 3638 0db1 04       		.byte	0x4
 3639 0db2 B60D0000 		.4byte	0xdb6
 3640 0db6 06       		.uleb128 0x6
 3641 0db7 120B0000 		.4byte	0xb12
 3642 0dbb 10       		.uleb128 0x10
 3643 0dbc 04       		.byte	0x4
 3644 0dbd C10D0000 		.4byte	0xdc1
 3645 0dc1 06       		.uleb128 0x6
 3646 0dc2 350A0000 		.4byte	0xa35
 3647 0dc6 10       		.uleb128 0x10
 3648 0dc7 04       		.byte	0x4
 3649 0dc8 CC0D0000 		.4byte	0xdcc
 3650 0dcc 06       		.uleb128 0x6
 3651 0dcd 930A0000 		.4byte	0xa93
 3652 0dd1 10       		.uleb128 0x10
 3653 0dd2 04       		.byte	0x4
 3654 0dd3 C60C0000 		.4byte	0xcc6
 3655 0dd7 10       		.uleb128 0x10
 3656 0dd8 04       		.byte	0x4
 3657 0dd9 DD0C0000 		.4byte	0xcdd
 3658 0ddd 10       		.uleb128 0x10
 3659 0dde 04       		.byte	0x4
 3660 0ddf 030D0000 		.4byte	0xd03
 3661 0de3 10       		.uleb128 0x10
 3662 0de4 04       		.byte	0x4
 3663 0de5 300D0000 		.4byte	0xd30
ARM GAS  C:\Users\vicpa\AppData\Local\Temp\ccqS0gg1.s 			page 89


 3664 0de9 10       		.uleb128 0x10
 3665 0dea 04       		.byte	0x4
 3666 0deb 500D0000 		.4byte	0xd50
 3667 0def 10       		.uleb128 0x10
 3668 0df0 04       		.byte	0x4
 3669 0df1 F50D0000 		.4byte	0xdf5
 3670 0df5 06       		.uleb128 0x6
 3671 0df6 EC0B0000 		.4byte	0xbec
 3672 0dfa 03       		.uleb128 0x3
 3673 0dfb 580B0000 		.4byte	.LASF229
 3674 0dff 0D       		.byte	0xd
 3675 0e00 35       		.byte	0x35
 3676 0e01 3E000000 		.4byte	0x3e
 3677 0e05 03       		.uleb128 0x3
 3678 0e06 62110000 		.4byte	.LASF230
 3679 0e0a 0E       		.byte	0xe
 3680 0e0b 69       		.byte	0x69
 3681 0e0c FA0D0000 		.4byte	0xdfa
 3682 0e10 1C       		.uleb128 0x1c
 3683 0e11 01       		.byte	0x1
 3684 0e12 3E000000 		.4byte	0x3e
 3685 0e16 0E       		.byte	0xe
 3686 0e17 6E       		.byte	0x6e
 3687 0e18 2F0E0000 		.4byte	0xe2f
 3688 0e1c 1D       		.uleb128 0x1d
 3689 0e1d 6D0B0000 		.4byte	.LASF231
 3690 0e21 00       		.byte	0
 3691 0e22 1D       		.uleb128 0x1d
 3692 0e23 2B020000 		.4byte	.LASF232
 3693 0e27 01       		.byte	0x1
 3694 0e28 1D       		.uleb128 0x1d
 3695 0e29 6E090000 		.4byte	.LASF233
 3696 0e2d 02       		.byte	0x2
 3697 0e2e 00       		.byte	0
 3698 0e2f 03       		.uleb128 0x3
 3699 0e30 BE020000 		.4byte	.LASF234
 3700 0e34 0E       		.byte	0xe
 3701 0e35 72       		.byte	0x72
 3702 0e36 100E0000 		.4byte	0xe10
 3703 0e3a 1E       		.uleb128 0x1e
 3704 0e3b D7050000 		.4byte	.LASF323
 3705 0e3f 02       		.byte	0x2
 3706 0e40 2503     		.2byte	0x325
 3707 0e42 03       		.byte	0x3
 3708 0e43 6C0E0000 		.4byte	0xe6c
 3709 0e47 1F       		.uleb128 0x1f
 3710 0e48 AD000000 		.4byte	.LASF235
 3711 0e4c 02       		.byte	0x2
 3712 0e4d 2503     		.2byte	0x325
 3713 0e4f A7080000 		.4byte	0x8a7
 3714 0e53 1F       		.uleb128 0x1f
 3715 0e54 95100000 		.4byte	.LASF236
 3716 0e58 02       		.byte	0x2
 3717 0e59 2503     		.2byte	0x325
 3718 0e5b CE000000 		.4byte	0xce
 3719 0e5f 1F       		.uleb128 0x1f
 3720 0e60 56060000 		.4byte	.LASF237
ARM GAS  C:\Users\vicpa\AppData\Local\Temp\ccqS0gg1.s 			page 90


 3721 0e64 02       		.byte	0x2
 3722 0e65 2503     		.2byte	0x325
 3723 0e67 CE000000 		.4byte	0xce
 3724 0e6b 00       		.byte	0
 3725 0e6c 20       		.uleb128 0x20
 3726 0e6d F80D0000 		.4byte	.LASF240
 3727 0e71 01       		.byte	0x1
 3728 0e72 12       		.byte	0x12
 3729 0e73 00000000 		.4byte	.LFB561
 3730 0e77 2C000000 		.4byte	.LFE561-.LFB561
 3731 0e7b 01       		.uleb128 0x1
 3732 0e7c 9C       		.byte	0x9c
 3733 0e7d FB0E0000 		.4byte	0xefb
 3734 0e81 21       		.uleb128 0x21
 3735 0e82 920E0000 		.4byte	.LASF238
 3736 0e86 01       		.byte	0x1
 3737 0e87 12       		.byte	0x12
 3738 0e88 2F0E0000 		.4byte	0xe2f
 3739 0e8c 00000000 		.4byte	.LLST0
 3740 0e90 21       		.uleb128 0x21
 3741 0e91 AE010000 		.4byte	.LASF239
 3742 0e95 01       		.byte	0x1
 3743 0e96 12       		.byte	0x12
 3744 0e97 F3060000 		.4byte	0x6f3
 3745 0e9b 21000000 		.4byte	.LLST1
 3746 0e9f 22       		.uleb128 0x22
 3747 0ea0 0D060000 		.4byte	.LASF244
 3748 0ea4 01       		.byte	0x1
 3749 0ea5 14       		.byte	0x14
 3750 0ea6 FB0E0000 		.4byte	0xefb
 3751 0eaa 42000000 		.4byte	.LLST2
 3752 0eae 23       		.uleb128 0x23
 3753 0eaf 0A000000 		.4byte	.LVL1
 3754 0eb3 0E1E0000 		.4byte	0x1e0e
 3755 0eb7 24       		.uleb128 0x24
 3756 0eb8 1A000000 		.4byte	.LVL4
 3757 0ebc 191E0000 		.4byte	0x1e19
 3758 0ec0 DD0E0000 		.4byte	0xedd
 3759 0ec4 25       		.uleb128 0x25
 3760 0ec5 01       		.uleb128 0x1
 3761 0ec6 50       		.byte	0x50
 3762 0ec7 02       		.uleb128 0x2
 3763 0ec8 74       		.byte	0x74
 3764 0ec9 00       		.sleb128 0
 3765 0eca 25       		.uleb128 0x25
 3766 0ecb 01       		.uleb128 0x1
 3767 0ecc 51       		.byte	0x51
 3768 0ecd 02       		.uleb128 0x2
 3769 0ece 75       		.byte	0x75
 3770 0ecf 00       		.sleb128 0
 3771 0ed0 25       		.uleb128 0x25
 3772 0ed1 01       		.uleb128 0x1
 3773 0ed2 52       		.byte	0x52
 3774 0ed3 02       		.uleb128 0x2
 3775 0ed4 76       		.byte	0x76
 3776 0ed5 00       		.sleb128 0
 3777 0ed6 25       		.uleb128 0x25
ARM GAS  C:\Users\vicpa\AppData\Local\Temp\ccqS0gg1.s 			page 91


 3778 0ed7 01       		.uleb128 0x1
 3779 0ed8 53       		.byte	0x53
 3780 0ed9 02       		.uleb128 0x2
 3781 0eda 77       		.byte	0x77
 3782 0edb 00       		.sleb128 0
 3783 0edc 00       		.byte	0
 3784 0edd 26       		.uleb128 0x26
 3785 0ede 26000000 		.4byte	.LVL5
 3786 0ee2 241E0000 		.4byte	0x1e24
 3787 0ee6 25       		.uleb128 0x25
 3788 0ee7 01       		.uleb128 0x1
 3789 0ee8 50       		.byte	0x50
 3790 0ee9 02       		.uleb128 0x2
 3791 0eea 74       		.byte	0x74
 3792 0eeb 00       		.sleb128 0
 3793 0eec 25       		.uleb128 0x25
 3794 0eed 01       		.uleb128 0x1
 3795 0eee 51       		.byte	0x51
 3796 0eef 02       		.uleb128 0x2
 3797 0ef0 75       		.byte	0x75
 3798 0ef1 00       		.sleb128 0
 3799 0ef2 25       		.uleb128 0x25
 3800 0ef3 01       		.uleb128 0x1
 3801 0ef4 52       		.byte	0x52
 3802 0ef5 03       		.uleb128 0x3
 3803 0ef6 0A       		.byte	0xa
 3804 0ef7 B016     		.2byte	0x16b0
 3805 0ef9 00       		.byte	0
 3806 0efa 00       		.byte	0
 3807 0efb 10       		.uleb128 0x10
 3808 0efc 04       		.byte	0x4
 3809 0efd 050E0000 		.4byte	0xe05
 3810 0f01 20       		.uleb128 0x20
 3811 0f02 0E120000 		.4byte	.LASF241
 3812 0f06 01       		.byte	0x1
 3813 0f07 1B       		.byte	0x1b
 3814 0f08 00000000 		.4byte	.LFB562
 3815 0f0c 1E000000 		.4byte	.LFE562-.LFB562
 3816 0f10 01       		.uleb128 0x1
 3817 0f11 9C       		.byte	0x9c
 3818 0f12 5E0F0000 		.4byte	0xf5e
 3819 0f16 24       		.uleb128 0x24
 3820 0f17 08000000 		.4byte	.LVL7
 3821 0f1b 2D1E0000 		.4byte	0x1e2d
 3822 0f1f 290F0000 		.4byte	0xf29
 3823 0f23 25       		.uleb128 0x25
 3824 0f24 01       		.uleb128 0x1
 3825 0f25 50       		.byte	0x50
 3826 0f26 01       		.uleb128 0x1
 3827 0f27 30       		.byte	0x30
 3828 0f28 00       		.byte	0
 3829 0f29 24       		.uleb128 0x24
 3830 0f2a 10000000 		.4byte	.LVL8
 3831 0f2e 391E0000 		.4byte	0x1e39
 3832 0f32 400F0000 		.4byte	0xf40
 3833 0f36 25       		.uleb128 0x25
 3834 0f37 01       		.uleb128 0x1
ARM GAS  C:\Users\vicpa\AppData\Local\Temp\ccqS0gg1.s 			page 92


 3835 0f38 50       		.byte	0x50
 3836 0f39 05       		.uleb128 0x5
 3837 0f3a 0C       		.byte	0xc
 3838 0f3b FFFFFF00 		.4byte	0xffffff
 3839 0f3f 00       		.byte	0
 3840 0f40 23       		.uleb128 0x23
 3841 0f41 14000000 		.4byte	.LVL9
 3842 0f45 451E0000 		.4byte	0x1e45
 3843 0f49 26       		.uleb128 0x26
 3844 0f4a 1C000000 		.4byte	.LVL10
 3845 0f4e 6C0E0000 		.4byte	0xe6c
 3846 0f52 25       		.uleb128 0x25
 3847 0f53 01       		.uleb128 0x1
 3848 0f54 50       		.byte	0x50
 3849 0f55 01       		.uleb128 0x1
 3850 0f56 31       		.byte	0x31
 3851 0f57 25       		.uleb128 0x25
 3852 0f58 01       		.uleb128 0x1
 3853 0f59 51       		.byte	0x51
 3854 0f5a 01       		.uleb128 0x1
 3855 0f5b 31       		.byte	0x31
 3856 0f5c 00       		.byte	0
 3857 0f5d 00       		.byte	0
 3858 0f5e 27       		.uleb128 0x27
 3859 0f5f E5050000 		.4byte	.LASF242
 3860 0f63 01       		.byte	0x1
 3861 0f64 24       		.byte	0x24
 3862 0f65 00000000 		.4byte	.LFB563
 3863 0f69 B6000000 		.4byte	.LFE563-.LFB563
 3864 0f6d 01       		.uleb128 0x1
 3865 0f6e 9C       		.byte	0x9c
 3866 0f6f 6A100000 		.4byte	0x106a
 3867 0f73 21       		.uleb128 0x21
 3868 0f74 4F100000 		.4byte	.LASF243
 3869 0f78 01       		.byte	0x1
 3870 0f79 24       		.byte	0x24
 3871 0f7a 6A100000 		.4byte	0x106a
 3872 0f7e 6B000000 		.4byte	.LLST3
 3873 0f82 28       		.uleb128 0x28
 3874 0f83 7800     		.ascii	"x\000"
 3875 0f85 01       		.byte	0x1
 3876 0f86 26       		.byte	0x26
 3877 0f87 94000000 		.4byte	0x94
 3878 0f8b 8C000000 		.4byte	.LLST4
 3879 0f8f 28       		.uleb128 0x28
 3880 0f90 6D617800 		.ascii	"max\000"
 3881 0f94 01       		.byte	0x1
 3882 0f95 26       		.byte	0x26
 3883 0f96 CE000000 		.4byte	0xce
 3884 0f9a AB000000 		.4byte	.LLST5
 3885 0f9e 29       		.uleb128 0x29
 3886 0f9f EF070000 		.4byte	.LASF245
 3887 0fa3 01       		.byte	0x1
 3888 0fa4 27       		.byte	0x27
 3889 0fa5 70100000 		.4byte	0x1070
 3890 0fa9 03       		.uleb128 0x3
 3891 0faa 91       		.byte	0x91
ARM GAS  C:\Users\vicpa\AppData\Local\Temp\ccqS0gg1.s 			page 93


 3892 0fab 8078     		.sleb128 -1024
 3893 0fad 2A       		.uleb128 0x2a
 3894 0fae 00000000 		.4byte	.Ldebug_ranges0+0
 3895 0fb2 C40F0000 		.4byte	0xfc4
 3896 0fb6 28       		.uleb128 0x28
 3897 0fb7 6900     		.ascii	"i\000"
 3898 0fb9 01       		.byte	0x1
 3899 0fba 28       		.byte	0x28
 3900 0fbb 94000000 		.4byte	0x94
 3901 0fbf CB000000 		.4byte	.LLST6
 3902 0fc3 00       		.byte	0
 3903 0fc4 2B       		.uleb128 0x2b
 3904 0fc5 44000000 		.4byte	.LBB8
 3905 0fc9 60000000 		.4byte	.LBE8-.LBB8
 3906 0fcd 55100000 		.4byte	0x1055
 3907 0fd1 2C       		.uleb128 0x2c
 3908 0fd2 6900     		.ascii	"i\000"
 3909 0fd4 01       		.byte	0x1
 3910 0fd5 2F       		.byte	0x2f
 3911 0fd6 94000000 		.4byte	0x94
 3912 0fda 01       		.uleb128 0x1
 3913 0fdb 54       		.byte	0x54
 3914 0fdc 2D       		.uleb128 0x2d
 3915 0fdd 44000000 		.4byte	.LBB9
 3916 0fe1 5A000000 		.4byte	.LBE9-.LBB9
 3917 0fe5 28       		.uleb128 0x28
 3918 0fe6 793000   		.ascii	"y0\000"
 3919 0fe9 01       		.byte	0x1
 3920 0fea 31       		.byte	0x31
 3921 0feb 94000000 		.4byte	0x94
 3922 0fef EA000000 		.4byte	.LLST7
 3923 0ff3 2B       		.uleb128 0x2b
 3924 0ff4 72000000 		.4byte	.LBB10
 3925 0ff8 2A000000 		.4byte	.LBE10-.LBB10
 3926 0ffc 34100000 		.4byte	0x1034
 3927 1000 28       		.uleb128 0x28
 3928 1001 793100   		.ascii	"y1\000"
 3929 1004 01       		.byte	0x1
 3930 1005 35       		.byte	0x35
 3931 1006 94000000 		.4byte	0x94
 3932 100a 13010000 		.4byte	.LLST8
 3933 100e 23       		.uleb128 0x23
 3934 100f 8C000000 		.4byte	.LVL24
 3935 1013 511E0000 		.4byte	0x1e51
 3936 1017 26       		.uleb128 0x26
 3937 1018 9C000000 		.4byte	.LVL27
 3938 101c 5D1E0000 		.4byte	0x1e5d
 3939 1020 25       		.uleb128 0x25
 3940 1021 01       		.uleb128 0x1
 3941 1022 50       		.byte	0x50
 3942 1023 02       		.uleb128 0x2
 3943 1024 75       		.byte	0x75
 3944 1025 00       		.sleb128 0
 3945 1026 25       		.uleb128 0x25
 3946 1027 01       		.uleb128 0x1
 3947 1028 51       		.byte	0x51
 3948 1029 02       		.uleb128 0x2
ARM GAS  C:\Users\vicpa\AppData\Local\Temp\ccqS0gg1.s 			page 94


 3949 102a 76       		.byte	0x76
 3950 102b 00       		.sleb128 0
 3951 102c 25       		.uleb128 0x25
 3952 102d 01       		.uleb128 0x1
 3953 102e 52       		.byte	0x52
 3954 102f 02       		.uleb128 0x2
 3955 1030 75       		.byte	0x75
 3956 1031 01       		.sleb128 1
 3957 1032 00       		.byte	0
 3958 1033 00       		.byte	0
 3959 1034 23       		.uleb128 0x23
 3960 1035 60000000 		.4byte	.LVL18
 3961 1039 511E0000 		.4byte	0x1e51
 3962 103d 26       		.uleb128 0x26
 3963 103e 6E000000 		.4byte	.LVL22
 3964 1042 691E0000 		.4byte	0x1e69
 3965 1046 25       		.uleb128 0x25
 3966 1047 01       		.uleb128 0x1
 3967 1048 50       		.byte	0x50
 3968 1049 02       		.uleb128 0x2
 3969 104a 75       		.byte	0x75
 3970 104b 00       		.sleb128 0
 3971 104c 25       		.uleb128 0x25
 3972 104d 01       		.uleb128 0x1
 3973 104e 51       		.byte	0x51
 3974 104f 02       		.uleb128 0x2
 3975 1050 76       		.byte	0x76
 3976 1051 00       		.sleb128 0
 3977 1052 00       		.byte	0
 3978 1053 00       		.byte	0
 3979 1054 00       		.byte	0
 3980 1055 26       		.uleb128 0x26
 3981 1056 AC000000 		.4byte	.LVL30
 3982 105a 6C0E0000 		.4byte	0xe6c
 3983 105e 25       		.uleb128 0x25
 3984 105f 01       		.uleb128 0x1
 3985 1060 50       		.byte	0x50
 3986 1061 01       		.uleb128 0x1
 3987 1062 31       		.byte	0x31
 3988 1063 25       		.uleb128 0x25
 3989 1064 01       		.uleb128 0x1
 3990 1065 51       		.byte	0x51
 3991 1066 01       		.uleb128 0x1
 3992 1067 31       		.byte	0x31
 3993 1068 00       		.byte	0
 3994 1069 00       		.byte	0
 3995 106a 10       		.uleb128 0x10
 3996 106b 04       		.byte	0x4
 3997 106c D7060000 		.4byte	0x6d7
 3998 1070 07       		.uleb128 0x7
 3999 1071 D7060000 		.4byte	0x6d7
 4000 1075 80100000 		.4byte	0x1080
 4001 1079 08       		.uleb128 0x8
 4002 107a D9000000 		.4byte	0xd9
 4003 107e F9       		.byte	0xf9
 4004 107f 00       		.byte	0
 4005 1080 20       		.uleb128 0x20
ARM GAS  C:\Users\vicpa\AppData\Local\Temp\ccqS0gg1.s 			page 95


 4006 1081 4D080000 		.4byte	.LASF246
 4007 1085 01       		.byte	0x1
 4008 1086 3E       		.byte	0x3e
 4009 1087 00000000 		.4byte	.LFB564
 4010 108b 9C000000 		.4byte	.LFE564-.LFB564
 4011 108f 01       		.uleb128 0x1
 4012 1090 9C       		.byte	0x9c
 4013 1091 44120000 		.4byte	0x1244
 4014 1095 21       		.uleb128 0x21
 4015 1096 D2110000 		.4byte	.LASF247
 4016 109a 01       		.byte	0x1
 4017 109b 3E       		.byte	0x3e
 4018 109c 94000000 		.4byte	0x94
 4019 10a0 31010000 		.4byte	.LLST9
 4020 10a4 21       		.uleb128 0x21
 4021 10a5 D9110000 		.4byte	.LASF248
 4022 10a9 01       		.byte	0x1
 4023 10aa 3E       		.byte	0x3e
 4024 10ab 94000000 		.4byte	0x94
 4025 10af 5D010000 		.4byte	.LLST10
 4026 10b3 29       		.uleb128 0x29
 4027 10b4 19040000 		.4byte	.LASF249
 4028 10b8 01       		.byte	0x1
 4029 10b9 40       		.byte	0x40
 4030 10ba 44120000 		.4byte	0x1244
 4031 10be 02       		.uleb128 0x2
 4032 10bf 91       		.byte	0x91
 4033 10c0 68       		.sleb128 -24
 4034 10c1 29       		.uleb128 0x29
 4035 10c2 24040000 		.4byte	.LASF250
 4036 10c6 01       		.byte	0x1
 4037 10c7 40       		.byte	0x40
 4038 10c8 44120000 		.4byte	0x1244
 4039 10cc 02       		.uleb128 0x2
 4040 10cd 91       		.byte	0x91
 4041 10ce 60       		.sleb128 -32
 4042 10cf 24       		.uleb128 0x24
 4043 10d0 12000000 		.4byte	.LVL34
 4044 10d4 751E0000 		.4byte	0x1e75
 4045 10d8 F0100000 		.4byte	0x10f0
 4046 10dc 25       		.uleb128 0x25
 4047 10dd 01       		.uleb128 0x1
 4048 10de 50       		.byte	0x50
 4049 10df 02       		.uleb128 0x2
 4050 10e0 91       		.byte	0x91
 4051 10e1 68       		.sleb128 -24
 4052 10e2 25       		.uleb128 0x25
 4053 10e3 01       		.uleb128 0x1
 4054 10e4 51       		.byte	0x51
 4055 10e5 02       		.uleb128 0x2
 4056 10e6 74       		.byte	0x74
 4057 10e7 00       		.sleb128 0
 4058 10e8 25       		.uleb128 0x25
 4059 10e9 01       		.uleb128 0x1
 4060 10ea 52       		.byte	0x52
 4061 10eb 03       		.uleb128 0x3
 4062 10ec F3       		.byte	0xf3
ARM GAS  C:\Users\vicpa\AppData\Local\Temp\ccqS0gg1.s 			page 96


 4063 10ed 01       		.uleb128 0x1
 4064 10ee 50       		.byte	0x50
 4065 10ef 00       		.byte	0
 4066 10f0 24       		.uleb128 0x24
 4067 10f1 1C000000 		.4byte	.LVL35
 4068 10f5 751E0000 		.4byte	0x1e75
 4069 10f9 10110000 		.4byte	0x1110
 4070 10fd 25       		.uleb128 0x25
 4071 10fe 01       		.uleb128 0x1
 4072 10ff 50       		.byte	0x50
 4073 1100 02       		.uleb128 0x2
 4074 1101 7D       		.byte	0x7d
 4075 1102 00       		.sleb128 0
 4076 1103 25       		.uleb128 0x25
 4077 1104 01       		.uleb128 0x1
 4078 1105 51       		.byte	0x51
 4079 1106 02       		.uleb128 0x2
 4080 1107 74       		.byte	0x74
 4081 1108 00       		.sleb128 0
 4082 1109 25       		.uleb128 0x25
 4083 110a 01       		.uleb128 0x1
 4084 110b 52       		.byte	0x52
 4085 110c 02       		.uleb128 0x2
 4086 110d 75       		.byte	0x75
 4087 110e 00       		.sleb128 0
 4088 110f 00       		.byte	0
 4089 1110 24       		.uleb128 0x24
 4090 1111 22000000 		.4byte	.LVL36
 4091 1115 801E0000 		.4byte	0x1e80
 4092 1119 23110000 		.4byte	0x1123
 4093 111d 25       		.uleb128 0x25
 4094 111e 01       		.uleb128 0x1
 4095 111f 50       		.byte	0x50
 4096 1120 01       		.uleb128 0x1
 4097 1121 38       		.byte	0x38
 4098 1122 00       		.byte	0
 4099 1123 24       		.uleb128 0x24
 4100 1124 2E000000 		.4byte	.LVL37
 4101 1128 8C1E0000 		.4byte	0x1e8c
 4102 112c 48110000 		.4byte	0x1148
 4103 1130 25       		.uleb128 0x25
 4104 1131 01       		.uleb128 0x1
 4105 1132 50       		.byte	0x50
 4106 1133 01       		.uleb128 0x1
 4107 1134 3A       		.byte	0x3a
 4108 1135 25       		.uleb128 0x25
 4109 1136 01       		.uleb128 0x1
 4110 1137 51       		.byte	0x51
 4111 1138 02       		.uleb128 0x2
 4112 1139 08       		.byte	0x8
 4113 113a 9B       		.byte	0x9b
 4114 113b 25       		.uleb128 0x25
 4115 113c 01       		.uleb128 0x1
 4116 113d 52       		.byte	0x52
 4117 113e 02       		.uleb128 0x2
 4118 113f 08       		.byte	0x8
 4119 1140 FF       		.byte	0xff
ARM GAS  C:\Users\vicpa\AppData\Local\Temp\ccqS0gg1.s 			page 97


 4120 1141 25       		.uleb128 0x25
 4121 1142 01       		.uleb128 0x1
 4122 1143 53       		.byte	0x53
 4123 1144 02       		.uleb128 0x2
 4124 1145 08       		.byte	0x8
 4125 1146 AF       		.byte	0xaf
 4126 1147 00       		.byte	0
 4127 1148 24       		.uleb128 0x24
 4128 1149 34000000 		.4byte	.LVL38
 4129 114d 801E0000 		.4byte	0x1e80
 4130 1151 5B110000 		.4byte	0x115b
 4131 1155 25       		.uleb128 0x25
 4132 1156 01       		.uleb128 0x1
 4133 1157 50       		.byte	0x50
 4134 1158 01       		.uleb128 0x1
 4135 1159 36       		.byte	0x36
 4136 115a 00       		.byte	0
 4137 115b 23       		.uleb128 0x23
 4138 115c 3A000000 		.4byte	.LVL39
 4139 1160 981E0000 		.4byte	0x1e98
 4140 1164 24       		.uleb128 0x24
 4141 1165 44000000 		.4byte	.LVL40
 4142 1169 A41E0000 		.4byte	0x1ea4
 4143 116d 86110000 		.4byte	0x1186
 4144 1171 25       		.uleb128 0x25
 4145 1172 01       		.uleb128 0x1
 4146 1173 50       		.byte	0x50
 4147 1174 05       		.uleb128 0x5
 4148 1175 03       		.byte	0x3
 4149 1176 04000000 		.4byte	.LC1
 4150 117a 25       		.uleb128 0x25
 4151 117b 01       		.uleb128 0x1
 4152 117c 51       		.byte	0x51
 4153 117d 01       		.uleb128 0x1
 4154 117e 44       		.byte	0x44
 4155 117f 25       		.uleb128 0x25
 4156 1180 01       		.uleb128 0x1
 4157 1181 52       		.byte	0x52
 4158 1182 02       		.uleb128 0x2
 4159 1183 08       		.byte	0x8
 4160 1184 A0       		.byte	0xa0
 4161 1185 00       		.byte	0
 4162 1186 24       		.uleb128 0x24
 4163 1187 4E000000 		.4byte	.LVL41
 4164 118b A41E0000 		.4byte	0x1ea4
 4165 118f A6110000 		.4byte	0x11a6
 4166 1193 25       		.uleb128 0x25
 4167 1194 01       		.uleb128 0x1
 4168 1195 50       		.byte	0x50
 4169 1196 02       		.uleb128 0x2
 4170 1197 91       		.byte	0x91
 4171 1198 68       		.sleb128 -24
 4172 1199 25       		.uleb128 0x25
 4173 119a 01       		.uleb128 0x1
 4174 119b 51       		.byte	0x51
 4175 119c 02       		.uleb128 0x2
 4176 119d 08       		.byte	0x8
ARM GAS  C:\Users\vicpa\AppData\Local\Temp\ccqS0gg1.s 			page 98


 4177 119e 5A       		.byte	0x5a
 4178 119f 25       		.uleb128 0x25
 4179 11a0 01       		.uleb128 0x1
 4180 11a1 52       		.byte	0x52
 4181 11a2 02       		.uleb128 0x2
 4182 11a3 08       		.byte	0x8
 4183 11a4 A0       		.byte	0xa0
 4184 11a5 00       		.byte	0
 4185 11a6 24       		.uleb128 0x24
 4186 11a7 58000000 		.4byte	.LVL42
 4187 11ab A41E0000 		.4byte	0x1ea4
 4188 11af C9110000 		.4byte	0x11c9
 4189 11b3 25       		.uleb128 0x25
 4190 11b4 01       		.uleb128 0x1
 4191 11b5 50       		.byte	0x50
 4192 11b6 05       		.uleb128 0x5
 4193 11b7 03       		.byte	0x3
 4194 11b8 18000000 		.4byte	.LC2
 4195 11bc 25       		.uleb128 0x25
 4196 11bd 01       		.uleb128 0x1
 4197 11be 51       		.byte	0x51
 4198 11bf 02       		.uleb128 0x2
 4199 11c0 08       		.byte	0x8
 4200 11c1 64       		.byte	0x64
 4201 11c2 25       		.uleb128 0x25
 4202 11c3 01       		.uleb128 0x1
 4203 11c4 52       		.byte	0x52
 4204 11c5 02       		.uleb128 0x2
 4205 11c6 08       		.byte	0x8
 4206 11c7 A0       		.byte	0xa0
 4207 11c8 00       		.byte	0
 4208 11c9 24       		.uleb128 0x24
 4209 11ca 62000000 		.4byte	.LVL43
 4210 11ce A41E0000 		.4byte	0x1ea4
 4211 11d2 EC110000 		.4byte	0x11ec
 4212 11d6 25       		.uleb128 0x25
 4213 11d7 01       		.uleb128 0x1
 4214 11d8 50       		.byte	0x50
 4215 11d9 05       		.uleb128 0x5
 4216 11da 03       		.byte	0x3
 4217 11db 1C000000 		.4byte	.LC3
 4218 11df 25       		.uleb128 0x25
 4219 11e0 01       		.uleb128 0x1
 4220 11e1 51       		.byte	0x51
 4221 11e2 02       		.uleb128 0x2
 4222 11e3 08       		.byte	0x8
 4223 11e4 96       		.byte	0x96
 4224 11e5 25       		.uleb128 0x25
 4225 11e6 01       		.uleb128 0x1
 4226 11e7 52       		.byte	0x52
 4227 11e8 02       		.uleb128 0x2
 4228 11e9 08       		.byte	0x8
 4229 11ea A0       		.byte	0xa0
 4230 11eb 00       		.byte	0
 4231 11ec 24       		.uleb128 0x24
 4232 11ed 6C000000 		.4byte	.LVL44
 4233 11f1 A41E0000 		.4byte	0x1ea4
ARM GAS  C:\Users\vicpa\AppData\Local\Temp\ccqS0gg1.s 			page 99


 4234 11f5 0C120000 		.4byte	0x120c
 4235 11f9 25       		.uleb128 0x25
 4236 11fa 01       		.uleb128 0x1
 4237 11fb 50       		.byte	0x50
 4238 11fc 02       		.uleb128 0x2
 4239 11fd 7D       		.byte	0x7d
 4240 11fe 00       		.sleb128 0
 4241 11ff 25       		.uleb128 0x25
 4242 1200 01       		.uleb128 0x1
 4243 1201 51       		.byte	0x51
 4244 1202 02       		.uleb128 0x2
 4245 1203 08       		.byte	0x8
 4246 1204 D2       		.byte	0xd2
 4247 1205 25       		.uleb128 0x25
 4248 1206 01       		.uleb128 0x1
 4249 1207 52       		.byte	0x52
 4250 1208 02       		.uleb128 0x2
 4251 1209 08       		.byte	0x8
 4252 120a A0       		.byte	0xa0
 4253 120b 00       		.byte	0
 4254 120c 24       		.uleb128 0x24
 4255 120d 76000000 		.4byte	.LVL45
 4256 1211 A41E0000 		.4byte	0x1ea4
 4257 1215 2F120000 		.4byte	0x122f
 4258 1219 25       		.uleb128 0x25
 4259 121a 01       		.uleb128 0x1
 4260 121b 50       		.byte	0x50
 4261 121c 05       		.uleb128 0x5
 4262 121d 03       		.byte	0x3
 4263 121e 28000000 		.4byte	.LC4
 4264 1222 25       		.uleb128 0x25
 4265 1223 01       		.uleb128 0x1
 4266 1224 51       		.byte	0x51
 4267 1225 02       		.uleb128 0x2
 4268 1226 08       		.byte	0x8
 4269 1227 E6       		.byte	0xe6
 4270 1228 25       		.uleb128 0x25
 4271 1229 01       		.uleb128 0x1
 4272 122a 52       		.byte	0x52
 4273 122b 02       		.uleb128 0x2
 4274 122c 08       		.byte	0x8
 4275 122d A0       		.byte	0xa0
 4276 122e 00       		.byte	0
 4277 122f 26       		.uleb128 0x26
 4278 1230 7E000000 		.4byte	.LVL46
 4279 1234 6C0E0000 		.4byte	0xe6c
 4280 1238 25       		.uleb128 0x25
 4281 1239 01       		.uleb128 0x1
 4282 123a 50       		.byte	0x50
 4283 123b 01       		.uleb128 0x1
 4284 123c 31       		.byte	0x31
 4285 123d 25       		.uleb128 0x25
 4286 123e 01       		.uleb128 0x1
 4287 123f 51       		.byte	0x51
 4288 1240 01       		.uleb128 0x1
 4289 1241 31       		.byte	0x31
 4290 1242 00       		.byte	0
ARM GAS  C:\Users\vicpa\AppData\Local\Temp\ccqS0gg1.s 			page 100


 4291 1243 00       		.byte	0
 4292 1244 07       		.uleb128 0x7
 4293 1245 D0060000 		.4byte	0x6d0
 4294 1249 54120000 		.4byte	0x1254
 4295 124d 08       		.uleb128 0x8
 4296 124e D9000000 		.4byte	0xd9
 4297 1252 05       		.byte	0x5
 4298 1253 00       		.byte	0
 4299 1254 20       		.uleb128 0x20
 4300 1255 5E070000 		.4byte	.LASF251
 4301 1259 01       		.byte	0x1
 4302 125a 4A       		.byte	0x4a
 4303 125b 00000000 		.4byte	.LFB565
 4304 125f 5C000000 		.4byte	.LFE565-.LFB565
 4305 1263 01       		.uleb128 0x1
 4306 1264 9C       		.byte	0x9c
 4307 1265 41130000 		.4byte	0x1341
 4308 1269 21       		.uleb128 0x21
 4309 126a 070B0000 		.4byte	.LASF252
 4310 126e 01       		.byte	0x1
 4311 126f 4A       		.byte	0x4a
 4312 1270 94000000 		.4byte	0x94
 4313 1274 89010000 		.4byte	.LLST11
 4314 1278 29       		.uleb128 0x29
 4315 1279 940B0000 		.4byte	.LASF253
 4316 127d 01       		.byte	0x1
 4317 127e 4D       		.byte	0x4d
 4318 127f 44120000 		.4byte	0x1244
 4319 1283 02       		.uleb128 0x2
 4320 1284 91       		.byte	0x91
 4321 1285 70       		.sleb128 -16
 4322 1286 23       		.uleb128 0x23
 4323 1287 0A000000 		.4byte	.LVL49
 4324 128b 010F0000 		.4byte	0xf01
 4325 128f 24       		.uleb128 0x24
 4326 1290 14000000 		.4byte	.LVL50
 4327 1294 751E0000 		.4byte	0x1e75
 4328 1298 B2120000 		.4byte	0x12b2
 4329 129c 25       		.uleb128 0x25
 4330 129d 01       		.uleb128 0x1
 4331 129e 50       		.byte	0x50
 4332 129f 02       		.uleb128 0x2
 4333 12a0 7D       		.byte	0x7d
 4334 12a1 00       		.sleb128 0
 4335 12a2 25       		.uleb128 0x25
 4336 12a3 01       		.uleb128 0x1
 4337 12a4 51       		.byte	0x51
 4338 12a5 05       		.uleb128 0x5
 4339 12a6 03       		.byte	0x3
 4340 12a7 00000000 		.4byte	.LC0
 4341 12ab 25       		.uleb128 0x25
 4342 12ac 01       		.uleb128 0x1
 4343 12ad 52       		.byte	0x52
 4344 12ae 02       		.uleb128 0x2
 4345 12af 74       		.byte	0x74
 4346 12b0 00       		.sleb128 0
 4347 12b1 00       		.byte	0
ARM GAS  C:\Users\vicpa\AppData\Local\Temp\ccqS0gg1.s 			page 101


 4348 12b2 24       		.uleb128 0x24
 4349 12b3 1A000000 		.4byte	.LVL51
 4350 12b7 801E0000 		.4byte	0x1e80
 4351 12bb C5120000 		.4byte	0x12c5
 4352 12bf 25       		.uleb128 0x25
 4353 12c0 01       		.uleb128 0x1
 4354 12c1 50       		.byte	0x50
 4355 12c2 01       		.uleb128 0x1
 4356 12c3 42       		.byte	0x42
 4357 12c4 00       		.byte	0
 4358 12c5 23       		.uleb128 0x23
 4359 12c6 20000000 		.4byte	.LVL52
 4360 12ca 981E0000 		.4byte	0x1e98
 4361 12ce 24       		.uleb128 0x24
 4362 12cf 2A000000 		.4byte	.LVL53
 4363 12d3 A41E0000 		.4byte	0x1ea4
 4364 12d7 EE120000 		.4byte	0x12ee
 4365 12db 25       		.uleb128 0x25
 4366 12dc 01       		.uleb128 0x1
 4367 12dd 50       		.byte	0x50
 4368 12de 02       		.uleb128 0x2
 4369 12df 7D       		.byte	0x7d
 4370 12e0 00       		.sleb128 0
 4371 12e1 25       		.uleb128 0x25
 4372 12e2 01       		.uleb128 0x1
 4373 12e3 51       		.byte	0x51
 4374 12e4 02       		.uleb128 0x2
 4375 12e5 08       		.byte	0x8
 4376 12e6 73       		.byte	0x73
 4377 12e7 25       		.uleb128 0x25
 4378 12e8 01       		.uleb128 0x1
 4379 12e9 52       		.byte	0x52
 4380 12ea 02       		.uleb128 0x2
 4381 12eb 08       		.byte	0x8
 4382 12ec 5A       		.byte	0x5a
 4383 12ed 00       		.byte	0
 4384 12ee 24       		.uleb128 0x24
 4385 12ef 30000000 		.4byte	.LVL54
 4386 12f3 801E0000 		.4byte	0x1e80
 4387 12f7 01130000 		.4byte	0x1301
 4388 12fb 25       		.uleb128 0x25
 4389 12fc 01       		.uleb128 0x1
 4390 12fd 50       		.byte	0x50
 4391 12fe 01       		.uleb128 0x1
 4392 12ff 37       		.byte	0x37
 4393 1300 00       		.byte	0
 4394 1301 23       		.uleb128 0x23
 4395 1302 36000000 		.4byte	.LVL55
 4396 1306 981E0000 		.4byte	0x1e98
 4397 130a 24       		.uleb128 0x24
 4398 130b 40000000 		.4byte	.LVL56
 4399 130f A41E0000 		.4byte	0x1ea4
 4400 1313 2C130000 		.4byte	0x132c
 4401 1317 25       		.uleb128 0x25
 4402 1318 01       		.uleb128 0x1
 4403 1319 50       		.byte	0x50
 4404 131a 05       		.uleb128 0x5
ARM GAS  C:\Users\vicpa\AppData\Local\Temp\ccqS0gg1.s 			page 102


 4405 131b 03       		.byte	0x3
 4406 131c 2C000000 		.4byte	.LC5
 4407 1320 25       		.uleb128 0x25
 4408 1321 01       		.uleb128 0x1
 4409 1322 51       		.byte	0x51
 4410 1323 02       		.uleb128 0x2
 4411 1324 08       		.byte	0x8
 4412 1325 50       		.byte	0x50
 4413 1326 25       		.uleb128 0x25
 4414 1327 01       		.uleb128 0x1
 4415 1328 52       		.byte	0x52
 4416 1329 01       		.uleb128 0x1
 4417 132a 44       		.byte	0x44
 4418 132b 00       		.byte	0
 4419 132c 26       		.uleb128 0x26
 4420 132d 48000000 		.4byte	.LVL57
 4421 1331 6C0E0000 		.4byte	0xe6c
 4422 1335 25       		.uleb128 0x25
 4423 1336 01       		.uleb128 0x1
 4424 1337 50       		.byte	0x50
 4425 1338 01       		.uleb128 0x1
 4426 1339 31       		.byte	0x31
 4427 133a 25       		.uleb128 0x25
 4428 133b 01       		.uleb128 0x1
 4429 133c 51       		.byte	0x51
 4430 133d 01       		.uleb128 0x1
 4431 133e 31       		.byte	0x31
 4432 133f 00       		.byte	0
 4433 1340 00       		.byte	0
 4434 1341 20       		.uleb128 0x20
 4435 1342 2F0E0000 		.4byte	.LASF254
 4436 1346 01       		.byte	0x1
 4437 1347 57       		.byte	0x57
 4438 1348 00000000 		.4byte	.LFB566
 4439 134c 5C000000 		.4byte	.LFE566-.LFB566
 4440 1350 01       		.uleb128 0x1
 4441 1351 9C       		.byte	0x9c
 4442 1352 2E140000 		.4byte	0x142e
 4443 1356 21       		.uleb128 0x21
 4444 1357 070B0000 		.4byte	.LASF252
 4445 135b 01       		.byte	0x1
 4446 135c 57       		.byte	0x57
 4447 135d 94000000 		.4byte	0x94
 4448 1361 B5010000 		.4byte	.LLST12
 4449 1365 29       		.uleb128 0x29
 4450 1366 F40F0000 		.4byte	.LASF255
 4451 136a 01       		.byte	0x1
 4452 136b 5A       		.byte	0x5a
 4453 136c 44120000 		.4byte	0x1244
 4454 1370 02       		.uleb128 0x2
 4455 1371 91       		.byte	0x91
 4456 1372 70       		.sleb128 -16
 4457 1373 23       		.uleb128 0x23
 4458 1374 0A000000 		.4byte	.LVL60
 4459 1378 010F0000 		.4byte	0xf01
 4460 137c 24       		.uleb128 0x24
 4461 137d 14000000 		.4byte	.LVL61
ARM GAS  C:\Users\vicpa\AppData\Local\Temp\ccqS0gg1.s 			page 103


 4462 1381 751E0000 		.4byte	0x1e75
 4463 1385 9F130000 		.4byte	0x139f
 4464 1389 25       		.uleb128 0x25
 4465 138a 01       		.uleb128 0x1
 4466 138b 50       		.byte	0x50
 4467 138c 02       		.uleb128 0x2
 4468 138d 7D       		.byte	0x7d
 4469 138e 00       		.sleb128 0
 4470 138f 25       		.uleb128 0x25
 4471 1390 01       		.uleb128 0x1
 4472 1391 51       		.byte	0x51
 4473 1392 05       		.uleb128 0x5
 4474 1393 03       		.byte	0x3
 4475 1394 00000000 		.4byte	.LC0
 4476 1398 25       		.uleb128 0x25
 4477 1399 01       		.uleb128 0x1
 4478 139a 52       		.byte	0x52
 4479 139b 02       		.uleb128 0x2
 4480 139c 74       		.byte	0x74
 4481 139d 00       		.sleb128 0
 4482 139e 00       		.byte	0
 4483 139f 24       		.uleb128 0x24
 4484 13a0 1A000000 		.4byte	.LVL62
 4485 13a4 801E0000 		.4byte	0x1e80
 4486 13a8 B2130000 		.4byte	0x13b2
 4487 13ac 25       		.uleb128 0x25
 4488 13ad 01       		.uleb128 0x1
 4489 13ae 50       		.byte	0x50
 4490 13af 01       		.uleb128 0x1
 4491 13b0 42       		.byte	0x42
 4492 13b1 00       		.byte	0
 4493 13b2 23       		.uleb128 0x23
 4494 13b3 20000000 		.4byte	.LVL63
 4495 13b7 981E0000 		.4byte	0x1e98
 4496 13bb 24       		.uleb128 0x24
 4497 13bc 2A000000 		.4byte	.LVL64
 4498 13c0 A41E0000 		.4byte	0x1ea4
 4499 13c4 DB130000 		.4byte	0x13db
 4500 13c8 25       		.uleb128 0x25
 4501 13c9 01       		.uleb128 0x1
 4502 13ca 50       		.byte	0x50
 4503 13cb 02       		.uleb128 0x2
 4504 13cc 7D       		.byte	0x7d
 4505 13cd 00       		.sleb128 0
 4506 13ce 25       		.uleb128 0x25
 4507 13cf 01       		.uleb128 0x1
 4508 13d0 51       		.byte	0x51
 4509 13d1 02       		.uleb128 0x2
 4510 13d2 08       		.byte	0x8
 4511 13d3 73       		.byte	0x73
 4512 13d4 25       		.uleb128 0x25
 4513 13d5 01       		.uleb128 0x1
 4514 13d6 52       		.byte	0x52
 4515 13d7 02       		.uleb128 0x2
 4516 13d8 08       		.byte	0x8
 4517 13d9 5A       		.byte	0x5a
 4518 13da 00       		.byte	0
ARM GAS  C:\Users\vicpa\AppData\Local\Temp\ccqS0gg1.s 			page 104


 4519 13db 24       		.uleb128 0x24
 4520 13dc 30000000 		.4byte	.LVL65
 4521 13e0 801E0000 		.4byte	0x1e80
 4522 13e4 EE130000 		.4byte	0x13ee
 4523 13e8 25       		.uleb128 0x25
 4524 13e9 01       		.uleb128 0x1
 4525 13ea 50       		.byte	0x50
 4526 13eb 01       		.uleb128 0x1
 4527 13ec 37       		.byte	0x37
 4528 13ed 00       		.byte	0
 4529 13ee 23       		.uleb128 0x23
 4530 13ef 36000000 		.4byte	.LVL66
 4531 13f3 981E0000 		.4byte	0x1e98
 4532 13f7 24       		.uleb128 0x24
 4533 13f8 40000000 		.4byte	.LVL67
 4534 13fc A41E0000 		.4byte	0x1ea4
 4535 1400 19140000 		.4byte	0x1419
 4536 1404 25       		.uleb128 0x25
 4537 1405 01       		.uleb128 0x1
 4538 1406 50       		.byte	0x50
 4539 1407 05       		.uleb128 0x5
 4540 1408 03       		.byte	0x3
 4541 1409 44000000 		.4byte	.LC6
 4542 140d 25       		.uleb128 0x25
 4543 140e 01       		.uleb128 0x1
 4544 140f 51       		.byte	0x51
 4545 1410 02       		.uleb128 0x2
 4546 1411 08       		.byte	0x8
 4547 1412 50       		.byte	0x50
 4548 1413 25       		.uleb128 0x25
 4549 1414 01       		.uleb128 0x1
 4550 1415 52       		.byte	0x52
 4551 1416 01       		.uleb128 0x1
 4552 1417 44       		.byte	0x44
 4553 1418 00       		.byte	0
 4554 1419 26       		.uleb128 0x26
 4555 141a 48000000 		.4byte	.LVL68
 4556 141e 6C0E0000 		.4byte	0xe6c
 4557 1422 25       		.uleb128 0x25
 4558 1423 01       		.uleb128 0x1
 4559 1424 50       		.byte	0x50
 4560 1425 01       		.uleb128 0x1
 4561 1426 31       		.byte	0x31
 4562 1427 25       		.uleb128 0x25
 4563 1428 01       		.uleb128 0x1
 4564 1429 51       		.byte	0x51
 4565 142a 01       		.uleb128 0x1
 4566 142b 31       		.byte	0x31
 4567 142c 00       		.byte	0
 4568 142d 00       		.byte	0
 4569 142e 20       		.uleb128 0x20
 4570 142f 29100000 		.4byte	.LASF256
 4571 1433 01       		.byte	0x1
 4572 1434 64       		.byte	0x64
 4573 1435 00000000 		.4byte	.LFB567
 4574 1439 D8000000 		.4byte	.LFE567-.LFB567
 4575 143d 01       		.uleb128 0x1
ARM GAS  C:\Users\vicpa\AppData\Local\Temp\ccqS0gg1.s 			page 105


 4576 143e 9C       		.byte	0x9c
 4577 143f 31160000 		.4byte	0x1631
 4578 1443 21       		.uleb128 0x21
 4579 1444 CF0E0000 		.4byte	.LASF257
 4580 1448 01       		.byte	0x1
 4581 1449 64       		.byte	0x64
 4582 144a 94000000 		.4byte	0x94
 4583 144e E1010000 		.4byte	.LLST13
 4584 1452 21       		.uleb128 0x21
 4585 1453 E90B0000 		.4byte	.LASF258
 4586 1457 01       		.byte	0x1
 4587 1458 64       		.byte	0x64
 4588 1459 94000000 		.4byte	0x94
 4589 145d 0D020000 		.4byte	.LLST14
 4590 1461 21       		.uleb128 0x21
 4591 1462 F10B0000 		.4byte	.LASF259
 4592 1466 01       		.byte	0x1
 4593 1467 64       		.byte	0x64
 4594 1468 94000000 		.4byte	0x94
 4595 146c 39020000 		.4byte	.LLST15
 4596 1470 23       		.uleb128 0x23
 4597 1471 0C000000 		.4byte	.LVL71
 4598 1475 010F0000 		.4byte	0xf01
 4599 1479 24       		.uleb128 0x24
 4600 147a 12000000 		.4byte	.LVL72
 4601 147e 801E0000 		.4byte	0x1e80
 4602 1482 8C140000 		.4byte	0x148c
 4603 1486 25       		.uleb128 0x25
 4604 1487 01       		.uleb128 0x1
 4605 1488 50       		.byte	0x50
 4606 1489 01       		.uleb128 0x1
 4607 148a 37       		.byte	0x37
 4608 148b 00       		.byte	0
 4609 148c 23       		.uleb128 0x23
 4610 148d 18000000 		.4byte	.LVL73
 4611 1491 981E0000 		.4byte	0x1e98
 4612 1495 24       		.uleb128 0x24
 4613 1496 24000000 		.4byte	.LVL74
 4614 149a A41E0000 		.4byte	0x1ea4
 4615 149e B6140000 		.4byte	0x14b6
 4616 14a2 25       		.uleb128 0x25
 4617 14a3 01       		.uleb128 0x1
 4618 14a4 50       		.byte	0x50
 4619 14a5 05       		.uleb128 0x5
 4620 14a6 03       		.byte	0x3
 4621 14a7 5C000000 		.4byte	.LC7
 4622 14ab 25       		.uleb128 0x25
 4623 14ac 01       		.uleb128 0x1
 4624 14ad 51       		.byte	0x51
 4625 14ae 01       		.uleb128 0x1
 4626 14af 44       		.byte	0x44
 4627 14b0 25       		.uleb128 0x25
 4628 14b1 01       		.uleb128 0x1
 4629 14b2 52       		.byte	0x52
 4630 14b3 01       		.uleb128 0x1
 4631 14b4 44       		.byte	0x44
 4632 14b5 00       		.byte	0
ARM GAS  C:\Users\vicpa\AppData\Local\Temp\ccqS0gg1.s 			page 106


 4633 14b6 24       		.uleb128 0x24
 4634 14b7 2E000000 		.4byte	.LVL75
 4635 14bb A41E0000 		.4byte	0x1ea4
 4636 14bf D8140000 		.4byte	0x14d8
 4637 14c3 25       		.uleb128 0x25
 4638 14c4 01       		.uleb128 0x1
 4639 14c5 50       		.byte	0x50
 4640 14c6 05       		.uleb128 0x5
 4641 14c7 03       		.byte	0x3
 4642 14c8 78000000 		.4byte	.LC8
 4643 14cc 25       		.uleb128 0x25
 4644 14cd 01       		.uleb128 0x1
 4645 14ce 51       		.byte	0x51
 4646 14cf 01       		.uleb128 0x1
 4647 14d0 44       		.byte	0x44
 4648 14d1 25       		.uleb128 0x25
 4649 14d2 01       		.uleb128 0x1
 4650 14d3 52       		.byte	0x52
 4651 14d4 02       		.uleb128 0x2
 4652 14d5 08       		.byte	0x8
 4653 14d6 32       		.byte	0x32
 4654 14d7 00       		.byte	0
 4655 14d8 24       		.uleb128 0x24
 4656 14d9 3C000000 		.4byte	.LVL76
 4657 14dd A41E0000 		.4byte	0x1ea4
 4658 14e1 FA140000 		.4byte	0x14fa
 4659 14e5 25       		.uleb128 0x25
 4660 14e6 01       		.uleb128 0x1
 4661 14e7 50       		.byte	0x50
 4662 14e8 05       		.uleb128 0x5
 4663 14e9 03       		.byte	0x3
 4664 14ea A8000000 		.4byte	.LC9
 4665 14ee 25       		.uleb128 0x25
 4666 14ef 01       		.uleb128 0x1
 4667 14f0 51       		.byte	0x51
 4668 14f1 02       		.uleb128 0x2
 4669 14f2 08       		.byte	0x8
 4670 14f3 50       		.byte	0x50
 4671 14f4 25       		.uleb128 0x25
 4672 14f5 01       		.uleb128 0x1
 4673 14f6 52       		.byte	0x52
 4674 14f7 01       		.uleb128 0x1
 4675 14f8 30       		.byte	0x30
 4676 14f9 00       		.byte	0
 4677 14fa 24       		.uleb128 0x24
 4678 14fb 46000000 		.4byte	.LVL77
 4679 14ff A41E0000 		.4byte	0x1ea4
 4680 1503 1C150000 		.4byte	0x151c
 4681 1507 25       		.uleb128 0x25
 4682 1508 01       		.uleb128 0x1
 4683 1509 50       		.byte	0x50
 4684 150a 05       		.uleb128 0x5
 4685 150b 03       		.byte	0x3
 4686 150c BC000000 		.4byte	.LC10
 4687 1510 25       		.uleb128 0x25
 4688 1511 01       		.uleb128 0x1
 4689 1512 51       		.byte	0x51
ARM GAS  C:\Users\vicpa\AppData\Local\Temp\ccqS0gg1.s 			page 107


 4690 1513 01       		.uleb128 0x1
 4691 1514 4E       		.byte	0x4e
 4692 1515 25       		.uleb128 0x25
 4693 1516 01       		.uleb128 0x1
 4694 1517 52       		.byte	0x52
 4695 1518 02       		.uleb128 0x2
 4696 1519 08       		.byte	0x8
 4697 151a 32       		.byte	0x32
 4698 151b 00       		.byte	0
 4699 151c 24       		.uleb128 0x24
 4700 151d 50000000 		.4byte	.LVL78
 4701 1521 A41E0000 		.4byte	0x1ea4
 4702 1525 3E150000 		.4byte	0x153e
 4703 1529 25       		.uleb128 0x25
 4704 152a 01       		.uleb128 0x1
 4705 152b 50       		.byte	0x50
 4706 152c 05       		.uleb128 0x5
 4707 152d 03       		.byte	0x3
 4708 152e D4000000 		.4byte	.LC11
 4709 1532 25       		.uleb128 0x25
 4710 1533 01       		.uleb128 0x1
 4711 1534 51       		.byte	0x51
 4712 1535 01       		.uleb128 0x1
 4713 1536 4E       		.byte	0x4e
 4714 1537 25       		.uleb128 0x25
 4715 1538 01       		.uleb128 0x1
 4716 1539 52       		.byte	0x52
 4717 153a 02       		.uleb128 0x2
 4718 153b 08       		.byte	0x8
 4719 153c 50       		.byte	0x50
 4720 153d 00       		.byte	0
 4721 153e 24       		.uleb128 0x24
 4722 153f 5E000000 		.4byte	.LVL79
 4723 1543 B01E0000 		.4byte	0x1eb0
 4724 1547 5C150000 		.4byte	0x155c
 4725 154b 25       		.uleb128 0x25
 4726 154c 01       		.uleb128 0x1
 4727 154d 50       		.byte	0x50
 4728 154e 01       		.uleb128 0x1
 4729 154f 3F       		.byte	0x3f
 4730 1550 25       		.uleb128 0x25
 4731 1551 01       		.uleb128 0x1
 4732 1552 51       		.byte	0x51
 4733 1553 02       		.uleb128 0x2
 4734 1554 08       		.byte	0x8
 4735 1555 37       		.byte	0x37
 4736 1556 25       		.uleb128 0x25
 4737 1557 01       		.uleb128 0x1
 4738 1558 52       		.byte	0x52
 4739 1559 01       		.uleb128 0x1
 4740 155a 35       		.byte	0x35
 4741 155b 00       		.byte	0
 4742 155c 24       		.uleb128 0x24
 4743 155d 6C000000 		.4byte	.LVL80
 4744 1561 B01E0000 		.4byte	0x1eb0
 4745 1565 7A150000 		.4byte	0x157a
 4746 1569 25       		.uleb128 0x25
ARM GAS  C:\Users\vicpa\AppData\Local\Temp\ccqS0gg1.s 			page 108


 4747 156a 01       		.uleb128 0x1
 4748 156b 50       		.byte	0x50
 4749 156c 01       		.uleb128 0x1
 4750 156d 3F       		.byte	0x3f
 4751 156e 25       		.uleb128 0x25
 4752 156f 01       		.uleb128 0x1
 4753 1570 51       		.byte	0x51
 4754 1571 02       		.uleb128 0x2
 4755 1572 08       		.byte	0x8
 4756 1573 55       		.byte	0x55
 4757 1574 25       		.uleb128 0x25
 4758 1575 01       		.uleb128 0x1
 4759 1576 52       		.byte	0x52
 4760 1577 01       		.uleb128 0x1
 4761 1578 35       		.byte	0x35
 4762 1579 00       		.byte	0
 4763 157a 24       		.uleb128 0x24
 4764 157b 7A000000 		.4byte	.LVL81
 4765 157f A41E0000 		.4byte	0x1ea4
 4766 1583 9C150000 		.4byte	0x159c
 4767 1587 25       		.uleb128 0x25
 4768 1588 01       		.uleb128 0x1
 4769 1589 50       		.byte	0x50
 4770 158a 05       		.uleb128 0x5
 4771 158b 03       		.byte	0x3
 4772 158c FC000000 		.4byte	.LC12
 4773 1590 25       		.uleb128 0x25
 4774 1591 01       		.uleb128 0x1
 4775 1592 51       		.byte	0x51
 4776 1593 02       		.uleb128 0x2
 4777 1594 08       		.byte	0x8
 4778 1595 50       		.byte	0x50
 4779 1596 25       		.uleb128 0x25
 4780 1597 01       		.uleb128 0x1
 4781 1598 52       		.byte	0x52
 4782 1599 01       		.uleb128 0x1
 4783 159a 30       		.byte	0x30
 4784 159b 00       		.byte	0
 4785 159c 24       		.uleb128 0x24
 4786 159d 84000000 		.4byte	.LVL82
 4787 15a1 A41E0000 		.4byte	0x1ea4
 4788 15a5 BE150000 		.4byte	0x15be
 4789 15a9 25       		.uleb128 0x25
 4790 15aa 01       		.uleb128 0x1
 4791 15ab 50       		.byte	0x50
 4792 15ac 05       		.uleb128 0x5
 4793 15ad 03       		.byte	0x3
 4794 15ae 10010000 		.4byte	.LC13
 4795 15b2 25       		.uleb128 0x25
 4796 15b3 01       		.uleb128 0x1
 4797 15b4 51       		.byte	0x51
 4798 15b5 01       		.uleb128 0x1
 4799 15b6 4E       		.byte	0x4e
 4800 15b7 25       		.uleb128 0x25
 4801 15b8 01       		.uleb128 0x1
 4802 15b9 52       		.byte	0x52
 4803 15ba 02       		.uleb128 0x2
ARM GAS  C:\Users\vicpa\AppData\Local\Temp\ccqS0gg1.s 			page 109


 4804 15bb 08       		.byte	0x8
 4805 15bc 32       		.byte	0x32
 4806 15bd 00       		.byte	0
 4807 15be 24       		.uleb128 0x24
 4808 15bf 8E000000 		.4byte	.LVL83
 4809 15c3 A41E0000 		.4byte	0x1ea4
 4810 15c7 E0150000 		.4byte	0x15e0
 4811 15cb 25       		.uleb128 0x25
 4812 15cc 01       		.uleb128 0x1
 4813 15cd 50       		.byte	0x50
 4814 15ce 05       		.uleb128 0x5
 4815 15cf 03       		.byte	0x3
 4816 15d0 2C010000 		.4byte	.LC14
 4817 15d4 25       		.uleb128 0x25
 4818 15d5 01       		.uleb128 0x1
 4819 15d6 51       		.byte	0x51
 4820 15d7 01       		.uleb128 0x1
 4821 15d8 4E       		.byte	0x4e
 4822 15d9 25       		.uleb128 0x25
 4823 15da 01       		.uleb128 0x1
 4824 15db 52       		.byte	0x52
 4825 15dc 02       		.uleb128 0x2
 4826 15dd 08       		.byte	0x8
 4827 15de 50       		.byte	0x50
 4828 15df 00       		.byte	0
 4829 15e0 24       		.uleb128 0x24
 4830 15e1 9C000000 		.4byte	.LVL84
 4831 15e5 B01E0000 		.4byte	0x1eb0
 4832 15e9 FE150000 		.4byte	0x15fe
 4833 15ed 25       		.uleb128 0x25
 4834 15ee 01       		.uleb128 0x1
 4835 15ef 50       		.byte	0x50
 4836 15f0 01       		.uleb128 0x1
 4837 15f1 3F       		.byte	0x3f
 4838 15f2 25       		.uleb128 0x25
 4839 15f3 01       		.uleb128 0x1
 4840 15f4 51       		.byte	0x51
 4841 15f5 02       		.uleb128 0x2
 4842 15f6 08       		.byte	0x8
 4843 15f7 37       		.byte	0x37
 4844 15f8 25       		.uleb128 0x25
 4845 15f9 01       		.uleb128 0x1
 4846 15fa 52       		.byte	0x52
 4847 15fb 01       		.uleb128 0x1
 4848 15fc 35       		.byte	0x35
 4849 15fd 00       		.byte	0
 4850 15fe 24       		.uleb128 0x24
 4851 15ff AA000000 		.4byte	.LVL85
 4852 1603 B01E0000 		.4byte	0x1eb0
 4853 1607 1C160000 		.4byte	0x161c
 4854 160b 25       		.uleb128 0x25
 4855 160c 01       		.uleb128 0x1
 4856 160d 50       		.byte	0x50
 4857 160e 01       		.uleb128 0x1
 4858 160f 3F       		.byte	0x3f
 4859 1610 25       		.uleb128 0x25
 4860 1611 01       		.uleb128 0x1
ARM GAS  C:\Users\vicpa\AppData\Local\Temp\ccqS0gg1.s 			page 110


 4861 1612 51       		.byte	0x51
 4862 1613 02       		.uleb128 0x2
 4863 1614 08       		.byte	0x8
 4864 1615 55       		.byte	0x55
 4865 1616 25       		.uleb128 0x25
 4866 1617 01       		.uleb128 0x1
 4867 1618 52       		.byte	0x52
 4868 1619 01       		.uleb128 0x1
 4869 161a 35       		.byte	0x35
 4870 161b 00       		.byte	0
 4871 161c 26       		.uleb128 0x26
 4872 161d B2000000 		.4byte	.LVL86
 4873 1621 6C0E0000 		.4byte	0xe6c
 4874 1625 25       		.uleb128 0x25
 4875 1626 01       		.uleb128 0x1
 4876 1627 50       		.byte	0x50
 4877 1628 01       		.uleb128 0x1
 4878 1629 31       		.byte	0x31
 4879 162a 25       		.uleb128 0x25
 4880 162b 01       		.uleb128 0x1
 4881 162c 51       		.byte	0x51
 4882 162d 01       		.uleb128 0x1
 4883 162e 31       		.byte	0x31
 4884 162f 00       		.byte	0
 4885 1630 00       		.byte	0
 4886 1631 2E       		.uleb128 0x2e
 4887 1632 580A0000 		.4byte	.LASF260
 4888 1636 01       		.byte	0x1
 4889 1637 8E       		.byte	0x8e
 4890 1638 00000000 		.4byte	.LFB568
 4891 163c 4C000000 		.4byte	.LFE568-.LFB568
 4892 1640 01       		.uleb128 0x1
 4893 1641 9C       		.byte	0x9c
 4894 1642 9D160000 		.4byte	0x169d
 4895 1646 2B       		.uleb128 0x2b
 4896 1647 1E000000 		.4byte	.LBB11
 4897 164b 06000000 		.4byte	.LBE11-.LBB11
 4898 164f 5F160000 		.4byte	0x165f
 4899 1653 2F       		.uleb128 0x2f
 4900 1654 EF010000 		.4byte	.LASF324
 4901 1658 01       		.byte	0x1
 4902 1659 94       		.byte	0x94
 4903 165a 94000000 		.4byte	0x94
 4904 165e 00       		.byte	0
 4905 165f 23       		.uleb128 0x23
 4906 1660 06000000 		.4byte	.LVL88
 4907 1664 BC1E0000 		.4byte	0x1ebc
 4908 1668 24       		.uleb128 0x24
 4909 1669 0C000000 		.4byte	.LVL89
 4910 166d C71E0000 		.4byte	0x1ec7
 4911 1671 7B160000 		.4byte	0x167b
 4912 1675 25       		.uleb128 0x25
 4913 1676 01       		.uleb128 0x1
 4914 1677 50       		.byte	0x50
 4915 1678 01       		.uleb128 0x1
 4916 1679 30       		.byte	0x30
 4917 167a 00       		.byte	0
ARM GAS  C:\Users\vicpa\AppData\Local\Temp\ccqS0gg1.s 			page 111


 4918 167b 23       		.uleb128 0x23
 4919 167c 30000000 		.4byte	.LVL91
 4920 1680 D31E0000 		.4byte	0x1ed3
 4921 1684 23       		.uleb128 0x23
 4922 1685 34000000 		.4byte	.LVL92
 4923 1689 DE1E0000 		.4byte	0x1ede
 4924 168d 26       		.uleb128 0x26
 4925 168e 3A000000 		.4byte	.LVL93
 4926 1692 E91E0000 		.4byte	0x1ee9
 4927 1696 25       		.uleb128 0x25
 4928 1697 01       		.uleb128 0x1
 4929 1698 50       		.byte	0x50
 4930 1699 01       		.uleb128 0x1
 4931 169a 31       		.byte	0x31
 4932 169b 00       		.byte	0
 4933 169c 00       		.byte	0
 4934 169d 2E       		.uleb128 0x2e
 4935 169e 0A0A0000 		.4byte	.LASF261
 4936 16a2 01       		.byte	0x1
 4937 16a3 A1       		.byte	0xa1
 4938 16a4 00000000 		.4byte	.LFB569
 4939 16a8 AC000000 		.4byte	.LFE569-.LFB569
 4940 16ac 01       		.uleb128 0x1
 4941 16ad 9C       		.byte	0x9c
 4942 16ae 02170000 		.4byte	0x1702
 4943 16b2 23       		.uleb128 0x23
 4944 16b3 06000000 		.4byte	.LVL94
 4945 16b7 BC1E0000 		.4byte	0x1ebc
 4946 16bb 24       		.uleb128 0x24
 4947 16bc 0C000000 		.4byte	.LVL95
 4948 16c0 C71E0000 		.4byte	0x1ec7
 4949 16c4 CE160000 		.4byte	0x16ce
 4950 16c8 25       		.uleb128 0x25
 4951 16c9 01       		.uleb128 0x1
 4952 16ca 50       		.byte	0x50
 4953 16cb 01       		.uleb128 0x1
 4954 16cc 30       		.byte	0x30
 4955 16cd 00       		.byte	0
 4956 16ce 23       		.uleb128 0x23
 4957 16cf 74000000 		.4byte	.LVL96
 4958 16d3 D31E0000 		.4byte	0x1ed3
 4959 16d7 23       		.uleb128 0x23
 4960 16d8 78000000 		.4byte	.LVL97
 4961 16dc DE1E0000 		.4byte	0x1ede
 4962 16e0 23       		.uleb128 0x23
 4963 16e1 86000000 		.4byte	.LVL98
 4964 16e5 54120000 		.4byte	0x1254
 4965 16e9 23       		.uleb128 0x23
 4966 16ea 90000000 		.4byte	.LVL99
 4967 16ee BC1E0000 		.4byte	0x1ebc
 4968 16f2 26       		.uleb128 0x26
 4969 16f3 96000000 		.4byte	.LVL100
 4970 16f7 E91E0000 		.4byte	0x1ee9
 4971 16fb 25       		.uleb128 0x25
 4972 16fc 01       		.uleb128 0x1
 4973 16fd 50       		.byte	0x50
 4974 16fe 01       		.uleb128 0x1
ARM GAS  C:\Users\vicpa\AppData\Local\Temp\ccqS0gg1.s 			page 112


 4975 16ff 31       		.byte	0x31
 4976 1700 00       		.byte	0
 4977 1701 00       		.byte	0
 4978 1702 2E       		.uleb128 0x2e
 4979 1703 0D0E0000 		.4byte	.LASF262
 4980 1707 01       		.byte	0x1
 4981 1708 C5       		.byte	0xc5
 4982 1709 00000000 		.4byte	.LFB570
 4983 170d AC000000 		.4byte	.LFE570-.LFB570
 4984 1711 01       		.uleb128 0x1
 4985 1712 9C       		.byte	0x9c
 4986 1713 67170000 		.4byte	0x1767
 4987 1717 23       		.uleb128 0x23
 4988 1718 06000000 		.4byte	.LVL101
 4989 171c BC1E0000 		.4byte	0x1ebc
 4990 1720 24       		.uleb128 0x24
 4991 1721 0C000000 		.4byte	.LVL102
 4992 1725 C71E0000 		.4byte	0x1ec7
 4993 1729 33170000 		.4byte	0x1733
 4994 172d 25       		.uleb128 0x25
 4995 172e 01       		.uleb128 0x1
 4996 172f 50       		.byte	0x50
 4997 1730 01       		.uleb128 0x1
 4998 1731 30       		.byte	0x30
 4999 1732 00       		.byte	0
 5000 1733 23       		.uleb128 0x23
 5001 1734 74000000 		.4byte	.LVL103
 5002 1738 D31E0000 		.4byte	0x1ed3
 5003 173c 23       		.uleb128 0x23
 5004 173d 78000000 		.4byte	.LVL104
 5005 1741 DE1E0000 		.4byte	0x1ede
 5006 1745 23       		.uleb128 0x23
 5007 1746 86000000 		.4byte	.LVL105
 5008 174a 41130000 		.4byte	0x1341
 5009 174e 23       		.uleb128 0x23
 5010 174f 90000000 		.4byte	.LVL106
 5011 1753 BC1E0000 		.4byte	0x1ebc
 5012 1757 26       		.uleb128 0x26
 5013 1758 96000000 		.4byte	.LVL107
 5014 175c E91E0000 		.4byte	0x1ee9
 5015 1760 25       		.uleb128 0x25
 5016 1761 01       		.uleb128 0x1
 5017 1762 50       		.byte	0x50
 5018 1763 01       		.uleb128 0x1
 5019 1764 31       		.byte	0x31
 5020 1765 00       		.byte	0
 5021 1766 00       		.byte	0
 5022 1767 2E       		.uleb128 0x2e
 5023 1768 7E080000 		.4byte	.LASF263
 5024 176c 01       		.byte	0x1
 5025 176d E9       		.byte	0xe9
 5026 176e 00000000 		.4byte	.LFB571
 5027 1772 54000000 		.4byte	.LFE571-.LFB571
 5028 1776 01       		.uleb128 0x1
 5029 1777 9C       		.byte	0x9c
 5030 1778 FC170000 		.4byte	0x17fc
 5031 177c 23       		.uleb128 0x23
ARM GAS  C:\Users\vicpa\AppData\Local\Temp\ccqS0gg1.s 			page 113


 5032 177d 06000000 		.4byte	.LVL108
 5033 1781 010F0000 		.4byte	0xf01
 5034 1785 24       		.uleb128 0x24
 5035 1786 0C000000 		.4byte	.LVL109
 5036 178a 801E0000 		.4byte	0x1e80
 5037 178e 98170000 		.4byte	0x1798
 5038 1792 25       		.uleb128 0x25
 5039 1793 01       		.uleb128 0x1
 5040 1794 50       		.byte	0x50
 5041 1795 01       		.uleb128 0x1
 5042 1796 37       		.byte	0x37
 5043 1797 00       		.byte	0
 5044 1798 23       		.uleb128 0x23
 5045 1799 12000000 		.4byte	.LVL110
 5046 179d 981E0000 		.4byte	0x1e98
 5047 17a1 24       		.uleb128 0x24
 5048 17a2 26000000 		.4byte	.LVL111
 5049 17a6 A41E0000 		.4byte	0x1ea4
 5050 17aa C4170000 		.4byte	0x17c4
 5051 17ae 25       		.uleb128 0x25
 5052 17af 01       		.uleb128 0x1
 5053 17b0 50       		.byte	0x50
 5054 17b1 05       		.uleb128 0x5
 5055 17b2 03       		.byte	0x3
 5056 17b3 48010000 		.4byte	.LC15
 5057 17b7 25       		.uleb128 0x25
 5058 17b8 01       		.uleb128 0x1
 5059 17b9 51       		.byte	0x51
 5060 17ba 02       		.uleb128 0x2
 5061 17bb 08       		.byte	0x8
 5062 17bc 50       		.byte	0x50
 5063 17bd 25       		.uleb128 0x25
 5064 17be 01       		.uleb128 0x1
 5065 17bf 52       		.byte	0x52
 5066 17c0 02       		.uleb128 0x2
 5067 17c1 08       		.byte	0x8
 5068 17c2 50       		.byte	0x50
 5069 17c3 00       		.byte	0
 5070 17c4 24       		.uleb128 0x24
 5071 17c5 3A000000 		.4byte	.LVL112
 5072 17c9 A41E0000 		.4byte	0x1ea4
 5073 17cd E7170000 		.4byte	0x17e7
 5074 17d1 25       		.uleb128 0x25
 5075 17d2 01       		.uleb128 0x1
 5076 17d3 50       		.byte	0x50
 5077 17d4 05       		.uleb128 0x5
 5078 17d5 03       		.byte	0x3
 5079 17d6 58010000 		.4byte	.LC16
 5080 17da 25       		.uleb128 0x25
 5081 17db 01       		.uleb128 0x1
 5082 17dc 51       		.byte	0x51
 5083 17dd 02       		.uleb128 0x2
 5084 17de 08       		.byte	0x8
 5085 17df 50       		.byte	0x50
 5086 17e0 25       		.uleb128 0x25
 5087 17e1 01       		.uleb128 0x1
 5088 17e2 52       		.byte	0x52
ARM GAS  C:\Users\vicpa\AppData\Local\Temp\ccqS0gg1.s 			page 114


 5089 17e3 02       		.uleb128 0x2
 5090 17e4 08       		.byte	0x8
 5091 17e5 50       		.byte	0x50
 5092 17e6 00       		.byte	0
 5093 17e7 26       		.uleb128 0x26
 5094 17e8 42000000 		.4byte	.LVL113
 5095 17ec 6C0E0000 		.4byte	0xe6c
 5096 17f0 25       		.uleb128 0x25
 5097 17f1 01       		.uleb128 0x1
 5098 17f2 50       		.byte	0x50
 5099 17f3 01       		.uleb128 0x1
 5100 17f4 31       		.byte	0x31
 5101 17f5 25       		.uleb128 0x25
 5102 17f6 01       		.uleb128 0x1
 5103 17f7 51       		.byte	0x51
 5104 17f8 01       		.uleb128 0x1
 5105 17f9 31       		.byte	0x31
 5106 17fa 00       		.byte	0
 5107 17fb 00       		.byte	0
 5108 17fc 2E       		.uleb128 0x2e
 5109 17fd 90080000 		.4byte	.LASF264
 5110 1801 01       		.byte	0x1
 5111 1802 F8       		.byte	0xf8
 5112 1803 00000000 		.4byte	.LFB572
 5113 1807 6C000000 		.4byte	.LFE572-.LFB572
 5114 180b 01       		.uleb128 0x1
 5115 180c 9C       		.byte	0x9c
 5116 180d 6A180000 		.4byte	0x186a
 5117 1811 23       		.uleb128 0x23
 5118 1812 06000000 		.4byte	.LVL114
 5119 1816 BC1E0000 		.4byte	0x1ebc
 5120 181a 24       		.uleb128 0x24
 5121 181b 0C000000 		.4byte	.LVL115
 5122 181f C71E0000 		.4byte	0x1ec7
 5123 1823 2D180000 		.4byte	0x182d
 5124 1827 25       		.uleb128 0x25
 5125 1828 01       		.uleb128 0x1
 5126 1829 50       		.byte	0x50
 5127 182a 01       		.uleb128 0x1
 5128 182b 30       		.byte	0x30
 5129 182c 00       		.byte	0
 5130 182d 23       		.uleb128 0x23
 5131 182e 2C000000 		.4byte	.LVL116
 5132 1832 67170000 		.4byte	0x1767
 5133 1836 23       		.uleb128 0x23
 5134 1837 3E000000 		.4byte	.LVL117
 5135 183b 67170000 		.4byte	0x1767
 5136 183f 23       		.uleb128 0x23
 5137 1840 48000000 		.4byte	.LVL118
 5138 1844 D31E0000 		.4byte	0x1ed3
 5139 1848 23       		.uleb128 0x23
 5140 1849 4C000000 		.4byte	.LVL119
 5141 184d DE1E0000 		.4byte	0x1ede
 5142 1851 23       		.uleb128 0x23
 5143 1852 50000000 		.4byte	.LVL120
 5144 1856 BC1E0000 		.4byte	0x1ebc
 5145 185a 26       		.uleb128 0x26
ARM GAS  C:\Users\vicpa\AppData\Local\Temp\ccqS0gg1.s 			page 115


 5146 185b 56000000 		.4byte	.LVL121
 5147 185f E91E0000 		.4byte	0x1ee9
 5148 1863 25       		.uleb128 0x25
 5149 1864 01       		.uleb128 0x1
 5150 1865 50       		.byte	0x50
 5151 1866 01       		.uleb128 0x1
 5152 1867 31       		.byte	0x31
 5153 1868 00       		.byte	0
 5154 1869 00       		.byte	0
 5155 186a 30       		.uleb128 0x30
 5156 186b A1060000 		.4byte	.LASF265
 5157 186f 01       		.byte	0x1
 5158 1870 1301     		.2byte	0x113
 5159 1872 00000000 		.4byte	.LFB573
 5160 1876 9C000000 		.4byte	.LFE573-.LFB573
 5161 187a 01       		.uleb128 0x1
 5162 187b 9C       		.byte	0x9c
 5163 187c 56190000 		.4byte	0x1956
 5164 1880 23       		.uleb128 0x23
 5165 1881 10000000 		.4byte	.LVL122
 5166 1885 010F0000 		.4byte	0xf01
 5167 1889 24       		.uleb128 0x24
 5168 188a 20000000 		.4byte	.LVL123
 5169 188e 5E0F0000 		.4byte	0xf5e
 5170 1892 A0180000 		.4byte	0x18a0
 5171 1896 25       		.uleb128 0x25
 5172 1897 01       		.uleb128 0x1
 5173 1898 50       		.byte	0x50
 5174 1899 05       		.uleb128 0x5
 5175 189a 03       		.byte	0x3
 5176 189b 00000000 		.4byte	bufferInfrarouge
 5177 189f 00       		.byte	0
 5178 18a0 23       		.uleb128 0x23
 5179 18a1 2E000000 		.4byte	.LVL124
 5180 18a5 80100000 		.4byte	0x1080
 5181 18a9 24       		.uleb128 0x24
 5182 18aa 34000000 		.4byte	.LVL125
 5183 18ae 801E0000 		.4byte	0x1e80
 5184 18b2 BC180000 		.4byte	0x18bc
 5185 18b6 25       		.uleb128 0x25
 5186 18b7 01       		.uleb128 0x1
 5187 18b8 50       		.byte	0x50
 5188 18b9 01       		.uleb128 0x1
 5189 18ba 3A       		.byte	0x3a
 5190 18bb 00       		.byte	0
 5191 18bc 23       		.uleb128 0x23
 5192 18bd 3A000000 		.4byte	.LVL126
 5193 18c1 981E0000 		.4byte	0x1e98
 5194 18c5 24       		.uleb128 0x24
 5195 18c6 44000000 		.4byte	.LVL127
 5196 18ca A41E0000 		.4byte	0x1ea4
 5197 18ce E7180000 		.4byte	0x18e7
 5198 18d2 25       		.uleb128 0x25
 5199 18d3 01       		.uleb128 0x1
 5200 18d4 50       		.byte	0x50
 5201 18d5 05       		.uleb128 0x5
 5202 18d6 03       		.byte	0x3
ARM GAS  C:\Users\vicpa\AppData\Local\Temp\ccqS0gg1.s 			page 116


 5203 18d7 68010000 		.4byte	.LC17
 5204 18db 25       		.uleb128 0x25
 5205 18dc 01       		.uleb128 0x1
 5206 18dd 51       		.byte	0x51
 5207 18de 02       		.uleb128 0x2
 5208 18df 08       		.byte	0x8
 5209 18e0 50       		.byte	0x50
 5210 18e1 25       		.uleb128 0x25
 5211 18e2 01       		.uleb128 0x1
 5212 18e3 52       		.byte	0x52
 5213 18e4 01       		.uleb128 0x1
 5214 18e5 30       		.byte	0x30
 5215 18e6 00       		.byte	0
 5216 18e7 24       		.uleb128 0x24
 5217 18e8 4C000000 		.4byte	.LVL128
 5218 18ec 5E0F0000 		.4byte	0xf5e
 5219 18f0 FE180000 		.4byte	0x18fe
 5220 18f4 25       		.uleb128 0x25
 5221 18f5 01       		.uleb128 0x1
 5222 18f6 50       		.byte	0x50
 5223 18f7 05       		.uleb128 0x5
 5224 18f8 03       		.byte	0x3
 5225 18f9 00000000 		.4byte	bufferRouge
 5226 18fd 00       		.byte	0
 5227 18fe 23       		.uleb128 0x23
 5228 18ff 5A000000 		.4byte	.LVL129
 5229 1903 80100000 		.4byte	0x1080
 5230 1907 24       		.uleb128 0x24
 5231 1908 60000000 		.4byte	.LVL130
 5232 190c 801E0000 		.4byte	0x1e80
 5233 1910 1A190000 		.4byte	0x191a
 5234 1914 25       		.uleb128 0x25
 5235 1915 01       		.uleb128 0x1
 5236 1916 50       		.byte	0x50
 5237 1917 01       		.uleb128 0x1
 5238 1918 3A       		.byte	0x3a
 5239 1919 00       		.byte	0
 5240 191a 23       		.uleb128 0x23
 5241 191b 66000000 		.4byte	.LVL131
 5242 191f 981E0000 		.4byte	0x1e98
 5243 1923 24       		.uleb128 0x24
 5244 1924 70000000 		.4byte	.LVL132
 5245 1928 A41E0000 		.4byte	0x1ea4
 5246 192c 45190000 		.4byte	0x1945
 5247 1930 25       		.uleb128 0x25
 5248 1931 01       		.uleb128 0x1
 5249 1932 50       		.byte	0x50
 5250 1933 05       		.uleb128 0x5
 5251 1934 03       		.byte	0x3
 5252 1935 74010000 		.4byte	.LC18
 5253 1939 25       		.uleb128 0x25
 5254 193a 01       		.uleb128 0x1
 5255 193b 51       		.byte	0x51
 5256 193c 02       		.uleb128 0x2
 5257 193d 08       		.byte	0x8
 5258 193e 3C       		.byte	0x3c
 5259 193f 25       		.uleb128 0x25
ARM GAS  C:\Users\vicpa\AppData\Local\Temp\ccqS0gg1.s 			page 117


 5260 1940 01       		.uleb128 0x1
 5261 1941 52       		.byte	0x52
 5262 1942 01       		.uleb128 0x1
 5263 1943 30       		.byte	0x30
 5264 1944 00       		.byte	0
 5265 1945 26       		.uleb128 0x26
 5266 1946 76000000 		.4byte	.LVL133
 5267 194a F51E0000 		.4byte	0x1ef5
 5268 194e 25       		.uleb128 0x25
 5269 194f 01       		.uleb128 0x1
 5270 1950 50       		.byte	0x50
 5271 1951 02       		.uleb128 0x2
 5272 1952 08       		.byte	0x8
 5273 1953 C8       		.byte	0xc8
 5274 1954 00       		.byte	0
 5275 1955 00       		.byte	0
 5276 1956 30       		.uleb128 0x30
 5277 1957 EA000000 		.4byte	.LASF266
 5278 195b 01       		.byte	0x1
 5279 195c 2E01     		.2byte	0x12e
 5280 195e 00000000 		.4byte	.LFB574
 5281 1962 34000000 		.4byte	.LFE574-.LFB574
 5282 1966 01       		.uleb128 0x1
 5283 1967 9C       		.byte	0x9c
 5284 1968 DD190000 		.4byte	0x19dd
 5285 196c 31       		.uleb128 0x31
 5286 196d 3A0E0000 		.4byte	0xe3a
 5287 1971 16000000 		.4byte	.LBB12
 5288 1975 08000000 		.4byte	.LBE12-.LBB12
 5289 1979 01       		.byte	0x1
 5290 197a 3401     		.2byte	0x134
 5291 197c 9C190000 		.4byte	0x199c
 5292 1980 32       		.uleb128 0x32
 5293 1981 5F0E0000 		.4byte	0xe5f
 5294 1985 65020000 		.4byte	.LLST16
 5295 1989 32       		.uleb128 0x32
 5296 198a 530E0000 		.4byte	0xe53
 5297 198e 79020000 		.4byte	.LLST17
 5298 1992 32       		.uleb128 0x32
 5299 1993 470E0000 		.4byte	0xe47
 5300 1997 8D020000 		.4byte	.LLST18
 5301 199b 00       		.byte	0
 5302 199c 31       		.uleb128 0x31
 5303 199d 3A0E0000 		.4byte	0xe3a
 5304 19a1 1E000000 		.4byte	.LBB14
 5305 19a5 06000000 		.4byte	.LBE14-.LBB14
 5306 19a9 01       		.byte	0x1
 5307 19aa 3801     		.2byte	0x138
 5308 19ac CC190000 		.4byte	0x19cc
 5309 19b0 32       		.uleb128 0x32
 5310 19b1 5F0E0000 		.4byte	0xe5f
 5311 19b5 A5020000 		.4byte	.LLST19
 5312 19b9 32       		.uleb128 0x32
 5313 19ba 530E0000 		.4byte	0xe53
 5314 19be A5020000 		.4byte	.LLST19
 5315 19c2 32       		.uleb128 0x32
 5316 19c3 470E0000 		.4byte	0xe47
ARM GAS  C:\Users\vicpa\AppData\Local\Temp\ccqS0gg1.s 			page 118


 5317 19c7 B9020000 		.4byte	.LLST21
 5318 19cb 00       		.byte	0
 5319 19cc 26       		.uleb128 0x26
 5320 19cd 2A000000 		.4byte	.LVL137
 5321 19d1 F51E0000 		.4byte	0x1ef5
 5322 19d5 25       		.uleb128 0x25
 5323 19d6 01       		.uleb128 0x1
 5324 19d7 50       		.byte	0x50
 5325 19d8 02       		.uleb128 0x2
 5326 19d9 08       		.byte	0x8
 5327 19da C8       		.byte	0xc8
 5328 19db 00       		.byte	0
 5329 19dc 00       		.byte	0
 5330 19dd 30       		.uleb128 0x30
 5331 19de 39080000 		.4byte	.LASF267
 5332 19e2 01       		.byte	0x1
 5333 19e3 4601     		.2byte	0x146
 5334 19e5 00000000 		.4byte	.LFB575
 5335 19e9 F0020000 		.4byte	.LFE575-.LFB575
 5336 19ed 01       		.uleb128 0x1
 5337 19ee 9C       		.byte	0x9c
 5338 19ef E51B0000 		.4byte	0x1be5
 5339 19f3 2D       		.uleb128 0x2d
 5340 19f4 04000000 		.4byte	.LBB16
 5341 19f8 DC020000 		.4byte	.LBE16-.LBB16
 5342 19fc 33       		.uleb128 0x33
 5343 19fd 980A0000 		.4byte	.LASF268
 5344 1a01 01       		.byte	0x1
 5345 1a02 4A01     		.2byte	0x14a
 5346 1a04 E51B0000 		.4byte	0x1be5
 5347 1a08 02       		.uleb128 0x2
 5348 1a09 91       		.byte	0x91
 5349 1a0a 74       		.sleb128 -12
 5350 1a0b 23       		.uleb128 0x23
 5351 1a0c 0C000000 		.4byte	.LVL138
 5352 1a10 BC1E0000 		.4byte	0x1ebc
 5353 1a14 24       		.uleb128 0x24
 5354 1a15 12000000 		.4byte	.LVL139
 5355 1a19 E91E0000 		.4byte	0x1ee9
 5356 1a1d 271A0000 		.4byte	0x1a27
 5357 1a21 25       		.uleb128 0x25
 5358 1a22 01       		.uleb128 0x1
 5359 1a23 50       		.byte	0x50
 5360 1a24 01       		.uleb128 0x1
 5361 1a25 31       		.byte	0x31
 5362 1a26 00       		.byte	0
 5363 1a27 23       		.uleb128 0x23
 5364 1a28 58000000 		.4byte	.LVL140
 5365 1a2c 2E140000 		.4byte	0x142e
 5366 1a30 24       		.uleb128 0x24
 5367 1a31 5E000000 		.4byte	.LVL141
 5368 1a35 E91E0000 		.4byte	0x1ee9
 5369 1a39 431A0000 		.4byte	0x1a43
 5370 1a3d 25       		.uleb128 0x25
 5371 1a3e 01       		.uleb128 0x1
 5372 1a3f 50       		.byte	0x50
 5373 1a40 01       		.uleb128 0x1
ARM GAS  C:\Users\vicpa\AppData\Local\Temp\ccqS0gg1.s 			page 119


 5374 1a41 32       		.byte	0x32
 5375 1a42 00       		.byte	0
 5376 1a43 23       		.uleb128 0x23
 5377 1a44 A4000000 		.4byte	.LVL142
 5378 1a48 2E140000 		.4byte	0x142e
 5379 1a4c 23       		.uleb128 0x23
 5380 1a4d B2000000 		.4byte	.LVL143
 5381 1a51 BC1E0000 		.4byte	0x1ebc
 5382 1a55 24       		.uleb128 0x24
 5383 1a56 B8000000 		.4byte	.LVL144
 5384 1a5a C71E0000 		.4byte	0x1ec7
 5385 1a5e 681A0000 		.4byte	0x1a68
 5386 1a62 25       		.uleb128 0x25
 5387 1a63 01       		.uleb128 0x1
 5388 1a64 50       		.byte	0x50
 5389 1a65 01       		.uleb128 0x1
 5390 1a66 30       		.byte	0x30
 5391 1a67 00       		.byte	0
 5392 1a68 23       		.uleb128 0x23
 5393 1a69 F8000000 		.4byte	.LVL145
 5394 1a6d 2E140000 		.4byte	0x142e
 5395 1a71 23       		.uleb128 0x23
 5396 1a72 2C010000 		.4byte	.LVL146
 5397 1a76 2E140000 		.4byte	0x142e
 5398 1a7a 23       		.uleb128 0x23
 5399 1a7b 3A010000 		.4byte	.LVL147
 5400 1a7f BC1E0000 		.4byte	0x1ebc
 5401 1a83 24       		.uleb128 0x24
 5402 1a84 40010000 		.4byte	.LVL148
 5403 1a88 E91E0000 		.4byte	0x1ee9
 5404 1a8c 961A0000 		.4byte	0x1a96
 5405 1a90 25       		.uleb128 0x25
 5406 1a91 01       		.uleb128 0x1
 5407 1a92 50       		.byte	0x50
 5408 1a93 01       		.uleb128 0x1
 5409 1a94 32       		.byte	0x32
 5410 1a95 00       		.byte	0
 5411 1a96 23       		.uleb128 0x23
 5412 1a97 48010000 		.4byte	.LVL149
 5413 1a9b 31160000 		.4byte	0x1631
 5414 1a9f 24       		.uleb128 0x24
 5415 1aa0 4E010000 		.4byte	.LVL150
 5416 1aa4 F51E0000 		.4byte	0x1ef5
 5417 1aa8 B21A0000 		.4byte	0x1ab2
 5418 1aac 25       		.uleb128 0x25
 5419 1aad 01       		.uleb128 0x1
 5420 1aae 50       		.byte	0x50
 5421 1aaf 01       		.uleb128 0x1
 5422 1ab0 3A       		.byte	0x3a
 5423 1ab1 00       		.byte	0
 5424 1ab2 23       		.uleb128 0x23
 5425 1ab3 70010000 		.4byte	.LVL151
 5426 1ab7 BC1E0000 		.4byte	0x1ebc
 5427 1abb 24       		.uleb128 0x24
 5428 1abc 76010000 		.4byte	.LVL152
 5429 1ac0 E91E0000 		.4byte	0x1ee9
 5430 1ac4 CE1A0000 		.4byte	0x1ace
ARM GAS  C:\Users\vicpa\AppData\Local\Temp\ccqS0gg1.s 			page 120


 5431 1ac8 25       		.uleb128 0x25
 5432 1ac9 01       		.uleb128 0x1
 5433 1aca 50       		.byte	0x50
 5434 1acb 01       		.uleb128 0x1
 5435 1acc 32       		.byte	0x32
 5436 1acd 00       		.byte	0
 5437 1ace 23       		.uleb128 0x23
 5438 1acf 7C010000 		.4byte	.LVL153
 5439 1ad3 67170000 		.4byte	0x1767
 5440 1ad7 23       		.uleb128 0x23
 5441 1ad8 82010000 		.4byte	.LVL154
 5442 1adc FC170000 		.4byte	0x17fc
 5443 1ae0 24       		.uleb128 0x24
 5444 1ae1 88010000 		.4byte	.LVL155
 5445 1ae5 F51E0000 		.4byte	0x1ef5
 5446 1ae9 F41A0000 		.4byte	0x1af4
 5447 1aed 25       		.uleb128 0x25
 5448 1aee 01       		.uleb128 0x1
 5449 1aef 50       		.byte	0x50
 5450 1af0 02       		.uleb128 0x2
 5451 1af1 08       		.byte	0x8
 5452 1af2 C8       		.byte	0xc8
 5453 1af3 00       		.byte	0
 5454 1af4 23       		.uleb128 0x23
 5455 1af5 AC010000 		.4byte	.LVL156
 5456 1af9 2E140000 		.4byte	0x142e
 5457 1afd 23       		.uleb128 0x23
 5458 1afe BC010000 		.4byte	.LVL157
 5459 1b02 BC1E0000 		.4byte	0x1ebc
 5460 1b06 24       		.uleb128 0x24
 5461 1b07 C2010000 		.4byte	.LVL158
 5462 1b0b C71E0000 		.4byte	0x1ec7
 5463 1b0f 191B0000 		.4byte	0x1b19
 5464 1b13 25       		.uleb128 0x25
 5465 1b14 01       		.uleb128 0x1
 5466 1b15 50       		.byte	0x50
 5467 1b16 01       		.uleb128 0x1
 5468 1b17 30       		.byte	0x30
 5469 1b18 00       		.byte	0
 5470 1b19 23       		.uleb128 0x23
 5471 1b1a 02020000 		.4byte	.LVL159
 5472 1b1e 2E140000 		.4byte	0x142e
 5473 1b22 23       		.uleb128 0x23
 5474 1b23 36020000 		.4byte	.LVL160
 5475 1b27 2E140000 		.4byte	0x142e
 5476 1b2b 23       		.uleb128 0x23
 5477 1b2c 44020000 		.4byte	.LVL161
 5478 1b30 BC1E0000 		.4byte	0x1ebc
 5479 1b34 24       		.uleb128 0x24
 5480 1b35 4A020000 		.4byte	.LVL162
 5481 1b39 E91E0000 		.4byte	0x1ee9
 5482 1b3d 471B0000 		.4byte	0x1b47
 5483 1b41 25       		.uleb128 0x25
 5484 1b42 01       		.uleb128 0x1
 5485 1b43 50       		.byte	0x50
 5486 1b44 01       		.uleb128 0x1
 5487 1b45 32       		.byte	0x32
ARM GAS  C:\Users\vicpa\AppData\Local\Temp\ccqS0gg1.s 			page 121


 5488 1b46 00       		.byte	0
 5489 1b47 23       		.uleb128 0x23
 5490 1b48 54020000 		.4byte	.LVL163
 5491 1b4c 54120000 		.4byte	0x1254
 5492 1b50 23       		.uleb128 0x23
 5493 1b51 5A020000 		.4byte	.LVL164
 5494 1b55 9D160000 		.4byte	0x169d
 5495 1b59 24       		.uleb128 0x24
 5496 1b5a 60020000 		.4byte	.LVL165
 5497 1b5e F51E0000 		.4byte	0x1ef5
 5498 1b62 6D1B0000 		.4byte	0x1b6d
 5499 1b66 25       		.uleb128 0x25
 5500 1b67 01       		.uleb128 0x1
 5501 1b68 50       		.byte	0x50
 5502 1b69 02       		.uleb128 0x2
 5503 1b6a 08       		.byte	0x8
 5504 1b6b C8       		.byte	0xc8
 5505 1b6c 00       		.byte	0
 5506 1b6d 23       		.uleb128 0x23
 5507 1b6e 84020000 		.4byte	.LVL166
 5508 1b72 2E140000 		.4byte	0x142e
 5509 1b76 23       		.uleb128 0x23
 5510 1b77 92020000 		.4byte	.LVL167
 5511 1b7b BC1E0000 		.4byte	0x1ebc
 5512 1b7f 24       		.uleb128 0x24
 5513 1b80 98020000 		.4byte	.LVL168
 5514 1b84 E91E0000 		.4byte	0x1ee9
 5515 1b88 921B0000 		.4byte	0x1b92
 5516 1b8c 25       		.uleb128 0x25
 5517 1b8d 01       		.uleb128 0x1
 5518 1b8e 50       		.byte	0x50
 5519 1b8f 01       		.uleb128 0x1
 5520 1b90 32       		.byte	0x32
 5521 1b91 00       		.byte	0
 5522 1b92 23       		.uleb128 0x23
 5523 1b93 A2020000 		.4byte	.LVL169
 5524 1b97 41130000 		.4byte	0x1341
 5525 1b9b 23       		.uleb128 0x23
 5526 1b9c A8020000 		.4byte	.LVL170
 5527 1ba0 02170000 		.4byte	0x1702
 5528 1ba4 24       		.uleb128 0x24
 5529 1ba5 AE020000 		.4byte	.LVL171
 5530 1ba9 F51E0000 		.4byte	0x1ef5
 5531 1bad B81B0000 		.4byte	0x1bb8
 5532 1bb1 25       		.uleb128 0x25
 5533 1bb2 01       		.uleb128 0x1
 5534 1bb3 50       		.byte	0x50
 5535 1bb4 02       		.uleb128 0x2
 5536 1bb5 08       		.byte	0x8
 5537 1bb6 C8       		.byte	0xc8
 5538 1bb7 00       		.byte	0
 5539 1bb8 23       		.uleb128 0x23
 5540 1bb9 D2020000 		.4byte	.LVL172
 5541 1bbd 2E140000 		.4byte	0x142e
 5542 1bc1 23       		.uleb128 0x23
 5543 1bc2 D6020000 		.4byte	.LVL173
 5544 1bc6 D31E0000 		.4byte	0x1ed3
ARM GAS  C:\Users\vicpa\AppData\Local\Temp\ccqS0gg1.s 			page 122


 5545 1bca 23       		.uleb128 0x23
 5546 1bcb DA020000 		.4byte	.LVL174
 5547 1bcf DE1E0000 		.4byte	0x1ede
 5548 1bd3 26       		.uleb128 0x26
 5549 1bd4 E0020000 		.4byte	.LVL175
 5550 1bd8 F51E0000 		.4byte	0x1ef5
 5551 1bdc 25       		.uleb128 0x25
 5552 1bdd 01       		.uleb128 0x1
 5553 1bde 50       		.byte	0x50
 5554 1bdf 02       		.uleb128 0x2
 5555 1be0 08       		.byte	0x8
 5556 1be1 C8       		.byte	0xc8
 5557 1be2 00       		.byte	0
 5558 1be3 00       		.byte	0
 5559 1be4 00       		.byte	0
 5560 1be5 05       		.uleb128 0x5
 5561 1be6 94000000 		.4byte	0x94
 5562 1bea 34       		.uleb128 0x34
 5563 1beb 770D0000 		.4byte	.LASF269
 5564 1bef 0F       		.byte	0xf
 5565 1bf0 F907     		.2byte	0x7f9
 5566 1bf2 F61B0000 		.4byte	0x1bf6
 5567 1bf6 05       		.uleb128 0x5
 5568 1bf7 C3000000 		.4byte	0xc3
 5569 1bfb 35       		.uleb128 0x35
 5570 1bfc 96000000 		.4byte	.LASF270
 5571 1c00 07       		.byte	0x7
 5572 1c01 A7       		.byte	0xa7
 5573 1c02 061C0000 		.4byte	0x1c06
 5574 1c06 10       		.uleb128 0x10
 5575 1c07 04       		.byte	0x4
 5576 1c08 0C1C0000 		.4byte	0x1c0c
 5577 1c0c 06       		.uleb128 0x6
 5578 1c0d B9060000 		.4byte	0x6b9
 5579 1c11 35       		.uleb128 0x35
 5580 1c12 D5000000 		.4byte	.LASF271
 5581 1c16 10       		.byte	0x10
 5582 1c17 5E       		.byte	0x5e
 5583 1c18 9F070000 		.4byte	0x79f
 5584 1c1c 35       		.uleb128 0x35
 5585 1c1d 4B090000 		.4byte	.LASF272
 5586 1c21 11       		.byte	0x11
 5587 1c22 1F       		.byte	0x1f
 5588 1c23 271C0000 		.4byte	0x1c27
 5589 1c27 06       		.uleb128 0x6
 5590 1c28 9C080000 		.4byte	0x89c
 5591 1c2c 34       		.uleb128 0x34
 5592 1c2d A0000000 		.4byte	.LASF273
 5593 1c31 12       		.byte	0x12
 5594 1c32 0208     		.2byte	0x802
 5595 1c34 250D0000 		.4byte	0xd25
 5596 1c38 34       		.uleb128 0x34
 5597 1c39 0F050000 		.4byte	.LASF274
 5598 1c3d 12       		.byte	0x12
 5599 1c3e 0308     		.2byte	0x803
 5600 1c40 250D0000 		.4byte	0xd25
 5601 1c44 34       		.uleb128 0x34
ARM GAS  C:\Users\vicpa\AppData\Local\Temp\ccqS0gg1.s 			page 123


 5602 1c45 01080000 		.4byte	.LASF275
 5603 1c49 12       		.byte	0x12
 5604 1c4a 0708     		.2byte	0x807
 5605 1c4c 250D0000 		.4byte	0xd25
 5606 1c50 34       		.uleb128 0x34
 5607 1c51 86110000 		.4byte	.LASF276
 5608 1c55 12       		.byte	0x12
 5609 1c56 0B08     		.2byte	0x80b
 5610 1c58 250D0000 		.4byte	0xd25
 5611 1c5c 07       		.uleb128 0x7
 5612 1c5d E5060000 		.4byte	0x6e5
 5613 1c61 6D1C0000 		.4byte	0x1c6d
 5614 1c65 36       		.uleb128 0x36
 5615 1c66 D9000000 		.4byte	0xd9
 5616 1c6a AF16     		.2byte	0x16af
 5617 1c6c 00       		.byte	0
 5618 1c6d 37       		.uleb128 0x37
 5619 1c6e 7A010000 		.4byte	.LASF277
 5620 1c72 01       		.byte	0x1
 5621 1c73 11       		.byte	0x11
 5622 1c74 5C1C0000 		.4byte	0x1c5c
 5623 1c78 05       		.uleb128 0x5
 5624 1c79 03       		.byte	0x3
 5625 1c7a 00000000 		.4byte	imageBufferCache
 5626 1c7e 37       		.uleb128 0x37
 5627 1c7f 1A120000 		.4byte	.LASF278
 5628 1c83 01       		.byte	0x1
 5629 1c84 8D       		.byte	0x8d
 5630 1c85 E0000000 		.4byte	0xe0
 5631 1c89 05       		.uleb128 0x5
 5632 1c8a 03       		.byte	0x3
 5633 1c8b 00000000 		.4byte	SliderPosI
 5634 1c8f 37       		.uleb128 0x37
 5635 1c90 00030000 		.4byte	.LASF279
 5636 1c94 01       		.byte	0x1
 5637 1c95 8D       		.byte	0x8d
 5638 1c96 0B070000 		.4byte	0x70b
 5639 1c9a 05       		.uleb128 0x5
 5640 1c9b 03       		.byte	0x3
 5641 1c9c 00000000 		.4byte	StopChangeLedIntensity
 5642 1ca0 37       		.uleb128 0x37
 5643 1ca1 CE090000 		.4byte	.LASF280
 5644 1ca5 01       		.byte	0x1
 5645 1ca6 A0       		.byte	0xa0
 5646 1ca7 E51B0000 		.4byte	0x1be5
 5647 1cab 05       		.uleb128 0x5
 5648 1cac 03       		.byte	0x3
 5649 1cad 00000000 		.4byte	LowHeartRateI
 5650 1cb1 37       		.uleb128 0x37
 5651 1cb2 C0090000 		.4byte	.LASF281
 5652 1cb6 01       		.byte	0x1
 5653 1cb7 A0       		.byte	0xa0
 5654 1cb8 E51B0000 		.4byte	0x1be5
 5655 1cbc 05       		.uleb128 0x5
 5656 1cbd 03       		.byte	0x3
 5657 1cbe 00000000 		.4byte	LowHeartRateF
 5658 1cc2 37       		.uleb128 0x37
ARM GAS  C:\Users\vicpa\AppData\Local\Temp\ccqS0gg1.s 			page 124


 5659 1cc3 DC060000 		.4byte	.LASF282
 5660 1cc7 01       		.byte	0x1
 5661 1cc8 A0       		.byte	0xa0
 5662 1cc9 E0000000 		.4byte	0xe0
 5663 1ccd 05       		.uleb128 0x5
 5664 1cce 03       		.byte	0x3
 5665 1ccf 00000000 		.4byte	SliderPosIII
 5666 1cd3 37       		.uleb128 0x37
 5667 1cd4 BB080000 		.4byte	.LASF283
 5668 1cd8 01       		.byte	0x1
 5669 1cd9 A0       		.byte	0xa0
 5670 1cda 0B070000 		.4byte	0x70b
 5671 1cde 05       		.uleb128 0x5
 5672 1cdf 03       		.byte	0x3
 5673 1ce0 00000000 		.4byte	StopChangeLowHeartRate
 5674 1ce4 37       		.uleb128 0x37
 5675 1ce5 70040000 		.4byte	.LASF284
 5676 1ce9 01       		.byte	0x1
 5677 1cea C4       		.byte	0xc4
 5678 1ceb E51B0000 		.4byte	0x1be5
 5679 1cef 05       		.uleb128 0x5
 5680 1cf0 03       		.byte	0x3
 5681 1cf1 00000000 		.4byte	HighHeartRateI
 5682 1cf5 37       		.uleb128 0x37
 5683 1cf6 61040000 		.4byte	.LASF285
 5684 1cfa 01       		.byte	0x1
 5685 1cfb C4       		.byte	0xc4
 5686 1cfc E51B0000 		.4byte	0x1be5
 5687 1d00 05       		.uleb128 0x5
 5688 1d01 03       		.byte	0x3
 5689 1d02 00000000 		.4byte	HighHeartRateF
 5690 1d06 37       		.uleb128 0x37
 5691 1d07 D90A0000 		.4byte	.LASF286
 5692 1d0b 01       		.byte	0x1
 5693 1d0c C4       		.byte	0xc4
 5694 1d0d E0000000 		.4byte	0xe0
 5695 1d11 05       		.uleb128 0x5
 5696 1d12 03       		.byte	0x3
 5697 1d13 00000000 		.4byte	SliderPosIV
 5698 1d17 37       		.uleb128 0x37
 5699 1d18 89060000 		.4byte	.LASF287
 5700 1d1c 01       		.byte	0x1
 5701 1d1d C4       		.byte	0xc4
 5702 1d1e 0B070000 		.4byte	0x70b
 5703 1d22 05       		.uleb128 0x5
 5704 1d23 03       		.byte	0x3
 5705 1d24 00000000 		.4byte	StopChangeHighHeartRate
 5706 1d28 37       		.uleb128 0x37
 5707 1d29 70000000 		.4byte	.LASF288
 5708 1d2d 01       		.byte	0x1
 5709 1d2e E8       		.byte	0xe8
 5710 1d2f 0B070000 		.4byte	0x70b
 5711 1d33 05       		.uleb128 0x5
 5712 1d34 03       		.byte	0x3
 5713 1d35 00000000 		.4byte	MotionAlarmEnable
 5714 1d39 37       		.uleb128 0x37
 5715 1d3a 53120000 		.4byte	.LASF289
ARM GAS  C:\Users\vicpa\AppData\Local\Temp\ccqS0gg1.s 			page 125


 5716 1d3e 01       		.byte	0x1
 5717 1d3f F7       		.byte	0xf7
 5718 1d40 E0000000 		.4byte	0xe0
 5719 1d44 05       		.uleb128 0x5
 5720 1d45 03       		.byte	0x3
 5721 1d46 00000000 		.4byte	SliderPosV
 5722 1d4a 37       		.uleb128 0x37
 5723 1d4b 660D0000 		.4byte	.LASF290
 5724 1d4f 01       		.byte	0x1
 5725 1d50 F7       		.byte	0xf7
 5726 1d51 0B070000 		.4byte	0x70b
 5727 1d55 05       		.uleb128 0x5
 5728 1d56 03       		.byte	0x3
 5729 1d57 00000000 		.4byte	StopDisableAlarm
 5730 1d5b 38       		.uleb128 0x38
 5731 1d5c FC110000 		.4byte	.LASF291
 5732 1d60 01       		.byte	0x1
 5733 1d61 1201     		.2byte	0x112
 5734 1d63 E51B0000 		.4byte	0x1be5
 5735 1d67 05       		.uleb128 0x5
 5736 1d68 03       		.byte	0x3
 5737 1d69 00000000 		.4byte	CompteurSW2
 5738 1d6d 38       		.uleb128 0x38
 5739 1d6e A3040000 		.4byte	.LASF292
 5740 1d72 01       		.byte	0x1
 5741 1d73 1201     		.2byte	0x112
 5742 1d75 0B070000 		.4byte	0x70b
 5743 1d79 05       		.uleb128 0x5
 5744 1d7a 03       		.byte	0x3
 5745 1d7b 00000000 		.4byte	AffichageGraph
 5746 1d7f 07       		.uleb128 0x7
 5747 1d80 D7060000 		.4byte	0x6d7
 5748 1d84 901D0000 		.4byte	0x1d90
 5749 1d88 36       		.uleb128 0x36
 5750 1d89 D9000000 		.4byte	0xd9
 5751 1d8d ED02     		.2byte	0x2ed
 5752 1d8f 00       		.byte	0
 5753 1d90 38       		.uleb128 0x38
 5754 1d91 D10B0000 		.4byte	.LASF293
 5755 1d95 01       		.byte	0x1
 5756 1d96 1201     		.2byte	0x112
 5757 1d98 7F1D0000 		.4byte	0x1d7f
 5758 1d9c 05       		.uleb128 0x5
 5759 1d9d 03       		.byte	0x3
 5760 1d9e 00000000 		.4byte	bufferInfrarouge
 5761 1da2 38       		.uleb128 0x38
 5762 1da3 26110000 		.4byte	.LASF294
 5763 1da7 01       		.byte	0x1
 5764 1da8 1201     		.2byte	0x112
 5765 1daa 7F1D0000 		.4byte	0x1d7f
 5766 1dae 05       		.uleb128 0x5
 5767 1daf 03       		.byte	0x3
 5768 1db0 00000000 		.4byte	bufferRouge
 5769 1db4 38       		.uleb128 0x38
 5770 1db5 64060000 		.4byte	.LASF295
 5771 1db9 01       		.byte	0x1
 5772 1dba 1201     		.2byte	0x112
ARM GAS  C:\Users\vicpa\AppData\Local\Temp\ccqS0gg1.s 			page 126


 5773 1dbc E51B0000 		.4byte	0x1be5
 5774 1dc0 05       		.uleb128 0x5
 5775 1dc1 03       		.byte	0x3
 5776 1dc2 00000000 		.4byte	Saturation
 5777 1dc6 38       		.uleb128 0x38
 5778 1dc7 E9060000 		.4byte	.LASF296
 5779 1dcb 01       		.byte	0x1
 5780 1dcc 1201     		.2byte	0x112
 5781 1dce E51B0000 		.4byte	0x1be5
 5782 1dd2 05       		.uleb128 0x5
 5783 1dd3 03       		.byte	0x3
 5784 1dd4 00000000 		.4byte	RythmeCardiaque
 5785 1dd8 38       		.uleb128 0x38
 5786 1dd9 190D0000 		.4byte	.LASF297
 5787 1ddd 01       		.byte	0x1
 5788 1dde 4301     		.2byte	0x143
 5789 1de0 E51B0000 		.4byte	0x1be5
 5790 1de4 05       		.uleb128 0x5
 5791 1de5 03       		.byte	0x3
 5792 1de6 00000000 		.4byte	Page1Params
 5793 1dea 38       		.uleb128 0x38
 5794 1deb 52050000 		.4byte	.LASF298
 5795 1def 01       		.byte	0x1
 5796 1df0 4401     		.2byte	0x144
 5797 1df2 E51B0000 		.4byte	0x1be5
 5798 1df6 05       		.uleb128 0x5
 5799 1df7 03       		.byte	0x3
 5800 1df8 00000000 		.4byte	Page2Params
 5801 1dfc 38       		.uleb128 0x38
 5802 1dfd 6D010000 		.4byte	.LASF299
 5803 1e01 01       		.byte	0x1
 5804 1e02 4501     		.2byte	0x145
 5805 1e04 E51B0000 		.4byte	0x1be5
 5806 1e08 05       		.uleb128 0x5
 5807 1e09 03       		.byte	0x3
 5808 1e0a 00000000 		.4byte	ScreenNumber
 5809 1e0e 39       		.uleb128 0x39
 5810 1e0f 560E0000 		.4byte	.LASF300
 5811 1e13 560E0000 		.4byte	.LASF300
 5812 1e17 13       		.byte	0x13
 5813 1e18 34       		.byte	0x34
 5814 1e19 39       		.uleb128 0x39
 5815 1e1a BF040000 		.4byte	.LASF301
 5816 1e1e BF040000 		.4byte	.LASF301
 5817 1e22 0E       		.byte	0xe
 5818 1e23 7E       		.byte	0x7e
 5819 1e24 3A       		.uleb128 0x3a
 5820 1e25 1F110000 		.4byte	.LASF325
 5821 1e29 1F110000 		.4byte	.LASF325
 5822 1e2d 3B       		.uleb128 0x3b
 5823 1e2e 6B0C0000 		.4byte	.LASF302
 5824 1e32 6B0C0000 		.4byte	.LASF302
 5825 1e36 12       		.byte	0x12
 5826 1e37 C101     		.2byte	0x1c1
 5827 1e39 3B       		.uleb128 0x3b
 5828 1e3a F9060000 		.4byte	.LASF303
 5829 1e3e F9060000 		.4byte	.LASF303
ARM GAS  C:\Users\vicpa\AppData\Local\Temp\ccqS0gg1.s 			page 127


 5830 1e42 12       		.byte	0x12
 5831 1e43 C001     		.2byte	0x1c0
 5832 1e45 3B       		.uleb128 0x3b
 5833 1e46 5E120000 		.4byte	.LASF304
 5834 1e4a 5E120000 		.4byte	.LASF304
 5835 1e4e 12       		.byte	0x12
 5836 1e4f F601     		.2byte	0x1f6
 5837 1e51 3B       		.uleb128 0x3b
 5838 1e52 49100000 		.4byte	.LASF305
 5839 1e56 49100000 		.4byte	.LASF305
 5840 1e5a 14       		.byte	0x14
 5841 1e5b 4B01     		.2byte	0x14b
 5842 1e5d 3B       		.uleb128 0x3b
 5843 1e5e 76070000 		.4byte	.LASF306
 5844 1e62 76070000 		.4byte	.LASF306
 5845 1e66 12       		.byte	0x12
 5846 1e67 0902     		.2byte	0x209
 5847 1e69 3B       		.uleb128 0x3b
 5848 1e6a D2080000 		.4byte	.LASF307
 5849 1e6e D2080000 		.4byte	.LASF307
 5850 1e72 12       		.byte	0x12
 5851 1e73 0E02     		.2byte	0x20e
 5852 1e75 39       		.uleb128 0x39
 5853 1e76 2A0C0000 		.4byte	.LASF308
 5854 1e7a 2A0C0000 		.4byte	.LASF308
 5855 1e7e 15       		.byte	0x15
 5856 1e7f E7       		.byte	0xe7
 5857 1e80 3B       		.uleb128 0x3b
 5858 1e81 10010000 		.4byte	.LASF309
 5859 1e85 10010000 		.4byte	.LASF309
 5860 1e89 12       		.byte	0x12
 5861 1e8a C501     		.2byte	0x1c5
 5862 1e8c 3B       		.uleb128 0x3b
 5863 1e8d 740A0000 		.4byte	.LASF310
 5864 1e91 740A0000 		.4byte	.LASF310
 5865 1e95 12       		.byte	0x12
 5866 1e96 1202     		.2byte	0x212
 5867 1e98 3B       		.uleb128 0x3b
 5868 1e99 BD100000 		.4byte	.LASF311
 5869 1e9d BD100000 		.4byte	.LASF311
 5870 1ea1 12       		.byte	0x12
 5871 1ea2 2B03     		.2byte	0x32b
 5872 1ea4 3B       		.uleb128 0x3b
 5873 1ea5 21070000 		.4byte	.LASF312
 5874 1ea9 21070000 		.4byte	.LASF312
 5875 1ead 12       		.byte	0x12
 5876 1eae 0503     		.2byte	0x305
 5877 1eb0 3B       		.uleb128 0x3b
 5878 1eb1 D1040000 		.4byte	.LASF313
 5879 1eb5 D1040000 		.4byte	.LASF313
 5880 1eb9 12       		.byte	0x12
 5881 1eba 0002     		.2byte	0x200
 5882 1ebc 39       		.uleb128 0x39
 5883 1ebd 1F0B0000 		.4byte	.LASF314
 5884 1ec1 1F0B0000 		.4byte	.LASF314
 5885 1ec5 16       		.byte	0x16
 5886 1ec6 3E       		.byte	0x3e
ARM GAS  C:\Users\vicpa\AppData\Local\Temp\ccqS0gg1.s 			page 128


 5887 1ec7 3B       		.uleb128 0x3b
 5888 1ec8 C90C0000 		.4byte	.LASF315
 5889 1ecc C90C0000 		.4byte	.LASF315
 5890 1ed0 17       		.byte	0x17
 5891 1ed1 A504     		.2byte	0x4a5
 5892 1ed3 39       		.uleb128 0x39
 5893 1ed4 BC0D0000 		.4byte	.LASF316
 5894 1ed8 BC0D0000 		.4byte	.LASF316
 5895 1edc 18       		.byte	0x18
 5896 1edd 3D       		.byte	0x3d
 5897 1ede 39       		.uleb128 0x39
 5898 1edf 5E020000 		.4byte	.LASF317
 5899 1ee3 5E020000 		.4byte	.LASF317
 5900 1ee7 19       		.byte	0x19
 5901 1ee8 55       		.byte	0x55
 5902 1ee9 3B       		.uleb128 0x3b
 5903 1eea 1F010000 		.4byte	.LASF318
 5904 1eee 1F010000 		.4byte	.LASF318
 5905 1ef2 17       		.byte	0x17
 5906 1ef3 9904     		.2byte	0x499
 5907 1ef5 3B       		.uleb128 0x3b
 5908 1ef6 D1060000 		.4byte	.LASF319
 5909 1efa D1060000 		.4byte	.LASF319
 5910 1efe 1A       		.byte	0x1a
 5911 1eff ED02     		.2byte	0x2ed
 5912 1f01 00       		.byte	0
 5913              		.section	.debug_abbrev,"",%progbits
 5914              	.Ldebug_abbrev0:
 5915 0000 01       		.uleb128 0x1
 5916 0001 11       		.uleb128 0x11
 5917 0002 01       		.byte	0x1
 5918 0003 25       		.uleb128 0x25
 5919 0004 0E       		.uleb128 0xe
 5920 0005 13       		.uleb128 0x13
 5921 0006 0B       		.uleb128 0xb
 5922 0007 03       		.uleb128 0x3
 5923 0008 0E       		.uleb128 0xe
 5924 0009 1B       		.uleb128 0x1b
 5925 000a 0E       		.uleb128 0xe
 5926 000b 55       		.uleb128 0x55
 5927 000c 17       		.uleb128 0x17
 5928 000d 11       		.uleb128 0x11
 5929 000e 01       		.uleb128 0x1
 5930 000f 10       		.uleb128 0x10
 5931 0010 17       		.uleb128 0x17
 5932 0011 00       		.byte	0
 5933 0012 00       		.byte	0
 5934 0013 02       		.uleb128 0x2
 5935 0014 24       		.uleb128 0x24
 5936 0015 00       		.byte	0
 5937 0016 0B       		.uleb128 0xb
 5938 0017 0B       		.uleb128 0xb
 5939 0018 3E       		.uleb128 0x3e
 5940 0019 0B       		.uleb128 0xb
 5941 001a 03       		.uleb128 0x3
 5942 001b 0E       		.uleb128 0xe
 5943 001c 00       		.byte	0
ARM GAS  C:\Users\vicpa\AppData\Local\Temp\ccqS0gg1.s 			page 129


 5944 001d 00       		.byte	0
 5945 001e 03       		.uleb128 0x3
 5946 001f 16       		.uleb128 0x16
 5947 0020 00       		.byte	0
 5948 0021 03       		.uleb128 0x3
 5949 0022 0E       		.uleb128 0xe
 5950 0023 3A       		.uleb128 0x3a
 5951 0024 0B       		.uleb128 0xb
 5952 0025 3B       		.uleb128 0x3b
 5953 0026 0B       		.uleb128 0xb
 5954 0027 49       		.uleb128 0x49
 5955 0028 13       		.uleb128 0x13
 5956 0029 00       		.byte	0
 5957 002a 00       		.byte	0
 5958 002b 04       		.uleb128 0x4
 5959 002c 24       		.uleb128 0x24
 5960 002d 00       		.byte	0
 5961 002e 0B       		.uleb128 0xb
 5962 002f 0B       		.uleb128 0xb
 5963 0030 3E       		.uleb128 0x3e
 5964 0031 0B       		.uleb128 0xb
 5965 0032 03       		.uleb128 0x3
 5966 0033 08       		.uleb128 0x8
 5967 0034 00       		.byte	0
 5968 0035 00       		.byte	0
 5969 0036 05       		.uleb128 0x5
 5970 0037 35       		.uleb128 0x35
 5971 0038 00       		.byte	0
 5972 0039 49       		.uleb128 0x49
 5973 003a 13       		.uleb128 0x13
 5974 003b 00       		.byte	0
 5975 003c 00       		.byte	0
 5976 003d 06       		.uleb128 0x6
 5977 003e 26       		.uleb128 0x26
 5978 003f 00       		.byte	0
 5979 0040 49       		.uleb128 0x49
 5980 0041 13       		.uleb128 0x13
 5981 0042 00       		.byte	0
 5982 0043 00       		.byte	0
 5983 0044 07       		.uleb128 0x7
 5984 0045 01       		.uleb128 0x1
 5985 0046 01       		.byte	0x1
 5986 0047 49       		.uleb128 0x49
 5987 0048 13       		.uleb128 0x13
 5988 0049 01       		.uleb128 0x1
 5989 004a 13       		.uleb128 0x13
 5990 004b 00       		.byte	0
 5991 004c 00       		.byte	0
 5992 004d 08       		.uleb128 0x8
 5993 004e 21       		.uleb128 0x21
 5994 004f 00       		.byte	0
 5995 0050 49       		.uleb128 0x49
 5996 0051 13       		.uleb128 0x13
 5997 0052 2F       		.uleb128 0x2f
 5998 0053 0B       		.uleb128 0xb
 5999 0054 00       		.byte	0
 6000 0055 00       		.byte	0
ARM GAS  C:\Users\vicpa\AppData\Local\Temp\ccqS0gg1.s 			page 130


 6001 0056 09       		.uleb128 0x9
 6002 0057 13       		.uleb128 0x13
 6003 0058 01       		.byte	0x1
 6004 0059 0B       		.uleb128 0xb
 6005 005a 0B       		.uleb128 0xb
 6006 005b 3A       		.uleb128 0x3a
 6007 005c 0B       		.uleb128 0xb
 6008 005d 3B       		.uleb128 0x3b
 6009 005e 0B       		.uleb128 0xb
 6010 005f 01       		.uleb128 0x1
 6011 0060 13       		.uleb128 0x13
 6012 0061 00       		.byte	0
 6013 0062 00       		.byte	0
 6014 0063 0A       		.uleb128 0xa
 6015 0064 0D       		.uleb128 0xd
 6016 0065 00       		.byte	0
 6017 0066 03       		.uleb128 0x3
 6018 0067 08       		.uleb128 0x8
 6019 0068 3A       		.uleb128 0x3a
 6020 0069 0B       		.uleb128 0xb
 6021 006a 3B       		.uleb128 0x3b
 6022 006b 0B       		.uleb128 0xb
 6023 006c 49       		.uleb128 0x49
 6024 006d 13       		.uleb128 0x13
 6025 006e 38       		.uleb128 0x38
 6026 006f 0B       		.uleb128 0xb
 6027 0070 00       		.byte	0
 6028 0071 00       		.byte	0
 6029 0072 0B       		.uleb128 0xb
 6030 0073 0D       		.uleb128 0xd
 6031 0074 00       		.byte	0
 6032 0075 03       		.uleb128 0x3
 6033 0076 0E       		.uleb128 0xe
 6034 0077 3A       		.uleb128 0x3a
 6035 0078 0B       		.uleb128 0xb
 6036 0079 3B       		.uleb128 0x3b
 6037 007a 0B       		.uleb128 0xb
 6038 007b 49       		.uleb128 0x49
 6039 007c 13       		.uleb128 0x13
 6040 007d 38       		.uleb128 0x38
 6041 007e 0B       		.uleb128 0xb
 6042 007f 00       		.byte	0
 6043 0080 00       		.byte	0
 6044 0081 0C       		.uleb128 0xc
 6045 0082 13       		.uleb128 0x13
 6046 0083 01       		.byte	0x1
 6047 0084 0B       		.uleb128 0xb
 6048 0085 05       		.uleb128 0x5
 6049 0086 3A       		.uleb128 0x3a
 6050 0087 0B       		.uleb128 0xb
 6051 0088 3B       		.uleb128 0x3b
 6052 0089 0B       		.uleb128 0xb
 6053 008a 01       		.uleb128 0x1
 6054 008b 13       		.uleb128 0x13
 6055 008c 00       		.byte	0
 6056 008d 00       		.byte	0
 6057 008e 0D       		.uleb128 0xd
ARM GAS  C:\Users\vicpa\AppData\Local\Temp\ccqS0gg1.s 			page 131


 6058 008f 0D       		.uleb128 0xd
 6059 0090 00       		.byte	0
 6060 0091 03       		.uleb128 0x3
 6061 0092 0E       		.uleb128 0xe
 6062 0093 3A       		.uleb128 0x3a
 6063 0094 0B       		.uleb128 0xb
 6064 0095 3B       		.uleb128 0x3b
 6065 0096 0B       		.uleb128 0xb
 6066 0097 49       		.uleb128 0x49
 6067 0098 13       		.uleb128 0x13
 6068 0099 38       		.uleb128 0x38
 6069 009a 05       		.uleb128 0x5
 6070 009b 00       		.byte	0
 6071 009c 00       		.byte	0
 6072 009d 0E       		.uleb128 0xe
 6073 009e 16       		.uleb128 0x16
 6074 009f 00       		.byte	0
 6075 00a0 03       		.uleb128 0x3
 6076 00a1 0E       		.uleb128 0xe
 6077 00a2 3A       		.uleb128 0x3a
 6078 00a3 0B       		.uleb128 0xb
 6079 00a4 3B       		.uleb128 0x3b
 6080 00a5 05       		.uleb128 0x5
 6081 00a6 49       		.uleb128 0x49
 6082 00a7 13       		.uleb128 0x13
 6083 00a8 00       		.byte	0
 6084 00a9 00       		.byte	0
 6085 00aa 0F       		.uleb128 0xf
 6086 00ab 0F       		.uleb128 0xf
 6087 00ac 00       		.byte	0
 6088 00ad 0B       		.uleb128 0xb
 6089 00ae 0B       		.uleb128 0xb
 6090 00af 00       		.byte	0
 6091 00b0 00       		.byte	0
 6092 00b1 10       		.uleb128 0x10
 6093 00b2 0F       		.uleb128 0xf
 6094 00b3 00       		.byte	0
 6095 00b4 0B       		.uleb128 0xb
 6096 00b5 0B       		.uleb128 0xb
 6097 00b6 49       		.uleb128 0x49
 6098 00b7 13       		.uleb128 0x13
 6099 00b8 00       		.byte	0
 6100 00b9 00       		.byte	0
 6101 00ba 11       		.uleb128 0x11
 6102 00bb 15       		.uleb128 0x15
 6103 00bc 01       		.byte	0x1
 6104 00bd 27       		.uleb128 0x27
 6105 00be 19       		.uleb128 0x19
 6106 00bf 01       		.uleb128 0x1
 6107 00c0 13       		.uleb128 0x13
 6108 00c1 00       		.byte	0
 6109 00c2 00       		.byte	0
 6110 00c3 12       		.uleb128 0x12
 6111 00c4 05       		.uleb128 0x5
 6112 00c5 00       		.byte	0
 6113 00c6 49       		.uleb128 0x49
 6114 00c7 13       		.uleb128 0x13
ARM GAS  C:\Users\vicpa\AppData\Local\Temp\ccqS0gg1.s 			page 132


 6115 00c8 00       		.byte	0
 6116 00c9 00       		.byte	0
 6117 00ca 13       		.uleb128 0x13
 6118 00cb 13       		.uleb128 0x13
 6119 00cc 01       		.byte	0x1
 6120 00cd 03       		.uleb128 0x3
 6121 00ce 0E       		.uleb128 0xe
 6122 00cf 0B       		.uleb128 0xb
 6123 00d0 0B       		.uleb128 0xb
 6124 00d1 3A       		.uleb128 0x3a
 6125 00d2 0B       		.uleb128 0xb
 6126 00d3 3B       		.uleb128 0x3b
 6127 00d4 05       		.uleb128 0x5
 6128 00d5 01       		.uleb128 0x1
 6129 00d6 13       		.uleb128 0x13
 6130 00d7 00       		.byte	0
 6131 00d8 00       		.byte	0
 6132 00d9 14       		.uleb128 0x14
 6133 00da 0D       		.uleb128 0xd
 6134 00db 00       		.byte	0
 6135 00dc 03       		.uleb128 0x3
 6136 00dd 0E       		.uleb128 0xe
 6137 00de 3A       		.uleb128 0x3a
 6138 00df 0B       		.uleb128 0xb
 6139 00e0 3B       		.uleb128 0x3b
 6140 00e1 05       		.uleb128 0x5
 6141 00e2 49       		.uleb128 0x49
 6142 00e3 13       		.uleb128 0x13
 6143 00e4 38       		.uleb128 0x38
 6144 00e5 0B       		.uleb128 0xb
 6145 00e6 00       		.byte	0
 6146 00e7 00       		.byte	0
 6147 00e8 15       		.uleb128 0x15
 6148 00e9 13       		.uleb128 0x13
 6149 00ea 01       		.byte	0x1
 6150 00eb 03       		.uleb128 0x3
 6151 00ec 0E       		.uleb128 0xe
 6152 00ed 0B       		.uleb128 0xb
 6153 00ee 0B       		.uleb128 0xb
 6154 00ef 3A       		.uleb128 0x3a
 6155 00f0 0B       		.uleb128 0xb
 6156 00f1 3B       		.uleb128 0x3b
 6157 00f2 0B       		.uleb128 0xb
 6158 00f3 01       		.uleb128 0x1
 6159 00f4 13       		.uleb128 0x13
 6160 00f5 00       		.byte	0
 6161 00f6 00       		.byte	0
 6162 00f7 16       		.uleb128 0x16
 6163 00f8 26       		.uleb128 0x26
 6164 00f9 00       		.byte	0
 6165 00fa 00       		.byte	0
 6166 00fb 00       		.byte	0
 6167 00fc 17       		.uleb128 0x17
 6168 00fd 15       		.uleb128 0x15
 6169 00fe 01       		.byte	0x1
 6170 00ff 27       		.uleb128 0x27
 6171 0100 19       		.uleb128 0x19
ARM GAS  C:\Users\vicpa\AppData\Local\Temp\ccqS0gg1.s 			page 133


 6172 0101 49       		.uleb128 0x49
 6173 0102 13       		.uleb128 0x13
 6174 0103 01       		.uleb128 0x1
 6175 0104 13       		.uleb128 0x13
 6176 0105 00       		.byte	0
 6177 0106 00       		.byte	0
 6178 0107 18       		.uleb128 0x18
 6179 0108 13       		.uleb128 0x13
 6180 0109 01       		.byte	0x1
 6181 010a 0B       		.uleb128 0xb
 6182 010b 0B       		.uleb128 0xb
 6183 010c 3A       		.uleb128 0x3a
 6184 010d 0B       		.uleb128 0xb
 6185 010e 3B       		.uleb128 0x3b
 6186 010f 05       		.uleb128 0x5
 6187 0110 01       		.uleb128 0x1
 6188 0111 13       		.uleb128 0x13
 6189 0112 00       		.byte	0
 6190 0113 00       		.byte	0
 6191 0114 19       		.uleb128 0x19
 6192 0115 0D       		.uleb128 0xd
 6193 0116 00       		.byte	0
 6194 0117 03       		.uleb128 0x3
 6195 0118 08       		.uleb128 0x8
 6196 0119 3A       		.uleb128 0x3a
 6197 011a 0B       		.uleb128 0xb
 6198 011b 3B       		.uleb128 0x3b
 6199 011c 05       		.uleb128 0x5
 6200 011d 49       		.uleb128 0x49
 6201 011e 13       		.uleb128 0x13
 6202 011f 38       		.uleb128 0x38
 6203 0120 0B       		.uleb128 0xb
 6204 0121 00       		.byte	0
 6205 0122 00       		.byte	0
 6206 0123 1A       		.uleb128 0x1a
 6207 0124 17       		.uleb128 0x17
 6208 0125 01       		.byte	0x1
 6209 0126 0B       		.uleb128 0xb
 6210 0127 0B       		.uleb128 0xb
 6211 0128 3A       		.uleb128 0x3a
 6212 0129 0B       		.uleb128 0xb
 6213 012a 3B       		.uleb128 0x3b
 6214 012b 05       		.uleb128 0x5
 6215 012c 01       		.uleb128 0x1
 6216 012d 13       		.uleb128 0x13
 6217 012e 00       		.byte	0
 6218 012f 00       		.byte	0
 6219 0130 1B       		.uleb128 0x1b
 6220 0131 0D       		.uleb128 0xd
 6221 0132 00       		.byte	0
 6222 0133 03       		.uleb128 0x3
 6223 0134 0E       		.uleb128 0xe
 6224 0135 3A       		.uleb128 0x3a
 6225 0136 0B       		.uleb128 0xb
 6226 0137 3B       		.uleb128 0x3b
 6227 0138 05       		.uleb128 0x5
 6228 0139 49       		.uleb128 0x49
ARM GAS  C:\Users\vicpa\AppData\Local\Temp\ccqS0gg1.s 			page 134


 6229 013a 13       		.uleb128 0x13
 6230 013b 00       		.byte	0
 6231 013c 00       		.byte	0
 6232 013d 1C       		.uleb128 0x1c
 6233 013e 04       		.uleb128 0x4
 6234 013f 01       		.byte	0x1
 6235 0140 0B       		.uleb128 0xb
 6236 0141 0B       		.uleb128 0xb
 6237 0142 49       		.uleb128 0x49
 6238 0143 13       		.uleb128 0x13
 6239 0144 3A       		.uleb128 0x3a
 6240 0145 0B       		.uleb128 0xb
 6241 0146 3B       		.uleb128 0x3b
 6242 0147 0B       		.uleb128 0xb
 6243 0148 01       		.uleb128 0x1
 6244 0149 13       		.uleb128 0x13
 6245 014a 00       		.byte	0
 6246 014b 00       		.byte	0
 6247 014c 1D       		.uleb128 0x1d
 6248 014d 28       		.uleb128 0x28
 6249 014e 00       		.byte	0
 6250 014f 03       		.uleb128 0x3
 6251 0150 0E       		.uleb128 0xe
 6252 0151 1C       		.uleb128 0x1c
 6253 0152 0B       		.uleb128 0xb
 6254 0153 00       		.byte	0
 6255 0154 00       		.byte	0
 6256 0155 1E       		.uleb128 0x1e
 6257 0156 2E       		.uleb128 0x2e
 6258 0157 01       		.byte	0x1
 6259 0158 03       		.uleb128 0x3
 6260 0159 0E       		.uleb128 0xe
 6261 015a 3A       		.uleb128 0x3a
 6262 015b 0B       		.uleb128 0xb
 6263 015c 3B       		.uleb128 0x3b
 6264 015d 05       		.uleb128 0x5
 6265 015e 27       		.uleb128 0x27
 6266 015f 19       		.uleb128 0x19
 6267 0160 20       		.uleb128 0x20
 6268 0161 0B       		.uleb128 0xb
 6269 0162 01       		.uleb128 0x1
 6270 0163 13       		.uleb128 0x13
 6271 0164 00       		.byte	0
 6272 0165 00       		.byte	0
 6273 0166 1F       		.uleb128 0x1f
 6274 0167 05       		.uleb128 0x5
 6275 0168 00       		.byte	0
 6276 0169 03       		.uleb128 0x3
 6277 016a 0E       		.uleb128 0xe
 6278 016b 3A       		.uleb128 0x3a
 6279 016c 0B       		.uleb128 0xb
 6280 016d 3B       		.uleb128 0x3b
 6281 016e 05       		.uleb128 0x5
 6282 016f 49       		.uleb128 0x49
 6283 0170 13       		.uleb128 0x13
 6284 0171 00       		.byte	0
 6285 0172 00       		.byte	0
ARM GAS  C:\Users\vicpa\AppData\Local\Temp\ccqS0gg1.s 			page 135


 6286 0173 20       		.uleb128 0x20
 6287 0174 2E       		.uleb128 0x2e
 6288 0175 01       		.byte	0x1
 6289 0176 3F       		.uleb128 0x3f
 6290 0177 19       		.uleb128 0x19
 6291 0178 03       		.uleb128 0x3
 6292 0179 0E       		.uleb128 0xe
 6293 017a 3A       		.uleb128 0x3a
 6294 017b 0B       		.uleb128 0xb
 6295 017c 3B       		.uleb128 0x3b
 6296 017d 0B       		.uleb128 0xb
 6297 017e 27       		.uleb128 0x27
 6298 017f 19       		.uleb128 0x19
 6299 0180 11       		.uleb128 0x11
 6300 0181 01       		.uleb128 0x1
 6301 0182 12       		.uleb128 0x12
 6302 0183 06       		.uleb128 0x6
 6303 0184 40       		.uleb128 0x40
 6304 0185 18       		.uleb128 0x18
 6305 0186 9742     		.uleb128 0x2117
 6306 0188 19       		.uleb128 0x19
 6307 0189 01       		.uleb128 0x1
 6308 018a 13       		.uleb128 0x13
 6309 018b 00       		.byte	0
 6310 018c 00       		.byte	0
 6311 018d 21       		.uleb128 0x21
 6312 018e 05       		.uleb128 0x5
 6313 018f 00       		.byte	0
 6314 0190 03       		.uleb128 0x3
 6315 0191 0E       		.uleb128 0xe
 6316 0192 3A       		.uleb128 0x3a
 6317 0193 0B       		.uleb128 0xb
 6318 0194 3B       		.uleb128 0x3b
 6319 0195 0B       		.uleb128 0xb
 6320 0196 49       		.uleb128 0x49
 6321 0197 13       		.uleb128 0x13
 6322 0198 02       		.uleb128 0x2
 6323 0199 17       		.uleb128 0x17
 6324 019a 00       		.byte	0
 6325 019b 00       		.byte	0
 6326 019c 22       		.uleb128 0x22
 6327 019d 34       		.uleb128 0x34
 6328 019e 00       		.byte	0
 6329 019f 03       		.uleb128 0x3
 6330 01a0 0E       		.uleb128 0xe
 6331 01a1 3A       		.uleb128 0x3a
 6332 01a2 0B       		.uleb128 0xb
 6333 01a3 3B       		.uleb128 0x3b
 6334 01a4 0B       		.uleb128 0xb
 6335 01a5 49       		.uleb128 0x49
 6336 01a6 13       		.uleb128 0x13
 6337 01a7 02       		.uleb128 0x2
 6338 01a8 17       		.uleb128 0x17
 6339 01a9 00       		.byte	0
 6340 01aa 00       		.byte	0
 6341 01ab 23       		.uleb128 0x23
 6342 01ac 898201   		.uleb128 0x4109
ARM GAS  C:\Users\vicpa\AppData\Local\Temp\ccqS0gg1.s 			page 136


 6343 01af 00       		.byte	0
 6344 01b0 11       		.uleb128 0x11
 6345 01b1 01       		.uleb128 0x1
 6346 01b2 31       		.uleb128 0x31
 6347 01b3 13       		.uleb128 0x13
 6348 01b4 00       		.byte	0
 6349 01b5 00       		.byte	0
 6350 01b6 24       		.uleb128 0x24
 6351 01b7 898201   		.uleb128 0x4109
 6352 01ba 01       		.byte	0x1
 6353 01bb 11       		.uleb128 0x11
 6354 01bc 01       		.uleb128 0x1
 6355 01bd 31       		.uleb128 0x31
 6356 01be 13       		.uleb128 0x13
 6357 01bf 01       		.uleb128 0x1
 6358 01c0 13       		.uleb128 0x13
 6359 01c1 00       		.byte	0
 6360 01c2 00       		.byte	0
 6361 01c3 25       		.uleb128 0x25
 6362 01c4 8A8201   		.uleb128 0x410a
 6363 01c7 00       		.byte	0
 6364 01c8 02       		.uleb128 0x2
 6365 01c9 18       		.uleb128 0x18
 6366 01ca 9142     		.uleb128 0x2111
 6367 01cc 18       		.uleb128 0x18
 6368 01cd 00       		.byte	0
 6369 01ce 00       		.byte	0
 6370 01cf 26       		.uleb128 0x26
 6371 01d0 898201   		.uleb128 0x4109
 6372 01d3 01       		.byte	0x1
 6373 01d4 11       		.uleb128 0x11
 6374 01d5 01       		.uleb128 0x1
 6375 01d6 31       		.uleb128 0x31
 6376 01d7 13       		.uleb128 0x13
 6377 01d8 00       		.byte	0
 6378 01d9 00       		.byte	0
 6379 01da 27       		.uleb128 0x27
 6380 01db 2E       		.uleb128 0x2e
 6381 01dc 01       		.byte	0x1
 6382 01dd 3F       		.uleb128 0x3f
 6383 01de 19       		.uleb128 0x19
 6384 01df 03       		.uleb128 0x3
 6385 01e0 0E       		.uleb128 0xe
 6386 01e1 3A       		.uleb128 0x3a
 6387 01e2 0B       		.uleb128 0xb
 6388 01e3 3B       		.uleb128 0x3b
 6389 01e4 0B       		.uleb128 0xb
 6390 01e5 27       		.uleb128 0x27
 6391 01e6 19       		.uleb128 0x19
 6392 01e7 11       		.uleb128 0x11
 6393 01e8 01       		.uleb128 0x1
 6394 01e9 12       		.uleb128 0x12
 6395 01ea 06       		.uleb128 0x6
 6396 01eb 40       		.uleb128 0x40
 6397 01ec 18       		.uleb128 0x18
 6398 01ed 9642     		.uleb128 0x2116
 6399 01ef 19       		.uleb128 0x19
ARM GAS  C:\Users\vicpa\AppData\Local\Temp\ccqS0gg1.s 			page 137


 6400 01f0 01       		.uleb128 0x1
 6401 01f1 13       		.uleb128 0x13
 6402 01f2 00       		.byte	0
 6403 01f3 00       		.byte	0
 6404 01f4 28       		.uleb128 0x28
 6405 01f5 34       		.uleb128 0x34
 6406 01f6 00       		.byte	0
 6407 01f7 03       		.uleb128 0x3
 6408 01f8 08       		.uleb128 0x8
 6409 01f9 3A       		.uleb128 0x3a
 6410 01fa 0B       		.uleb128 0xb
 6411 01fb 3B       		.uleb128 0x3b
 6412 01fc 0B       		.uleb128 0xb
 6413 01fd 49       		.uleb128 0x49
 6414 01fe 13       		.uleb128 0x13
 6415 01ff 02       		.uleb128 0x2
 6416 0200 17       		.uleb128 0x17
 6417 0201 00       		.byte	0
 6418 0202 00       		.byte	0
 6419 0203 29       		.uleb128 0x29
 6420 0204 34       		.uleb128 0x34
 6421 0205 00       		.byte	0
 6422 0206 03       		.uleb128 0x3
 6423 0207 0E       		.uleb128 0xe
 6424 0208 3A       		.uleb128 0x3a
 6425 0209 0B       		.uleb128 0xb
 6426 020a 3B       		.uleb128 0x3b
 6427 020b 0B       		.uleb128 0xb
 6428 020c 49       		.uleb128 0x49
 6429 020d 13       		.uleb128 0x13
 6430 020e 02       		.uleb128 0x2
 6431 020f 18       		.uleb128 0x18
 6432 0210 00       		.byte	0
 6433 0211 00       		.byte	0
 6434 0212 2A       		.uleb128 0x2a
 6435 0213 0B       		.uleb128 0xb
 6436 0214 01       		.byte	0x1
 6437 0215 55       		.uleb128 0x55
 6438 0216 17       		.uleb128 0x17
 6439 0217 01       		.uleb128 0x1
 6440 0218 13       		.uleb128 0x13
 6441 0219 00       		.byte	0
 6442 021a 00       		.byte	0
 6443 021b 2B       		.uleb128 0x2b
 6444 021c 0B       		.uleb128 0xb
 6445 021d 01       		.byte	0x1
 6446 021e 11       		.uleb128 0x11
 6447 021f 01       		.uleb128 0x1
 6448 0220 12       		.uleb128 0x12
 6449 0221 06       		.uleb128 0x6
 6450 0222 01       		.uleb128 0x1
 6451 0223 13       		.uleb128 0x13
 6452 0224 00       		.byte	0
 6453 0225 00       		.byte	0
 6454 0226 2C       		.uleb128 0x2c
 6455 0227 34       		.uleb128 0x34
 6456 0228 00       		.byte	0
ARM GAS  C:\Users\vicpa\AppData\Local\Temp\ccqS0gg1.s 			page 138


 6457 0229 03       		.uleb128 0x3
 6458 022a 08       		.uleb128 0x8
 6459 022b 3A       		.uleb128 0x3a
 6460 022c 0B       		.uleb128 0xb
 6461 022d 3B       		.uleb128 0x3b
 6462 022e 0B       		.uleb128 0xb
 6463 022f 49       		.uleb128 0x49
 6464 0230 13       		.uleb128 0x13
 6465 0231 02       		.uleb128 0x2
 6466 0232 18       		.uleb128 0x18
 6467 0233 00       		.byte	0
 6468 0234 00       		.byte	0
 6469 0235 2D       		.uleb128 0x2d
 6470 0236 0B       		.uleb128 0xb
 6471 0237 01       		.byte	0x1
 6472 0238 11       		.uleb128 0x11
 6473 0239 01       		.uleb128 0x1
 6474 023a 12       		.uleb128 0x12
 6475 023b 06       		.uleb128 0x6
 6476 023c 00       		.byte	0
 6477 023d 00       		.byte	0
 6478 023e 2E       		.uleb128 0x2e
 6479 023f 2E       		.uleb128 0x2e
 6480 0240 01       		.byte	0x1
 6481 0241 3F       		.uleb128 0x3f
 6482 0242 19       		.uleb128 0x19
 6483 0243 03       		.uleb128 0x3
 6484 0244 0E       		.uleb128 0xe
 6485 0245 3A       		.uleb128 0x3a
 6486 0246 0B       		.uleb128 0xb
 6487 0247 3B       		.uleb128 0x3b
 6488 0248 0B       		.uleb128 0xb
 6489 0249 11       		.uleb128 0x11
 6490 024a 01       		.uleb128 0x1
 6491 024b 12       		.uleb128 0x12
 6492 024c 06       		.uleb128 0x6
 6493 024d 40       		.uleb128 0x40
 6494 024e 18       		.uleb128 0x18
 6495 024f 9742     		.uleb128 0x2117
 6496 0251 19       		.uleb128 0x19
 6497 0252 01       		.uleb128 0x1
 6498 0253 13       		.uleb128 0x13
 6499 0254 00       		.byte	0
 6500 0255 00       		.byte	0
 6501 0256 2F       		.uleb128 0x2f
 6502 0257 34       		.uleb128 0x34
 6503 0258 00       		.byte	0
 6504 0259 03       		.uleb128 0x3
 6505 025a 0E       		.uleb128 0xe
 6506 025b 3A       		.uleb128 0x3a
 6507 025c 0B       		.uleb128 0xb
 6508 025d 3B       		.uleb128 0x3b
 6509 025e 0B       		.uleb128 0xb
 6510 025f 49       		.uleb128 0x49
 6511 0260 13       		.uleb128 0x13
 6512 0261 00       		.byte	0
 6513 0262 00       		.byte	0
ARM GAS  C:\Users\vicpa\AppData\Local\Temp\ccqS0gg1.s 			page 139


 6514 0263 30       		.uleb128 0x30
 6515 0264 2E       		.uleb128 0x2e
 6516 0265 01       		.byte	0x1
 6517 0266 3F       		.uleb128 0x3f
 6518 0267 19       		.uleb128 0x19
 6519 0268 03       		.uleb128 0x3
 6520 0269 0E       		.uleb128 0xe
 6521 026a 3A       		.uleb128 0x3a
 6522 026b 0B       		.uleb128 0xb
 6523 026c 3B       		.uleb128 0x3b
 6524 026d 05       		.uleb128 0x5
 6525 026e 8701     		.uleb128 0x87
 6526 0270 19       		.uleb128 0x19
 6527 0271 11       		.uleb128 0x11
 6528 0272 01       		.uleb128 0x1
 6529 0273 12       		.uleb128 0x12
 6530 0274 06       		.uleb128 0x6
 6531 0275 40       		.uleb128 0x40
 6532 0276 18       		.uleb128 0x18
 6533 0277 9742     		.uleb128 0x2117
 6534 0279 19       		.uleb128 0x19
 6535 027a 01       		.uleb128 0x1
 6536 027b 13       		.uleb128 0x13
 6537 027c 00       		.byte	0
 6538 027d 00       		.byte	0
 6539 027e 31       		.uleb128 0x31
 6540 027f 1D       		.uleb128 0x1d
 6541 0280 01       		.byte	0x1
 6542 0281 31       		.uleb128 0x31
 6543 0282 13       		.uleb128 0x13
 6544 0283 11       		.uleb128 0x11
 6545 0284 01       		.uleb128 0x1
 6546 0285 12       		.uleb128 0x12
 6547 0286 06       		.uleb128 0x6
 6548 0287 58       		.uleb128 0x58
 6549 0288 0B       		.uleb128 0xb
 6550 0289 59       		.uleb128 0x59
 6551 028a 05       		.uleb128 0x5
 6552 028b 01       		.uleb128 0x1
 6553 028c 13       		.uleb128 0x13
 6554 028d 00       		.byte	0
 6555 028e 00       		.byte	0
 6556 028f 32       		.uleb128 0x32
 6557 0290 05       		.uleb128 0x5
 6558 0291 00       		.byte	0
 6559 0292 31       		.uleb128 0x31
 6560 0293 13       		.uleb128 0x13
 6561 0294 02       		.uleb128 0x2
 6562 0295 17       		.uleb128 0x17
 6563 0296 00       		.byte	0
 6564 0297 00       		.byte	0
 6565 0298 33       		.uleb128 0x33
 6566 0299 34       		.uleb128 0x34
 6567 029a 00       		.byte	0
 6568 029b 03       		.uleb128 0x3
 6569 029c 0E       		.uleb128 0xe
 6570 029d 3A       		.uleb128 0x3a
ARM GAS  C:\Users\vicpa\AppData\Local\Temp\ccqS0gg1.s 			page 140


 6571 029e 0B       		.uleb128 0xb
 6572 029f 3B       		.uleb128 0x3b
 6573 02a0 05       		.uleb128 0x5
 6574 02a1 49       		.uleb128 0x49
 6575 02a2 13       		.uleb128 0x13
 6576 02a3 02       		.uleb128 0x2
 6577 02a4 18       		.uleb128 0x18
 6578 02a5 00       		.byte	0
 6579 02a6 00       		.byte	0
 6580 02a7 34       		.uleb128 0x34
 6581 02a8 34       		.uleb128 0x34
 6582 02a9 00       		.byte	0
 6583 02aa 03       		.uleb128 0x3
 6584 02ab 0E       		.uleb128 0xe
 6585 02ac 3A       		.uleb128 0x3a
 6586 02ad 0B       		.uleb128 0xb
 6587 02ae 3B       		.uleb128 0x3b
 6588 02af 05       		.uleb128 0x5
 6589 02b0 49       		.uleb128 0x49
 6590 02b1 13       		.uleb128 0x13
 6591 02b2 3F       		.uleb128 0x3f
 6592 02b3 19       		.uleb128 0x19
 6593 02b4 3C       		.uleb128 0x3c
 6594 02b5 19       		.uleb128 0x19
 6595 02b6 00       		.byte	0
 6596 02b7 00       		.byte	0
 6597 02b8 35       		.uleb128 0x35
 6598 02b9 34       		.uleb128 0x34
 6599 02ba 00       		.byte	0
 6600 02bb 03       		.uleb128 0x3
 6601 02bc 0E       		.uleb128 0xe
 6602 02bd 3A       		.uleb128 0x3a
 6603 02be 0B       		.uleb128 0xb
 6604 02bf 3B       		.uleb128 0x3b
 6605 02c0 0B       		.uleb128 0xb
 6606 02c1 49       		.uleb128 0x49
 6607 02c2 13       		.uleb128 0x13
 6608 02c3 3F       		.uleb128 0x3f
 6609 02c4 19       		.uleb128 0x19
 6610 02c5 3C       		.uleb128 0x3c
 6611 02c6 19       		.uleb128 0x19
 6612 02c7 00       		.byte	0
 6613 02c8 00       		.byte	0
 6614 02c9 36       		.uleb128 0x36
 6615 02ca 21       		.uleb128 0x21
 6616 02cb 00       		.byte	0
 6617 02cc 49       		.uleb128 0x49
 6618 02cd 13       		.uleb128 0x13
 6619 02ce 2F       		.uleb128 0x2f
 6620 02cf 05       		.uleb128 0x5
 6621 02d0 00       		.byte	0
 6622 02d1 00       		.byte	0
 6623 02d2 37       		.uleb128 0x37
 6624 02d3 34       		.uleb128 0x34
 6625 02d4 00       		.byte	0
 6626 02d5 03       		.uleb128 0x3
 6627 02d6 0E       		.uleb128 0xe
ARM GAS  C:\Users\vicpa\AppData\Local\Temp\ccqS0gg1.s 			page 141


 6628 02d7 3A       		.uleb128 0x3a
 6629 02d8 0B       		.uleb128 0xb
 6630 02d9 3B       		.uleb128 0x3b
 6631 02da 0B       		.uleb128 0xb
 6632 02db 49       		.uleb128 0x49
 6633 02dc 13       		.uleb128 0x13
 6634 02dd 3F       		.uleb128 0x3f
 6635 02de 19       		.uleb128 0x19
 6636 02df 02       		.uleb128 0x2
 6637 02e0 18       		.uleb128 0x18
 6638 02e1 00       		.byte	0
 6639 02e2 00       		.byte	0
 6640 02e3 38       		.uleb128 0x38
 6641 02e4 34       		.uleb128 0x34
 6642 02e5 00       		.byte	0
 6643 02e6 03       		.uleb128 0x3
 6644 02e7 0E       		.uleb128 0xe
 6645 02e8 3A       		.uleb128 0x3a
 6646 02e9 0B       		.uleb128 0xb
 6647 02ea 3B       		.uleb128 0x3b
 6648 02eb 05       		.uleb128 0x5
 6649 02ec 49       		.uleb128 0x49
 6650 02ed 13       		.uleb128 0x13
 6651 02ee 3F       		.uleb128 0x3f
 6652 02ef 19       		.uleb128 0x19
 6653 02f0 02       		.uleb128 0x2
 6654 02f1 18       		.uleb128 0x18
 6655 02f2 00       		.byte	0
 6656 02f3 00       		.byte	0
 6657 02f4 39       		.uleb128 0x39
 6658 02f5 2E       		.uleb128 0x2e
 6659 02f6 00       		.byte	0
 6660 02f7 3F       		.uleb128 0x3f
 6661 02f8 19       		.uleb128 0x19
 6662 02f9 3C       		.uleb128 0x3c
 6663 02fa 19       		.uleb128 0x19
 6664 02fb 6E       		.uleb128 0x6e
 6665 02fc 0E       		.uleb128 0xe
 6666 02fd 03       		.uleb128 0x3
 6667 02fe 0E       		.uleb128 0xe
 6668 02ff 3A       		.uleb128 0x3a
 6669 0300 0B       		.uleb128 0xb
 6670 0301 3B       		.uleb128 0x3b
 6671 0302 0B       		.uleb128 0xb
 6672 0303 00       		.byte	0
 6673 0304 00       		.byte	0
 6674 0305 3A       		.uleb128 0x3a
 6675 0306 2E       		.uleb128 0x2e
 6676 0307 00       		.byte	0
 6677 0308 3F       		.uleb128 0x3f
 6678 0309 19       		.uleb128 0x19
 6679 030a 3C       		.uleb128 0x3c
 6680 030b 19       		.uleb128 0x19
 6681 030c 6E       		.uleb128 0x6e
 6682 030d 0E       		.uleb128 0xe
 6683 030e 03       		.uleb128 0x3
 6684 030f 0E       		.uleb128 0xe
ARM GAS  C:\Users\vicpa\AppData\Local\Temp\ccqS0gg1.s 			page 142


 6685 0310 00       		.byte	0
 6686 0311 00       		.byte	0
 6687 0312 3B       		.uleb128 0x3b
 6688 0313 2E       		.uleb128 0x2e
 6689 0314 00       		.byte	0
 6690 0315 3F       		.uleb128 0x3f
 6691 0316 19       		.uleb128 0x19
 6692 0317 3C       		.uleb128 0x3c
 6693 0318 19       		.uleb128 0x19
 6694 0319 6E       		.uleb128 0x6e
 6695 031a 0E       		.uleb128 0xe
 6696 031b 03       		.uleb128 0x3
 6697 031c 0E       		.uleb128 0xe
 6698 031d 3A       		.uleb128 0x3a
 6699 031e 0B       		.uleb128 0xb
 6700 031f 3B       		.uleb128 0x3b
 6701 0320 05       		.uleb128 0x5
 6702 0321 00       		.byte	0
 6703 0322 00       		.byte	0
 6704 0323 00       		.byte	0
 6705              		.section	.debug_loc,"",%progbits
 6706              	.Ldebug_loc0:
 6707              	.LLST0:
 6708 0000 00000000 		.4byte	.LVL0
 6709 0004 09000000 		.4byte	.LVL1-1
 6710 0008 0100     		.2byte	0x1
 6711 000a 50       		.byte	0x50
 6712 000b 09000000 		.4byte	.LVL1-1
 6713 000f 2C000000 		.4byte	.LFE561
 6714 0013 0400     		.2byte	0x4
 6715 0015 F3       		.byte	0xf3
 6716 0016 01       		.uleb128 0x1
 6717 0017 50       		.byte	0x50
 6718 0018 9F       		.byte	0x9f
 6719 0019 00000000 		.4byte	0
 6720 001d 00000000 		.4byte	0
 6721              	.LLST1:
 6722 0021 00000000 		.4byte	.LVL0
 6723 0025 09000000 		.4byte	.LVL1-1
 6724 0029 0100     		.2byte	0x1
 6725 002b 51       		.byte	0x51
 6726 002c 09000000 		.4byte	.LVL1-1
 6727 0030 2C000000 		.4byte	.LFE561
 6728 0034 0400     		.2byte	0x4
 6729 0036 F3       		.byte	0xf3
 6730 0037 01       		.uleb128 0x1
 6731 0038 51       		.byte	0x51
 6732 0039 9F       		.byte	0x9f
 6733 003a 00000000 		.4byte	0
 6734 003e 00000000 		.4byte	0
 6735              	.LLST2:
 6736 0042 0C000000 		.4byte	.LVL2
 6737 0046 16000000 		.4byte	.LVL3
 6738 004a 0100     		.2byte	0x1
 6739 004c 50       		.byte	0x50
 6740 004d 16000000 		.4byte	.LVL3
 6741 0051 19000000 		.4byte	.LVL4-1
ARM GAS  C:\Users\vicpa\AppData\Local\Temp\ccqS0gg1.s 			page 143


 6742 0055 0100     		.2byte	0x1
 6743 0057 51       		.byte	0x51
 6744 0058 19000000 		.4byte	.LVL4-1
 6745 005c 28000000 		.4byte	.LVL6
 6746 0060 0100     		.2byte	0x1
 6747 0062 55       		.byte	0x55
 6748 0063 00000000 		.4byte	0
 6749 0067 00000000 		.4byte	0
 6750              	.LLST3:
 6751 006b 00000000 		.4byte	.LVL11
 6752 006f 44000000 		.4byte	.LVL16
 6753 0073 0100     		.2byte	0x1
 6754 0075 50       		.byte	0x50
 6755 0076 44000000 		.4byte	.LVL16
 6756 007a B6000000 		.4byte	.LFE563
 6757 007e 0400     		.2byte	0x4
 6758 0080 F3       		.byte	0xf3
 6759 0081 01       		.uleb128 0x1
 6760 0082 50       		.byte	0x50
 6761 0083 9F       		.byte	0x9f
 6762 0084 00000000 		.4byte	0
 6763 0088 00000000 		.4byte	0
 6764              	.LLST4:
 6765 008c 0A000000 		.4byte	.LVL12
 6766 0090 44000000 		.4byte	.LVL16
 6767 0094 0200     		.2byte	0x2
 6768 0096 30       		.byte	0x30
 6769 0097 9F       		.byte	0x9f
 6770 0098 44000000 		.4byte	.LVL16
 6771 009c B6000000 		.4byte	.LFE563
 6772 00a0 0100     		.2byte	0x1
 6773 00a2 55       		.byte	0x55
 6774 00a3 00000000 		.4byte	0
 6775 00a7 00000000 		.4byte	0
 6776              	.LLST5:
 6777 00ab 0A000000 		.4byte	.LVL12
 6778 00af 12000000 		.4byte	.LVL13
 6779 00b3 0200     		.2byte	0x2
 6780 00b5 30       		.byte	0x30
 6781 00b6 9F       		.byte	0x9f
 6782 00b7 12000000 		.4byte	.LVL13
 6783 00bb B6000000 		.4byte	.LFE563
 6784 00bf 0200     		.2byte	0x2
 6785 00c1 90       		.byte	0x90
 6786 00c2 51       		.uleb128 0x51
 6787 00c3 00000000 		.4byte	0
 6788 00c7 00000000 		.4byte	0
 6789              	.LLST6:
 6790 00cb 0A000000 		.4byte	.LVL12
 6791 00cf 12000000 		.4byte	.LVL13
 6792 00d3 0200     		.2byte	0x2
 6793 00d5 30       		.byte	0x30
 6794 00d6 9F       		.byte	0x9f
 6795 00d7 12000000 		.4byte	.LVL13
 6796 00db 44000000 		.4byte	.LVL16
 6797 00df 0100     		.2byte	0x1
 6798 00e1 53       		.byte	0x53
ARM GAS  C:\Users\vicpa\AppData\Local\Temp\ccqS0gg1.s 			page 144


 6799 00e2 00000000 		.4byte	0
 6800 00e6 00000000 		.4byte	0
 6801              	.LLST7:
 6802 00ea 66000000 		.4byte	.LVL20
 6803 00ee 6A000000 		.4byte	.LVL21
 6804 00f2 0100     		.2byte	0x1
 6805 00f4 50       		.byte	0x50
 6806 00f5 6A000000 		.4byte	.LVL21
 6807 00f9 6D000000 		.4byte	.LVL22-1
 6808 00fd 0100     		.2byte	0x1
 6809 00ff 51       		.byte	0x51
 6810 0100 6D000000 		.4byte	.LVL22-1
 6811 0104 A0000000 		.4byte	.LVL29
 6812 0108 0100     		.2byte	0x1
 6813 010a 56       		.byte	0x56
 6814 010b 00000000 		.4byte	0
 6815 010f 00000000 		.4byte	0
 6816              	.LLST8:
 6817 0113 90000000 		.4byte	.LVL25
 6818 0117 98000000 		.4byte	.LVL26
 6819 011b 0100     		.2byte	0x1
 6820 011d 50       		.byte	0x50
 6821 011e 98000000 		.4byte	.LVL26
 6822 0122 9B000000 		.4byte	.LVL27-1
 6823 0126 0100     		.2byte	0x1
 6824 0128 53       		.byte	0x53
 6825 0129 00000000 		.4byte	0
 6826 012d 00000000 		.4byte	0
 6827              	.LLST9:
 6828 0131 00000000 		.4byte	.LVL31
 6829 0135 0E000000 		.4byte	.LVL33
 6830 0139 0100     		.2byte	0x1
 6831 013b 50       		.byte	0x50
 6832 013c 0E000000 		.4byte	.LVL33
 6833 0140 11000000 		.4byte	.LVL34-1
 6834 0144 0100     		.2byte	0x1
 6835 0146 52       		.byte	0x52
 6836 0147 11000000 		.4byte	.LVL34-1
 6837 014b 9C000000 		.4byte	.LFE564
 6838 014f 0400     		.2byte	0x4
 6839 0151 F3       		.byte	0xf3
 6840 0152 01       		.uleb128 0x1
 6841 0153 50       		.byte	0x50
 6842 0154 9F       		.byte	0x9f
 6843 0155 00000000 		.4byte	0
 6844 0159 00000000 		.4byte	0
 6845              	.LLST10:
 6846 015d 00000000 		.4byte	.LVL31
 6847 0161 0C000000 		.4byte	.LVL32
 6848 0165 0100     		.2byte	0x1
 6849 0167 51       		.byte	0x51
 6850 0168 0C000000 		.4byte	.LVL32
 6851 016c 82000000 		.4byte	.LVL47
 6852 0170 0100     		.2byte	0x1
 6853 0172 55       		.byte	0x55
 6854 0173 82000000 		.4byte	.LVL47
 6855 0177 9C000000 		.4byte	.LFE564
ARM GAS  C:\Users\vicpa\AppData\Local\Temp\ccqS0gg1.s 			page 145


 6856 017b 0400     		.2byte	0x4
 6857 017d F3       		.byte	0xf3
 6858 017e 01       		.uleb128 0x1
 6859 017f 51       		.byte	0x51
 6860 0180 9F       		.byte	0x9f
 6861 0181 00000000 		.4byte	0
 6862 0185 00000000 		.4byte	0
 6863              	.LLST11:
 6864 0189 00000000 		.4byte	.LVL48
 6865 018d 09000000 		.4byte	.LVL49-1
 6866 0191 0100     		.2byte	0x1
 6867 0193 50       		.byte	0x50
 6868 0194 09000000 		.4byte	.LVL49-1
 6869 0198 4C000000 		.4byte	.LVL58
 6870 019c 0100     		.2byte	0x1
 6871 019e 54       		.byte	0x54
 6872 019f 4C000000 		.4byte	.LVL58
 6873 01a3 5C000000 		.4byte	.LFE565
 6874 01a7 0400     		.2byte	0x4
 6875 01a9 F3       		.byte	0xf3
 6876 01aa 01       		.uleb128 0x1
 6877 01ab 50       		.byte	0x50
 6878 01ac 9F       		.byte	0x9f
 6879 01ad 00000000 		.4byte	0
 6880 01b1 00000000 		.4byte	0
 6881              	.LLST12:
 6882 01b5 00000000 		.4byte	.LVL59
 6883 01b9 09000000 		.4byte	.LVL60-1
 6884 01bd 0100     		.2byte	0x1
 6885 01bf 50       		.byte	0x50
 6886 01c0 09000000 		.4byte	.LVL60-1
 6887 01c4 4C000000 		.4byte	.LVL69
 6888 01c8 0100     		.2byte	0x1
 6889 01ca 54       		.byte	0x54
 6890 01cb 4C000000 		.4byte	.LVL69
 6891 01cf 5C000000 		.4byte	.LFE566
 6892 01d3 0400     		.2byte	0x4
 6893 01d5 F3       		.byte	0xf3
 6894 01d6 01       		.uleb128 0x1
 6895 01d7 50       		.byte	0x50
 6896 01d8 9F       		.byte	0x9f
 6897 01d9 00000000 		.4byte	0
 6898 01dd 00000000 		.4byte	0
 6899              	.LLST13:
 6900 01e1 00000000 		.4byte	.LVL70
 6901 01e5 0B000000 		.4byte	.LVL71-1
 6902 01e9 0100     		.2byte	0x1
 6903 01eb 50       		.byte	0x50
 6904 01ec 0B000000 		.4byte	.LVL71-1
 6905 01f0 B4000000 		.4byte	.LVL87
 6906 01f4 0100     		.2byte	0x1
 6907 01f6 54       		.byte	0x54
 6908 01f7 B4000000 		.4byte	.LVL87
 6909 01fb D8000000 		.4byte	.LFE567
 6910 01ff 0400     		.2byte	0x4
 6911 0201 F3       		.byte	0xf3
 6912 0202 01       		.uleb128 0x1
ARM GAS  C:\Users\vicpa\AppData\Local\Temp\ccqS0gg1.s 			page 146


 6913 0203 50       		.byte	0x50
 6914 0204 9F       		.byte	0x9f
 6915 0205 00000000 		.4byte	0
 6916 0209 00000000 		.4byte	0
 6917              	.LLST14:
 6918 020d 00000000 		.4byte	.LVL70
 6919 0211 0B000000 		.4byte	.LVL71-1
 6920 0215 0100     		.2byte	0x1
 6921 0217 51       		.byte	0x51
 6922 0218 0B000000 		.4byte	.LVL71-1
 6923 021c B4000000 		.4byte	.LVL87
 6924 0220 0100     		.2byte	0x1
 6925 0222 56       		.byte	0x56
 6926 0223 B4000000 		.4byte	.LVL87
 6927 0227 D8000000 		.4byte	.LFE567
 6928 022b 0400     		.2byte	0x4
 6929 022d F3       		.byte	0xf3
 6930 022e 01       		.uleb128 0x1
 6931 022f 51       		.byte	0x51
 6932 0230 9F       		.byte	0x9f
 6933 0231 00000000 		.4byte	0
 6934 0235 00000000 		.4byte	0
 6935              	.LLST15:
 6936 0239 00000000 		.4byte	.LVL70
 6937 023d 0B000000 		.4byte	.LVL71-1
 6938 0241 0100     		.2byte	0x1
 6939 0243 52       		.byte	0x52
 6940 0244 0B000000 		.4byte	.LVL71-1
 6941 0248 B4000000 		.4byte	.LVL87
 6942 024c 0100     		.2byte	0x1
 6943 024e 55       		.byte	0x55
 6944 024f B4000000 		.4byte	.LVL87
 6945 0253 D8000000 		.4byte	.LFE567
 6946 0257 0400     		.2byte	0x4
 6947 0259 F3       		.byte	0xf3
 6948 025a 01       		.uleb128 0x1
 6949 025b 52       		.byte	0x52
 6950 025c 9F       		.byte	0x9f
 6951 025d 00000000 		.4byte	0
 6952 0261 00000000 		.4byte	0
 6953              	.LLST16:
 6954 0265 16000000 		.4byte	.LVL134
 6955 0269 1E000000 		.4byte	.LVL135
 6956 026d 0200     		.2byte	0x2
 6957 026f 30       		.byte	0x30
 6958 0270 9F       		.byte	0x9f
 6959 0271 00000000 		.4byte	0
 6960 0275 00000000 		.4byte	0
 6961              	.LLST17:
 6962 0279 16000000 		.4byte	.LVL134
 6963 027d 1E000000 		.4byte	.LVL135
 6964 0281 0200     		.2byte	0x2
 6965 0283 31       		.byte	0x31
 6966 0284 9F       		.byte	0x9f
 6967 0285 00000000 		.4byte	0
 6968 0289 00000000 		.4byte	0
 6969              	.LLST18:
ARM GAS  C:\Users\vicpa\AppData\Local\Temp\ccqS0gg1.s 			page 147


 6970 028d 16000000 		.4byte	.LVL134
 6971 0291 1E000000 		.4byte	.LVL135
 6972 0295 0600     		.2byte	0x6
 6973 0297 0C       		.byte	0xc
 6974 0298 80053240 		.4byte	0x40320580
 6975 029c 9F       		.byte	0x9f
 6976 029d 00000000 		.4byte	0
 6977 02a1 00000000 		.4byte	0
 6978              	.LLST19:
 6979 02a5 1E000000 		.4byte	.LVL135
 6980 02a9 24000000 		.4byte	.LVL136
 6981 02ad 0200     		.2byte	0x2
 6982 02af 31       		.byte	0x31
 6983 02b0 9F       		.byte	0x9f
 6984 02b1 00000000 		.4byte	0
 6985 02b5 00000000 		.4byte	0
 6986              	.LLST21:
 6987 02b9 1E000000 		.4byte	.LVL135
 6988 02bd 24000000 		.4byte	.LVL136
 6989 02c1 0600     		.2byte	0x6
 6990 02c3 0C       		.byte	0xc
 6991 02c4 80053240 		.4byte	0x40320580
 6992 02c8 9F       		.byte	0x9f
 6993 02c9 00000000 		.4byte	0
 6994 02cd 00000000 		.4byte	0
 6995              		.section	.debug_aranges,"",%progbits
 6996 0000 8C000000 		.4byte	0x8c
 6997 0004 0200     		.2byte	0x2
 6998 0006 00000000 		.4byte	.Ldebug_info0
 6999 000a 04       		.byte	0x4
 7000 000b 00       		.byte	0
 7001 000c 0000     		.2byte	0
 7002 000e 0000     		.2byte	0
 7003 0010 00000000 		.4byte	.LFB561
 7004 0014 2C000000 		.4byte	.LFE561-.LFB561
 7005 0018 00000000 		.4byte	.LFB562
 7006 001c 1E000000 		.4byte	.LFE562-.LFB562
 7007 0020 00000000 		.4byte	.LFB563
 7008 0024 B6000000 		.4byte	.LFE563-.LFB563
 7009 0028 00000000 		.4byte	.LFB564
 7010 002c 9C000000 		.4byte	.LFE564-.LFB564
 7011 0030 00000000 		.4byte	.LFB565
 7012 0034 5C000000 		.4byte	.LFE565-.LFB565
 7013 0038 00000000 		.4byte	.LFB566
 7014 003c 5C000000 		.4byte	.LFE566-.LFB566
 7015 0040 00000000 		.4byte	.LFB567
 7016 0044 D8000000 		.4byte	.LFE567-.LFB567
 7017 0048 00000000 		.4byte	.LFB568
 7018 004c 4C000000 		.4byte	.LFE568-.LFB568
 7019 0050 00000000 		.4byte	.LFB569
 7020 0054 AC000000 		.4byte	.LFE569-.LFB569
 7021 0058 00000000 		.4byte	.LFB570
 7022 005c AC000000 		.4byte	.LFE570-.LFB570
 7023 0060 00000000 		.4byte	.LFB571
 7024 0064 54000000 		.4byte	.LFE571-.LFB571
 7025 0068 00000000 		.4byte	.LFB572
 7026 006c 6C000000 		.4byte	.LFE572-.LFB572
ARM GAS  C:\Users\vicpa\AppData\Local\Temp\ccqS0gg1.s 			page 148


 7027 0070 00000000 		.4byte	.LFB573
 7028 0074 9C000000 		.4byte	.LFE573-.LFB573
 7029 0078 00000000 		.4byte	.LFB574
 7030 007c 34000000 		.4byte	.LFE574-.LFB574
 7031 0080 00000000 		.4byte	.LFB575
 7032 0084 F0020000 		.4byte	.LFE575-.LFB575
 7033 0088 00000000 		.4byte	0
 7034 008c 00000000 		.4byte	0
 7035              		.section	.debug_ranges,"",%progbits
 7036              	.Ldebug_ranges0:
 7037 0000 0A000000 		.4byte	.LBB6
 7038 0004 0C000000 		.4byte	.LBE6
 7039 0008 10000000 		.4byte	.LBB7
 7040 000c 44000000 		.4byte	.LBE7
 7041 0010 00000000 		.4byte	0
 7042 0014 00000000 		.4byte	0
 7043 0018 00000000 		.4byte	.LFB561
 7044 001c 2C000000 		.4byte	.LFE561
 7045 0020 00000000 		.4byte	.LFB562
 7046 0024 1E000000 		.4byte	.LFE562
 7047 0028 00000000 		.4byte	.LFB563
 7048 002c B6000000 		.4byte	.LFE563
 7049 0030 00000000 		.4byte	.LFB564
 7050 0034 9C000000 		.4byte	.LFE564
 7051 0038 00000000 		.4byte	.LFB565
 7052 003c 5C000000 		.4byte	.LFE565
 7053 0040 00000000 		.4byte	.LFB566
 7054 0044 5C000000 		.4byte	.LFE566
 7055 0048 00000000 		.4byte	.LFB567
 7056 004c D8000000 		.4byte	.LFE567
 7057 0050 00000000 		.4byte	.LFB568
 7058 0054 4C000000 		.4byte	.LFE568
 7059 0058 00000000 		.4byte	.LFB569
 7060 005c AC000000 		.4byte	.LFE569
 7061 0060 00000000 		.4byte	.LFB570
 7062 0064 AC000000 		.4byte	.LFE570
 7063 0068 00000000 		.4byte	.LFB571
 7064 006c 54000000 		.4byte	.LFE571
 7065 0070 00000000 		.4byte	.LFB572
 7066 0074 6C000000 		.4byte	.LFE572
 7067 0078 00000000 		.4byte	.LFB573
 7068 007c 9C000000 		.4byte	.LFE573
 7069 0080 00000000 		.4byte	.LFB574
 7070 0084 34000000 		.4byte	.LFE574
 7071 0088 00000000 		.4byte	.LFB575
 7072 008c F0020000 		.4byte	.LFE575
 7073 0090 00000000 		.4byte	0
 7074 0094 00000000 		.4byte	0
 7075              		.section	.debug_line,"",%progbits
 7076              	.Ldebug_line0:
 7077 0000 EB070000 		.section	.debug_str,"MS",%progbits,1
 7077      02009005 
 7077      00000201 
 7077      FB0E0D00 
 7077      01010101 
 7078              	.LASF91:
 7079 0000 666C6173 		.ascii	"flashCtlMainWs1Freq\000"
ARM GAS  C:\Users\vicpa\AppData\Local\Temp\ccqS0gg1.s 			page 149


 7079      6843746C 
 7079      4D61696E 
 7079      57733146 
 7079      72657100 
 7080              	.LASF31:
 7081 0014 52455345 		.ascii	"RESERVED\000"
 7081      52564544 
 7081      00
 7082              	.LASF35:
 7083 001d 494E5452 		.ascii	"INTR_CAUSE0\000"
 7083      5F434155 
 7083      53453000 
 7084              	.LASF36:
 7085 0029 494E5452 		.ascii	"INTR_CAUSE1\000"
 7085      5F434155 
 7085      53453100 
 7086              	.LASF37:
 7087 0035 494E5452 		.ascii	"INTR_CAUSE2\000"
 7087      5F434155 
 7087      53453200 
 7088              	.LASF141:
 7089 0041 63795F63 		.ascii	"cy_cb_scb_spi_handle_events_t\000"
 7089      625F7363 
 7089      625F7370 
 7089      695F6861 
 7089      6E646C65 
 7090              	.LASF209:
 7091 005f 74475549 		.ascii	"tGUI_ENC_APIList\000"
 7091      5F454E43 
 7091      5F415049 
 7091      4C697374 
 7091      00
 7092              	.LASF288:
 7093 0070 4D6F7469 		.ascii	"MotionAlarmEnable\000"
 7093      6F6E416C 
 7093      61726D45 
 7093      6E61626C 
 7093      6500
 7094              	.LASF190:
 7095 0082 46697273 		.ascii	"First\000"
 7095      7400
 7096              	.LASF169:
 7097 0088 73746F70 		.ascii	"stopInputMode\000"
 7097      496E7075 
 7097      744D6F64 
 7097      6500
 7098              	.LASF270:
 7099 0096 63795F64 		.ascii	"cy_device\000"
 7099      65766963 
 7099      6500
 7100              	.LASF273:
 7101 00a0 4755495F 		.ascii	"GUI_Font10_1\000"
 7101      466F6E74 
 7101      31305F31 
 7101      00
 7102              	.LASF235:
 7103 00ad 62617365 		.ascii	"base\000"
ARM GAS  C:\Users\vicpa\AppData\Local\Temp\ccqS0gg1.s 			page 150


 7103      00
 7104              	.LASF118:
 7105 00b2 63707573 		.ascii	"cpussCm0ClockCtlOffset\000"
 7105      73436D30 
 7105      436C6F63 
 7105      6B43746C 
 7105      4F666673 
 7106              	.LASF77:
 7107 00c9 70657269 		.ascii	"periClockNr\000"
 7107      436C6F63 
 7107      6B4E7200 
 7108              	.LASF271:
 7109 00d5 43595F45 		.ascii	"CY_EINK_SPIM_context\000"
 7109      494E4B5F 
 7109      5350494D 
 7109      5F636F6E 
 7109      74657874 
 7110              	.LASF266:
 7111 00ea 48656172 		.ascii	"HeartRateAlarm\000"
 7111      74526174 
 7111      65416C61 
 7111      726D00
 7112              	.LASF194:
 7113 00f9 4755495F 		.ascii	"GUI_FONT_PROP_EXT\000"
 7113      464F4E54 
 7113      5F50524F 
 7113      505F4558 
 7113      5400
 7114              	.LASF187:
 7115 010b 59506F73 		.ascii	"YPos\000"
 7115      00
 7116              	.LASF309:
 7117 0110 4755495F 		.ascii	"GUI_SetPenSize\000"
 7117      53657450 
 7117      656E5369 
 7117      7A6500
 7118              	.LASF318:
 7119 011f 43617053 		.ascii	"CapSense_IsWidgetActive\000"
 7119      656E7365 
 7119      5F497357 
 7119      69646765 
 7119      74416374 
 7120              	.LASF50:
 7121 0137 70657269 		.ascii	"periBase\000"
 7121      42617365 
 7121      00
 7122              	.LASF212:
 7123 0140 70664765 		.ascii	"pfGetCharDistX\000"
 7123      74436861 
 7123      72446973 
 7123      745800
 7124              	.LASF126:
 7125 014f 63707573 		.ascii	"cpussCm0NmiCtlOffset\000"
 7125      73436D30 
 7125      4E6D6943 
 7125      746C4F66 
 7125      66736574 
ARM GAS  C:\Users\vicpa\AppData\Local\Temp\ccqS0gg1.s 			page 151


 7126              	.LASF96:
 7127 0164 64774368 		.ascii	"dwChSize\000"
 7127      53697A65 
 7127      00
 7128              	.LASF299:
 7129 016d 53637265 		.ascii	"ScreenNumber\000"
 7129      656E4E75 
 7129      6D626572 
 7129      00
 7130              	.LASF277:
 7131 017a 696D6167 		.ascii	"imageBufferCache\000"
 7131      65427566 
 7131      66657243 
 7131      61636865 
 7131      00
 7132              	.LASF178:
 7133 018b 704C6973 		.ascii	"pList\000"
 7133      7400
 7134              	.LASF42:
 7135 0191 5644445F 		.ascii	"VDD_INTR_MASKED\000"
 7135      494E5452 
 7135      5F4D4153 
 7135      4B454400 
 7136              	.LASF13:
 7137 01a1 756E7369 		.ascii	"unsigned int\000"
 7137      676E6564 
 7137      20696E74 
 7137      00
 7138              	.LASF239:
 7139 01ae 706F7765 		.ascii	"powerCycle\000"
 7139      72437963 
 7139      6C6500
 7140              	.LASF18:
 7141 01b9 75696E74 		.ascii	"uint32_t\000"
 7141      33325F74 
 7141      00
 7142              	.LASF78:
 7143 01c2 736D6966 		.ascii	"smifDeviceNr\000"
 7143      44657669 
 7143      63654E72 
 7143      00
 7144              	.LASF108:
 7145 01cf 70657269 		.ascii	"periDivCmdPaTypeSelPos\000"
 7145      44697643 
 7145      6D645061 
 7145      54797065 
 7145      53656C50 
 7146              	.LASF148:
 7147 01e6 74784275 		.ascii	"txBufIdx\000"
 7147      66496478 
 7147      00
 7148              	.LASF324:
 7149 01ef 43757272 		.ascii	"Current\000"
 7149      656E7400 
 7150              	.LASF168:
 7151 01f7 73746172 		.ascii	"startInput\000"
 7151      74496E70 
ARM GAS  C:\Users\vicpa\AppData\Local\Temp\ccqS0gg1.s 			page 152


 7151      757400
 7152              	.LASF7:
 7153 0202 5F5F696E 		.ascii	"__int32_t\000"
 7153      7433325F 
 7153      7400
 7154              	.LASF48:
 7155 020c 63707573 		.ascii	"cpussBase\000"
 7155      73426173 
 7155      6500
 7156              	.LASF225:
 7157 0216 70466F6E 		.ascii	"pFontData\000"
 7157      74446174 
 7157      6100
 7158              	.LASF72:
 7159 0220 63707573 		.ascii	"cpussFmIrq\000"
 7159      73466D49 
 7159      727100
 7160              	.LASF232:
 7161 022b 43595F45 		.ascii	"CY_EINK_FULL_4STAGE\000"
 7161      494E4B5F 
 7161      46554C4C 
 7161      5F345354 
 7161      41474500 
 7162              	.LASF73:
 7163 023f 63707573 		.ascii	"cpussNotConnectedIrq\000"
 7163      734E6F74 
 7163      436F6E6E 
 7163      65637465 
 7163      64497271 
 7164              	.LASF170:
 7165 0254 73746F70 		.ascii	"stopInput\000"
 7165      496E7075 
 7165      7400
 7166              	.LASF317:
 7167 025e 43617053 		.ascii	"CapSense_ScanAllWidgets\000"
 7167      656E7365 
 7167      5F536361 
 7167      6E416C6C 
 7167      57696467 
 7168              	.LASF104:
 7169 0276 70657269 		.ascii	"periTrGrSize\000"
 7169      54724772 
 7169      53697A65 
 7169      00
 7170              	.LASF107:
 7171 0283 70657269 		.ascii	"periDivCmdPaDivSelPos\000"
 7171      44697643 
 7171      6D645061 
 7171      44697653 
 7171      656C506F 
 7172              	.LASF26:
 7173 0299 494E5452 		.ascii	"INTR_SET\000"
 7173      5F534554 
 7173      00
 7174              	.LASF84:
 7175 02a2 63727970 		.ascii	"cryptoMemSize\000"
 7175      746F4D65 
ARM GAS  C:\Users\vicpa\AppData\Local\Temp\ccqS0gg1.s 			page 153


 7175      6D53697A 
 7175      6500
 7176              	.LASF130:
 7177 02b0 63707573 		.ascii	"cpussRam1Ctl0\000"
 7177      7352616D 
 7177      3143746C 
 7177      3000
 7178              	.LASF234:
 7179 02be 63795F65 		.ascii	"cy_eink_update_t\000"
 7179      696E6B5F 
 7179      75706461 
 7179      74655F74 
 7179      00
 7180              	.LASF75:
 7181 02cf 73727373 		.ascii	"srssNumPll\000"
 7181      4E756D50 
 7181      6C6C00
 7182              	.LASF132:
 7183 02da 69706353 		.ascii	"ipcStructSize\000"
 7183      74727563 
 7183      7453697A 
 7183      6500
 7184              	.LASF183:
 7185 02e8 70446174 		.ascii	"pData\000"
 7185      6100
 7186              	.LASF159:
 7187 02ee 636F6D70 		.ascii	"compare0\000"
 7187      61726530 
 7187      00
 7188              	.LASF160:
 7189 02f7 636F6D70 		.ascii	"compare1\000"
 7189      61726531 
 7189      00
 7190              	.LASF279:
 7191 0300 53746F70 		.ascii	"StopChangeLedIntensity\000"
 7191      4368616E 
 7191      67654C65 
 7191      64496E74 
 7191      656E7369 
 7192              	.LASF320:
 7193 0317 474E5520 		.ascii	"GNU C11 5.4.1 20160609 (release) [ARM/embedded-5-br"
 7193      43313120 
 7193      352E342E 
 7193      31203230 
 7193      31363036 
 7194 034a 616E6368 		.ascii	"anch revision 237715] -mcpu=cortex-m4 -mfloat-abi=s"
 7194      20726576 
 7194      6973696F 
 7194      6E203233 
 7194      37373135 
 7195 037d 6F667466 		.ascii	"oftfp -mfpu=fpv4-sp-d16 -mthumb -g -Og -ffunction-s"
 7195      70202D6D 
 7195      6670753D 
 7195      66707634 
 7195      2D73702D 
 7196 03b0 65637469 		.ascii	"ections -ffat-lto-objects\000"
 7196      6F6E7320 
ARM GAS  C:\Users\vicpa\AppData\Local\Temp\ccqS0gg1.s 			page 154


 7196      2D666661 
 7196      742D6C74 
 7196      6F2D6F62 
 7197              	.LASF66:
 7198 03ca 70726F74 		.ascii	"protVersion\000"
 7198      56657273 
 7198      696F6E00 
 7199              	.LASF322:
 7200 03d6 433A5C32 		.ascii	"C:\\2 PROJET SESSION INSTRU\\GBM2100_ProjetInterfac"
 7200      2050524F 
 7200      4A455420 
 7200      53455353 
 7200      494F4E20 
 7201 0407 655C496E 		.ascii	"e\\Interface.cydsn\000"
 7201      74657266 
 7201      6163652E 
 7201      63796473 
 7201      6E00
 7202              	.LASF249:
 7203 0419 50617261 		.ascii	"Parametre1\000"
 7203      6D657472 
 7203      653100
 7204              	.LASF250:
 7205 0424 50617261 		.ascii	"Parametre2\000"
 7205      6D657472 
 7205      653200
 7206              	.LASF106:
 7207 042f 70657269 		.ascii	"periDivCmdTypeSelPos\000"
 7207      44697643 
 7207      6D645479 
 7207      70655365 
 7207      6C506F73 
 7208              	.LASF123:
 7209 0444 63707573 		.ascii	"cpussTrimRamCtlOffset\000"
 7209      73547269 
 7209      6D52616D 
 7209      43746C4F 
 7209      66667365 
 7210              	.LASF28:
 7211 045a 4346475F 		.ascii	"CFG_IN\000"
 7211      494E00
 7212              	.LASF285:
 7213 0461 48696768 		.ascii	"HighHeartRateF\000"
 7213      48656172 
 7213      74526174 
 7213      654600
 7214              	.LASF284:
 7215 0470 48696768 		.ascii	"HighHeartRateI\000"
 7215      48656172 
 7215      74526174 
 7215      654900
 7216              	.LASF162:
 7217 047f 696E7465 		.ascii	"interruptSources\000"
 7217      72727570 
 7217      74536F75 
 7217      72636573 
 7217      00
ARM GAS  C:\Users\vicpa\AppData\Local\Temp\ccqS0gg1.s 			page 155


 7218              	.LASF179:
 7219 0490 4755495F 		.ascii	"GUI_FONT_TRANSINFO\000"
 7219      464F4E54 
 7219      5F545241 
 7219      4E53494E 
 7219      464F00
 7220              	.LASF292:
 7221 04a3 41666669 		.ascii	"AffichageGraph\000"
 7221      63686167 
 7221      65477261 
 7221      706800
 7222              	.LASF202:
 7223 04b2 4755495F 		.ascii	"GUI_FONTINFO\000"
 7223      464F4E54 
 7223      494E464F 
 7223      00
 7224              	.LASF301:
 7225 04bf 43795F45 		.ascii	"Cy_EINK_ShowFrame\000"
 7225      494E4B5F 
 7225      53686F77 
 7225      4672616D 
 7225      6500
 7226              	.LASF313:
 7227 04d1 4755495F 		.ascii	"GUI_DrawCircle\000"
 7227      44726177 
 7227      43697263 
 7227      6C6500
 7228              	.LASF44:
 7229 04e0 4750494F 		.ascii	"GPIO_V1_Type\000"
 7229      5F56315F 
 7229      54797065 
 7229      00
 7230              	.LASF116:
 7231 04ed 6770696F 		.ascii	"gpioPrtCfgOutOffset\000"
 7231      50727443 
 7231      66674F75 
 7231      744F6666 
 7231      73657400 
 7232              	.LASF189:
 7233 0501 4755495F 		.ascii	"GUI_FONT_PROP\000"
 7233      464F4E54 
 7233      5F50524F 
 7233      5000
 7234              	.LASF274:
 7235 050f 4755495F 		.ascii	"GUI_Font13_1\000"
 7235      466F6E74 
 7235      31335F31 
 7235      00
 7236              	.LASF198:
 7237 051c 466C6167 		.ascii	"Flags\000"
 7237      7300
 7238              	.LASF21:
 7239 0522 4F55545F 		.ascii	"OUT_SET\000"
 7239      53455400 
 7240              	.LASF59:
 7241 052a 63727970 		.ascii	"cryptoVersion\000"
 7241      746F5665 
ARM GAS  C:\Users\vicpa\AppData\Local\Temp\ccqS0gg1.s 			page 156


 7241      7273696F 
 7241      6E00
 7242              	.LASF197:
 7243 0538 4755495F 		.ascii	"GUI_FONT_MONO\000"
 7243      464F4E54 
 7243      5F4D4F4E 
 7243      4F00
 7244              	.LASF80:
 7245 0546 65704D6F 		.ascii	"epMonitorNr\000"
 7245      6E69746F 
 7245      724E7200 
 7246              	.LASF298:
 7247 0552 50616765 		.ascii	"Page2Params\000"
 7247      32506172 
 7247      616D7300 
 7248              	.LASF20:
 7249 055e 4F55545F 		.ascii	"OUT_CLR\000"
 7249      434C5200 
 7250              	.LASF33:
 7251 0566 52455345 		.ascii	"RESERVED1\000"
 7251      52564544 
 7251      3100
 7252              	.LASF166:
 7253 0570 72656C6F 		.ascii	"reloadInput\000"
 7253      6164496E 
 7253      70757400 
 7254              	.LASF15:
 7255 057c 696E7431 		.ascii	"int16_t\000"
 7255      365F7400 
 7256              	.LASF115:
 7257 0584 6770696F 		.ascii	"gpioPrtCfgInOffset\000"
 7257      50727443 
 7257      6667496E 
 7257      4F666673 
 7257      657400
 7258              	.LASF12:
 7259 0597 6C6F6E67 		.ascii	"long long unsigned int\000"
 7259      206C6F6E 
 7259      6720756E 
 7259      7369676E 
 7259      65642069 
 7260              	.LASF112:
 7261 05ae 70657269 		.ascii	"periDiv24_5CtlOffset\000"
 7261      44697632 
 7261      345F3543 
 7261      746C4F66 
 7261      66736574 
 7262              	.LASF117:
 7263 05c3 6770696F 		.ascii	"gpioPrtCfgSioOffset\000"
 7263      50727443 
 7263      66675369 
 7263      6F4F6666 
 7263      73657400 
 7264              	.LASF323:
 7265 05d7 43795F47 		.ascii	"Cy_GPIO_Write\000"
 7265      50494F5F 
 7265      57726974 
ARM GAS  C:\Users\vicpa\AppData\Local\Temp\ccqS0gg1.s 			page 157


 7265      6500
 7266              	.LASF242:
 7267 05e5 64726177 		.ascii	"drawGraph\000"
 7267      47726170 
 7267      6800
 7268              	.LASF71:
 7269 05ef 63707573 		.ascii	"cpussIpc0Irq\000"
 7269      73497063 
 7269      30497271 
 7269      00
 7270              	.LASF188:
 7271 05fc 4755495F 		.ascii	"GUI_CHARINFO_EXT\000"
 7271      43484152 
 7271      494E464F 
 7271      5F455854 
 7271      00
 7272              	.LASF244:
 7273 060d 70456D77 		.ascii	"pEmwinBuffer\000"
 7273      696E4275 
 7273      66666572 
 7273      00
 7274              	.LASF51:
 7275 061a 75646242 		.ascii	"udbBase\000"
 7275      61736500 
 7276              	.LASF195:
 7277 0622 70547261 		.ascii	"pTransData\000"
 7277      6E734461 
 7277      746100
 7278              	.LASF199:
 7279 062d 42617365 		.ascii	"Baseline\000"
 7279      6C696E65 
 7279      00
 7280              	.LASF167:
 7281 0636 73746172 		.ascii	"startInputMode\000"
 7281      74496E70 
 7281      75744D6F 
 7281      646500
 7282              	.LASF163:
 7283 0645 63617074 		.ascii	"captureInputMode\000"
 7283      75726549 
 7283      6E707574 
 7283      4D6F6465 
 7283      00
 7284              	.LASF237:
 7285 0656 76616C75 		.ascii	"value\000"
 7285      6500
 7286              	.LASF29:
 7287 065c 4346475F 		.ascii	"CFG_OUT\000"
 7287      4F555400 
 7288              	.LASF295:
 7289 0664 53617475 		.ascii	"Saturation\000"
 7289      72617469 
 7289      6F6E00
 7290              	.LASF143:
 7291 066f 72784275 		.ascii	"rxBuf\000"
 7291      6600
 7292              	.LASF93:
ARM GAS  C:\Users\vicpa\AppData\Local\Temp\ccqS0gg1.s 			page 158


 7293 0675 666C6173 		.ascii	"flashCtlMainWs3Freq\000"
 7293      6843746C 
 7293      4D61696E 
 7293      57733346 
 7293      72657100 
 7294              	.LASF287:
 7295 0689 53746F70 		.ascii	"StopChangeHighHeartRate\000"
 7295      4368616E 
 7295      67654869 
 7295      67684865 
 7295      61727452 
 7296              	.LASF265:
 7297 06a1 4368616E 		.ascii	"ChangeGraph\000"
 7297      67654772 
 7297      61706800 
 7298              	.LASF222:
 7299 06ad 4755495F 		.ascii	"GUI_GETFONTINFO\000"
 7299      47455446 
 7299      4F4E5449 
 7299      4E464F00 
 7300              	.LASF211:
 7301 06bd 70664469 		.ascii	"pfDispChar\000"
 7301      73704368 
 7301      617200
 7302              	.LASF149:
 7303 06c8 63624576 		.ascii	"cbEvents\000"
 7303      656E7473 
 7303      00
 7304              	.LASF319:
 7305 06d1 76546173 		.ascii	"vTaskDelay\000"
 7305      6B44656C 
 7305      617900
 7306              	.LASF282:
 7307 06dc 536C6964 		.ascii	"SliderPosIII\000"
 7307      6572506F 
 7307      73494949 
 7307      00
 7308              	.LASF296:
 7309 06e9 52797468 		.ascii	"RythmeCardiaque\000"
 7309      6D654361 
 7309      72646961 
 7309      71756500 
 7310              	.LASF303:
 7311 06f9 4755495F 		.ascii	"GUI_SetBkColor\000"
 7311      53657442 
 7311      6B436F6C 
 7311      6F7200
 7312              	.LASF140:
 7313 0708 5F426F6F 		.ascii	"_Bool\000"
 7313      6C00
 7314              	.LASF218:
 7315 070e 584D6167 		.ascii	"XMag\000"
 7315      00
 7316              	.LASF215:
 7317 0713 70664765 		.ascii	"pfGetCharInfo\000"
 7317      74436861 
 7317      72496E66 
ARM GAS  C:\Users\vicpa\AppData\Local\Temp\ccqS0gg1.s 			page 159


 7317      6F00
 7318              	.LASF312:
 7319 0721 4755495F 		.ascii	"GUI_DispStringAt\000"
 7319      44697370 
 7319      53747269 
 7319      6E674174 
 7319      00
 7320              	.LASF214:
 7321 0732 70664973 		.ascii	"pfIsInFont\000"
 7321      496E466F 
 7321      6E7400
 7322              	.LASF40:
 7323 073d 5644445F 		.ascii	"VDD_INTR\000"
 7323      494E5452 
 7323      00
 7324              	.LASF54:
 7325 0746 6770696F 		.ascii	"gpioBase\000"
 7325      42617365 
 7325      00
 7326              	.LASF206:
 7327 074f 70664765 		.ascii	"pfGetLineDistX\000"
 7327      744C696E 
 7327      65446973 
 7327      745800
 7328              	.LASF251:
 7329 075e 75706461 		.ascii	"updateLowHeartRateLimit\000"
 7329      74654C6F 
 7329      77486561 
 7329      72745261 
 7329      74654C69 
 7330              	.LASF306:
 7331 0776 4755495F 		.ascii	"GUI_DrawLine\000"
 7331      44726177 
 7331      4C696E65 
 7331      00
 7332              	.LASF60:
 7333 0783 64775665 		.ascii	"dwVersion\000"
 7333      7273696F 
 7333      6E00
 7334              	.LASF125:
 7335 078d 63707573 		.ascii	"cpussSysTickCtlOffset\000"
 7335      73537973 
 7335      5469636B 
 7335      43746C4F 
 7335      66667365 
 7336              	.LASF81:
 7337 07a3 75646250 		.ascii	"udbPresent\000"
 7337      72657365 
 7337      6E7400
 7338              	.LASF220:
 7339 07ae 4755495F 		.ascii	"GUI_DISPCHAR\000"
 7339      44495350 
 7339      43484152 
 7339      00
 7340              	.LASF45:
 7341 07bb 4750494F 		.ascii	"GPIO_PRT_Type\000"
 7341      5F505254 
ARM GAS  C:\Users\vicpa\AppData\Local\Temp\ccqS0gg1.s 			page 160


 7341      5F547970 
 7341      6500
 7342              	.LASF99:
 7343 07c9 64775374 		.ascii	"dwStatusChIdxPos\000"
 7343      61747573 
 7343      43684964 
 7343      78506F73 
 7343      00
 7344              	.LASF5:
 7345 07da 5F5F7569 		.ascii	"__uint16_t\000"
 7345      6E743136 
 7345      5F7400
 7346              	.LASF24:
 7347 07e5 494E5452 		.ascii	"INTR_MASK\000"
 7347      5F4D4153 
 7347      4B00
 7348              	.LASF245:
 7349 07ef 76656374 		.ascii	"vector250elements\000"
 7349      6F723235 
 7349      30656C65 
 7349      6D656E74 
 7349      7300
 7350              	.LASF275:
 7351 0801 4755495F 		.ascii	"GUI_Font16_1\000"
 7351      466F6E74 
 7351      31365F31 
 7351      00
 7352              	.LASF70:
 7353 080e 63707573 		.ascii	"cpussFlashPaSize\000"
 7353      73466C61 
 7353      73685061 
 7353      53697A65 
 7353      00
 7354              	.LASF176:
 7355 081f 46697273 		.ascii	"FirstChar\000"
 7355      74436861 
 7355      7200
 7356              	.LASF49:
 7357 0829 666C6173 		.ascii	"flashcBase\000"
 7357      68634261 
 7357      736500
 7358              	.LASF136:
 7359 0834 63686172 		.ascii	"char\000"
 7359      00
 7360              	.LASF267:
 7361 0839 43617053 		.ascii	"CapSense_ChangeMenu\000"
 7361      656E7365 
 7361      5F436861 
 7361      6E67654D 
 7361      656E7500 
 7362              	.LASF246:
 7363 084d 75706461 		.ascii	"updateParameters\000"
 7363      74655061 
 7363      72616D65 
 7363      74657273 
 7363      00
 7364              	.LASF82:
ARM GAS  C:\Users\vicpa\AppData\Local\Temp\ccqS0gg1.s 			page 161


 7365 085e 73797350 		.ascii	"sysPmSimoPresent\000"
 7365      6D53696D 
 7365      6F507265 
 7365      73656E74 
 7365      00
 7366              	.LASF155:
 7367 086f 636C6F63 		.ascii	"clockPrescaler\000"
 7367      6B507265 
 7367      7363616C 
 7367      657200
 7368              	.LASF263:
 7369 087e 75706461 		.ascii	"updateMotionAlarm\000"
 7369      74654D6F 
 7369      74696F6E 
 7369      416C6172 
 7369      6D00
 7370              	.LASF264:
 7371 0890 43617053 		.ascii	"CapSense_EnableDisableMotionAlarm\000"
 7371      656E7365 
 7371      5F456E61 
 7371      626C6544 
 7371      69736162 
 7372              	.LASF145:
 7373 08b2 72784275 		.ascii	"rxBufIdx\000"
 7373      66496478 
 7373      00
 7374              	.LASF283:
 7375 08bb 53746F70 		.ascii	"StopChangeLowHeartRate\000"
 7375      4368616E 
 7375      67654C6F 
 7375      77486561 
 7375      72745261 
 7376              	.LASF307:
 7377 08d2 4755495F 		.ascii	"GUI_DrawPoint\000"
 7377      44726177 
 7377      506F696E 
 7377      7400
 7378              	.LASF100:
 7379 08e0 64775374 		.ascii	"dwStatusChIdxMsk\000"
 7379      61747573 
 7379      43684964 
 7379      784D736B 
 7379      00
 7380              	.LASF14:
 7381 08f1 75696E74 		.ascii	"uint8_t\000"
 7381      385F7400 
 7382              	.LASF142:
 7383 08f9 73746174 		.ascii	"status\000"
 7383      757300
 7384              	.LASF192:
 7385 0900 70614368 		.ascii	"paCharInfo\000"
 7385      6172496E 
 7385      666F00
 7386              	.LASF186:
 7387 090b 58506F73 		.ascii	"XPos\000"
 7387      00
 7388              	.LASF105:
ARM GAS  C:\Users\vicpa\AppData\Local\Temp\ccqS0gg1.s 			page 162


 7389 0910 70657269 		.ascii	"periDivCmdDivSelMsk\000"
 7389      44697643 
 7389      6D644469 
 7389      7653656C 
 7389      4D736B00 
 7390              	.LASF38:
 7391 0924 494E5452 		.ascii	"INTR_CAUSE3\000"
 7391      5F434155 
 7391      53453300 
 7392              	.LASF217:
 7393 0930 59446973 		.ascii	"YDist\000"
 7393      7400
 7394              	.LASF111:
 7395 0936 70657269 		.ascii	"periDiv16_5CtlOffset\000"
 7395      44697631 
 7395      365F3543 
 7395      746C4F66 
 7395      66736574 
 7396              	.LASF272:
 7397 094b 43595F45 		.ascii	"CY_EINK_Timer_config\000"
 7397      494E4B5F 
 7397      54696D65 
 7397      725F636F 
 7397      6E666967 
 7398              	.LASF129:
 7399 0960 63707573 		.ascii	"cpussRam0Ctl0\000"
 7399      7352616D 
 7399      3043746C 
 7399      3000
 7400              	.LASF233:
 7401 096e 43595F45 		.ascii	"CY_EINK_FULL_2STAGE\000"
 7401      494E4B5F 
 7401      46554C4C 
 7401      5F325354 
 7401      41474500 
 7402              	.LASF11:
 7403 0982 6C6F6E67 		.ascii	"long long int\000"
 7403      206C6F6E 
 7403      6720696E 
 7403      7400
 7404              	.LASF56:
 7405 0990 69706342 		.ascii	"ipcBase\000"
 7405      61736500 
 7406              	.LASF97:
 7407 0998 64774368 		.ascii	"dwChCtlPrioPos\000"
 7407      43746C50 
 7407      72696F50 
 7407      6F7300
 7408              	.LASF213:
 7409 09a7 70664765 		.ascii	"pfGetFontInfo\000"
 7409      74466F6E 
 7409      74496E66 
 7409      6F00
 7410              	.LASF57:
 7411 09b5 63727970 		.ascii	"cryptoBase\000"
 7411      746F4261 
 7411      736500
ARM GAS  C:\Users\vicpa\AppData\Local\Temp\ccqS0gg1.s 			page 163


 7412              	.LASF281:
 7413 09c0 4C6F7748 		.ascii	"LowHeartRateF\000"
 7413      65617274 
 7413      52617465 
 7413      4600
 7414              	.LASF280:
 7415 09ce 4C6F7748 		.ascii	"LowHeartRateI\000"
 7415      65617274 
 7415      52617465 
 7415      4900
 7416              	.LASF221:
 7417 09dc 4755495F 		.ascii	"GUI_GETCHARDISTX\000"
 7417      47455443 
 7417      48415244 
 7417      49535458 
 7417      00
 7418              	.LASF182:
 7419 09ed 42797465 		.ascii	"BytesPerLine\000"
 7419      73506572 
 7419      4C696E65 
 7419      00
 7420              	.LASF87:
 7421 09fa 666C6173 		.ascii	"flashWriteDelay\000"
 7421      68577269 
 7421      74654465 
 7421      6C617900 
 7422              	.LASF261:
 7423 0a0a 43617053 		.ascii	"CapSense_ChangeLowHeartRateLimit\000"
 7423      656E7365 
 7423      5F436861 
 7423      6E67654C 
 7423      6F774865 
 7424              	.LASF216:
 7425 0a2b 70616645 		.ascii	"pafEncode\000"
 7425      6E636F64 
 7425      6500
 7426              	.LASF151:
 7427 0a35 63795F73 		.ascii	"cy_stc_scb_spi_context_t\000"
 7427      74635F73 
 7427      63625F73 
 7427      70695F63 
 7427      6F6E7465 
 7428              	.LASF4:
 7429 0a4e 5F5F696E 		.ascii	"__int16_t\000"
 7429      7431365F 
 7429      7400
 7430              	.LASF260:
 7431 0a58 43617053 		.ascii	"CapSense_ChangeLedIntensity\000"
 7431      656E7365 
 7431      5F436861 
 7431      6E67654C 
 7431      6564496E 
 7432              	.LASF310:
 7433 0a74 4755495F 		.ascii	"GUI_DrawRect\000"
 7433      44726177 
 7433      52656374 
 7433      00
ARM GAS  C:\Users\vicpa\AppData\Local\Temp\ccqS0gg1.s 			page 164


 7434              	.LASF205:
 7435 0a81 74474C5F 		.ascii	"tGL_DispLine\000"
 7435      44697370 
 7435      4C696E65 
 7435      00
 7436              	.LASF53:
 7437 0a8e 6873696F 		.ascii	"hsiomBase\000"
 7437      6D426173 
 7437      6500
 7438              	.LASF268:
 7439 0a98 536C6964 		.ascii	"SliderPosII\000"
 7439      6572506F 
 7439      73494900 
 7440              	.LASF103:
 7441 0aa4 70657269 		.ascii	"periTrGrOffset\000"
 7441      54724772 
 7441      4F666673 
 7441      657400
 7442              	.LASF23:
 7443 0ab3 494E5452 		.ascii	"INTR\000"
 7443      00
 7444              	.LASF191:
 7445 0ab8 4C617374 		.ascii	"Last\000"
 7445      00
 7446              	.LASF69:
 7447 0abd 63707573 		.ascii	"cpussDwChNr\000"
 7447      73447743 
 7447      684E7200 
 7448              	.LASF165:
 7449 0ac9 72656C6F 		.ascii	"reloadInputMode\000"
 7449      6164496E 
 7449      7075744D 
 7449      6F646500 
 7450              	.LASF286:
 7451 0ad9 536C6964 		.ascii	"SliderPosIV\000"
 7451      6572506F 
 7451      73495600 
 7452              	.LASF207:
 7453 0ae5 70664765 		.ascii	"pfGetLineLen\000"
 7453      744C696E 
 7453      654C656E 
 7453      00
 7454              	.LASF147:
 7455 0af2 74784275 		.ascii	"txBufSize\000"
 7455      6653697A 
 7455      6500
 7456              	.LASF67:
 7457 0afc 63707573 		.ascii	"cpussIpcNr\000"
 7457      73497063 
 7457      4E7200
 7458              	.LASF252:
 7459 0b07 48656172 		.ascii	"HeartRate\000"
 7459      74526174 
 7459      6500
 7460              	.LASF185:
 7461 0b11 5953697A 		.ascii	"YSize\000"
 7461      6500
ARM GAS  C:\Users\vicpa\AppData\Local\Temp\ccqS0gg1.s 			page 165


 7462              	.LASF201:
 7463 0b17 43486569 		.ascii	"CHeight\000"
 7463      67687400 
 7464              	.LASF314:
 7465 0b1f 43617053 		.ascii	"CapSense_ProcessAllWidgets\000"
 7465      656E7365 
 7465      5F50726F 
 7465      63657373 
 7465      416C6C57 
 7466              	.LASF224:
 7467 0b3a 4755495F 		.ascii	"GUI_GETCHARINFO\000"
 7467      47455443 
 7467      48415249 
 7467      4E464F00 
 7468              	.LASF131:
 7469 0b4a 63707573 		.ascii	"cpussRam2Ctl0\000"
 7469      7352616D 
 7469      3243746C 
 7469      3000
 7470              	.LASF229:
 7471 0b58 70765F65 		.ascii	"pv_eink_frame_data_t\000"
 7471      696E6B5F 
 7471      6672616D 
 7471      655F6461 
 7471      74615F74 
 7472              	.LASF231:
 7473 0b6d 43595F45 		.ascii	"CY_EINK_PARTIAL\000"
 7473      494E4B5F 
 7473      50415254 
 7473      49414C00 
 7474              	.LASF321:
 7475 0b7d 5461736B 		.ascii	"TasksInterface.c\000"
 7475      73496E74 
 7475      65726661 
 7475      63652E63 
 7475      00
 7476              	.LASF146:
 7477 0b8e 74784275 		.ascii	"txBuf\000"
 7477      6600
 7478              	.LASF253:
 7479 0b94 48656172 		.ascii	"HeartRateLow\000"
 7479      74526174 
 7479      654C6F77 
 7479      00
 7480              	.LASF174:
 7481 0ba1 5469636B 		.ascii	"TickType_t\000"
 7481      54797065 
 7481      5F7400
 7482              	.LASF88:
 7483 0bac 666C6173 		.ascii	"flashProgramDelay\000"
 7483      6850726F 
 7483      6772616D 
 7483      44656C61 
 7483      7900
 7484              	.LASF110:
 7485 0bbe 70657269 		.ascii	"periDiv16CtlOffset\000"
 7485      44697631 
ARM GAS  C:\Users\vicpa\AppData\Local\Temp\ccqS0gg1.s 			page 166


 7485      3643746C 
 7485      4F666673 
 7485      657400
 7486              	.LASF293:
 7487 0bd1 62756666 		.ascii	"bufferInfrarouge\000"
 7487      6572496E 
 7487      66726172 
 7487      6F756765 
 7487      00
 7488              	.LASF196:
 7489 0be2 70547261 		.ascii	"pTrans\000"
 7489      6E7300
 7490              	.LASF258:
 7491 0be9 50617261 		.ascii	"ParamP1\000"
 7491      6D503100 
 7492              	.LASF259:
 7493 0bf1 50617261 		.ascii	"ParamP2\000"
 7493      6D503200 
 7494              	.LASF203:
 7495 0bf9 74475549 		.ascii	"tGUI_GetLineDistX\000"
 7495      5F476574 
 7495      4C696E65 
 7495      44697374 
 7495      5800
 7496              	.LASF6:
 7497 0c0b 73686F72 		.ascii	"short unsigned int\000"
 7497      7420756E 
 7497      7369676E 
 7497      65642069 
 7497      6E7400
 7498              	.LASF47:
 7499 0c1e 6C6F6E67 		.ascii	"long double\000"
 7499      20646F75 
 7499      626C6500 
 7500              	.LASF308:
 7501 0c2a 73707269 		.ascii	"sprintf\000"
 7501      6E746600 
 7502              	.LASF16:
 7503 0c32 75696E74 		.ascii	"uint16_t\000"
 7503      31365F74 
 7503      00
 7504              	.LASF52:
 7505 0c3b 70726F74 		.ascii	"protBase\000"
 7505      42617365 
 7505      00
 7506              	.LASF43:
 7507 0c44 5644445F 		.ascii	"VDD_INTR_SET\000"
 7507      494E5452 
 7507      5F534554 
 7507      00
 7508              	.LASF156:
 7509 0c51 72756E4D 		.ascii	"runMode\000"
 7509      6F646500 
 7510              	.LASF102:
 7511 0c59 70657269 		.ascii	"periTrCmdGrSelMsk\000"
 7511      5472436D 
 7511      64477253 
ARM GAS  C:\Users\vicpa\AppData\Local\Temp\ccqS0gg1.s 			page 167


 7511      656C4D73 
 7511      6B00
 7512              	.LASF302:
 7513 0c6b 4755495F 		.ascii	"GUI_SetColor\000"
 7513      53657443 
 7513      6F6C6F72 
 7513      00
 7514              	.LASF76:
 7515 0c78 73727373 		.ascii	"srssNumHfroot\000"
 7515      4E756D48 
 7515      66726F6F 
 7515      7400
 7516              	.LASF173:
 7517 0c86 63795F73 		.ascii	"cy_stc_tcpwm_counter_config_t\000"
 7517      74635F74 
 7517      6370776D 
 7517      5F636F75 
 7517      6E746572 
 7518              	.LASF200:
 7519 0ca4 4C486569 		.ascii	"LHeight\000"
 7519      67687400 
 7520              	.LASF92:
 7521 0cac 666C6173 		.ascii	"flashCtlMainWs2Freq\000"
 7521      6843746C 
 7521      4D61696E 
 7521      57733246 
 7521      72657100 
 7522              	.LASF19:
 7523 0cc0 73697A65 		.ascii	"sizetype\000"
 7523      74797065 
 7523      00
 7524              	.LASF315:
 7525 0cc9 43617053 		.ascii	"CapSense_GetCentroidPos\000"
 7525      656E7365 
 7525      5F476574 
 7525      43656E74 
 7525      726F6964 
 7526              	.LASF127:
 7527 0ce1 63707573 		.ascii	"cpussCm4NmiCtlOffset\000"
 7527      73436D34 
 7527      4E6D6943 
 7527      746C4F66 
 7527      66736574 
 7528              	.LASF158:
 7529 0cf6 636F6D70 		.ascii	"compareOrCapture\000"
 7529      6172654F 
 7529      72436170 
 7529      74757265 
 7529      00
 7530              	.LASF109:
 7531 0d07 70657269 		.ascii	"periDiv8CtlOffset\000"
 7531      44697638 
 7531      43746C4F 
 7531      66667365 
 7531      7400
 7532              	.LASF297:
 7533 0d19 50616765 		.ascii	"Page1Params\000"
ARM GAS  C:\Users\vicpa\AppData\Local\Temp\ccqS0gg1.s 			page 168


 7533      31506172 
 7533      616D7300 
 7534              	.LASF0:
 7535 0d25 73686F72 		.ascii	"short int\000"
 7535      7420696E 
 7535      7400
 7536              	.LASF210:
 7537 0d2f 4755495F 		.ascii	"GUI_FONT\000"
 7537      464F4E54 
 7537      00
 7538              	.LASF161:
 7539 0d38 656E6162 		.ascii	"enableCompareSwap\000"
 7539      6C65436F 
 7539      6D706172 
 7539      65537761 
 7539      7000
 7540              	.LASF227:
 7541 0d4a 7050726F 		.ascii	"pProp\000"
 7541      7000
 7542              	.LASF8:
 7543 0d50 6C6F6E67 		.ascii	"long int\000"
 7543      20696E74 
 7543      00
 7544              	.LASF58:
 7545 0d59 63707573 		.ascii	"cpussVersion\000"
 7545      73566572 
 7545      73696F6E 
 7545      00
 7546              	.LASF290:
 7547 0d66 53746F70 		.ascii	"StopDisableAlarm\000"
 7547      44697361 
 7547      626C6541 
 7547      6C61726D 
 7547      00
 7548              	.LASF269:
 7549 0d77 49544D5F 		.ascii	"ITM_RxBuffer\000"
 7549      52784275 
 7549      66666572 
 7549      00
 7550              	.LASF171:
 7551 0d84 636F756E 		.ascii	"countInputMode\000"
 7551      74496E70 
 7551      75744D6F 
 7551      646500
 7552              	.LASF62:
 7553 0d93 6770696F 		.ascii	"gpioVersion\000"
 7553      56657273 
 7553      696F6E00 
 7554              	.LASF226:
 7555 0d9f 704D6F6E 		.ascii	"pMono\000"
 7555      6F00
 7556              	.LASF61:
 7557 0da5 666C6173 		.ascii	"flashcVersion\000"
 7557      68635665 
 7557      7273696F 
 7557      6E00
 7558              	.LASF177:
ARM GAS  C:\Users\vicpa\AppData\Local\Temp\ccqS0gg1.s 			page 169


 7559 0db3 4C617374 		.ascii	"LastChar\000"
 7559      43686172 
 7559      00
 7560              	.LASF316:
 7561 0dbc 43617053 		.ascii	"CapSense_UpdateAllBaselines\000"
 7561      656E7365 
 7561      5F557064 
 7561      61746541 
 7561      6C6C4261 
 7562              	.LASF157:
 7563 0dd8 636F756E 		.ascii	"countDirection\000"
 7563      74446972 
 7563      65637469 
 7563      6F6E00
 7564              	.LASF34:
 7565 0de7 4750494F 		.ascii	"GPIO_PRT_V1_Type\000"
 7565      5F505254 
 7565      5F56315F 
 7565      54797065 
 7565      00
 7566              	.LASF240:
 7567 0df8 55706461 		.ascii	"UpdateDisplay\000"
 7567      74654469 
 7567      73706C61 
 7567      7900
 7568              	.LASF135:
 7569 0e06 63686172 		.ascii	"char_t\000"
 7569      5F7400
 7570              	.LASF262:
 7571 0e0d 43617053 		.ascii	"CapSense_ChangeHighHeartRateLimit\000"
 7571      656E7365 
 7571      5F436861 
 7571      6E676548 
 7571      69676848 
 7572              	.LASF254:
 7573 0e2f 75706461 		.ascii	"updateHighHeartRateLimit\000"
 7573      74654869 
 7573      67684865 
 7573      61727452 
 7573      6174654C 
 7574              	.LASF32:
 7575 0e48 4346475F 		.ascii	"CFG_IN_GPIO5V\000"
 7575      494E5F47 
 7575      50494F35 
 7575      5600
 7576              	.LASF300:
 7577 0e56 4C43445F 		.ascii	"LCD_GetDisplayBuffer\000"
 7577      47657444 
 7577      6973706C 
 7577      61794275 
 7577      66666572 
 7578              	.LASF22:
 7579 0e6b 4F55545F 		.ascii	"OUT_INV\000"
 7579      494E5600 
 7580              	.LASF122:
 7581 0e73 63707573 		.ascii	"cpussCm4PwrCtlOffset\000"
 7581      73436D34 
ARM GAS  C:\Users\vicpa\AppData\Local\Temp\ccqS0gg1.s 			page 170


 7581      50777243 
 7581      746C4F66 
 7581      66736574 
 7582              	.LASF3:
 7583 0e88 5F5F7569 		.ascii	"__uint8_t\000"
 7583      6E74385F 
 7583      7400
 7584              	.LASF238:
 7585 0e92 75706461 		.ascii	"updateMethod\000"
 7585      74654D65 
 7585      74686F64 
 7585      00
 7586              	.LASF208:
 7587 0e9f 70664469 		.ascii	"pfDispLine\000"
 7587      73704C69 
 7587      6E6500
 7588              	.LASF113:
 7589 0eaa 6770696F 		.ascii	"gpioPrtIntrCfgOffset\000"
 7589      50727449 
 7589      6E747243 
 7589      66674F66 
 7589      66736574 
 7590              	.LASF79:
 7591 0ebf 70617373 		.ascii	"passSarChannels\000"
 7591      53617243 
 7591      68616E6E 
 7591      656C7300 
 7592              	.LASF257:
 7593 0ecf 50616765 		.ascii	"PageNumber\000"
 7593      4E756D62 
 7593      657200
 7594              	.LASF119:
 7595 0eda 63707573 		.ascii	"cpussCm4ClockCtlOffset\000"
 7595      73436D34 
 7595      436C6F63 
 7595      6B43746C 
 7595      4F666673 
 7596              	.LASF25:
 7597 0ef1 494E5452 		.ascii	"INTR_MASKED\000"
 7597      5F4D4153 
 7597      4B454400 
 7598              	.LASF204:
 7599 0efd 74475549 		.ascii	"tGUI_GetLineLen\000"
 7599      5F476574 
 7599      4C696E65 
 7599      4C656E00 
 7600              	.LASF124:
 7601 0f0d 63707573 		.ascii	"cpussTrimRomCtlOffset\000"
 7601      73547269 
 7601      6D526F6D 
 7601      43746C4F 
 7601      66667365 
 7602              	.LASF63:
 7603 0f23 6873696F 		.ascii	"hsiomVersion\000"
 7603      6D566572 
 7603      73696F6E 
 7603      00
ARM GAS  C:\Users\vicpa\AppData\Local\Temp\ccqS0gg1.s 			page 171


 7604              	.LASF10:
 7605 0f30 6C6F6E67 		.ascii	"long unsigned int\000"
 7605      20756E73 
 7605      69676E65 
 7605      6420696E 
 7605      7400
 7606              	.LASF128:
 7607 0f42 63707573 		.ascii	"cpussRomCtl\000"
 7607      73526F6D 
 7607      43746C00 
 7608              	.LASF137:
 7609 0f4e 666C6F61 		.ascii	"float\000"
 7609      7400
 7610              	.LASF175:
 7611 0f54 4755495F 		.ascii	"GUI_FONT_TRANSLIST\000"
 7611      464F4E54 
 7611      5F545241 
 7611      4E534C49 
 7611      535400
 7612              	.LASF17:
 7613 0f67 696E7433 		.ascii	"int32_t\000"
 7613      325F7400 
 7614              	.LASF164:
 7615 0f6f 63617074 		.ascii	"captureInput\000"
 7615      75726549 
 7615      6E707574 
 7615      00
 7616              	.LASF121:
 7617 0f7c 63707573 		.ascii	"cpussCm0StatusOffset\000"
 7617      73436D30 
 7617      53746174 
 7617      75734F66 
 7617      66736574 
 7618              	.LASF181:
 7619 0f91 58446973 		.ascii	"XDist\000"
 7619      7400
 7620              	.LASF86:
 7621 0f97 666C6173 		.ascii	"flashPipeRequired\000"
 7621      68506970 
 7621      65526571 
 7621      75697265 
 7621      6400
 7622              	.LASF2:
 7623 0fa9 756E7369 		.ascii	"unsigned char\000"
 7623      676E6564 
 7623      20636861 
 7623      7200
 7624              	.LASF9:
 7625 0fb7 5F5F7569 		.ascii	"__uint32_t\000"
 7625      6E743332 
 7625      5F7400
 7626              	.LASF46:
 7627 0fc2 4750494F 		.ascii	"GPIO_Type\000"
 7627      5F547970 
 7627      6500
 7628              	.LASF133:
 7629 0fcc 6970634C 		.ascii	"ipcLockStatusOffset\000"
ARM GAS  C:\Users\vicpa\AppData\Local\Temp\ccqS0gg1.s 			page 172


 7629      6F636B53 
 7629      74617475 
 7629      734F6666 
 7629      73657400 
 7630              	.LASF172:
 7631 0fe0 636F756E 		.ascii	"countInput\000"
 7631      74496E70 
 7631      757400
 7632              	.LASF27:
 7633 0feb 494E5452 		.ascii	"INTR_CFG\000"
 7633      5F434647 
 7633      00
 7634              	.LASF255:
 7635 0ff4 48656172 		.ascii	"HeartRateHigh\000"
 7635      74526174 
 7635      65486967 
 7635      6800
 7636              	.LASF152:
 7637 1002 63795F73 		.ascii	"cy_stc_scb_spi_context\000"
 7637      74635F73 
 7637      63625F73 
 7637      70695F63 
 7637      6F6E7465 
 7638              	.LASF89:
 7639 1019 666C6173 		.ascii	"flashEraseDelay\000"
 7639      68457261 
 7639      73654465 
 7639      6C617900 
 7640              	.LASF256:
 7641 1029 44697370 		.ascii	"DisplayPage\000"
 7641      6C617950 
 7641      61676500 
 7642              	.LASF90:
 7643 1035 666C6173 		.ascii	"flashCtlMainWs0Freq\000"
 7643      6843746C 
 7643      4D61696E 
 7643      57733046 
 7643      72657100 
 7644              	.LASF305:
 7645 1049 726F756E 		.ascii	"round\000"
 7645      6400
 7646              	.LASF243:
 7647 104f 76656374 		.ascii	"vector750elements\000"
 7647      6F723735 
 7647      30656C65 
 7647      6D656E74 
 7647      7300
 7648              	.LASF83:
 7649 1061 70726F74 		.ascii	"protBusMasterMask\000"
 7649      4275734D 
 7649      61737465 
 7649      724D6173 
 7649      6B00
 7650              	.LASF85:
 7651 1073 666C6173 		.ascii	"flashRwwRequired\000"
 7651      68527777 
 7651      52657175 
ARM GAS  C:\Users\vicpa\AppData\Local\Temp\ccqS0gg1.s 			page 173


 7651      69726564 
 7651      00
 7652              	.LASF114:
 7653 1084 6770696F 		.ascii	"gpioPrtCfgOffset\000"
 7653      50727443 
 7653      66674F66 
 7653      66736574 
 7653      00
 7654              	.LASF236:
 7655 1095 70696E4E 		.ascii	"pinNum\000"
 7655      756D00
 7656              	.LASF41:
 7657 109c 5644445F 		.ascii	"VDD_INTR_MASK\000"
 7657      494E5452 
 7657      5F4D4153 
 7657      4B00
 7658              	.LASF1:
 7659 10aa 7369676E 		.ascii	"signed char\000"
 7659      65642063 
 7659      68617200 
 7660              	.LASF154:
 7661 10b6 70657269 		.ascii	"period\000"
 7661      6F6400
 7662              	.LASF311:
 7663 10bd 4755495F 		.ascii	"GUI_SetFont\000"
 7663      53657446 
 7663      6F6E7400 
 7664              	.LASF95:
 7665 10c9 64774368 		.ascii	"dwChOffset\000"
 7665      4F666673 
 7665      657400
 7666              	.LASF68:
 7667 10d4 63707573 		.ascii	"cpussIpcIrqNr\000"
 7667      73497063 
 7667      4972714E 
 7667      7200
 7668              	.LASF153:
 7669 10e2 63795F73 		.ascii	"cy_stc_tcpwm_counter_config\000"
 7669      74635F74 
 7669      6370776D 
 7669      5F636F75 
 7669      6E746572 
 7670              	.LASF98:
 7671 10fe 64774368 		.ascii	"dwChCtlPreemptablePos\000"
 7671      43746C50 
 7671      7265656D 
 7671      70746162 
 7671      6C65506F 
 7672              	.LASF219:
 7673 1114 594D6167 		.ascii	"YMag\000"
 7673      00
 7674              	.LASF180:
 7675 1119 5853697A 		.ascii	"XSize\000"
 7675      6500
 7676              	.LASF325:
 7677 111f 6D656D63 		.ascii	"memcpy\000"
 7677      707900
ARM GAS  C:\Users\vicpa\AppData\Local\Temp\ccqS0gg1.s 			page 174


 7678              	.LASF294:
 7679 1126 62756666 		.ascii	"bufferRouge\000"
 7679      6572526F 
 7679      75676500 
 7680              	.LASF120:
 7681 1132 63707573 		.ascii	"cpussCm4StatusOffset\000"
 7681      73436D34 
 7681      53746174 
 7681      75734F66 
 7681      66736574 
 7682              	.LASF134:
 7683 1147 63795F73 		.ascii	"cy_stc_device_t\000"
 7683      74635F64 
 7683      65766963 
 7683      655F7400 
 7684              	.LASF39:
 7685 1157 5644445F 		.ascii	"VDD_ACTIVE\000"
 7685      41435449 
 7685      564500
 7686              	.LASF230:
 7687 1162 63795F65 		.ascii	"cy_eink_frame_t\000"
 7687      696E6B5F 
 7687      6672616D 
 7687      655F7400 
 7688              	.LASF65:
 7689 1172 70657269 		.ascii	"periVersion\000"
 7689      56657273 
 7689      696F6E00 
 7690              	.LASF150:
 7691 117e 696E6974 		.ascii	"initKey\000"
 7691      4B657900 
 7692              	.LASF276:
 7693 1186 4755495F 		.ascii	"GUI_Font24_1\000"
 7693      466F6E74 
 7693      32345F31 
 7693      00
 7694              	.LASF139:
 7695 1193 75696E74 		.ascii	"uint8\000"
 7695      3800
 7696              	.LASF138:
 7697 1199 646F7562 		.ascii	"double\000"
 7697      6C6500
 7698              	.LASF55:
 7699 11a0 70617373 		.ascii	"passBase\000"
 7699      42617365 
 7699      00
 7700              	.LASF184:
 7701 11a9 4755495F 		.ascii	"GUI_CHARINFO\000"
 7701      43484152 
 7701      494E464F 
 7701      00
 7702              	.LASF223:
 7703 11b6 4755495F 		.ascii	"GUI_ISINFONT\000"
 7703      4953494E 
 7703      464F4E54 
 7703      00
 7704              	.LASF74:
ARM GAS  C:\Users\vicpa\AppData\Local\Temp\ccqS0gg1.s 			page 175


 7705 11c3 73727373 		.ascii	"srssNumClkpath\000"
 7705      4E756D43 
 7705      6C6B7061 
 7705      746800
 7706              	.LASF247:
 7707 11d2 70617261 		.ascii	"param1\000"
 7707      6D3100
 7708              	.LASF248:
 7709 11d9 70617261 		.ascii	"param2\000"
 7709      6D3200
 7710              	.LASF30:
 7711 11e0 4346475F 		.ascii	"CFG_SIO\000"
 7711      53494F00 
 7712              	.LASF94:
 7713 11e8 666C6173 		.ascii	"flashCtlMainWs4Freq\000"
 7713      6843746C 
 7713      4D61696E 
 7713      57733446 
 7713      72657100 
 7714              	.LASF291:
 7715 11fc 436F6D70 		.ascii	"CompteurSW2\000"
 7715      74657572 
 7715      53573200 
 7716              	.LASF193:
 7717 1208 704E6578 		.ascii	"pNext\000"
 7717      7400
 7718              	.LASF241:
 7719 120e 436C6561 		.ascii	"ClearScreen\000"
 7719      72536372 
 7719      65656E00 
 7720              	.LASF278:
 7721 121a 536C6964 		.ascii	"SliderPosI\000"
 7721      6572506F 
 7721      734900
 7722              	.LASF64:
 7723 1225 69706356 		.ascii	"ipcVersion\000"
 7723      65727369 
 7723      6F6E00
 7724              	.LASF228:
 7725 1230 7050726F 		.ascii	"pPropExt\000"
 7725      70457874 
 7725      00
 7726              	.LASF101:
 7727 1239 70657269 		.ascii	"periTrCmdOffset\000"
 7727      5472436D 
 7727      644F6666 
 7727      73657400 
 7728              	.LASF144:
 7729 1249 72784275 		.ascii	"rxBufSize\000"
 7729      6653697A 
 7729      6500
 7730              	.LASF289:
 7731 1253 536C6964 		.ascii	"SliderPosV\000"
 7731      6572506F 
 7731      735600
 7732              	.LASF304:
 7733 125e 4755495F 		.ascii	"GUI_Clear\000"
ARM GAS  C:\Users\vicpa\AppData\Local\Temp\ccqS0gg1.s 			page 176


 7733      436C6561 
 7733      7200
 7734              		.ident	"GCC: (GNU Tools for ARM Embedded Processors) 5.4.1 20160609 (release) [ARM/embedded-5-bran
