ARM GAS  C:\Users\vicpa\AppData\Local\Temp\ccqS0gg1.s 			page 1


   1              		.syntax unified
   2              		.cpu cortex-m4
   3              		.eabi_attribute 27, 1
   4              		.fpu fpv4-sp-d16
   5              		.eabi_attribute 20, 1
   6              		.eabi_attribute 21, 1
   7              		.eabi_attribute 23, 3
   8              		.eabi_attribute 24, 1
   9              		.eabi_attribute 25, 1
  10              		.eabi_attribute 26, 1
  11              		.eabi_attribute 30, 1
  12              		.eabi_attribute 34, 1
  13              		.eabi_attribute 18, 4
  14              		.thumb
  15              		.syntax unified
  16              		.file	"TasksInterface.c"
  17              		.text
  18              	.Ltext0:
  19              		.cfi_sections	.debug_frame
  20              		.section	.text.UpdateDisplay,"ax",%progbits
  21              		.align	2
  22              		.global	UpdateDisplay
  23              		.thumb
  24              		.thumb_func
  25              		.type	UpdateDisplay, %function
  26              	UpdateDisplay:
  27              	.LFB561:
  28              		.file 1 "TasksInterface.c"
   1:TasksInterface.c **** #include "project.h"
   2:TasksInterface.c **** #include "FreeRTOS.h"
   3:TasksInterface.c **** #include "task.h"
   4:TasksInterface.c **** #include "semphr.h"
   5:TasksInterface.c **** #include "queue.h"
   6:TasksInterface.c **** #include "GUI.h"
   7:TasksInterface.c **** #include "pervasive_eink_hardware_driver.h"
   8:TasksInterface.c **** #include "cy_eink_library.h"
   9:TasksInterface.c **** #include "LCDConf.h"
  10:TasksInterface.c **** #include <stdlib.h>
  11:TasksInterface.c **** #include "math.h"
  12:TasksInterface.c **** #include "TasksInterface.h"
  13:TasksInterface.c **** 
  14:TasksInterface.c **** //---------------------------------------------------- Fonctions d'affichage / Fonctions appelées 
  15:TasksInterface.c **** 
  16:TasksInterface.c **** // 1)Fonction pour mettre à jour l'écran
  17:TasksInterface.c **** uint8 imageBufferCache[CY_EINK_FRAME_SIZE] = {0};
  18:TasksInterface.c **** void UpdateDisplay(cy_eink_update_t updateMethod, bool powerCycle)
  19:TasksInterface.c **** {
  29              		.loc 1 19 0
  30              		.cfi_startproc
  31              		@ args = 0, pretend = 0, frame = 0
  32              		@ frame_needed = 0, uses_anonymous_args = 0
  33              	.LVL0:
  34 0000 F8B5     		push	{r3, r4, r5, r6, r7, lr}
  35              		.cfi_def_cfa_offset 24
  36              		.cfi_offset 3, -24
  37              		.cfi_offset 4, -20
  38              		.cfi_offset 5, -16
ARM GAS  C:\Users\vicpa\AppData\Local\Temp\ccqS0gg1.s 			page 2


  39              		.cfi_offset 6, -12
  40              		.cfi_offset 7, -8
  41              		.cfi_offset 14, -4
  42 0002 0646     		mov	r6, r0
  43 0004 0F46     		mov	r7, r1
  20:TasksInterface.c ****     cy_eink_frame_t* pEmwinBuffer;
  21:TasksInterface.c ****     pEmwinBuffer = (cy_eink_frame_t*)LCD_GetDisplayBuffer();
  44              		.loc 1 21 0
  45 0006 FFF7FEFF 		bl	LCD_GetDisplayBuffer
  46              	.LVL1:
  47 000a 0546     		mov	r5, r0
  48              	.LVL2:
  22:TasksInterface.c ****     Cy_EINK_ShowFrame(imageBufferCache, pEmwinBuffer, updateMethod, powerCycle);
  49              		.loc 1 22 0
  50 000c 064C     		ldr	r4, .L3
  51 000e 3B46     		mov	r3, r7
  52 0010 3246     		mov	r2, r6
  53 0012 0146     		mov	r1, r0
  54 0014 2046     		mov	r0, r4
  55              	.LVL3:
  56 0016 FFF7FEFF 		bl	Cy_EINK_ShowFrame
  57              	.LVL4:
  23:TasksInterface.c ****     memcpy(imageBufferCache, pEmwinBuffer, CY_EINK_FRAME_SIZE);
  58              		.loc 1 23 0
  59 001a 41F2B062 		movw	r2, #5808
  60 001e 2946     		mov	r1, r5
  61 0020 2046     		mov	r0, r4
  62 0022 FFF7FEFF 		bl	memcpy
  63              	.LVL5:
  64 0026 F8BD     		pop	{r3, r4, r5, r6, r7, pc}
  65              	.LVL6:
  66              	.L4:
  67              		.align	2
  68              	.L3:
  69 0028 00000000 		.word	.LANCHOR0
  70              		.cfi_endproc
  71              	.LFE561:
  72              		.size	UpdateDisplay, .-UpdateDisplay
  73              		.section	.text.ClearScreen,"ax",%progbits
  74              		.align	2
  75              		.global	ClearScreen
  76              		.thumb
  77              		.thumb_func
  78              		.type	ClearScreen, %function
  79              	ClearScreen:
  80              	.LFB562:
  24:TasksInterface.c **** }
  25:TasksInterface.c **** 
  26:TasksInterface.c **** // 2)Fonction pour effacer l'écran
  27:TasksInterface.c **** void ClearScreen(void)
  28:TasksInterface.c **** {
  81              		.loc 1 28 0
  82              		.cfi_startproc
  83              		@ args = 0, pretend = 0, frame = 0
  84              		@ frame_needed = 0, uses_anonymous_args = 0
  85 0000 08B5     		push	{r3, lr}
  86              		.cfi_def_cfa_offset 8
ARM GAS  C:\Users\vicpa\AppData\Local\Temp\ccqS0gg1.s 			page 3


  87              		.cfi_offset 3, -8
  88              		.cfi_offset 14, -4
  29:TasksInterface.c ****     GUI_SetColor(GUI_BLACK);
  89              		.loc 1 29 0
  90 0002 0020     		movs	r0, #0
  91 0004 FFF7FEFF 		bl	GUI_SetColor
  92              	.LVL7:
  30:TasksInterface.c ****     GUI_SetBkColor(GUI_WHITE);
  93              		.loc 1 30 0
  94 0008 6FF07F40 		mvn	r0, #-16777216
  95 000c FFF7FEFF 		bl	GUI_SetBkColor
  96              	.LVL8:
  31:TasksInterface.c ****     GUI_Clear();
  97              		.loc 1 31 0
  98 0010 FFF7FEFF 		bl	GUI_Clear
  99              	.LVL9:
  32:TasksInterface.c ****     UpdateDisplay(CY_EINK_FULL_4STAGE, true);
 100              		.loc 1 32 0
 101 0014 0121     		movs	r1, #1
 102 0016 0846     		mov	r0, r1
 103 0018 FFF7FEFF 		bl	UpdateDisplay
 104              	.LVL10:
 105 001c 08BD     		pop	{r3, pc}
 106              		.cfi_endproc
 107              	.LFE562:
 108              		.size	ClearScreen, .-ClearScreen
 109              		.global	__aeabi_f2d
 110              		.global	__aeabi_d2iz
 111 001e 00BF     		.section	.text.drawGraph,"ax",%progbits
 112              		.align	2
 113              		.global	drawGraph
 114              		.thumb
 115              		.thumb_func
 116              		.type	drawGraph, %function
 117              	drawGraph:
 118              	.LFB563:
  33:TasksInterface.c **** }
  34:TasksInterface.c **** 
  35:TasksInterface.c **** // 3)Fonction pour tracer le graphe d'un vecteur de 750 éléments
  36:TasksInterface.c **** void drawGraph(float *vector750elements) 
  37:TasksInterface.c **** {
 119              		.loc 1 37 0
 120              		.cfi_startproc
 121              		@ args = 0, pretend = 0, frame = 1000
 122              		@ frame_needed = 0, uses_anonymous_args = 0
 123              	.LVL11:
 124 0000 70B5     		push	{r4, r5, r6, lr}
 125              		.cfi_def_cfa_offset 16
 126              		.cfi_offset 4, -16
 127              		.cfi_offset 5, -12
 128              		.cfi_offset 6, -8
 129              		.cfi_offset 14, -4
 130 0002 2DED028B 		vpush.64	{d8}
 131              		.cfi_def_cfa_offset 24
 132              		.cfi_offset 80, -24
 133              		.cfi_offset 81, -20
 134 0006 ADF57A7D 		sub	sp, sp, #1000
ARM GAS  C:\Users\vicpa\AppData\Local\Temp\ccqS0gg1.s 			page 4


 135              		.cfi_def_cfa_offset 1024
 136              	.LVL12:
 137              	.LBB6:
  38:TasksInterface.c ****     int x=0; uint32_t max=0;
  39:TasksInterface.c ****     float vector250elements[250];
  40:TasksInterface.c ****     for (int i=0; i < 250; i++)
 138              		.loc 1 40 0
 139 000a 0023     		movs	r3, #0
 140              	.LBE6:
  38:TasksInterface.c ****     int x=0; uint32_t max=0;
 141              		.loc 1 38 0
 142 000c 08EE903A 		vmov	s17, r3	@ int
 143              	.LBB7:
 144              		.loc 1 40 0
 145 0010 13E0     		b	.L8
 146              	.LVL13:
 147              	.L11:
  41:TasksInterface.c ****     {
  42:TasksInterface.c ****         vector250elements[i]=vector750elements[3*i];
 148              		.loc 1 42 0
 149 0012 03EB4301 		add	r1, r3, r3, lsl #1
 150 0016 8A00     		lsls	r2, r1, #2
 151 0018 0244     		add	r2, r2, r0
 152 001a D2ED007A 		vldr.32	s15, [r2]
 153 001e 0DEB8302 		add	r2, sp, r3, lsl #2
 154 0022 C2ED007A 		vstr.32	s15, [r2]
  43:TasksInterface.c ****         if (vector250elements[i]>max){
 155              		.loc 1 43 0
 156 0026 B8EE687A 		vcvt.f32.u32	s14, s17
 157 002a F4EEC77A 		vcmpe.f32	s15, s14
 158 002e F1EE10FA 		vmrs	APSR_nzcv, FPSCR
 159 0032 01DD     		ble	.L9
  44:TasksInterface.c ****             max=vector250elements[i];
 160              		.loc 1 44 0
 161 0034 FCEEE78A 		vcvt.u32.f32	s17, s15
 162              	.LVL14:
 163              	.L9:
  40:TasksInterface.c ****     {
 164              		.loc 1 40 0 discriminator 2
 165 0038 0133     		adds	r3, r3, #1
 166              	.LVL15:
 167              	.L8:
  40:TasksInterface.c ****     {
 168              		.loc 1 40 0 is_stmt 0 discriminator 1
 169 003a F92B     		cmp	r3, #249
 170 003c E9DD     		ble	.L11
 171 003e 0024     		movs	r4, #0
 172 0040 2546     		mov	r5, r4
 173 0042 2DE0     		b	.L12
 174              	.LVL16:
 175              	.L14:
 176              	.LBE7:
 177              	.LBB8:
 178              	.LBB9:
  45:TasksInterface.c ****         }
  46:TasksInterface.c ****     }
  47:TasksInterface.c ****     for (int i=0; i < 250; i++)
ARM GAS  C:\Users\vicpa\AppData\Local\Temp\ccqS0gg1.s 			page 5


  48:TasksInterface.c ****     {
  49:TasksInterface.c ****         int y0=round((vector250elements[i])/max); 
 179              		.loc 1 49 0 is_stmt 1
 180 0044 0DEB8403 		add	r3, sp, r4, lsl #2
 181 0048 D3ED007A 		vldr.32	s15, [r3]
 182 004c B8EE688A 		vcvt.f32.u32	s16, s17
 183 0050 87EE887A 		vdiv.f32	s14, s15, s16
 184 0054 17EE100A 		vmov	r0, s14
 185 0058 FFF7FEFF 		bl	__aeabi_f2d
 186              	.LVL17:
 187 005c FFF7FEFF 		bl	round
 188              	.LVL18:
 189 0060 FFF7FEFF 		bl	__aeabi_d2iz
 190              	.LVL19:
 191 0064 0646     		mov	r6, r0
 192              	.LVL20:
  50:TasksInterface.c ****         GUI_DrawPoint(x,y0); 
 193              		.loc 1 50 0
 194 0066 0146     		mov	r1, r0
 195 0068 2846     		mov	r0, r5
 196              	.LVL21:
 197 006a FFF7FEFF 		bl	GUI_DrawPoint
 198              	.LVL22:
  51:TasksInterface.c ****         if (i<249)
 199              		.loc 1 51 0
 200 006e F82C     		cmp	r4, #248
 201 0070 14DC     		bgt	.L13
 202              	.LBB10:
  52:TasksInterface.c ****         {
  53:TasksInterface.c ****             int y1=round((vector250elements[i+1])/max);
 203              		.loc 1 53 0
 204 0072 631C     		adds	r3, r4, #1
 205 0074 0DEB8303 		add	r3, sp, r3, lsl #2
 206 0078 D3ED007A 		vldr.32	s15, [r3]
 207 007c 87EE887A 		vdiv.f32	s14, s15, s16
 208 0080 17EE100A 		vmov	r0, s14
 209 0084 FFF7FEFF 		bl	__aeabi_f2d
 210              	.LVL23:
 211 0088 FFF7FEFF 		bl	round
 212              	.LVL24:
 213 008c FFF7FEFF 		bl	__aeabi_d2iz
 214              	.LVL25:
  54:TasksInterface.c ****             GUI_DrawLine(x,y0,(x+1),y1); 
 215              		.loc 1 54 0
 216 0090 0346     		mov	r3, r0
 217 0092 6A1C     		adds	r2, r5, #1
 218 0094 3146     		mov	r1, r6
 219 0096 2846     		mov	r0, r5
 220              	.LVL26:
 221 0098 FFF7FEFF 		bl	GUI_DrawLine
 222              	.LVL27:
 223              	.L13:
 224              	.LBE10:
  55:TasksInterface.c ****         }
  56:TasksInterface.c ****         x++;   
 225              		.loc 1 56 0 discriminator 2
 226 009c 0135     		adds	r5, r5, #1
ARM GAS  C:\Users\vicpa\AppData\Local\Temp\ccqS0gg1.s 			page 6


 227              	.LVL28:
 228              	.LBE9:
  47:TasksInterface.c ****     {
 229              		.loc 1 47 0 discriminator 2
 230 009e 0134     		adds	r4, r4, #1
 231              	.LVL29:
 232              	.L12:
  47:TasksInterface.c ****     {
 233              		.loc 1 47 0 is_stmt 0 discriminator 1
 234 00a0 F92C     		cmp	r4, #249
 235 00a2 CFDD     		ble	.L14
 236              	.LBE8:
  57:TasksInterface.c ****     }
  58:TasksInterface.c ****     UpdateDisplay(CY_EINK_FULL_4STAGE, true);
 237              		.loc 1 58 0 is_stmt 1
 238 00a4 0121     		movs	r1, #1
 239 00a6 0846     		mov	r0, r1
 240 00a8 FFF7FEFF 		bl	UpdateDisplay
 241              	.LVL30:
  59:TasksInterface.c **** }
 242              		.loc 1 59 0
 243 00ac 0DF57A7D 		add	sp, sp, #1000
 244              		.cfi_def_cfa_offset 24
 245              		@ sp needed
 246 00b0 BDEC028B 		vldm	sp!, {d8}
 247              		.cfi_restore 80
 248              		.cfi_restore 81
 249              		.cfi_def_cfa_offset 16
 250 00b4 70BD     		pop	{r4, r5, r6, pc}
 251              		.cfi_endproc
 252              	.LFE563:
 253              		.size	drawGraph, .-drawGraph
 254 00b6 00BF     		.section	.text.updateParameters,"ax",%progbits
 255              		.align	2
 256              		.global	updateParameters
 257              		.thumb
 258              		.thumb_func
 259              		.type	updateParameters, %function
 260              	updateParameters:
 261              	.LFB564:
  60:TasksInterface.c **** 
  61:TasksInterface.c **** // 4)Fonction pour afficher des données à jour (param1 et param2) sur l'écran
  62:TasksInterface.c **** void updateParameters(int param1, int param2) 
  63:TasksInterface.c **** {
 262              		.loc 1 63 0
 263              		.cfi_startproc
 264              		@ args = 0, pretend = 0, frame = 16
 265              		@ frame_needed = 0, uses_anonymous_args = 0
 266              	.LVL31:
 267 0000 30B5     		push	{r4, r5, lr}
 268              		.cfi_def_cfa_offset 12
 269              		.cfi_offset 4, -12
 270              		.cfi_offset 5, -8
 271              		.cfi_offset 14, -4
 272 0002 85B0     		sub	sp, sp, #20
 273              		.cfi_def_cfa_offset 32
 274 0004 0D46     		mov	r5, r1
ARM GAS  C:\Users\vicpa\AppData\Local\Temp\ccqS0gg1.s 			page 7


  64:TasksInterface.c ****     char Parametre1[6]; char Parametre2[6];
  65:TasksInterface.c ****     sprintf(Parametre1,"%d",param1); sprintf(Parametre2,"%d",param2); 
 275              		.loc 1 65 0
 276 0006 1F4C     		ldr	r4, .L19
 277 0008 0246     		mov	r2, r0
 278 000a 2146     		mov	r1, r4
 279              	.LVL32:
 280 000c 02A8     		add	r0, sp, #8
 281              	.LVL33:
 282 000e FFF7FEFF 		bl	sprintf
 283              	.LVL34:
 284 0012 2A46     		mov	r2, r5
 285 0014 2146     		mov	r1, r4
 286 0016 6846     		mov	r0, sp
 287 0018 FFF7FEFF 		bl	sprintf
 288              	.LVL35:
  66:TasksInterface.c ****     GUI_SetPenSize(8); GUI_DrawRect(10,155,255,175); 
 289              		.loc 1 66 0
 290 001c 0820     		movs	r0, #8
 291 001e FFF7FEFF 		bl	GUI_SetPenSize
 292              	.LVL36:
 293 0022 AF23     		movs	r3, #175
 294 0024 FF22     		movs	r2, #255
 295 0026 9B21     		movs	r1, #155
 296 0028 0A20     		movs	r0, #10
 297 002a FFF7FEFF 		bl	GUI_DrawRect
 298              	.LVL37:
  67:TasksInterface.c ****     GUI_SetPenSize(6); GUI_SetFont(GUI_FONT_10_1); 
 299              		.loc 1 67 0
 300 002e 0620     		movs	r0, #6
 301 0030 FFF7FEFF 		bl	GUI_SetPenSize
 302              	.LVL38:
 303 0034 1448     		ldr	r0, .L19+4
 304 0036 FFF7FEFF 		bl	GUI_SetFont
 305              	.LVL39:
  68:TasksInterface.c ****     GUI_DispStringAt("Oxygen saturation:",20,160); GUI_DispStringAt(Parametre1,90,160); GUI_DispStr
 306              		.loc 1 68 0
 307 003a A022     		movs	r2, #160
 308 003c 1421     		movs	r1, #20
 309 003e 1348     		ldr	r0, .L19+8
 310 0040 FFF7FEFF 		bl	GUI_DispStringAt
 311              	.LVL40:
 312 0044 A022     		movs	r2, #160
 313 0046 5A21     		movs	r1, #90
 314 0048 02A8     		add	r0, sp, #8
 315 004a FFF7FEFF 		bl	GUI_DispStringAt
 316              	.LVL41:
 317 004e A022     		movs	r2, #160
 318 0050 6421     		movs	r1, #100
 319 0052 0F48     		ldr	r0, .L19+12
 320 0054 FFF7FEFF 		bl	GUI_DispStringAt
 321              	.LVL42:
  69:TasksInterface.c ****     GUI_DispStringAt("Heart rate:",150,160); GUI_DispStringAt(Parametre2,210,160); GUI_DispStringAt
 322              		.loc 1 69 0
 323 0058 A022     		movs	r2, #160
 324 005a 9621     		movs	r1, #150
 325 005c 0D48     		ldr	r0, .L19+16
ARM GAS  C:\Users\vicpa\AppData\Local\Temp\ccqS0gg1.s 			page 8


 326 005e FFF7FEFF 		bl	GUI_DispStringAt
 327              	.LVL43:
 328 0062 A022     		movs	r2, #160
 329 0064 D221     		movs	r1, #210
 330 0066 6846     		mov	r0, sp
 331 0068 FFF7FEFF 		bl	GUI_DispStringAt
 332              	.LVL44:
 333 006c A022     		movs	r2, #160
 334 006e E621     		movs	r1, #230
 335 0070 0948     		ldr	r0, .L19+20
 336 0072 FFF7FEFF 		bl	GUI_DispStringAt
 337              	.LVL45:
  70:TasksInterface.c ****     UpdateDisplay(CY_EINK_FULL_4STAGE, true); 
 338              		.loc 1 70 0
 339 0076 0121     		movs	r1, #1
 340 0078 0846     		mov	r0, r1
 341 007a FFF7FEFF 		bl	UpdateDisplay
 342              	.LVL46:
  71:TasksInterface.c **** }
 343              		.loc 1 71 0
 344 007e 05B0     		add	sp, sp, #20
 345              		.cfi_def_cfa_offset 12
 346              		@ sp needed
 347 0080 30BD     		pop	{r4, r5, pc}
 348              	.LVL47:
 349              	.L20:
 350 0082 00BF     		.align	2
 351              	.L19:
 352 0084 00000000 		.word	.LC0
 353 0088 00000000 		.word	GUI_Font10_1
 354 008c 04000000 		.word	.LC1
 355 0090 18000000 		.word	.LC2
 356 0094 1C000000 		.word	.LC3
 357 0098 28000000 		.word	.LC4
 358              		.cfi_endproc
 359              	.LFE564:
 360              		.size	updateParameters, .-updateParameters
 361              		.section	.text.updateLowHeartRateLimit,"ax",%progbits
 362              		.align	2
 363              		.global	updateLowHeartRateLimit
 364              		.thumb
 365              		.thumb_func
 366              		.type	updateLowHeartRateLimit, %function
 367              	updateLowHeartRateLimit:
 368              	.LFB565:
  72:TasksInterface.c **** 
  73:TasksInterface.c **** // 5)Fonction pour afficher la valeur inférieure du rythme cardiaque définie par l'utilisateur
  74:TasksInterface.c **** void updateLowHeartRateLimit(int HeartRate)
  75:TasksInterface.c **** {
 369              		.loc 1 75 0
 370              		.cfi_startproc
 371              		@ args = 0, pretend = 0, frame = 8
 372              		@ frame_needed = 0, uses_anonymous_args = 0
 373              	.LVL48:
 374 0000 10B5     		push	{r4, lr}
 375              		.cfi_def_cfa_offset 8
 376              		.cfi_offset 4, -8
ARM GAS  C:\Users\vicpa\AppData\Local\Temp\ccqS0gg1.s 			page 9


 377              		.cfi_offset 14, -4
 378 0002 82B0     		sub	sp, sp, #8
 379              		.cfi_def_cfa_offset 16
 380 0004 0446     		mov	r4, r0
  76:TasksInterface.c ****     ClearScreen();
 381              		.loc 1 76 0
 382 0006 FFF7FEFF 		bl	ClearScreen
 383              	.LVL49:
  77:TasksInterface.c ****     char HeartRateLow[6];
  78:TasksInterface.c ****     sprintf(HeartRateLow,"%d",HeartRate);
 384              		.loc 1 78 0
 385 000a 2246     		mov	r2, r4
 386 000c 0F49     		ldr	r1, .L23
 387 000e 6846     		mov	r0, sp
 388 0010 FFF7FEFF 		bl	sprintf
 389              	.LVL50:
  79:TasksInterface.c ****     GUI_SetPenSize(18); GUI_SetFont(GUI_FONT_24_1); 
 390              		.loc 1 79 0
 391 0014 1220     		movs	r0, #18
 392 0016 FFF7FEFF 		bl	GUI_SetPenSize
 393              	.LVL51:
 394 001a 0D48     		ldr	r0, .L23+4
 395 001c FFF7FEFF 		bl	GUI_SetFont
 396              	.LVL52:
  80:TasksInterface.c ****     GUI_DispStringAt(HeartRateLow,115,90); 
 397              		.loc 1 80 0
 398 0020 5A22     		movs	r2, #90
 399 0022 7321     		movs	r1, #115
 400 0024 6846     		mov	r0, sp
 401 0026 FFF7FEFF 		bl	GUI_DispStringAt
 402              	.LVL53:
  81:TasksInterface.c ****     GUI_SetPenSize(7); GUI_SetFont(GUI_FONT_13_1); 
 403              		.loc 1 81 0
 404 002a 0720     		movs	r0, #7
 405 002c FFF7FEFF 		bl	GUI_SetPenSize
 406              	.LVL54:
 407 0030 0848     		ldr	r0, .L23+8
 408 0032 FFF7FEFF 		bl	GUI_SetFont
 409              	.LVL55:
  82:TasksInterface.c ****     GUI_DispStringAt("Low heart rate limit",80,20);
 410              		.loc 1 82 0
 411 0036 1422     		movs	r2, #20
 412 0038 5021     		movs	r1, #80
 413 003a 0748     		ldr	r0, .L23+12
 414 003c FFF7FEFF 		bl	GUI_DispStringAt
 415              	.LVL56:
  83:TasksInterface.c ****     UpdateDisplay(CY_EINK_FULL_4STAGE, true);
 416              		.loc 1 83 0
 417 0040 0121     		movs	r1, #1
 418 0042 0846     		mov	r0, r1
 419 0044 FFF7FEFF 		bl	UpdateDisplay
 420              	.LVL57:
  84:TasksInterface.c **** }
 421              		.loc 1 84 0
 422 0048 02B0     		add	sp, sp, #8
 423              		.cfi_def_cfa_offset 8
 424              		@ sp needed
ARM GAS  C:\Users\vicpa\AppData\Local\Temp\ccqS0gg1.s 			page 10


 425 004a 10BD     		pop	{r4, pc}
 426              	.LVL58:
 427              	.L24:
 428              		.align	2
 429              	.L23:
 430 004c 00000000 		.word	.LC0
 431 0050 00000000 		.word	GUI_Font24_1
 432 0054 00000000 		.word	GUI_Font13_1
 433 0058 2C000000 		.word	.LC5
 434              		.cfi_endproc
 435              	.LFE565:
 436              		.size	updateLowHeartRateLimit, .-updateLowHeartRateLimit
 437              		.section	.text.updateHighHeartRateLimit,"ax",%progbits
 438              		.align	2
 439              		.global	updateHighHeartRateLimit
 440              		.thumb
 441              		.thumb_func
 442              		.type	updateHighHeartRateLimit, %function
 443              	updateHighHeartRateLimit:
 444              	.LFB566:
  85:TasksInterface.c **** 
  86:TasksInterface.c **** // 6)Fonction pour afficher la valeur supérieure du rythme cardiaque définie par l'utilisatuer
  87:TasksInterface.c **** void updateHighHeartRateLimit(int HeartRate)
  88:TasksInterface.c **** {
 445              		.loc 1 88 0
 446              		.cfi_startproc
 447              		@ args = 0, pretend = 0, frame = 8
 448              		@ frame_needed = 0, uses_anonymous_args = 0
 449              	.LVL59:
 450 0000 10B5     		push	{r4, lr}
 451              		.cfi_def_cfa_offset 8
 452              		.cfi_offset 4, -8
 453              		.cfi_offset 14, -4
 454 0002 82B0     		sub	sp, sp, #8
 455              		.cfi_def_cfa_offset 16
 456 0004 0446     		mov	r4, r0
  89:TasksInterface.c ****     ClearScreen();
 457              		.loc 1 89 0
 458 0006 FFF7FEFF 		bl	ClearScreen
 459              	.LVL60:
  90:TasksInterface.c ****     char HeartRateHigh[6];
  91:TasksInterface.c ****     sprintf(HeartRateHigh,"%d",HeartRate);
 460              		.loc 1 91 0
 461 000a 2246     		mov	r2, r4
 462 000c 0F49     		ldr	r1, .L27
 463 000e 6846     		mov	r0, sp
 464 0010 FFF7FEFF 		bl	sprintf
 465              	.LVL61:
  92:TasksInterface.c ****     GUI_SetPenSize(18); GUI_SetFont(GUI_FONT_24_1); 
 466              		.loc 1 92 0
 467 0014 1220     		movs	r0, #18
 468 0016 FFF7FEFF 		bl	GUI_SetPenSize
 469              	.LVL62:
 470 001a 0D48     		ldr	r0, .L27+4
 471 001c FFF7FEFF 		bl	GUI_SetFont
 472              	.LVL63:
  93:TasksInterface.c ****     GUI_DispStringAt(HeartRateHigh,115,90); 
ARM GAS  C:\Users\vicpa\AppData\Local\Temp\ccqS0gg1.s 			page 11


 473              		.loc 1 93 0
 474 0020 5A22     		movs	r2, #90
 475 0022 7321     		movs	r1, #115
 476 0024 6846     		mov	r0, sp
 477 0026 FFF7FEFF 		bl	GUI_DispStringAt
 478              	.LVL64:
  94:TasksInterface.c ****     GUI_SetPenSize(7); GUI_SetFont(GUI_FONT_13_1); 
 479              		.loc 1 94 0
 480 002a 0720     		movs	r0, #7
 481 002c FFF7FEFF 		bl	GUI_SetPenSize
 482              	.LVL65:
 483 0030 0848     		ldr	r0, .L27+8
 484 0032 FFF7FEFF 		bl	GUI_SetFont
 485              	.LVL66:
  95:TasksInterface.c ****     GUI_DispStringAt("High heart rate limit",80,20);
 486              		.loc 1 95 0
 487 0036 1422     		movs	r2, #20
 488 0038 5021     		movs	r1, #80
 489 003a 0748     		ldr	r0, .L27+12
 490 003c FFF7FEFF 		bl	GUI_DispStringAt
 491              	.LVL67:
  96:TasksInterface.c ****     UpdateDisplay(CY_EINK_FULL_4STAGE, true);
 492              		.loc 1 96 0
 493 0040 0121     		movs	r1, #1
 494 0042 0846     		mov	r0, r1
 495 0044 FFF7FEFF 		bl	UpdateDisplay
 496              	.LVL68:
  97:TasksInterface.c **** }
 497              		.loc 1 97 0
 498 0048 02B0     		add	sp, sp, #8
 499              		.cfi_def_cfa_offset 8
 500              		@ sp needed
 501 004a 10BD     		pop	{r4, pc}
 502              	.LVL69:
 503              	.L28:
 504              		.align	2
 505              	.L27:
 506 004c 00000000 		.word	.LC0
 507 0050 00000000 		.word	GUI_Font24_1
 508 0054 00000000 		.word	GUI_Font13_1
 509 0058 44000000 		.word	.LC6
 510              		.cfi_endproc
 511              	.LFE566:
 512              		.size	updateHighHeartRateLimit, .-updateHighHeartRateLimit
 513              		.section	.text.DisplayPage,"ax",%progbits
 514              		.align	2
 515              		.global	DisplayPage
 516              		.thumb
 517              		.thumb_func
 518              		.type	DisplayPage, %function
 519              	DisplayPage:
 520              	.LFB567:
  98:TasksInterface.c **** 
  99:TasksInterface.c **** // 7)Fonction pour afficher la page actuelle et le curseur définissant le paramètre à modifier d
 100:TasksInterface.c **** void DisplayPage(int PageNumber, int ParamP1, int ParamP2){
 521              		.loc 1 100 0
 522              		.cfi_startproc
ARM GAS  C:\Users\vicpa\AppData\Local\Temp\ccqS0gg1.s 			page 12


 523              		@ args = 0, pretend = 0, frame = 0
 524              		@ frame_needed = 0, uses_anonymous_args = 0
 525              	.LVL70:
 526 0000 70B5     		push	{r4, r5, r6, lr}
 527              		.cfi_def_cfa_offset 16
 528              		.cfi_offset 4, -16
 529              		.cfi_offset 5, -12
 530              		.cfi_offset 6, -8
 531              		.cfi_offset 14, -4
 532 0002 0446     		mov	r4, r0
 533 0004 0E46     		mov	r6, r1
 534 0006 1546     		mov	r5, r2
 101:TasksInterface.c ****     ClearScreen();
 535              		.loc 1 101 0
 536 0008 FFF7FEFF 		bl	ClearScreen
 537              	.LVL71:
 102:TasksInterface.c ****     GUI_SetPenSize(7); GUI_SetFont(GUI_FONT_13_1);
 538              		.loc 1 102 0
 539 000c 0720     		movs	r0, #7
 540 000e FFF7FEFF 		bl	GUI_SetPenSize
 541              	.LVL72:
 542 0012 2848     		ldr	r0, .L36
 543 0014 FFF7FEFF 		bl	GUI_SetFont
 544              	.LVL73:
 103:TasksInterface.c ****     if (PageNumber==0)
 545              		.loc 1 103 0
 546 0018 4CB9     		cbnz	r4, .L30
 104:TasksInterface.c ****     {
 105:TasksInterface.c ****         GUI_DispStringAt("Press SW2 to show graphs",20,20);
 547              		.loc 1 105 0
 548 001a 1422     		movs	r2, #20
 549 001c 1146     		mov	r1, r2
 550 001e 2648     		ldr	r0, .L36+4
 551 0020 FFF7FEFF 		bl	GUI_DispStringAt
 552              	.LVL74:
 106:TasksInterface.c ****         GUI_DispStringAt("Use the CapSense buttons to modify parameters",20,50);
 553              		.loc 1 106 0
 554 0024 3222     		movs	r2, #50
 555 0026 1421     		movs	r1, #20
 556 0028 2448     		ldr	r0, .L36+8
 557 002a FFF7FEFF 		bl	GUI_DispStringAt
 558              	.LVL75:
 559              	.L30:
 107:TasksInterface.c ****     }
 108:TasksInterface.c ****     if (PageNumber==1)
 560              		.loc 1 108 0
 561 002e 012C     		cmp	r4, #1
 562 0030 1CD1     		bne	.L31
 109:TasksInterface.c ****     {
 110:TasksInterface.c ****         GUI_DispStringAt("Parameters page 1",80,0);
 563              		.loc 1 110 0
 564 0032 0022     		movs	r2, #0
 565 0034 5021     		movs	r1, #80
 566 0036 2248     		ldr	r0, .L36+12
 567 0038 FFF7FEFF 		bl	GUI_DispStringAt
 568              	.LVL76:
 111:TasksInterface.c ****         GUI_DispStringAt("1)Change LED intensity",30,50);
ARM GAS  C:\Users\vicpa\AppData\Local\Temp\ccqS0gg1.s 			page 13


 569              		.loc 1 111 0
 570 003c 3222     		movs	r2, #50
 571 003e 1E21     		movs	r1, #30
 572 0040 2048     		ldr	r0, .L36+16
 573 0042 FFF7FEFF 		bl	GUI_DispStringAt
 574              	.LVL77:
 112:TasksInterface.c ****         GUI_DispStringAt("2)Enable/Disable motion sensor alarm",30,80);
 575              		.loc 1 112 0
 576 0046 5022     		movs	r2, #80
 577 0048 1E21     		movs	r1, #30
 578 004a 1F48     		ldr	r0, .L36+20
 579 004c FFF7FEFF 		bl	GUI_DispStringAt
 580              	.LVL78:
 113:TasksInterface.c ****         if (ParamP1==1)
 581              		.loc 1 113 0
 582 0050 012E     		cmp	r6, #1
 583 0052 04D1     		bne	.L32
 114:TasksInterface.c ****         {
 115:TasksInterface.c ****             GUI_DrawCircle(15,55,5);
 584              		.loc 1 115 0
 585 0054 0522     		movs	r2, #5
 586 0056 3721     		movs	r1, #55
 587 0058 0F20     		movs	r0, #15
 588 005a FFF7FEFF 		bl	GUI_DrawCircle
 589              	.LVL79:
 590              	.L32:
 116:TasksInterface.c ****         }
 117:TasksInterface.c ****         if (ParamP1==2)
 591              		.loc 1 117 0
 592 005e 022E     		cmp	r6, #2
 593 0060 04D1     		bne	.L31
 118:TasksInterface.c ****         {
 119:TasksInterface.c ****             GUI_DrawCircle(15,85,5);
 594              		.loc 1 119 0
 595 0062 0522     		movs	r2, #5
 596 0064 5521     		movs	r1, #85
 597 0066 0F20     		movs	r0, #15
 598 0068 FFF7FEFF 		bl	GUI_DrawCircle
 599              	.LVL80:
 600              	.L31:
 120:TasksInterface.c ****         }
 121:TasksInterface.c ****     }
 122:TasksInterface.c ****     if (PageNumber==2)
 601              		.loc 1 122 0
 602 006c 022C     		cmp	r4, #2
 603 006e 1CD1     		bne	.L33
 123:TasksInterface.c ****     {
 124:TasksInterface.c ****         
 125:TasksInterface.c ****         GUI_DispStringAt("Parameters page 2",80,0);
 604              		.loc 1 125 0
 605 0070 0022     		movs	r2, #0
 606 0072 5021     		movs	r1, #80
 607 0074 1548     		ldr	r0, .L36+24
 608 0076 FFF7FEFF 		bl	GUI_DispStringAt
 609              	.LVL81:
 126:TasksInterface.c ****         GUI_DispStringAt("1)Set low heart rate limit",30,50);
 610              		.loc 1 126 0
ARM GAS  C:\Users\vicpa\AppData\Local\Temp\ccqS0gg1.s 			page 14


 611 007a 3222     		movs	r2, #50
 612 007c 1E21     		movs	r1, #30
 613 007e 1448     		ldr	r0, .L36+28
 614 0080 FFF7FEFF 		bl	GUI_DispStringAt
 615              	.LVL82:
 127:TasksInterface.c ****         GUI_DispStringAt("2)Set high heart rate limit",30,80);
 616              		.loc 1 127 0
 617 0084 5022     		movs	r2, #80
 618 0086 1E21     		movs	r1, #30
 619 0088 1248     		ldr	r0, .L36+32
 620 008a FFF7FEFF 		bl	GUI_DispStringAt
 621              	.LVL83:
 128:TasksInterface.c ****         if (ParamP2==1)
 622              		.loc 1 128 0
 623 008e 012D     		cmp	r5, #1
 624 0090 04D1     		bne	.L34
 129:TasksInterface.c ****         {
 130:TasksInterface.c ****             GUI_DrawCircle(15,55,5);
 625              		.loc 1 130 0
 626 0092 0522     		movs	r2, #5
 627 0094 3721     		movs	r1, #55
 628 0096 0F20     		movs	r0, #15
 629 0098 FFF7FEFF 		bl	GUI_DrawCircle
 630              	.LVL84:
 631              	.L34:
 131:TasksInterface.c ****         }
 132:TasksInterface.c ****         if (ParamP2==2)
 632              		.loc 1 132 0
 633 009c 022D     		cmp	r5, #2
 634 009e 04D1     		bne	.L33
 133:TasksInterface.c ****         {
 134:TasksInterface.c ****             GUI_DrawCircle(15,85,5);
 635              		.loc 1 134 0
 636 00a0 0522     		movs	r2, #5
 637 00a2 5521     		movs	r1, #85
 638 00a4 0F20     		movs	r0, #15
 639 00a6 FFF7FEFF 		bl	GUI_DrawCircle
 640              	.LVL85:
 641              	.L33:
 135:TasksInterface.c ****         }
 136:TasksInterface.c ****     }
 137:TasksInterface.c ****     UpdateDisplay(CY_EINK_FULL_4STAGE, true);
 642              		.loc 1 137 0
 643 00aa 0121     		movs	r1, #1
 644 00ac 0846     		mov	r0, r1
 645 00ae FFF7FEFF 		bl	UpdateDisplay
 646              	.LVL86:
 647 00b2 70BD     		pop	{r4, r5, r6, pc}
 648              	.LVL87:
 649              	.L37:
 650              		.align	2
 651              	.L36:
 652 00b4 00000000 		.word	GUI_Font13_1
 653 00b8 5C000000 		.word	.LC7
 654 00bc 78000000 		.word	.LC8
 655 00c0 A8000000 		.word	.LC9
 656 00c4 BC000000 		.word	.LC10
ARM GAS  C:\Users\vicpa\AppData\Local\Temp\ccqS0gg1.s 			page 15


 657 00c8 D4000000 		.word	.LC11
 658 00cc FC000000 		.word	.LC12
 659 00d0 10010000 		.word	.LC13
 660 00d4 2C010000 		.word	.LC14
 661              		.cfi_endproc
 662              	.LFE567:
 663              		.size	DisplayPage, .-DisplayPage
 664              		.section	.text.CapSense_ChangeLedIntensity,"ax",%progbits
 665              		.align	2
 666              		.global	CapSense_ChangeLedIntensity
 667              		.thumb
 668              		.thumb_func
 669              		.type	CapSense_ChangeLedIntensity, %function
 670              	CapSense_ChangeLedIntensity:
 671              	.LFB568:
 138:TasksInterface.c **** }
 139:TasksInterface.c **** 
 140:TasksInterface.c **** // 8)Fonction pour changer l'intensité de la LED du capteur SpO2
 141:TasksInterface.c **** volatile uint32_t SliderPosI=0; volatile bool StopChangeLedIntensity=false; 
 142:TasksInterface.c **** void CapSense_ChangeLedIntensity()
 143:TasksInterface.c **** {      
 672              		.loc 1 143 0
 673              		.cfi_startproc
 674              		@ args = 0, pretend = 0, frame = 0
 675              		@ frame_needed = 0, uses_anonymous_args = 0
 676 0000 08B5     		push	{r3, lr}
 677              		.cfi_def_cfa_offset 8
 678              		.cfi_offset 3, -8
 679              		.cfi_offset 14, -4
 144:TasksInterface.c ****         CapSense_ProcessAllWidgets();
 680              		.loc 1 144 0
 681 0002 FFF7FEFF 		bl	CapSense_ProcessAllWidgets
 682              	.LVL88:
 145:TasksInterface.c ****         SliderPosI=CapSense_GetCentroidPos(CapSense_LINEARSLIDER0_WDGT_ID);
 683              		.loc 1 145 0
 684 0006 0020     		movs	r0, #0
 685 0008 FFF7FEFF 		bl	CapSense_GetCentroidPos
 686              	.LVL89:
 687 000c 0E4B     		ldr	r3, .L42
 688 000e C3F8B805 		str	r0, [r3, #1464]
 146:TasksInterface.c ****         if (SliderPosI<65534)
 689              		.loc 1 146 0
 690 0012 D3F8B825 		ldr	r2, [r3, #1464]
 691 0016 4FF6FD73 		movw	r3, #65533
 692 001a 9A42     		cmp	r2, r3
 693 001c 02D8     		bhi	.L39
 694              	.LBB11:
 147:TasksInterface.c ****         {
 148:TasksInterface.c ****             int Current=2*SliderPosI;
 695              		.loc 1 148 0
 696 001e 0A4B     		ldr	r3, .L42
 697 0020 D3F8B835 		ldr	r3, [r3, #1464]
 698              	.LVL90:
 699              	.L39:
 700              	.LBE11:
 149:TasksInterface.c ****             // Write Register
 150:TasksInterface.c ****         }
ARM GAS  C:\Users\vicpa\AppData\Local\Temp\ccqS0gg1.s 			page 16


 151:TasksInterface.c ****         SliderPosI=0;
 701              		.loc 1 151 0
 702 0024 0022     		movs	r2, #0
 703 0026 084B     		ldr	r3, .L42
 704 0028 C3F8B825 		str	r2, [r3, #1464]
 152:TasksInterface.c ****         CapSense_UpdateAllBaselines();
 705              		.loc 1 152 0
 706 002c FFF7FEFF 		bl	CapSense_UpdateAllBaselines
 707              	.LVL91:
 153:TasksInterface.c ****         CapSense_ScanAllWidgets();
 708              		.loc 1 153 0
 709 0030 FFF7FEFF 		bl	CapSense_ScanAllWidgets
 710              	.LVL92:
 154:TasksInterface.c ****         if (CapSense_IsWidgetActive(CapSense_BUTTON0_WDGT_ID)){
 711              		.loc 1 154 0
 712 0034 0120     		movs	r0, #1
 713 0036 FFF7FEFF 		bl	CapSense_IsWidgetActive
 714              	.LVL93:
 715 003a 18B1     		cbz	r0, .L38
 155:TasksInterface.c ****         StopChangeLedIntensity=true;
 716              		.loc 1 155 0
 717 003c 0122     		movs	r2, #1
 718 003e 024B     		ldr	r3, .L42
 719 0040 83F8BC25 		strb	r2, [r3, #1468]
 720              	.L38:
 721 0044 08BD     		pop	{r3, pc}
 722              	.L43:
 723 0046 00BF     		.align	2
 724              	.L42:
 725 0048 F8100000 		.word	.LANCHOR1
 726              		.cfi_endproc
 727              	.LFE568:
 728              		.size	CapSense_ChangeLedIntensity, .-CapSense_ChangeLedIntensity
 729              		.section	.text.CapSense_ChangeLowHeartRateLimit,"ax",%progbits
 730              		.align	2
 731              		.global	CapSense_ChangeLowHeartRateLimit
 732              		.thumb
 733              		.thumb_func
 734              		.type	CapSense_ChangeLowHeartRateLimit, %function
 735              	CapSense_ChangeLowHeartRateLimit:
 736              	.LFB569:
 156:TasksInterface.c ****         }
 157:TasksInterface.c **** }
 158:TasksInterface.c **** 
 159:TasksInterface.c **** // 9)Fonction pour changer la valeur inférieure du rythme cardiaque définie par l'utilisateur
 160:TasksInterface.c **** volatile int LowHeartRateI=60; volatile int LowHeartRateF=60; volatile uint32_t SliderPosIII=50; vo
 161:TasksInterface.c **** void CapSense_ChangeLowHeartRateLimit()
 162:TasksInterface.c **** {      
 737              		.loc 1 162 0
 738              		.cfi_startproc
 739              		@ args = 0, pretend = 0, frame = 0
 740              		@ frame_needed = 0, uses_anonymous_args = 0
 741 0000 10B5     		push	{r4, lr}
 742              		.cfi_def_cfa_offset 8
 743              		.cfi_offset 4, -8
 744              		.cfi_offset 14, -4
 163:TasksInterface.c ****     CapSense_ProcessAllWidgets();
ARM GAS  C:\Users\vicpa\AppData\Local\Temp\ccqS0gg1.s 			page 17


 745              		.loc 1 163 0
 746 0002 FFF7FEFF 		bl	CapSense_ProcessAllWidgets
 747              	.LVL94:
 164:TasksInterface.c ****     SliderPosIII=CapSense_GetCentroidPos(CapSense_LINEARSLIDER0_WDGT_ID);
 748              		.loc 1 164 0
 749 0006 0020     		movs	r0, #0
 750 0008 FFF7FEFF 		bl	CapSense_GetCentroidPos
 751              	.LVL95:
 752 000c 254B     		ldr	r3, .L52
 753 000e 1860     		str	r0, [r3]
 165:TasksInterface.c ****     if (SliderPosIII<65534&&SliderPosIII>=80)
 754              		.loc 1 165 0
 755 0010 1A68     		ldr	r2, [r3]
 756 0012 4FF6FD73 		movw	r3, #65533
 757 0016 9A42     		cmp	r2, r3
 758 0018 07D8     		bhi	.L45
 759              		.loc 1 165 0 is_stmt 0 discriminator 1
 760 001a 224B     		ldr	r3, .L52
 761 001c 1B68     		ldr	r3, [r3]
 762 001e 4F2B     		cmp	r3, #79
 763 0020 03D9     		bls	.L45
 166:TasksInterface.c ****     {
 167:TasksInterface.c ****         LowHeartRateI=LowHeartRateI+2;
 764              		.loc 1 167 0 is_stmt 1
 765 0022 204A     		ldr	r2, .L52
 766 0024 5368     		ldr	r3, [r2, #4]
 767 0026 0233     		adds	r3, r3, #2
 768 0028 5360     		str	r3, [r2, #4]
 769              	.L45:
 168:TasksInterface.c ****     }
 169:TasksInterface.c ****     if (SliderPosIII<80&&SliderPosIII>50)
 770              		.loc 1 169 0
 771 002a 1E4B     		ldr	r3, .L52
 772 002c 1B68     		ldr	r3, [r3]
 773 002e 4F2B     		cmp	r3, #79
 774 0030 07D8     		bhi	.L46
 775              		.loc 1 169 0 is_stmt 0 discriminator 1
 776 0032 1C4B     		ldr	r3, .L52
 777 0034 1B68     		ldr	r3, [r3]
 778 0036 322B     		cmp	r3, #50
 779 0038 03D9     		bls	.L46
 170:TasksInterface.c ****     {
 171:TasksInterface.c ****         LowHeartRateI++;
 780              		.loc 1 171 0 is_stmt 1
 781 003a 1A4A     		ldr	r2, .L52
 782 003c 5368     		ldr	r3, [r2, #4]
 783 003e 0133     		adds	r3, r3, #1
 784 0040 5360     		str	r3, [r2, #4]
 785              	.L46:
 172:TasksInterface.c ****     }
 173:TasksInterface.c ****     if (SliderPosIII<50&&SliderPosIII>20)
 786              		.loc 1 173 0
 787 0042 184B     		ldr	r3, .L52
 788 0044 1B68     		ldr	r3, [r3]
 789 0046 312B     		cmp	r3, #49
 790 0048 07D8     		bhi	.L47
 791              		.loc 1 173 0 is_stmt 0 discriminator 1
ARM GAS  C:\Users\vicpa\AppData\Local\Temp\ccqS0gg1.s 			page 18


 792 004a 164B     		ldr	r3, .L52
 793 004c 1B68     		ldr	r3, [r3]
 794 004e 142B     		cmp	r3, #20
 795 0050 03D9     		bls	.L47
 174:TasksInterface.c ****     {
 175:TasksInterface.c ****         LowHeartRateI--;
 796              		.loc 1 175 0 is_stmt 1
 797 0052 144A     		ldr	r2, .L52
 798 0054 5368     		ldr	r3, [r2, #4]
 799 0056 013B     		subs	r3, r3, #1
 800 0058 5360     		str	r3, [r2, #4]
 801              	.L47:
 176:TasksInterface.c ****     }
 177:TasksInterface.c ****     if (SliderPosIII<=20)
 802              		.loc 1 177 0
 803 005a 124B     		ldr	r3, .L52
 804 005c 1B68     		ldr	r3, [r3]
 805 005e 142B     		cmp	r3, #20
 806 0060 03D8     		bhi	.L48
 178:TasksInterface.c ****     {
 179:TasksInterface.c ****         LowHeartRateI=LowHeartRateI-2;
 807              		.loc 1 179 0
 808 0062 104A     		ldr	r2, .L52
 809 0064 5368     		ldr	r3, [r2, #4]
 810 0066 023B     		subs	r3, r3, #2
 811 0068 5360     		str	r3, [r2, #4]
 812              	.L48:
 180:TasksInterface.c ****     }
 181:TasksInterface.c ****     SliderPosIII=50;
 813              		.loc 1 181 0
 814 006a 0E4C     		ldr	r4, .L52
 815 006c 3223     		movs	r3, #50
 816 006e 2360     		str	r3, [r4]
 182:TasksInterface.c ****     CapSense_UpdateAllBaselines();
 817              		.loc 1 182 0
 818 0070 FFF7FEFF 		bl	CapSense_UpdateAllBaselines
 819              	.LVL96:
 183:TasksInterface.c ****     CapSense_ScanAllWidgets();
 820              		.loc 1 183 0
 821 0074 FFF7FEFF 		bl	CapSense_ScanAllWidgets
 822              	.LVL97:
 184:TasksInterface.c ****     if (LowHeartRateI != LowHeartRateF)
 823              		.loc 1 184 0
 824 0078 6268     		ldr	r2, [r4, #4]
 825 007a A368     		ldr	r3, [r4, #8]
 826 007c 9A42     		cmp	r2, r3
 827 007e 02D0     		beq	.L49
 185:TasksInterface.c ****     {
 186:TasksInterface.c ****         updateLowHeartRateLimit(LowHeartRateI);
 828              		.loc 1 186 0
 829 0080 6068     		ldr	r0, [r4, #4]
 830 0082 FFF7FEFF 		bl	updateLowHeartRateLimit
 831              	.LVL98:
 832              	.L49:
 187:TasksInterface.c ****     }
 188:TasksInterface.c ****     LowHeartRateF=LowHeartRateI;
 833              		.loc 1 188 0
ARM GAS  C:\Users\vicpa\AppData\Local\Temp\ccqS0gg1.s 			page 19


 834 0086 074B     		ldr	r3, .L52
 835 0088 5A68     		ldr	r2, [r3, #4]
 836 008a 9A60     		str	r2, [r3, #8]
 189:TasksInterface.c ****     CapSense_ProcessAllWidgets();
 837              		.loc 1 189 0
 838 008c FFF7FEFF 		bl	CapSense_ProcessAllWidgets
 839              	.LVL99:
 190:TasksInterface.c ****     if (CapSense_IsWidgetActive(CapSense_BUTTON0_WDGT_ID)){
 840              		.loc 1 190 0
 841 0090 0120     		movs	r0, #1
 842 0092 FFF7FEFF 		bl	CapSense_IsWidgetActive
 843              	.LVL100:
 844 0096 18B1     		cbz	r0, .L44
 191:TasksInterface.c ****         StopChangeLowHeartRate=true;
 845              		.loc 1 191 0
 846 0098 0122     		movs	r2, #1
 847 009a 034B     		ldr	r3, .L52+4
 848 009c 83F8BD25 		strb	r2, [r3, #1469]
 849              	.L44:
 850 00a0 10BD     		pop	{r4, pc}
 851              	.L53:
 852 00a2 00BF     		.align	2
 853              	.L52:
 854 00a4 00000000 		.word	.LANCHOR2
 855 00a8 F8100000 		.word	.LANCHOR1
 856              		.cfi_endproc
 857              	.LFE569:
 858              		.size	CapSense_ChangeLowHeartRateLimit, .-CapSense_ChangeLowHeartRateLimit
 859              		.section	.text.CapSense_ChangeHighHeartRateLimit,"ax",%progbits
 860              		.align	2
 861              		.global	CapSense_ChangeHighHeartRateLimit
 862              		.thumb
 863              		.thumb_func
 864              		.type	CapSense_ChangeHighHeartRateLimit, %function
 865              	CapSense_ChangeHighHeartRateLimit:
 866              	.LFB570:
 192:TasksInterface.c ****     }
 193:TasksInterface.c **** }
 194:TasksInterface.c **** 
 195:TasksInterface.c **** // 10)Fonction pour changer la valeur supérieure du rythme cardiaque définie par l'utilisateur
 196:TasksInterface.c **** volatile int HighHeartRateI=70; volatile int HighHeartRateF=70; volatile uint32_t SliderPosIV=50; v
 197:TasksInterface.c **** void CapSense_ChangeHighHeartRateLimit()
 198:TasksInterface.c **** {      
 867              		.loc 1 198 0
 868              		.cfi_startproc
 869              		@ args = 0, pretend = 0, frame = 0
 870              		@ frame_needed = 0, uses_anonymous_args = 0
 871 0000 10B5     		push	{r4, lr}
 872              		.cfi_def_cfa_offset 8
 873              		.cfi_offset 4, -8
 874              		.cfi_offset 14, -4
 199:TasksInterface.c ****     CapSense_ProcessAllWidgets();
 875              		.loc 1 199 0
 876 0002 FFF7FEFF 		bl	CapSense_ProcessAllWidgets
 877              	.LVL101:
 200:TasksInterface.c ****     SliderPosIV=CapSense_GetCentroidPos(CapSense_LINEARSLIDER0_WDGT_ID);
 878              		.loc 1 200 0
ARM GAS  C:\Users\vicpa\AppData\Local\Temp\ccqS0gg1.s 			page 20


 879 0006 0020     		movs	r0, #0
 880 0008 FFF7FEFF 		bl	CapSense_GetCentroidPos
 881              	.LVL102:
 882 000c 254B     		ldr	r3, .L62
 883 000e D860     		str	r0, [r3, #12]
 201:TasksInterface.c ****     if (SliderPosIV<65534&&SliderPosIV>=80)
 884              		.loc 1 201 0
 885 0010 DA68     		ldr	r2, [r3, #12]
 886 0012 4FF6FD73 		movw	r3, #65533
 887 0016 9A42     		cmp	r2, r3
 888 0018 07D8     		bhi	.L55
 889              		.loc 1 201 0 is_stmt 0 discriminator 1
 890 001a 224B     		ldr	r3, .L62
 891 001c DB68     		ldr	r3, [r3, #12]
 892 001e 4F2B     		cmp	r3, #79
 893 0020 03D9     		bls	.L55
 202:TasksInterface.c ****     {
 203:TasksInterface.c ****         HighHeartRateI=HighHeartRateI+2;
 894              		.loc 1 203 0 is_stmt 1
 895 0022 204A     		ldr	r2, .L62
 896 0024 1369     		ldr	r3, [r2, #16]
 897 0026 0233     		adds	r3, r3, #2
 898 0028 1361     		str	r3, [r2, #16]
 899              	.L55:
 204:TasksInterface.c ****     }
 205:TasksInterface.c ****     if (SliderPosIV<80&&SliderPosIV>50)
 900              		.loc 1 205 0
 901 002a 1E4B     		ldr	r3, .L62
 902 002c DB68     		ldr	r3, [r3, #12]
 903 002e 4F2B     		cmp	r3, #79
 904 0030 07D8     		bhi	.L56
 905              		.loc 1 205 0 is_stmt 0 discriminator 1
 906 0032 1C4B     		ldr	r3, .L62
 907 0034 DB68     		ldr	r3, [r3, #12]
 908 0036 322B     		cmp	r3, #50
 909 0038 03D9     		bls	.L56
 206:TasksInterface.c ****     {
 207:TasksInterface.c ****         HighHeartRateI++;
 910              		.loc 1 207 0 is_stmt 1
 911 003a 1A4A     		ldr	r2, .L62
 912 003c 1369     		ldr	r3, [r2, #16]
 913 003e 0133     		adds	r3, r3, #1
 914 0040 1361     		str	r3, [r2, #16]
 915              	.L56:
 208:TasksInterface.c ****     }
 209:TasksInterface.c ****     if (SliderPosIV<50&&SliderPosIV>20)
 916              		.loc 1 209 0
 917 0042 184B     		ldr	r3, .L62
 918 0044 DB68     		ldr	r3, [r3, #12]
 919 0046 312B     		cmp	r3, #49
 920 0048 07D8     		bhi	.L57
 921              		.loc 1 209 0 is_stmt 0 discriminator 1
 922 004a 164B     		ldr	r3, .L62
 923 004c DB68     		ldr	r3, [r3, #12]
 924 004e 142B     		cmp	r3, #20
 925 0050 03D9     		bls	.L57
 210:TasksInterface.c ****     {
ARM GAS  C:\Users\vicpa\AppData\Local\Temp\ccqS0gg1.s 			page 21


 211:TasksInterface.c ****         HighHeartRateI--;
 926              		.loc 1 211 0 is_stmt 1
 927 0052 144A     		ldr	r2, .L62
 928 0054 1369     		ldr	r3, [r2, #16]
 929 0056 013B     		subs	r3, r3, #1
 930 0058 1361     		str	r3, [r2, #16]
 931              	.L57:
 212:TasksInterface.c ****     }
 213:TasksInterface.c ****     if (SliderPosIV<=20)
 932              		.loc 1 213 0
 933 005a 124B     		ldr	r3, .L62
 934 005c DB68     		ldr	r3, [r3, #12]
 935 005e 142B     		cmp	r3, #20
 936 0060 03D8     		bhi	.L58
 214:TasksInterface.c ****     {
 215:TasksInterface.c ****         HighHeartRateI=HighHeartRateI-2;
 937              		.loc 1 215 0
 938 0062 104A     		ldr	r2, .L62
 939 0064 1369     		ldr	r3, [r2, #16]
 940 0066 023B     		subs	r3, r3, #2
 941 0068 1361     		str	r3, [r2, #16]
 942              	.L58:
 216:TasksInterface.c ****     }
 217:TasksInterface.c ****     SliderPosIV=50;
 943              		.loc 1 217 0
 944 006a 0E4C     		ldr	r4, .L62
 945 006c 3223     		movs	r3, #50
 946 006e E360     		str	r3, [r4, #12]
 218:TasksInterface.c ****     CapSense_UpdateAllBaselines();
 947              		.loc 1 218 0
 948 0070 FFF7FEFF 		bl	CapSense_UpdateAllBaselines
 949              	.LVL103:
 219:TasksInterface.c ****     CapSense_ScanAllWidgets();
 950              		.loc 1 219 0
 951 0074 FFF7FEFF 		bl	CapSense_ScanAllWidgets
 952              	.LVL104:
 220:TasksInterface.c ****     if (HighHeartRateI != HighHeartRateF)
 953              		.loc 1 220 0
 954 0078 2269     		ldr	r2, [r4, #16]
 955 007a 6369     		ldr	r3, [r4, #20]
 956 007c 9A42     		cmp	r2, r3
 957 007e 02D0     		beq	.L59
 221:TasksInterface.c ****     {
 222:TasksInterface.c ****         updateHighHeartRateLimit(HighHeartRateI);
 958              		.loc 1 222 0
 959 0080 2069     		ldr	r0, [r4, #16]
 960 0082 FFF7FEFF 		bl	updateHighHeartRateLimit
 961              	.LVL105:
 962              	.L59:
 223:TasksInterface.c ****     }
 224:TasksInterface.c ****     HighHeartRateF=HighHeartRateI;
 963              		.loc 1 224 0
 964 0086 074B     		ldr	r3, .L62
 965 0088 1A69     		ldr	r2, [r3, #16]
 966 008a 5A61     		str	r2, [r3, #20]
 225:TasksInterface.c ****     CapSense_ProcessAllWidgets();
 967              		.loc 1 225 0
ARM GAS  C:\Users\vicpa\AppData\Local\Temp\ccqS0gg1.s 			page 22


 968 008c FFF7FEFF 		bl	CapSense_ProcessAllWidgets
 969              	.LVL106:
 226:TasksInterface.c ****     if (CapSense_IsWidgetActive(CapSense_BUTTON0_WDGT_ID)){
 970              		.loc 1 226 0
 971 0090 0120     		movs	r0, #1
 972 0092 FFF7FEFF 		bl	CapSense_IsWidgetActive
 973              	.LVL107:
 974 0096 18B1     		cbz	r0, .L54
 227:TasksInterface.c ****         StopChangeHighHeartRate=true;
 975              		.loc 1 227 0
 976 0098 0122     		movs	r2, #1
 977 009a 034B     		ldr	r3, .L62+4
 978 009c 83F8BE25 		strb	r2, [r3, #1470]
 979              	.L54:
 980 00a0 10BD     		pop	{r4, pc}
 981              	.L63:
 982 00a2 00BF     		.align	2
 983              	.L62:
 984 00a4 00000000 		.word	.LANCHOR2
 985 00a8 F8100000 		.word	.LANCHOR1
 986              		.cfi_endproc
 987              	.LFE570:
 988              		.size	CapSense_ChangeHighHeartRateLimit, .-CapSense_ChangeHighHeartRateLimit
 989              		.section	.text.updateMotionAlarm,"ax",%progbits
 990              		.align	2
 991              		.global	updateMotionAlarm
 992              		.thumb
 993              		.thumb_func
 994              		.type	updateMotionAlarm, %function
 995              	updateMotionAlarm:
 996              	.LFB571:
 228:TasksInterface.c ****     }
 229:TasksInterface.c **** }
 230:TasksInterface.c **** 
 231:TasksInterface.c **** // 11)Fonction pour afficher l'état de l'alarme (enabled/disabled) issue de l'accéléromètre
 232:TasksInterface.c **** volatile bool MotionAlarmEnable=true;
 233:TasksInterface.c **** void updateMotionAlarm(){
 997              		.loc 1 233 0
 998              		.cfi_startproc
 999              		@ args = 0, pretend = 0, frame = 0
 1000              		@ frame_needed = 0, uses_anonymous_args = 0
 1001 0000 08B5     		push	{r3, lr}
 1002              		.cfi_def_cfa_offset 8
 1003              		.cfi_offset 3, -8
 1004              		.cfi_offset 14, -4
 234:TasksInterface.c ****     ClearScreen();GUI_SetPenSize(7); GUI_SetFont(GUI_FONT_13_1);
 1005              		.loc 1 234 0
 1006 0002 FFF7FEFF 		bl	ClearScreen
 1007              	.LVL108:
 1008 0006 0720     		movs	r0, #7
 1009 0008 FFF7FEFF 		bl	GUI_SetPenSize
 1010              	.LVL109:
 1011 000c 0D48     		ldr	r0, .L68
 1012 000e FFF7FEFF 		bl	GUI_SetFont
 1013              	.LVL110:
 235:TasksInterface.c ****     if (MotionAlarmEnable==true)
 1014              		.loc 1 235 0
ARM GAS  C:\Users\vicpa\AppData\Local\Temp\ccqS0gg1.s 			page 23


 1015 0012 0D4B     		ldr	r3, .L68+4
 1016 0014 1B7E     		ldrb	r3, [r3, #24]	@ zero_extendqisi2
 1017 0016 13F0FF0F 		tst	r3, #255
 1018 001a 04D0     		beq	.L65
 236:TasksInterface.c ****     {
 237:TasksInterface.c ****         GUI_DispStringAt("Alarm enabled",80,80);
 1019              		.loc 1 237 0
 1020 001c 5022     		movs	r2, #80
 1021 001e 1146     		mov	r1, r2
 1022 0020 0A48     		ldr	r0, .L68+8
 1023 0022 FFF7FEFF 		bl	GUI_DispStringAt
 1024              	.LVL111:
 1025              	.L65:
 238:TasksInterface.c ****     }
 239:TasksInterface.c ****     if (MotionAlarmEnable==false)
 1026              		.loc 1 239 0
 1027 0026 084B     		ldr	r3, .L68+4
 1028 0028 1B7E     		ldrb	r3, [r3, #24]	@ zero_extendqisi2
 1029 002a 13F0FF0F 		tst	r3, #255
 1030 002e 04D1     		bne	.L66
 240:TasksInterface.c ****     {
 241:TasksInterface.c ****         GUI_DispStringAt("Alarm disabled",80,80);
 1031              		.loc 1 241 0
 1032 0030 5022     		movs	r2, #80
 1033 0032 1146     		mov	r1, r2
 1034 0034 0648     		ldr	r0, .L68+12
 1035 0036 FFF7FEFF 		bl	GUI_DispStringAt
 1036              	.LVL112:
 1037              	.L66:
 242:TasksInterface.c ****     }
 243:TasksInterface.c ****     UpdateDisplay(CY_EINK_FULL_4STAGE, true);
 1038              		.loc 1 243 0
 1039 003a 0121     		movs	r1, #1
 1040 003c 0846     		mov	r0, r1
 1041 003e FFF7FEFF 		bl	UpdateDisplay
 1042              	.LVL113:
 1043 0042 08BD     		pop	{r3, pc}
 1044              	.L69:
 1045              		.align	2
 1046              	.L68:
 1047 0044 00000000 		.word	GUI_Font13_1
 1048 0048 00000000 		.word	.LANCHOR2
 1049 004c 48010000 		.word	.LC15
 1050 0050 58010000 		.word	.LC16
 1051              		.cfi_endproc
 1052              	.LFE571:
 1053              		.size	updateMotionAlarm, .-updateMotionAlarm
 1054              		.section	.text.CapSense_EnableDisableMotionAlarm,"ax",%progbits
 1055              		.align	2
 1056              		.global	CapSense_EnableDisableMotionAlarm
 1057              		.thumb
 1058              		.thumb_func
 1059              		.type	CapSense_EnableDisableMotionAlarm, %function
 1060              	CapSense_EnableDisableMotionAlarm:
 1061              	.LFB572:
 244:TasksInterface.c **** }
 245:TasksInterface.c **** 
ARM GAS  C:\Users\vicpa\AppData\Local\Temp\ccqS0gg1.s 			page 24


 246:TasksInterface.c **** // 12)Fonction pour changer un flag correspondant à l'état de l'alarme (enabled/disabled) issue d
 247:TasksInterface.c **** volatile uint32_t SliderPosV=50; volatile bool StopDisableAlarm=false;
 248:TasksInterface.c **** void CapSense_EnableDisableMotionAlarm()
 249:TasksInterface.c **** {      
 1062              		.loc 1 249 0
 1063              		.cfi_startproc
 1064              		@ args = 0, pretend = 0, frame = 0
 1065              		@ frame_needed = 0, uses_anonymous_args = 0
 1066 0000 08B5     		push	{r3, lr}
 1067              		.cfi_def_cfa_offset 8
 1068              		.cfi_offset 3, -8
 1069              		.cfi_offset 14, -4
 250:TasksInterface.c ****     CapSense_ProcessAllWidgets();
 1070              		.loc 1 250 0
 1071 0002 FFF7FEFF 		bl	CapSense_ProcessAllWidgets
 1072              	.LVL114:
 251:TasksInterface.c ****     SliderPosV=CapSense_GetCentroidPos(CapSense_LINEARSLIDER0_WDGT_ID);
 1073              		.loc 1 251 0
 1074 0006 0020     		movs	r0, #0
 1075 0008 FFF7FEFF 		bl	CapSense_GetCentroidPos
 1076              	.LVL115:
 1077 000c 154B     		ldr	r3, .L75
 1078 000e D861     		str	r0, [r3, #28]
 252:TasksInterface.c ****     if (SliderPosV<65534&&SliderPosV>50)
 1079              		.loc 1 252 0
 1080 0010 DA69     		ldr	r2, [r3, #28]
 1081 0012 4FF6FD73 		movw	r3, #65533
 1082 0016 9A42     		cmp	r2, r3
 1083 0018 08D8     		bhi	.L71
 1084              		.loc 1 252 0 is_stmt 0 discriminator 1
 1085 001a 124B     		ldr	r3, .L75
 1086 001c DB69     		ldr	r3, [r3, #28]
 1087 001e 322B     		cmp	r3, #50
 1088 0020 04D9     		bls	.L71
 253:TasksInterface.c ****     {
 254:TasksInterface.c ****         MotionAlarmEnable=true;
 1089              		.loc 1 254 0 is_stmt 1
 1090 0022 0122     		movs	r2, #1
 1091 0024 0F4B     		ldr	r3, .L75
 1092 0026 1A76     		strb	r2, [r3, #24]
 255:TasksInterface.c ****         updateMotionAlarm();
 1093              		.loc 1 255 0
 1094 0028 FFF7FEFF 		bl	updateMotionAlarm
 1095              	.LVL116:
 1096              	.L71:
 256:TasksInterface.c ****     }
 257:TasksInterface.c ****     if (SliderPosV<50)
 1097              		.loc 1 257 0
 1098 002c 0D4B     		ldr	r3, .L75
 1099 002e DB69     		ldr	r3, [r3, #28]
 1100 0030 312B     		cmp	r3, #49
 1101 0032 04D8     		bhi	.L72
 258:TasksInterface.c ****     {
 259:TasksInterface.c ****         MotionAlarmEnable=false;
 1102              		.loc 1 259 0
 1103 0034 0022     		movs	r2, #0
 1104 0036 0B4B     		ldr	r3, .L75
ARM GAS  C:\Users\vicpa\AppData\Local\Temp\ccqS0gg1.s 			page 25


 1105 0038 1A76     		strb	r2, [r3, #24]
 260:TasksInterface.c ****         updateMotionAlarm();
 1106              		.loc 1 260 0
 1107 003a FFF7FEFF 		bl	updateMotionAlarm
 1108              	.LVL117:
 1109              	.L72:
 261:TasksInterface.c ****     }
 262:TasksInterface.c ****     SliderPosV=50;
 1110              		.loc 1 262 0
 1111 003e 3222     		movs	r2, #50
 1112 0040 084B     		ldr	r3, .L75
 1113 0042 DA61     		str	r2, [r3, #28]
 263:TasksInterface.c ****     CapSense_UpdateAllBaselines();
 1114              		.loc 1 263 0
 1115 0044 FFF7FEFF 		bl	CapSense_UpdateAllBaselines
 1116              	.LVL118:
 264:TasksInterface.c ****     CapSense_ScanAllWidgets();
 1117              		.loc 1 264 0
 1118 0048 FFF7FEFF 		bl	CapSense_ScanAllWidgets
 1119              	.LVL119:
 265:TasksInterface.c ****     CapSense_ProcessAllWidgets();
 1120              		.loc 1 265 0
 1121 004c FFF7FEFF 		bl	CapSense_ProcessAllWidgets
 1122              	.LVL120:
 266:TasksInterface.c ****     if (CapSense_IsWidgetActive(CapSense_BUTTON0_WDGT_ID)){
 1123              		.loc 1 266 0
 1124 0050 0120     		movs	r0, #1
 1125 0052 FFF7FEFF 		bl	CapSense_IsWidgetActive
 1126              	.LVL121:
 1127 0056 18B1     		cbz	r0, .L70
 267:TasksInterface.c ****         StopDisableAlarm=true;
 1128              		.loc 1 267 0
 1129 0058 0122     		movs	r2, #1
 1130 005a 034B     		ldr	r3, .L75+4
 1131 005c 83F8BF25 		strb	r2, [r3, #1471]
 1132              	.L70:
 1133 0060 08BD     		pop	{r3, pc}
 1134              	.L76:
 1135 0062 00BF     		.align	2
 1136              	.L75:
 1137 0064 00000000 		.word	.LANCHOR2
 1138 0068 F8100000 		.word	.LANCHOR1
 1139              		.cfi_endproc
 1140              	.LFE572:
 1141              		.size	CapSense_EnableDisableMotionAlarm, .-CapSense_EnableDisableMotionAlarm
 1142              		.section	.text.ChangeGraph,"ax",%progbits
 1143              		.align	2
 1144              		.global	ChangeGraph
 1145              		.thumb
 1146              		.thumb_func
 1147              		.type	ChangeGraph, %function
 1148              	ChangeGraph:
 1149              	.LFB573:
 268:TasksInterface.c ****     }
 269:TasksInterface.c **** }
 270:TasksInterface.c **** 
 271:TasksInterface.c **** //------------------------------------------------------------------- Tâches ---------------------
ARM GAS  C:\Users\vicpa\AppData\Local\Temp\ccqS0gg1.s 			page 26


 272:TasksInterface.c **** 
 273:TasksInterface.c **** // 1)Tâche pour afficher les graphiques ainsi que pour changer la courbe affichée 
 274:TasksInterface.c **** volatile int CompteurSW2; volatile bool AffichageGraph; float bufferInfrarouge[750]; float bufferRo
 275:TasksInterface.c **** void ChangeGraph()
 276:TasksInterface.c **** {
 1150              		.loc 1 276 0
 1151              		.cfi_startproc
 1152              		@ Volatile: function does not return.
 1153              		@ args = 0, pretend = 0, frame = 0
 1154              		@ frame_needed = 0, uses_anonymous_args = 0
 1155 0000 08B5     		push	{r3, lr}
 1156              		.cfi_def_cfa_offset 8
 1157              		.cfi_offset 3, -8
 1158              		.cfi_offset 14, -4
 1159              	.L80:
 277:TasksInterface.c ****     for (;;)
 278:TasksInterface.c ****     {
 279:TasksInterface.c ****         //Remplissage des buffers des courbes rouge et infrarouge et des paramètres
 280:TasksInterface.c ****         
 281:TasksInterface.c ****         
 282:TasksInterface.c ****         if (AffichageGraph==true){
 1160              		.loc 1 282 0
 1161 0002 1D4B     		ldr	r3, .L82
 1162 0004 1B78     		ldrb	r3, [r3]	@ zero_extendqisi2
 1163 0006 13F0FF0F 		tst	r3, #255
 1164 000a 31D0     		beq	.L78
 283:TasksInterface.c ****             ClearScreen();
 1165              		.loc 1 283 0
 1166 000c FFF7FEFF 		bl	ClearScreen
 1167              	.LVL122:
 284:TasksInterface.c ****             if (CompteurSW2%2==0)
 1168              		.loc 1 284 0
 1169 0010 1A4B     		ldr	r3, .L82+4
 1170 0012 1B68     		ldr	r3, [r3]
 1171 0014 13F0010F 		tst	r3, #1
 1172 0018 15D1     		bne	.L79
 285:TasksInterface.c ****             {
 286:TasksInterface.c ****                 drawGraph(bufferInfrarouge);
 1173              		.loc 1 286 0
 1174 001a 1948     		ldr	r0, .L82+8
 1175 001c FFF7FEFF 		bl	drawGraph
 1176              	.LVL123:
 287:TasksInterface.c ****                 updateParameters(Saturation, RythmeCardiaque);
 1177              		.loc 1 287 0
 1178 0020 184B     		ldr	r3, .L82+12
 1179 0022 D3F8C005 		ldr	r0, [r3, #1472]
 1180 0026 184B     		ldr	r3, .L82+16
 1181 0028 196A     		ldr	r1, [r3, #32]
 1182 002a FFF7FEFF 		bl	updateParameters
 1183              	.LVL124:
 288:TasksInterface.c ****                 GUI_SetPenSize(10); GUI_SetFont(GUI_FONT_16_1); GUI_DispStringAt("Red curve:",80,0)
 1184              		.loc 1 288 0
 1185 002e 0A20     		movs	r0, #10
 1186 0030 FFF7FEFF 		bl	GUI_SetPenSize
 1187              	.LVL125:
 1188 0034 1548     		ldr	r0, .L82+20
 1189 0036 FFF7FEFF 		bl	GUI_SetFont
ARM GAS  C:\Users\vicpa\AppData\Local\Temp\ccqS0gg1.s 			page 27


 1190              	.LVL126:
 1191 003a 0022     		movs	r2, #0
 1192 003c 5021     		movs	r1, #80
 1193 003e 1448     		ldr	r0, .L82+24
 1194 0040 FFF7FEFF 		bl	GUI_DispStringAt
 1195              	.LVL127:
 1196 0044 14E0     		b	.L78
 1197              	.L79:
 289:TasksInterface.c ****             }
 290:TasksInterface.c ****             else
 291:TasksInterface.c ****             {
 292:TasksInterface.c ****                 drawGraph(bufferRouge);
 1198              		.loc 1 292 0
 1199 0046 1348     		ldr	r0, .L82+28
 1200 0048 FFF7FEFF 		bl	drawGraph
 1201              	.LVL128:
 293:TasksInterface.c ****                 updateParameters(Saturation, RythmeCardiaque);
 1202              		.loc 1 293 0
 1203 004c 0D4B     		ldr	r3, .L82+12
 1204 004e D3F8C005 		ldr	r0, [r3, #1472]
 1205 0052 0D4B     		ldr	r3, .L82+16
 1206 0054 196A     		ldr	r1, [r3, #32]
 1207 0056 FFF7FEFF 		bl	updateParameters
 1208              	.LVL129:
 294:TasksInterface.c ****                 GUI_SetPenSize(10); GUI_SetFont(GUI_FONT_16_1); GUI_DispStringAt("Infrared curve:",
 1209              		.loc 1 294 0
 1210 005a 0A20     		movs	r0, #10
 1211 005c FFF7FEFF 		bl	GUI_SetPenSize
 1212              	.LVL130:
 1213 0060 0A48     		ldr	r0, .L82+20
 1214 0062 FFF7FEFF 		bl	GUI_SetFont
 1215              	.LVL131:
 1216 0066 0022     		movs	r2, #0
 1217 0068 3C21     		movs	r1, #60
 1218 006a 0B48     		ldr	r0, .L82+32
 1219 006c FFF7FEFF 		bl	GUI_DispStringAt
 1220              	.LVL132:
 1221              	.L78:
 295:TasksInterface.c ****             }
 296:TasksInterface.c ****         }
 297:TasksInterface.c ****         vTaskDelay(pdMS_TO_TICKS(200));
 1222              		.loc 1 297 0
 1223 0070 C820     		movs	r0, #200
 1224 0072 FFF7FEFF 		bl	vTaskDelay
 1225              	.LVL133:
 298:TasksInterface.c ****     }
 1226              		.loc 1 298 0
 1227 0076 C4E7     		b	.L80
 1228              	.L83:
 1229              		.align	2
 1230              	.L82:
 1231 0078 00000000 		.word	AffichageGraph
 1232 007c 00000000 		.word	CompteurSW2
 1233 0080 00000000 		.word	bufferInfrarouge
 1234 0084 F8100000 		.word	.LANCHOR1
 1235 0088 00000000 		.word	.LANCHOR2
 1236 008c 00000000 		.word	GUI_Font16_1
ARM GAS  C:\Users\vicpa\AppData\Local\Temp\ccqS0gg1.s 			page 28


 1237 0090 68010000 		.word	.LC17
 1238 0094 00000000 		.word	bufferRouge
 1239 0098 74010000 		.word	.LC18
 1240              		.cfi_endproc
 1241              	.LFE573:
 1242              		.size	ChangeGraph, .-ChangeGraph
 1243              		.section	.text.HeartRateAlarm,"ax",%progbits
 1244              		.align	2
 1245              		.global	HeartRateAlarm
 1246              		.thumb
 1247              		.thumb_func
 1248              		.type	HeartRateAlarm, %function
 1249              	HeartRateAlarm:
 1250              	.LFB574:
 299:TasksInterface.c **** }
 300:TasksInterface.c **** 
 301:TasksInterface.c **** // 2)Tâche pour allumer ou éteindre une alarme lorsque le rythme cardiaque est à l'extérieur de
 302:TasksInterface.c **** void HeartRateAlarm()
 303:TasksInterface.c **** {
 1251              		.loc 1 303 0
 1252              		.cfi_startproc
 1253              		@ Volatile: function does not return.
 1254              		@ args = 0, pretend = 0, frame = 0
 1255              		@ frame_needed = 0, uses_anonymous_args = 0
 1256 0000 08B5     		push	{r3, lr}
 1257              		.cfi_def_cfa_offset 8
 1258              		.cfi_offset 3, -8
 1259              		.cfi_offset 14, -4
 1260              	.L88:
 304:TasksInterface.c ****     for(;;)
 305:TasksInterface.c ****     {
 306:TasksInterface.c ****         if (RythmeCardiaque>HighHeartRateI || RythmeCardiaque<LowHeartRateI)
 1261              		.loc 1 306 0
 1262 0002 0A4B     		ldr	r3, .L90
 1263 0004 1A6A     		ldr	r2, [r3, #32]
 1264 0006 1B69     		ldr	r3, [r3, #16]
 1265 0008 9A42     		cmp	r2, r3
 1266 000a 04DC     		bgt	.L85
 1267              		.loc 1 306 0 is_stmt 0 discriminator 1
 1268 000c 074B     		ldr	r3, .L90
 1269 000e 1A6A     		ldr	r2, [r3, #32]
 1270 0010 5B68     		ldr	r3, [r3, #4]
 1271 0012 9A42     		cmp	r2, r3
 1272 0014 03DA     		bge	.L86
 1273              	.L85:
 1274              	.LVL134:
 1275              	.LBB12:
 1276              	.LBB13:
 1277              		.file 2 "Generated_Source\\PSoC6\\pdl\\drivers/peripheral/gpio/cy_gpio.h"
   1:Generated_Source\PSoC6\pdl\drivers/peripheral/gpio/cy_gpio.h **** /***************************************************************************//**
   2:Generated_Source\PSoC6\pdl\drivers/peripheral/gpio/cy_gpio.h **** * \file cy_gpio.h
   3:Generated_Source\PSoC6\pdl\drivers/peripheral/gpio/cy_gpio.h **** * \version 1.20
   4:Generated_Source\PSoC6\pdl\drivers/peripheral/gpio/cy_gpio.h **** *
   5:Generated_Source\PSoC6\pdl\drivers/peripheral/gpio/cy_gpio.h **** * Provides an API declaration of the GPIO driver
   6:Generated_Source\PSoC6\pdl\drivers/peripheral/gpio/cy_gpio.h **** *
   7:Generated_Source\PSoC6\pdl\drivers/peripheral/gpio/cy_gpio.h **** ********************************************************************************
   8:Generated_Source\PSoC6\pdl\drivers/peripheral/gpio/cy_gpio.h **** * \copyright
ARM GAS  C:\Users\vicpa\AppData\Local\Temp\ccqS0gg1.s 			page 29


   9:Generated_Source\PSoC6\pdl\drivers/peripheral/gpio/cy_gpio.h **** * Copyright 2016-2018, Cypress Semiconductor Corporation. All rights reserved.
  10:Generated_Source\PSoC6\pdl\drivers/peripheral/gpio/cy_gpio.h **** * You may use this file only in accordance with the license, terms, conditions,
  11:Generated_Source\PSoC6\pdl\drivers/peripheral/gpio/cy_gpio.h **** * disclaimers, and limitations in the end user license agreement accompanying
  12:Generated_Source\PSoC6\pdl\drivers/peripheral/gpio/cy_gpio.h **** * the software package with which this file was provided.
  13:Generated_Source\PSoC6\pdl\drivers/peripheral/gpio/cy_gpio.h **** *******************************************************************************/
  14:Generated_Source\PSoC6\pdl\drivers/peripheral/gpio/cy_gpio.h **** 
  15:Generated_Source\PSoC6\pdl\drivers/peripheral/gpio/cy_gpio.h **** /**
  16:Generated_Source\PSoC6\pdl\drivers/peripheral/gpio/cy_gpio.h **** * \addtogroup group_gpio
  17:Generated_Source\PSoC6\pdl\drivers/peripheral/gpio/cy_gpio.h **** * \{
  18:Generated_Source\PSoC6\pdl\drivers/peripheral/gpio/cy_gpio.h **** * The GPIO driver provides an API to configure and access device Input/Output pins.
  19:Generated_Source\PSoC6\pdl\drivers/peripheral/gpio/cy_gpio.h **** *
  20:Generated_Source\PSoC6\pdl\drivers/peripheral/gpio/cy_gpio.h **** * The functions and other declarations used in this driver are in cy_gpio.h. 
  21:Generated_Source\PSoC6\pdl\drivers/peripheral/gpio/cy_gpio.h **** * You can include cy_pdl.h (ModusToolbox only) to get access to all functions 
  22:Generated_Source\PSoC6\pdl\drivers/peripheral/gpio/cy_gpio.h **** * and declarations in the PDL.
  23:Generated_Source\PSoC6\pdl\drivers/peripheral/gpio/cy_gpio.h **** *
  24:Generated_Source\PSoC6\pdl\drivers/peripheral/gpio/cy_gpio.h **** * IO pins include all general purpose types such as GPIO, SIO, HSIO, AUXIO, and
  25:Generated_Source\PSoC6\pdl\drivers/peripheral/gpio/cy_gpio.h **** * their variants.
  26:Generated_Source\PSoC6\pdl\drivers/peripheral/gpio/cy_gpio.h **** *
  27:Generated_Source\PSoC6\pdl\drivers/peripheral/gpio/cy_gpio.h **** * Initialization can be performed either at the port level or by configuring the
  28:Generated_Source\PSoC6\pdl\drivers/peripheral/gpio/cy_gpio.h **** * individual pins. For efficient use of code space, port
  29:Generated_Source\PSoC6\pdl\drivers/peripheral/gpio/cy_gpio.h **** * configuration should be used in the field. Refer to the product device header files 
  30:Generated_Source\PSoC6\pdl\drivers/peripheral/gpio/cy_gpio.h **** * for the list of supported ports and pins.
  31:Generated_Source\PSoC6\pdl\drivers/peripheral/gpio/cy_gpio.h **** * 
  32:Generated_Source\PSoC6\pdl\drivers/peripheral/gpio/cy_gpio.h **** * - Single pin configuration is performed by using \ref Cy_GPIO_Pin_FastInit 
  33:Generated_Source\PSoC6\pdl\drivers/peripheral/gpio/cy_gpio.h **** *   (provide specific values) or \ref Cy_GPIO_Pin_Init (provide a filled
  34:Generated_Source\PSoC6\pdl\drivers/peripheral/gpio/cy_gpio.h **** *   cy_stc_gpio_pin_config_t structure).
  35:Generated_Source\PSoC6\pdl\drivers/peripheral/gpio/cy_gpio.h **** * - An entire port can be configured using \ref Cy_GPIO_Port_Init. Provide a filled 
  36:Generated_Source\PSoC6\pdl\drivers/peripheral/gpio/cy_gpio.h **** *   cy_stc_gpio_prt_config_t structure. The values in the structure are 
  37:Generated_Source\PSoC6\pdl\drivers/peripheral/gpio/cy_gpio.h **** *   bitfields representing the desired value for each pin in the port.
  38:Generated_Source\PSoC6\pdl\drivers/peripheral/gpio/cy_gpio.h **** * - Pin configuration and management is based on the port address and pin number.
  39:Generated_Source\PSoC6\pdl\drivers/peripheral/gpio/cy_gpio.h **** *   \ref Cy_GPIO_PortToAddr function can optionally be used to calculate the port
  40:Generated_Source\PSoC6\pdl\drivers/peripheral/gpio/cy_gpio.h **** *   address from the port number at run-time.
  41:Generated_Source\PSoC6\pdl\drivers/peripheral/gpio/cy_gpio.h **** *
  42:Generated_Source\PSoC6\pdl\drivers/peripheral/gpio/cy_gpio.h **** * Once the pin/port initialization is complete, each pin can be accessed by 
  43:Generated_Source\PSoC6\pdl\drivers/peripheral/gpio/cy_gpio.h **** * specifying the port (GPIO_PRT_Type) and the pin (0-7) in the provided API 
  44:Generated_Source\PSoC6\pdl\drivers/peripheral/gpio/cy_gpio.h **** * functions.
  45:Generated_Source\PSoC6\pdl\drivers/peripheral/gpio/cy_gpio.h **** *
  46:Generated_Source\PSoC6\pdl\drivers/peripheral/gpio/cy_gpio.h **** * \section group_gpio_configuration Configuration Considerations
  47:Generated_Source\PSoC6\pdl\drivers/peripheral/gpio/cy_gpio.h **** *
  48:Generated_Source\PSoC6\pdl\drivers/peripheral/gpio/cy_gpio.h **** * 1. Pin multiplexing is controlled through the High-Speed IO Matrix (HSIOM) selection.
  49:Generated_Source\PSoC6\pdl\drivers/peripheral/gpio/cy_gpio.h **** *    This allows the pin to connect to signal sources/sinks throughout the device,
  50:Generated_Source\PSoC6\pdl\drivers/peripheral/gpio/cy_gpio.h **** *    as defined by the pin HSIOM selection options (en_hsiom_sel_t).
  51:Generated_Source\PSoC6\pdl\drivers/peripheral/gpio/cy_gpio.h **** * 2. All pins are initialized to High-Z drive mode with HSIOM connected to CPU (SW
  52:Generated_Source\PSoC6\pdl\drivers/peripheral/gpio/cy_gpio.h **** *    control digital pin only) at Power-On-Reset(POR).
  53:Generated_Source\PSoC6\pdl\drivers/peripheral/gpio/cy_gpio.h **** * 3. Some API functions perform read-modify-write operations on shared port
  54:Generated_Source\PSoC6\pdl\drivers/peripheral/gpio/cy_gpio.h **** *    registers. These functions are not thread safe and care must be taken when
  55:Generated_Source\PSoC6\pdl\drivers/peripheral/gpio/cy_gpio.h **** *    called by the application.
  56:Generated_Source\PSoC6\pdl\drivers/peripheral/gpio/cy_gpio.h **** * 4. Digital input buffer provides a high-impedance buffer for the external 
  57:Generated_Source\PSoC6\pdl\drivers/peripheral/gpio/cy_gpio.h **** *    digital input. The input buffer is connected to the HSIOM for routing to 
  58:Generated_Source\PSoC6\pdl\drivers/peripheral/gpio/cy_gpio.h **** *    the CPU port registers and selected peripheral. Enabling the input 
  59:Generated_Source\PSoC6\pdl\drivers/peripheral/gpio/cy_gpio.h **** *    buffer provides possibility to read the pin state via the CPU.
  60:Generated_Source\PSoC6\pdl\drivers/peripheral/gpio/cy_gpio.h **** *    If pin is connected to an analog signal, the input buffer should be 
  61:Generated_Source\PSoC6\pdl\drivers/peripheral/gpio/cy_gpio.h **** *    disabled to avoid crowbar currents. For more information refer to device 
  62:Generated_Source\PSoC6\pdl\drivers/peripheral/gpio/cy_gpio.h **** *    TRM and the device datasheet.
  63:Generated_Source\PSoC6\pdl\drivers/peripheral/gpio/cy_gpio.h **** *
  64:Generated_Source\PSoC6\pdl\drivers/peripheral/gpio/cy_gpio.h **** * Multiple pins on a port can be updated using direct port register writes with an
  65:Generated_Source\PSoC6\pdl\drivers/peripheral/gpio/cy_gpio.h **** * appropriate port mask. An example is shown below, highlighting the different ways of 
ARM GAS  C:\Users\vicpa\AppData\Local\Temp\ccqS0gg1.s 			page 30


  66:Generated_Source\PSoC6\pdl\drivers/peripheral/gpio/cy_gpio.h **** * configuring Port 1 pins using:
  67:Generated_Source\PSoC6\pdl\drivers/peripheral/gpio/cy_gpio.h **** * 
  68:Generated_Source\PSoC6\pdl\drivers/peripheral/gpio/cy_gpio.h **** * - Port output data register
  69:Generated_Source\PSoC6\pdl\drivers/peripheral/gpio/cy_gpio.h **** * - Port output data set register
  70:Generated_Source\PSoC6\pdl\drivers/peripheral/gpio/cy_gpio.h **** * - Port output data clear register
  71:Generated_Source\PSoC6\pdl\drivers/peripheral/gpio/cy_gpio.h **** *
  72:Generated_Source\PSoC6\pdl\drivers/peripheral/gpio/cy_gpio.h **** * \snippet gpio/gpio_v1_10_sut_01.cydsn/main_cm4.c Cy_GPIO_Snippet
  73:Generated_Source\PSoC6\pdl\drivers/peripheral/gpio/cy_gpio.h **** *
  74:Generated_Source\PSoC6\pdl\drivers/peripheral/gpio/cy_gpio.h **** * \section group_gpio_more_information More Information
  75:Generated_Source\PSoC6\pdl\drivers/peripheral/gpio/cy_gpio.h **** *
  76:Generated_Source\PSoC6\pdl\drivers/peripheral/gpio/cy_gpio.h **** * Refer to the technical reference manual (TRM) and the device datasheet.
  77:Generated_Source\PSoC6\pdl\drivers/peripheral/gpio/cy_gpio.h **** *
  78:Generated_Source\PSoC6\pdl\drivers/peripheral/gpio/cy_gpio.h **** * \section group_gpio_MISRA MISRA-C Compliance
  79:Generated_Source\PSoC6\pdl\drivers/peripheral/gpio/cy_gpio.h **** * The GPIO driver has the following specific deviations:
  80:Generated_Source\PSoC6\pdl\drivers/peripheral/gpio/cy_gpio.h **** *
  81:Generated_Source\PSoC6\pdl\drivers/peripheral/gpio/cy_gpio.h **** * <table class="doxtable">
  82:Generated_Source\PSoC6\pdl\drivers/peripheral/gpio/cy_gpio.h **** *   <tr>
  83:Generated_Source\PSoC6\pdl\drivers/peripheral/gpio/cy_gpio.h **** *     <th>MISRA Rule</th>
  84:Generated_Source\PSoC6\pdl\drivers/peripheral/gpio/cy_gpio.h **** *     <th>Rule Class (Required/Advisory)</th>
  85:Generated_Source\PSoC6\pdl\drivers/peripheral/gpio/cy_gpio.h **** *     <th>Rule Description</th>
  86:Generated_Source\PSoC6\pdl\drivers/peripheral/gpio/cy_gpio.h **** *     <th>Description of Deviation(s)</th>
  87:Generated_Source\PSoC6\pdl\drivers/peripheral/gpio/cy_gpio.h **** *   </tr>
  88:Generated_Source\PSoC6\pdl\drivers/peripheral/gpio/cy_gpio.h **** *   <tr>
  89:Generated_Source\PSoC6\pdl\drivers/peripheral/gpio/cy_gpio.h **** *     <td>11.4</td>
  90:Generated_Source\PSoC6\pdl\drivers/peripheral/gpio/cy_gpio.h **** *     <td>A</td>
  91:Generated_Source\PSoC6\pdl\drivers/peripheral/gpio/cy_gpio.h **** *     <td>A cast should not be performed between a pointer to object type and
  92:Generated_Source\PSoC6\pdl\drivers/peripheral/gpio/cy_gpio.h **** *         a different pointer to object type.</td>
  93:Generated_Source\PSoC6\pdl\drivers/peripheral/gpio/cy_gpio.h **** *     <td> This code is safe because the elements of both GPIO_PRT_V1_Type and GPIO_PRT_V2_Type 
  94:Generated_Source\PSoC6\pdl\drivers/peripheral/gpio/cy_gpio.h **** *          types have identical alignment.</td>
  95:Generated_Source\PSoC6\pdl\drivers/peripheral/gpio/cy_gpio.h **** *   </tr>
  96:Generated_Source\PSoC6\pdl\drivers/peripheral/gpio/cy_gpio.h **** *   <tr>
  97:Generated_Source\PSoC6\pdl\drivers/peripheral/gpio/cy_gpio.h **** *     <td>16.7</td>
  98:Generated_Source\PSoC6\pdl\drivers/peripheral/gpio/cy_gpio.h **** *     <td>A</td>
  99:Generated_Source\PSoC6\pdl\drivers/peripheral/gpio/cy_gpio.h **** *     <td>A pointer parameter in a function prototype should be declared as pointer 
 100:Generated_Source\PSoC6\pdl\drivers/peripheral/gpio/cy_gpio.h **** *         to const if the pointer is not used to modify the addressed object.</td>
 101:Generated_Source\PSoC6\pdl\drivers/peripheral/gpio/cy_gpio.h **** *     <td>The objects pointed to by the base addresses of the GPIO port are not always modified.
 102:Generated_Source\PSoC6\pdl\drivers/peripheral/gpio/cy_gpio.h **** *         While a const qualifier can be used in select scenarios, it brings little benefit
 103:Generated_Source\PSoC6\pdl\drivers/peripheral/gpio/cy_gpio.h **** *         in adding this to the affected functions. </td>
 104:Generated_Source\PSoC6\pdl\drivers/peripheral/gpio/cy_gpio.h **** *   </tr>
 105:Generated_Source\PSoC6\pdl\drivers/peripheral/gpio/cy_gpio.h **** * </table>
 106:Generated_Source\PSoC6\pdl\drivers/peripheral/gpio/cy_gpio.h **** *
 107:Generated_Source\PSoC6\pdl\drivers/peripheral/gpio/cy_gpio.h **** * \section group_gpio_changelog Changelog
 108:Generated_Source\PSoC6\pdl\drivers/peripheral/gpio/cy_gpio.h **** * <table class="doxtable">
 109:Generated_Source\PSoC6\pdl\drivers/peripheral/gpio/cy_gpio.h **** *   <tr><th>Version</th><th>Changes</th><th>Reason for Change</th></tr>
 110:Generated_Source\PSoC6\pdl\drivers/peripheral/gpio/cy_gpio.h **** *   <tr>
 111:Generated_Source\PSoC6\pdl\drivers/peripheral/gpio/cy_gpio.h **** *     <td rowspan="3">1.20</td>
 112:Generated_Source\PSoC6\pdl\drivers/peripheral/gpio/cy_gpio.h **** *     <td>Flattened the organization of the driver source code into the single source directory and
 113:Generated_Source\PSoC6\pdl\drivers/peripheral/gpio/cy_gpio.h **** *     <td>Driver library directory-structure simplification.</td>
 114:Generated_Source\PSoC6\pdl\drivers/peripheral/gpio/cy_gpio.h **** *   </tr>
 115:Generated_Source\PSoC6\pdl\drivers/peripheral/gpio/cy_gpio.h **** *   <tr>
 116:Generated_Source\PSoC6\pdl\drivers/peripheral/gpio/cy_gpio.h **** *     <td>Added the functions for configuring the AMux bus splitter switch cells:
 117:Generated_Source\PSoC6\pdl\drivers/peripheral/gpio/cy_gpio.h **** *     - \ref Cy_GPIO_SetAmuxSplit
 118:Generated_Source\PSoC6\pdl\drivers/peripheral/gpio/cy_gpio.h **** *     - \ref Cy_GPIO_GetAmuxSplit
 119:Generated_Source\PSoC6\pdl\drivers/peripheral/gpio/cy_gpio.h **** *     </td>
 120:Generated_Source\PSoC6\pdl\drivers/peripheral/gpio/cy_gpio.h **** *     <td>Added a new functionality related to AMux bus.</td>
 121:Generated_Source\PSoC6\pdl\drivers/peripheral/gpio/cy_gpio.h **** *   </tr>
 122:Generated_Source\PSoC6\pdl\drivers/peripheral/gpio/cy_gpio.h **** *   <tr>
ARM GAS  C:\Users\vicpa\AppData\Local\Temp\ccqS0gg1.s 			page 31


 123:Generated_Source\PSoC6\pdl\drivers/peripheral/gpio/cy_gpio.h **** *     <td>Added register access layer. Use register access macros instead
 124:Generated_Source\PSoC6\pdl\drivers/peripheral/gpio/cy_gpio.h **** *         of direct register access using dereferenced pointers.</td>
 125:Generated_Source\PSoC6\pdl\drivers/peripheral/gpio/cy_gpio.h **** *     <td>Makes register access device-independent, so that the PDL does 
 126:Generated_Source\PSoC6\pdl\drivers/peripheral/gpio/cy_gpio.h **** *         not need to be recompiled for each supported part number.</td>
 127:Generated_Source\PSoC6\pdl\drivers/peripheral/gpio/cy_gpio.h **** *   </tr>
 128:Generated_Source\PSoC6\pdl\drivers/peripheral/gpio/cy_gpio.h **** *   <tr>
 129:Generated_Source\PSoC6\pdl\drivers/peripheral/gpio/cy_gpio.h **** *     <td>1.10.1</td>
 130:Generated_Source\PSoC6\pdl\drivers/peripheral/gpio/cy_gpio.h **** *     <td>Updated description for the functions: \ref Cy_GPIO_GetInterruptStatus, 
 131:Generated_Source\PSoC6\pdl\drivers/peripheral/gpio/cy_gpio.h **** *         \ref Cy_GPIO_GetInterruptMask, \ref Cy_GPIO_GetInterruptStatusMasked.
 132:Generated_Source\PSoC6\pdl\drivers/peripheral/gpio/cy_gpio.h **** *
 133:Generated_Source\PSoC6\pdl\drivers/peripheral/gpio/cy_gpio.h **** *         Minor documentation edits.
 134:Generated_Source\PSoC6\pdl\drivers/peripheral/gpio/cy_gpio.h **** *     </td>
 135:Generated_Source\PSoC6\pdl\drivers/peripheral/gpio/cy_gpio.h **** *     <td>Documentation update and clarification</td>
 136:Generated_Source\PSoC6\pdl\drivers/peripheral/gpio/cy_gpio.h **** *   </tr>
 137:Generated_Source\PSoC6\pdl\drivers/peripheral/gpio/cy_gpio.h **** *   <tr>
 138:Generated_Source\PSoC6\pdl\drivers/peripheral/gpio/cy_gpio.h **** *     <td>1.10</td>
 139:Generated_Source\PSoC6\pdl\drivers/peripheral/gpio/cy_gpio.h **** *     <td>Added input parameter validation to the API functions</td>
 140:Generated_Source\PSoC6\pdl\drivers/peripheral/gpio/cy_gpio.h **** *     <td></td>
 141:Generated_Source\PSoC6\pdl\drivers/peripheral/gpio/cy_gpio.h **** *   </tr>
 142:Generated_Source\PSoC6\pdl\drivers/peripheral/gpio/cy_gpio.h **** *   <tr>
 143:Generated_Source\PSoC6\pdl\drivers/peripheral/gpio/cy_gpio.h **** *     <td>1.0</td>
 144:Generated_Source\PSoC6\pdl\drivers/peripheral/gpio/cy_gpio.h **** *     <td>Initial version</td>
 145:Generated_Source\PSoC6\pdl\drivers/peripheral/gpio/cy_gpio.h **** *     <td></td>
 146:Generated_Source\PSoC6\pdl\drivers/peripheral/gpio/cy_gpio.h **** *   </tr>
 147:Generated_Source\PSoC6\pdl\drivers/peripheral/gpio/cy_gpio.h **** * </table>
 148:Generated_Source\PSoC6\pdl\drivers/peripheral/gpio/cy_gpio.h **** *
 149:Generated_Source\PSoC6\pdl\drivers/peripheral/gpio/cy_gpio.h **** * \defgroup group_gpio_macros Macros
 150:Generated_Source\PSoC6\pdl\drivers/peripheral/gpio/cy_gpio.h **** * \defgroup group_gpio_functions Functions
 151:Generated_Source\PSoC6\pdl\drivers/peripheral/gpio/cy_gpio.h **** * \{
 152:Generated_Source\PSoC6\pdl\drivers/peripheral/gpio/cy_gpio.h **** *   \defgroup group_gpio_functions_init       Initialization Functions
 153:Generated_Source\PSoC6\pdl\drivers/peripheral/gpio/cy_gpio.h **** *   \defgroup group_gpio_functions_gpio       GPIO Functions
 154:Generated_Source\PSoC6\pdl\drivers/peripheral/gpio/cy_gpio.h **** *   \defgroup group_gpio_functions_sio        SIO Functions
 155:Generated_Source\PSoC6\pdl\drivers/peripheral/gpio/cy_gpio.h **** *   \defgroup group_gpio_functions_interrupt  Port Interrupt Functions
 156:Generated_Source\PSoC6\pdl\drivers/peripheral/gpio/cy_gpio.h **** * \}
 157:Generated_Source\PSoC6\pdl\drivers/peripheral/gpio/cy_gpio.h **** * \defgroup group_gpio_data_structures Data Structures
 158:Generated_Source\PSoC6\pdl\drivers/peripheral/gpio/cy_gpio.h **** * \defgroup group_gpio_enums Enumerated Types
 159:Generated_Source\PSoC6\pdl\drivers/peripheral/gpio/cy_gpio.h **** */
 160:Generated_Source\PSoC6\pdl\drivers/peripheral/gpio/cy_gpio.h **** 
 161:Generated_Source\PSoC6\pdl\drivers/peripheral/gpio/cy_gpio.h **** #if !defined(CY_GPIO_H)
 162:Generated_Source\PSoC6\pdl\drivers/peripheral/gpio/cy_gpio.h **** #define CY_GPIO_H
 163:Generated_Source\PSoC6\pdl\drivers/peripheral/gpio/cy_gpio.h **** 
 164:Generated_Source\PSoC6\pdl\drivers/peripheral/gpio/cy_gpio.h **** #include <stddef.h>
 165:Generated_Source\PSoC6\pdl\drivers/peripheral/gpio/cy_gpio.h **** #include "cy_device.h"
 166:Generated_Source\PSoC6\pdl\drivers/peripheral/gpio/cy_gpio.h **** #include "cy_device_headers.h"
 167:Generated_Source\PSoC6\pdl\drivers/peripheral/gpio/cy_gpio.h **** #include "cy_syslib.h"
 168:Generated_Source\PSoC6\pdl\drivers/peripheral/gpio/cy_gpio.h **** 
 169:Generated_Source\PSoC6\pdl\drivers/peripheral/gpio/cy_gpio.h **** #if defined(__cplusplus)
 170:Generated_Source\PSoC6\pdl\drivers/peripheral/gpio/cy_gpio.h **** extern "C" {
 171:Generated_Source\PSoC6\pdl\drivers/peripheral/gpio/cy_gpio.h **** #endif
 172:Generated_Source\PSoC6\pdl\drivers/peripheral/gpio/cy_gpio.h **** 
 173:Generated_Source\PSoC6\pdl\drivers/peripheral/gpio/cy_gpio.h **** /** \addtogroup group_gpio_macros
 174:Generated_Source\PSoC6\pdl\drivers/peripheral/gpio/cy_gpio.h **** * \{
 175:Generated_Source\PSoC6\pdl\drivers/peripheral/gpio/cy_gpio.h **** */
 176:Generated_Source\PSoC6\pdl\drivers/peripheral/gpio/cy_gpio.h **** 
 177:Generated_Source\PSoC6\pdl\drivers/peripheral/gpio/cy_gpio.h **** /** Driver major version */
 178:Generated_Source\PSoC6\pdl\drivers/peripheral/gpio/cy_gpio.h **** #define CY_GPIO_DRV_VERSION_MAJOR       1
 179:Generated_Source\PSoC6\pdl\drivers/peripheral/gpio/cy_gpio.h **** 
ARM GAS  C:\Users\vicpa\AppData\Local\Temp\ccqS0gg1.s 			page 32


 180:Generated_Source\PSoC6\pdl\drivers/peripheral/gpio/cy_gpio.h **** /** Driver minor version */
 181:Generated_Source\PSoC6\pdl\drivers/peripheral/gpio/cy_gpio.h **** #define CY_GPIO_DRV_VERSION_MINOR       20
 182:Generated_Source\PSoC6\pdl\drivers/peripheral/gpio/cy_gpio.h **** 
 183:Generated_Source\PSoC6\pdl\drivers/peripheral/gpio/cy_gpio.h **** /** GPIO driver ID */
 184:Generated_Source\PSoC6\pdl\drivers/peripheral/gpio/cy_gpio.h **** #define CY_GPIO_ID CY_PDL_DRV_ID(0x16U)
 185:Generated_Source\PSoC6\pdl\drivers/peripheral/gpio/cy_gpio.h **** 
 186:Generated_Source\PSoC6\pdl\drivers/peripheral/gpio/cy_gpio.h **** /** \} group_gpio_macros */
 187:Generated_Source\PSoC6\pdl\drivers/peripheral/gpio/cy_gpio.h **** 
 188:Generated_Source\PSoC6\pdl\drivers/peripheral/gpio/cy_gpio.h **** 
 189:Generated_Source\PSoC6\pdl\drivers/peripheral/gpio/cy_gpio.h **** /***************************************
 190:Generated_Source\PSoC6\pdl\drivers/peripheral/gpio/cy_gpio.h **** *       Enumerations
 191:Generated_Source\PSoC6\pdl\drivers/peripheral/gpio/cy_gpio.h **** ***************************************/
 192:Generated_Source\PSoC6\pdl\drivers/peripheral/gpio/cy_gpio.h **** /**
 193:Generated_Source\PSoC6\pdl\drivers/peripheral/gpio/cy_gpio.h **** * \addtogroup group_gpio_enums
 194:Generated_Source\PSoC6\pdl\drivers/peripheral/gpio/cy_gpio.h **** * \{
 195:Generated_Source\PSoC6\pdl\drivers/peripheral/gpio/cy_gpio.h **** */
 196:Generated_Source\PSoC6\pdl\drivers/peripheral/gpio/cy_gpio.h **** 
 197:Generated_Source\PSoC6\pdl\drivers/peripheral/gpio/cy_gpio.h **** /** GPIO Driver error codes */
 198:Generated_Source\PSoC6\pdl\drivers/peripheral/gpio/cy_gpio.h **** typedef enum 
 199:Generated_Source\PSoC6\pdl\drivers/peripheral/gpio/cy_gpio.h **** {
 200:Generated_Source\PSoC6\pdl\drivers/peripheral/gpio/cy_gpio.h ****     CY_GPIO_SUCCESS   = 0x00U,                                    /**< Returned successful */
 201:Generated_Source\PSoC6\pdl\drivers/peripheral/gpio/cy_gpio.h ****     CY_GPIO_BAD_PARAM = CY_GPIO_ID | CY_PDL_STATUS_ERROR | 0x01U, /**< Bad parameter was passed */
 202:Generated_Source\PSoC6\pdl\drivers/peripheral/gpio/cy_gpio.h **** } cy_en_gpio_status_t;
 203:Generated_Source\PSoC6\pdl\drivers/peripheral/gpio/cy_gpio.h **** 
 204:Generated_Source\PSoC6\pdl\drivers/peripheral/gpio/cy_gpio.h **** /** AMux switch open/close config */
 205:Generated_Source\PSoC6\pdl\drivers/peripheral/gpio/cy_gpio.h **** typedef enum
 206:Generated_Source\PSoC6\pdl\drivers/peripheral/gpio/cy_gpio.h **** {
 207:Generated_Source\PSoC6\pdl\drivers/peripheral/gpio/cy_gpio.h ****     CY_GPIO_AMUX_OPENALL,   /**< Open ground switch. Open right switch. Open left switch */
 208:Generated_Source\PSoC6\pdl\drivers/peripheral/gpio/cy_gpio.h ****     CY_GPIO_AMUX_L,         /**< Open ground switch. Open right switch. Close left switch */
 209:Generated_Source\PSoC6\pdl\drivers/peripheral/gpio/cy_gpio.h ****     CY_GPIO_AMUX_R,         /**< Open ground switch. Close right switch. Open left switch */
 210:Generated_Source\PSoC6\pdl\drivers/peripheral/gpio/cy_gpio.h ****     CY_GPIO_AMUX_LR,        /**< Open ground switch. Close right switch. Close left switch */
 211:Generated_Source\PSoC6\pdl\drivers/peripheral/gpio/cy_gpio.h ****     CY_GPIO_AMUX_G,         /**< Close ground switch. Open right switch. Open left switch */
 212:Generated_Source\PSoC6\pdl\drivers/peripheral/gpio/cy_gpio.h ****     CY_GPIO_AMUX_GL,        /**< Close ground switch. Open right switch. Close left switch */
 213:Generated_Source\PSoC6\pdl\drivers/peripheral/gpio/cy_gpio.h ****     CY_GPIO_AMUX_GR,        /**< Close ground switch. Close right switch. Open left switch */
 214:Generated_Source\PSoC6\pdl\drivers/peripheral/gpio/cy_gpio.h ****     CY_GPIO_AMUX_GLR,       /**< Close ground switch. Close right switch. Close left switch */
 215:Generated_Source\PSoC6\pdl\drivers/peripheral/gpio/cy_gpio.h **** }cy_en_gpio_amuxconnect_t;
 216:Generated_Source\PSoC6\pdl\drivers/peripheral/gpio/cy_gpio.h **** 
 217:Generated_Source\PSoC6\pdl\drivers/peripheral/gpio/cy_gpio.h **** /**
 218:Generated_Source\PSoC6\pdl\drivers/peripheral/gpio/cy_gpio.h **** * AMux Bus selection
 219:Generated_Source\PSoC6\pdl\drivers/peripheral/gpio/cy_gpio.h **** */
 220:Generated_Source\PSoC6\pdl\drivers/peripheral/gpio/cy_gpio.h **** typedef enum
 221:Generated_Source\PSoC6\pdl\drivers/peripheral/gpio/cy_gpio.h **** {
 222:Generated_Source\PSoC6\pdl\drivers/peripheral/gpio/cy_gpio.h ****     CY_GPIO_AMUXBUSA,       /**< AMuxBus A */
 223:Generated_Source\PSoC6\pdl\drivers/peripheral/gpio/cy_gpio.h ****     CY_GPIO_AMUXBUSB        /**< AMuxBus B */
 224:Generated_Source\PSoC6\pdl\drivers/peripheral/gpio/cy_gpio.h **** }cy_en_gpio_amuxselect_t;
 225:Generated_Source\PSoC6\pdl\drivers/peripheral/gpio/cy_gpio.h **** 
 226:Generated_Source\PSoC6\pdl\drivers/peripheral/gpio/cy_gpio.h **** /** \} group_gpio_enums */
 227:Generated_Source\PSoC6\pdl\drivers/peripheral/gpio/cy_gpio.h **** 
 228:Generated_Source\PSoC6\pdl\drivers/peripheral/gpio/cy_gpio.h **** 
 229:Generated_Source\PSoC6\pdl\drivers/peripheral/gpio/cy_gpio.h **** /***************************************
 230:Generated_Source\PSoC6\pdl\drivers/peripheral/gpio/cy_gpio.h **** *       Configuration Structures
 231:Generated_Source\PSoC6\pdl\drivers/peripheral/gpio/cy_gpio.h **** ***************************************/
 232:Generated_Source\PSoC6\pdl\drivers/peripheral/gpio/cy_gpio.h **** 
 233:Generated_Source\PSoC6\pdl\drivers/peripheral/gpio/cy_gpio.h **** /**
 234:Generated_Source\PSoC6\pdl\drivers/peripheral/gpio/cy_gpio.h **** * \addtogroup group_gpio_data_structures
 235:Generated_Source\PSoC6\pdl\drivers/peripheral/gpio/cy_gpio.h **** * \{
 236:Generated_Source\PSoC6\pdl\drivers/peripheral/gpio/cy_gpio.h **** */
ARM GAS  C:\Users\vicpa\AppData\Local\Temp\ccqS0gg1.s 			page 33


 237:Generated_Source\PSoC6\pdl\drivers/peripheral/gpio/cy_gpio.h **** 
 238:Generated_Source\PSoC6\pdl\drivers/peripheral/gpio/cy_gpio.h **** /** This structure is used to initialize a port of GPIO pins */
 239:Generated_Source\PSoC6\pdl\drivers/peripheral/gpio/cy_gpio.h **** typedef struct 
 240:Generated_Source\PSoC6\pdl\drivers/peripheral/gpio/cy_gpio.h **** {
 241:Generated_Source\PSoC6\pdl\drivers/peripheral/gpio/cy_gpio.h ****     uint32_t out;           /**< Initial output data for the IO pins in the port */
 242:Generated_Source\PSoC6\pdl\drivers/peripheral/gpio/cy_gpio.h ****     uint32_t intrMask;      /**< Interrupt enable mask for the port interrupt */
 243:Generated_Source\PSoC6\pdl\drivers/peripheral/gpio/cy_gpio.h ****     uint32_t intrCfg;       /**< Port pin interrupt edge detection configuration */
 244:Generated_Source\PSoC6\pdl\drivers/peripheral/gpio/cy_gpio.h ****     uint32_t cfg;           /**< Port pin drive modes and input buffer enable configuration */
 245:Generated_Source\PSoC6\pdl\drivers/peripheral/gpio/cy_gpio.h ****     uint32_t cfgIn;         /**< Port pin input buffer configuration */
 246:Generated_Source\PSoC6\pdl\drivers/peripheral/gpio/cy_gpio.h ****     uint32_t cfgOut;        /**< Port pin output buffer configuration */
 247:Generated_Source\PSoC6\pdl\drivers/peripheral/gpio/cy_gpio.h ****     uint32_t cfgSIO;        /**< Port SIO pins configuration */
 248:Generated_Source\PSoC6\pdl\drivers/peripheral/gpio/cy_gpio.h ****     uint32_t sel0Active;    /**< HSIOM selection for port pins 0,1,2,3 */
 249:Generated_Source\PSoC6\pdl\drivers/peripheral/gpio/cy_gpio.h ****     uint32_t sel1Active;    /**< HSIOM selection for port pins 4,5,6,7 */
 250:Generated_Source\PSoC6\pdl\drivers/peripheral/gpio/cy_gpio.h **** } cy_stc_gpio_prt_config_t;
 251:Generated_Source\PSoC6\pdl\drivers/peripheral/gpio/cy_gpio.h **** 
 252:Generated_Source\PSoC6\pdl\drivers/peripheral/gpio/cy_gpio.h **** /** This structure is used to initialize a single GPIO pin */
 253:Generated_Source\PSoC6\pdl\drivers/peripheral/gpio/cy_gpio.h **** typedef struct
 254:Generated_Source\PSoC6\pdl\drivers/peripheral/gpio/cy_gpio.h **** {
 255:Generated_Source\PSoC6\pdl\drivers/peripheral/gpio/cy_gpio.h ****     uint32_t outVal;         /**< Pin output state */
 256:Generated_Source\PSoC6\pdl\drivers/peripheral/gpio/cy_gpio.h ****     uint32_t driveMode;      /**< Drive mode */
 257:Generated_Source\PSoC6\pdl\drivers/peripheral/gpio/cy_gpio.h ****     en_hsiom_sel_t hsiom;    /**< HSIOM selection */
 258:Generated_Source\PSoC6\pdl\drivers/peripheral/gpio/cy_gpio.h ****     uint32_t intEdge;        /**< Interrupt Edge type */
 259:Generated_Source\PSoC6\pdl\drivers/peripheral/gpio/cy_gpio.h ****     uint32_t intMask;        /**< Interrupt enable mask */
 260:Generated_Source\PSoC6\pdl\drivers/peripheral/gpio/cy_gpio.h ****     uint32_t vtrip;          /**< Input buffer voltage trip type */
 261:Generated_Source\PSoC6\pdl\drivers/peripheral/gpio/cy_gpio.h ****     uint32_t slewRate;       /**< Output buffer slew rate */
 262:Generated_Source\PSoC6\pdl\drivers/peripheral/gpio/cy_gpio.h ****     uint32_t driveSel;       /**< Drive strength */
 263:Generated_Source\PSoC6\pdl\drivers/peripheral/gpio/cy_gpio.h ****     uint32_t vregEn;         /**< SIO pair output buffer mode */
 264:Generated_Source\PSoC6\pdl\drivers/peripheral/gpio/cy_gpio.h ****     uint32_t ibufMode;       /**< SIO pair input buffer mode */
 265:Generated_Source\PSoC6\pdl\drivers/peripheral/gpio/cy_gpio.h ****     uint32_t vtripSel;       /**< SIO pair input buffer trip point */
 266:Generated_Source\PSoC6\pdl\drivers/peripheral/gpio/cy_gpio.h ****     uint32_t vrefSel;        /**< SIO pair reference voltage for input buffer trip point */
 267:Generated_Source\PSoC6\pdl\drivers/peripheral/gpio/cy_gpio.h ****     uint32_t vohSel;         /**< SIO pair regulated voltage output level */
 268:Generated_Source\PSoC6\pdl\drivers/peripheral/gpio/cy_gpio.h **** } cy_stc_gpio_pin_config_t;
 269:Generated_Source\PSoC6\pdl\drivers/peripheral/gpio/cy_gpio.h **** 
 270:Generated_Source\PSoC6\pdl\drivers/peripheral/gpio/cy_gpio.h **** /** \} group_gpio_data_structures */
 271:Generated_Source\PSoC6\pdl\drivers/peripheral/gpio/cy_gpio.h **** 
 272:Generated_Source\PSoC6\pdl\drivers/peripheral/gpio/cy_gpio.h **** /***************************************
 273:Generated_Source\PSoC6\pdl\drivers/peripheral/gpio/cy_gpio.h **** *        Constants
 274:Generated_Source\PSoC6\pdl\drivers/peripheral/gpio/cy_gpio.h **** ***************************************/
 275:Generated_Source\PSoC6\pdl\drivers/peripheral/gpio/cy_gpio.h **** 
 276:Generated_Source\PSoC6\pdl\drivers/peripheral/gpio/cy_gpio.h **** /** \cond INTERNAL */
 277:Generated_Source\PSoC6\pdl\drivers/peripheral/gpio/cy_gpio.h **** 
 278:Generated_Source\PSoC6\pdl\drivers/peripheral/gpio/cy_gpio.h **** /* General Constants */
 279:Generated_Source\PSoC6\pdl\drivers/peripheral/gpio/cy_gpio.h **** #define CY_GPIO_PRT_HALF                       (4UL)      /**< Half-way point of a GPIO port */
 280:Generated_Source\PSoC6\pdl\drivers/peripheral/gpio/cy_gpio.h **** #define CY_GPIO_PRT_DEINIT                     (0UL)      /**< De-init value for port registers */
 281:Generated_Source\PSoC6\pdl\drivers/peripheral/gpio/cy_gpio.h **** 
 282:Generated_Source\PSoC6\pdl\drivers/peripheral/gpio/cy_gpio.h **** /* GPIO Masks */
 283:Generated_Source\PSoC6\pdl\drivers/peripheral/gpio/cy_gpio.h **** #define CY_GPIO_HSIOM_MASK                     (0x1FUL)   /**< HSIOM selection mask */
 284:Generated_Source\PSoC6\pdl\drivers/peripheral/gpio/cy_gpio.h **** #define CY_GPIO_OUT_MASK                       (0x01UL)   /**< Single pin mask for OUT register */
 285:Generated_Source\PSoC6\pdl\drivers/peripheral/gpio/cy_gpio.h **** #define CY_GPIO_IN_MASK                        (0x01UL)   /**< Single pin mask for IN register */
 286:Generated_Source\PSoC6\pdl\drivers/peripheral/gpio/cy_gpio.h **** #define CY_GPIO_CFG_DM_MASK                    (0x0FUL)   /**< Single pin mask for drive mode in CF
 287:Generated_Source\PSoC6\pdl\drivers/peripheral/gpio/cy_gpio.h **** #define CY_GPIO_CFG_IN_VTRIP_SEL_MASK          (0x01UL)   /**< Single pin mask for VTRIP selection 
 288:Generated_Source\PSoC6\pdl\drivers/peripheral/gpio/cy_gpio.h **** #define CY_GPIO_CFG_OUT_SLOW_MASK              (0x01UL)   /**< Single pin mask for slew rate in CFG
 289:Generated_Source\PSoC6\pdl\drivers/peripheral/gpio/cy_gpio.h **** #define CY_GPIO_CFG_OUT_DRIVE_SEL_MASK         (0x03UL)   /**< Single pin mask for drive strength i
 290:Generated_Source\PSoC6\pdl\drivers/peripheral/gpio/cy_gpio.h **** #define CY_GPIO_INTR_STATUS_MASK               (0x01UL)   /**< Single pin mask for interrupt status
 291:Generated_Source\PSoC6\pdl\drivers/peripheral/gpio/cy_gpio.h **** #define CY_GPIO_INTR_EN_MASK                   (0x01UL)   /**< Single pin mask for interrupt status
 292:Generated_Source\PSoC6\pdl\drivers/peripheral/gpio/cy_gpio.h **** #define CY_GPIO_INTR_MASKED_MASK               (0x01UL)   /**< Single pin mask for masked interrupt
 293:Generated_Source\PSoC6\pdl\drivers/peripheral/gpio/cy_gpio.h **** #define CY_GPIO_INTR_SET_MASK                  (0x01UL)   /**< Single pin mask for setting the inte
ARM GAS  C:\Users\vicpa\AppData\Local\Temp\ccqS0gg1.s 			page 34


 294:Generated_Source\PSoC6\pdl\drivers/peripheral/gpio/cy_gpio.h **** #define CY_GPIO_INTR_EDGE_MASK                 (0x03UL)   /**< Single pin mask for interrupt edge t
 295:Generated_Source\PSoC6\pdl\drivers/peripheral/gpio/cy_gpio.h **** #define CY_GPIO_INTR_FLT_EDGE_MASK             (0x07UL)   /**< Single pin mask for setting filtered
 296:Generated_Source\PSoC6\pdl\drivers/peripheral/gpio/cy_gpio.h **** 
 297:Generated_Source\PSoC6\pdl\drivers/peripheral/gpio/cy_gpio.h **** /* SIO Masks */
 298:Generated_Source\PSoC6\pdl\drivers/peripheral/gpio/cy_gpio.h **** #define CY_GPIO_VREG_EN_MASK                   (0x01UL)   /**< Single SIO pin mask for voltage regu
 299:Generated_Source\PSoC6\pdl\drivers/peripheral/gpio/cy_gpio.h **** #define CY_GPIO_IBUF_MASK                      (0x01UL)   /**< Single SIO pin mask for input buffer
 300:Generated_Source\PSoC6\pdl\drivers/peripheral/gpio/cy_gpio.h **** #define CY_GPIO_IBUF_SHIFT                     (0x01UL)   /**< Single SIO pin shift for input buffe
 301:Generated_Source\PSoC6\pdl\drivers/peripheral/gpio/cy_gpio.h **** #define CY_GPIO_VTRIP_SEL_MASK                 (0x01UL)   /**< Single SIO pin mask for the input bu
 302:Generated_Source\PSoC6\pdl\drivers/peripheral/gpio/cy_gpio.h **** #define CY_GPIO_VTRIP_SEL_SHIFT                (0x02UL)   /**< Single SIO pin shift for the input b
 303:Generated_Source\PSoC6\pdl\drivers/peripheral/gpio/cy_gpio.h **** #define CY_GPIO_VREF_SEL_MASK                  (0x03UL)   /**< Single SIO pin mask for voltage refe
 304:Generated_Source\PSoC6\pdl\drivers/peripheral/gpio/cy_gpio.h **** #define CY_GPIO_VREF_SEL_SHIFT                 (0x03UL)   /**< Single SIO pin shift for voltage ref
 305:Generated_Source\PSoC6\pdl\drivers/peripheral/gpio/cy_gpio.h **** #define CY_GPIO_VOH_SEL_MASK                   (0x07UL)   /**< Single SIO pin mask for VOH */
 306:Generated_Source\PSoC6\pdl\drivers/peripheral/gpio/cy_gpio.h **** #define CY_GPIO_VOH_SEL_SHIFT                  (0x05UL)   /**< Single SIO pin shift for VOH */
 307:Generated_Source\PSoC6\pdl\drivers/peripheral/gpio/cy_gpio.h **** 
 308:Generated_Source\PSoC6\pdl\drivers/peripheral/gpio/cy_gpio.h **** /* Special mask for SIO pin pair setting */
 309:Generated_Source\PSoC6\pdl\drivers/peripheral/gpio/cy_gpio.h **** #define CY_GPIO_SIO_ODD_PIN_MASK               (0x00FEUL) /**< SIO pin pair selection mask */
 310:Generated_Source\PSoC6\pdl\drivers/peripheral/gpio/cy_gpio.h **** #define CY_GPIO_SIO_PIN_MASK                   (0x00FFUL) /**< SIO pin pair mask */
 311:Generated_Source\PSoC6\pdl\drivers/peripheral/gpio/cy_gpio.h **** 
 312:Generated_Source\PSoC6\pdl\drivers/peripheral/gpio/cy_gpio.h **** /* Offsets */
 313:Generated_Source\PSoC6\pdl\drivers/peripheral/gpio/cy_gpio.h **** #define CY_GPIO_HSIOM_OFFSET                   (3UL)      /**< Offset for HSIOM */
 314:Generated_Source\PSoC6\pdl\drivers/peripheral/gpio/cy_gpio.h **** #define CY_GPIO_DRIVE_MODE_OFFSET              (2UL)      /**< Offset for Drive mode */
 315:Generated_Source\PSoC6\pdl\drivers/peripheral/gpio/cy_gpio.h **** #define CY_GPIO_INBUF_OFFSET                   (3UL)      /**< Offset for input buffer */
 316:Generated_Source\PSoC6\pdl\drivers/peripheral/gpio/cy_gpio.h **** #define CY_GPIO_CFG_OUT_DRIVE_OFFSET           (16UL)     /**< Offset for drive strength */
 317:Generated_Source\PSoC6\pdl\drivers/peripheral/gpio/cy_gpio.h **** #define CY_GPIO_INTR_CFG_OFFSET                (1UL)      /**< Offset for interrupt config */
 318:Generated_Source\PSoC6\pdl\drivers/peripheral/gpio/cy_gpio.h **** #define CY_GPIO_INTR_FILT_OFFSET               (18UL)     /**< Offset for filtered interrupt config
 319:Generated_Source\PSoC6\pdl\drivers/peripheral/gpio/cy_gpio.h **** #define CY_GPIO_CFG_SIO_OFFSET                 (2UL)      /**< Offset for SIO config */
 320:Generated_Source\PSoC6\pdl\drivers/peripheral/gpio/cy_gpio.h **** 
 321:Generated_Source\PSoC6\pdl\drivers/peripheral/gpio/cy_gpio.h **** /* Parameter validation constants */
 322:Generated_Source\PSoC6\pdl\drivers/peripheral/gpio/cy_gpio.h **** #define CY_GPIO_PINS_MAX                       (8UL)      /**< Number of pins in the port */
 323:Generated_Source\PSoC6\pdl\drivers/peripheral/gpio/cy_gpio.h **** #define CY_GPIO_PRT_PINS_MASK                  (0x0000000FFUL)
 324:Generated_Source\PSoC6\pdl\drivers/peripheral/gpio/cy_gpio.h **** #define CY_GPIO_PRT_INTR_CFG_EDGE_SEL_MASK     (GPIO_PRT_INTR_CFG_EDGE0_SEL_Msk | \
 325:Generated_Source\PSoC6\pdl\drivers/peripheral/gpio/cy_gpio.h ****                                                 GPIO_PRT_INTR_CFG_EDGE1_SEL_Msk | \
 326:Generated_Source\PSoC6\pdl\drivers/peripheral/gpio/cy_gpio.h ****                                                 GPIO_PRT_INTR_CFG_EDGE2_SEL_Msk | \
 327:Generated_Source\PSoC6\pdl\drivers/peripheral/gpio/cy_gpio.h ****                                                 GPIO_PRT_INTR_CFG_EDGE3_SEL_Msk | \
 328:Generated_Source\PSoC6\pdl\drivers/peripheral/gpio/cy_gpio.h ****                                                 GPIO_PRT_INTR_CFG_EDGE4_SEL_Msk | \
 329:Generated_Source\PSoC6\pdl\drivers/peripheral/gpio/cy_gpio.h ****                                                 GPIO_PRT_INTR_CFG_EDGE5_SEL_Msk | \
 330:Generated_Source\PSoC6\pdl\drivers/peripheral/gpio/cy_gpio.h ****                                                 GPIO_PRT_INTR_CFG_EDGE6_SEL_Msk | \
 331:Generated_Source\PSoC6\pdl\drivers/peripheral/gpio/cy_gpio.h ****                                                 GPIO_PRT_INTR_CFG_EDGE7_SEL_Msk)
 332:Generated_Source\PSoC6\pdl\drivers/peripheral/gpio/cy_gpio.h **** #define CY_GPIO_PRT_INTR_CFG_RANGE_MASK        (CY_GPIO_PRT_INTR_CFG_EDGE_SEL_MASK | \
 333:Generated_Source\PSoC6\pdl\drivers/peripheral/gpio/cy_gpio.h ****                                                 GPIO_PRT_INTR_CFG_FLT_EDGE_SEL_Msk | \
 334:Generated_Source\PSoC6\pdl\drivers/peripheral/gpio/cy_gpio.h ****                                                 GPIO_PRT_INTR_CFG_FLT_SEL_Msk)
 335:Generated_Source\PSoC6\pdl\drivers/peripheral/gpio/cy_gpio.h **** #define CY_GPIO_PRT_INT_MASK_MASK              (0x0000001FFUL)
 336:Generated_Source\PSoC6\pdl\drivers/peripheral/gpio/cy_gpio.h **** #define CY_GPIO_PRT_SEL_ACTIVE_MASK            (0x1FFFFFFFUL)
 337:Generated_Source\PSoC6\pdl\drivers/peripheral/gpio/cy_gpio.h **** 
 338:Generated_Source\PSoC6\pdl\drivers/peripheral/gpio/cy_gpio.h **** #define GPIO_MAX_SPLIT_CELL_SEGMENTS           (9U)
 339:Generated_Source\PSoC6\pdl\drivers/peripheral/gpio/cy_gpio.h **** 
 340:Generated_Source\PSoC6\pdl\drivers/peripheral/gpio/cy_gpio.h **** /* Parameter validation macros */
 341:Generated_Source\PSoC6\pdl\drivers/peripheral/gpio/cy_gpio.h **** #define CY_GPIO_IS_PIN_VALID(pinNum)           (CY_GPIO_PINS_MAX > (pinNum))
 342:Generated_Source\PSoC6\pdl\drivers/peripheral/gpio/cy_gpio.h **** #define CY_GPIO_IS_FILTER_PIN_VALID(pinNum)    (CY_GPIO_PINS_MAX >= (pinNum))
 343:Generated_Source\PSoC6\pdl\drivers/peripheral/gpio/cy_gpio.h **** #define CY_GPIO_IS_VALUE_VALID(outVal)         (1UL >= (outVal))
 344:Generated_Source\PSoC6\pdl\drivers/peripheral/gpio/cy_gpio.h **** #define CY_GPIO_IS_DM_VALID(driveMode)         (0U == ((driveMode) & (uint32_t)~CY_GPIO_CFG_DM_MASK
 345:Generated_Source\PSoC6\pdl\drivers/peripheral/gpio/cy_gpio.h **** 
 346:Generated_Source\PSoC6\pdl\drivers/peripheral/gpio/cy_gpio.h **** #define CY_GPIO_IS_HSIOM_VALID(hsiom)          (0U == ((hsiom) & (uint32_t)~CY_GPIO_HSIOM_MASK))
 347:Generated_Source\PSoC6\pdl\drivers/peripheral/gpio/cy_gpio.h **** 
 348:Generated_Source\PSoC6\pdl\drivers/peripheral/gpio/cy_gpio.h **** #define CY_GPIO_IS_INT_EDGE_VALID(intEdge)     ((CY_GPIO_INTR_DISABLE  == (intEdge)) || \
 349:Generated_Source\PSoC6\pdl\drivers/peripheral/gpio/cy_gpio.h ****                                                 (CY_GPIO_INTR_RISING   == (intEdge)) || \
 350:Generated_Source\PSoC6\pdl\drivers/peripheral/gpio/cy_gpio.h ****                                                 (CY_GPIO_INTR_FALLING  == (intEdge)) || \
ARM GAS  C:\Users\vicpa\AppData\Local\Temp\ccqS0gg1.s 			page 35


 351:Generated_Source\PSoC6\pdl\drivers/peripheral/gpio/cy_gpio.h ****                                                 (CY_GPIO_INTR_BOTH     == (intEdge)))
 352:Generated_Source\PSoC6\pdl\drivers/peripheral/gpio/cy_gpio.h **** 
 353:Generated_Source\PSoC6\pdl\drivers/peripheral/gpio/cy_gpio.h **** #define CY_GPIO_IS_DRIVE_SEL_VALID(driveSel)   ((CY_GPIO_DRIVE_FULL    == (driveSel)) || \
 354:Generated_Source\PSoC6\pdl\drivers/peripheral/gpio/cy_gpio.h ****                                                 (CY_GPIO_DRIVE_1_2     == (driveSel)) || \
 355:Generated_Source\PSoC6\pdl\drivers/peripheral/gpio/cy_gpio.h ****                                                 (CY_GPIO_DRIVE_1_4     == (driveSel)) || \
 356:Generated_Source\PSoC6\pdl\drivers/peripheral/gpio/cy_gpio.h ****                                                 (CY_GPIO_DRIVE_1_8     == (driveSel)))
 357:Generated_Source\PSoC6\pdl\drivers/peripheral/gpio/cy_gpio.h **** 
 358:Generated_Source\PSoC6\pdl\drivers/peripheral/gpio/cy_gpio.h **** #define CY_GPIO_IS_VREF_SEL_VALID(vrefSel)     ((CY_SIO_VREF_PINREF    == (vrefSel)) || \
 359:Generated_Source\PSoC6\pdl\drivers/peripheral/gpio/cy_gpio.h ****                                                 (CY_SIO_VREF_1_2V      == (vrefSel)) || \
 360:Generated_Source\PSoC6\pdl\drivers/peripheral/gpio/cy_gpio.h ****                                                 (CY_SIO_VREF_AMUX_A    == (vrefSel)) || \
 361:Generated_Source\PSoC6\pdl\drivers/peripheral/gpio/cy_gpio.h ****                                                 (CY_SIO_VREF_AMUX_B    == (vrefSel)))
 362:Generated_Source\PSoC6\pdl\drivers/peripheral/gpio/cy_gpio.h **** 
 363:Generated_Source\PSoC6\pdl\drivers/peripheral/gpio/cy_gpio.h **** #define CY_GPIO_IS_VOH_SEL_VALID(vrefSel)      ((CY_SIO_VOH_1_00       == (vrefSel)) || \
 364:Generated_Source\PSoC6\pdl\drivers/peripheral/gpio/cy_gpio.h ****                                                 (CY_SIO_VOH_1_25       == (vrefSel)) || \
 365:Generated_Source\PSoC6\pdl\drivers/peripheral/gpio/cy_gpio.h ****                                                 (CY_SIO_VOH_1_49       == (vrefSel)) || \
 366:Generated_Source\PSoC6\pdl\drivers/peripheral/gpio/cy_gpio.h ****                                                 (CY_SIO_VOH_1_67       == (vrefSel)) || \
 367:Generated_Source\PSoC6\pdl\drivers/peripheral/gpio/cy_gpio.h ****                                                 (CY_SIO_VOH_2_08       == (vrefSel)) || \
 368:Generated_Source\PSoC6\pdl\drivers/peripheral/gpio/cy_gpio.h ****                                                 (CY_SIO_VOH_2_50       == (vrefSel)) || \
 369:Generated_Source\PSoC6\pdl\drivers/peripheral/gpio/cy_gpio.h ****                                                 (CY_SIO_VOH_2_78       == (vrefSel)) || \
 370:Generated_Source\PSoC6\pdl\drivers/peripheral/gpio/cy_gpio.h ****                                                 (CY_SIO_VOH_4_16       == (vrefSel)))
 371:Generated_Source\PSoC6\pdl\drivers/peripheral/gpio/cy_gpio.h ****                    
 372:Generated_Source\PSoC6\pdl\drivers/peripheral/gpio/cy_gpio.h **** #define CY_GPIO_IS_PIN_BIT_VALID(pinBit)       (0U == ((pinBit) & (uint32_t)~CY_GPIO_PRT_PINS_MASK)
 373:Generated_Source\PSoC6\pdl\drivers/peripheral/gpio/cy_gpio.h **** #define CY_GPIO_IS_INTR_CFG_VALID(intrCfg)     (0U == ((intrCfg) & (uint32_t)~CY_GPIO_PRT_INTR_CFG_
 374:Generated_Source\PSoC6\pdl\drivers/peripheral/gpio/cy_gpio.h **** #define CY_GPIO_IS_INTR_MASK_VALID(intrMask)   (0U == ((intrMask) & (uint32_t)~CY_GPIO_PRT_INT_MASK
 375:Generated_Source\PSoC6\pdl\drivers/peripheral/gpio/cy_gpio.h **** #define CY_GPIO_IS_SEL_ACT_VALID(selActive)    (0U == ((selActive) & (uint32_t)~CY_GPIO_PRT_SEL_ACT
 376:Generated_Source\PSoC6\pdl\drivers/peripheral/gpio/cy_gpio.h **** 
 377:Generated_Source\PSoC6\pdl\drivers/peripheral/gpio/cy_gpio.h **** #define CY_GPIO_IS_AMUX_SPLIT_VALID(switchCtrl)       (((uint32_t) (switchCtrl)) < GPIO_MAX_SPLIT_C
 378:Generated_Source\PSoC6\pdl\drivers/peripheral/gpio/cy_gpio.h **** 
 379:Generated_Source\PSoC6\pdl\drivers/peripheral/gpio/cy_gpio.h **** #define CY_GPIO_IS_AMUX_CONNECT_VALID(amuxConnect)    ((CY_GPIO_AMUX_OPENALL == (amuxConnect)) || \
 380:Generated_Source\PSoC6\pdl\drivers/peripheral/gpio/cy_gpio.h ****                                                        (CY_GPIO_AMUX_L       == (amuxConnect)) || \
 381:Generated_Source\PSoC6\pdl\drivers/peripheral/gpio/cy_gpio.h ****                                                        (CY_GPIO_AMUX_R       == (amuxConnect)) || \
 382:Generated_Source\PSoC6\pdl\drivers/peripheral/gpio/cy_gpio.h ****                                                        (CY_GPIO_AMUX_LR      == (amuxConnect)) || \
 383:Generated_Source\PSoC6\pdl\drivers/peripheral/gpio/cy_gpio.h ****                                                        (CY_GPIO_AMUX_G       == (amuxConnect)) || \
 384:Generated_Source\PSoC6\pdl\drivers/peripheral/gpio/cy_gpio.h ****                                                        (CY_GPIO_AMUX_GL      == (amuxConnect)) || \
 385:Generated_Source\PSoC6\pdl\drivers/peripheral/gpio/cy_gpio.h ****                                                        (CY_GPIO_AMUX_GR      == (amuxConnect)) || \
 386:Generated_Source\PSoC6\pdl\drivers/peripheral/gpio/cy_gpio.h ****                                                        (CY_GPIO_AMUX_GLR     == (amuxConnect)))
 387:Generated_Source\PSoC6\pdl\drivers/peripheral/gpio/cy_gpio.h **** 
 388:Generated_Source\PSoC6\pdl\drivers/peripheral/gpio/cy_gpio.h **** #define CY_GPIO_IS_AMUX_SELECT_VALID(amuxBus)       ((CY_GPIO_AMUXBUSA       == (amuxBus)) || \
 389:Generated_Source\PSoC6\pdl\drivers/peripheral/gpio/cy_gpio.h ****                                                      (CY_GPIO_AMUXBUSB       == (amuxBus)))
 390:Generated_Source\PSoC6\pdl\drivers/peripheral/gpio/cy_gpio.h **** /** \endcond */
 391:Generated_Source\PSoC6\pdl\drivers/peripheral/gpio/cy_gpio.h **** 
 392:Generated_Source\PSoC6\pdl\drivers/peripheral/gpio/cy_gpio.h **** 
 393:Generated_Source\PSoC6\pdl\drivers/peripheral/gpio/cy_gpio.h **** /***************************************
 394:Generated_Source\PSoC6\pdl\drivers/peripheral/gpio/cy_gpio.h **** *        Function Constants
 395:Generated_Source\PSoC6\pdl\drivers/peripheral/gpio/cy_gpio.h **** ***************************************/
 396:Generated_Source\PSoC6\pdl\drivers/peripheral/gpio/cy_gpio.h **** 
 397:Generated_Source\PSoC6\pdl\drivers/peripheral/gpio/cy_gpio.h **** /**
 398:Generated_Source\PSoC6\pdl\drivers/peripheral/gpio/cy_gpio.h **** * \addtogroup group_gpio_macros
 399:Generated_Source\PSoC6\pdl\drivers/peripheral/gpio/cy_gpio.h **** * \{
 400:Generated_Source\PSoC6\pdl\drivers/peripheral/gpio/cy_gpio.h **** */
 401:Generated_Source\PSoC6\pdl\drivers/peripheral/gpio/cy_gpio.h **** 
 402:Generated_Source\PSoC6\pdl\drivers/peripheral/gpio/cy_gpio.h **** /**
 403:Generated_Source\PSoC6\pdl\drivers/peripheral/gpio/cy_gpio.h **** * \defgroup group_gpio_driveModes Pin drive mode
 404:Generated_Source\PSoC6\pdl\drivers/peripheral/gpio/cy_gpio.h **** * \{
 405:Generated_Source\PSoC6\pdl\drivers/peripheral/gpio/cy_gpio.h **** * Constants to be used for setting the drive mode of the pin.
 406:Generated_Source\PSoC6\pdl\drivers/peripheral/gpio/cy_gpio.h **** */
 407:Generated_Source\PSoC6\pdl\drivers/peripheral/gpio/cy_gpio.h **** #define CY_GPIO_DM_ANALOG                      (0x00UL) /**< Analog High-Z. Input buffer off */
ARM GAS  C:\Users\vicpa\AppData\Local\Temp\ccqS0gg1.s 			page 36


 408:Generated_Source\PSoC6\pdl\drivers/peripheral/gpio/cy_gpio.h **** #define CY_GPIO_DM_PULLUP_IN_OFF               (0x02UL) /**< Resistive Pull-Up. Input buffer off */
 409:Generated_Source\PSoC6\pdl\drivers/peripheral/gpio/cy_gpio.h **** #define CY_GPIO_DM_PULLDOWN_IN_OFF             (0x03UL) /**< Resistive Pull-Down. Input buffer off 
 410:Generated_Source\PSoC6\pdl\drivers/peripheral/gpio/cy_gpio.h **** #define CY_GPIO_DM_OD_DRIVESLOW_IN_OFF         (0x04UL) /**< Open Drain, Drives Low. Input buffer o
 411:Generated_Source\PSoC6\pdl\drivers/peripheral/gpio/cy_gpio.h **** #define CY_GPIO_DM_OD_DRIVESHIGH_IN_OFF        (0x05UL) /**< Open Drain, Drives High. Input buffer 
 412:Generated_Source\PSoC6\pdl\drivers/peripheral/gpio/cy_gpio.h **** #define CY_GPIO_DM_STRONG_IN_OFF               (0x06UL) /**< Strong Drive. Input buffer off */
 413:Generated_Source\PSoC6\pdl\drivers/peripheral/gpio/cy_gpio.h **** #define CY_GPIO_DM_PULLUP_DOWN_IN_OFF          (0x07UL) /**< Resistive Pull-Up/Down. Input buffer o
 414:Generated_Source\PSoC6\pdl\drivers/peripheral/gpio/cy_gpio.h **** #define CY_GPIO_DM_HIGHZ                       (0x08UL) /**< Digital High-Z. Input buffer on */
 415:Generated_Source\PSoC6\pdl\drivers/peripheral/gpio/cy_gpio.h **** #define CY_GPIO_DM_PULLUP                      (0x0AUL) /**< Resistive Pull-Up. Input buffer on */
 416:Generated_Source\PSoC6\pdl\drivers/peripheral/gpio/cy_gpio.h **** #define CY_GPIO_DM_PULLDOWN                    (0x0BUL) /**< Resistive Pull-Down. Input buffer on *
 417:Generated_Source\PSoC6\pdl\drivers/peripheral/gpio/cy_gpio.h **** #define CY_GPIO_DM_OD_DRIVESLOW                (0x0CUL) /**< Open Drain, Drives Low. Input buffer o
 418:Generated_Source\PSoC6\pdl\drivers/peripheral/gpio/cy_gpio.h **** #define CY_GPIO_DM_OD_DRIVESHIGH               (0x0DUL) /**< Open Drain, Drives High. Input buffer 
 419:Generated_Source\PSoC6\pdl\drivers/peripheral/gpio/cy_gpio.h **** #define CY_GPIO_DM_STRONG                      (0x0EUL) /**< Strong Drive. Input buffer on */
 420:Generated_Source\PSoC6\pdl\drivers/peripheral/gpio/cy_gpio.h **** #define CY_GPIO_DM_PULLUP_DOWN                 (0x0FUL) /**< Resistive Pull-Up/Down. Input buffer o
 421:Generated_Source\PSoC6\pdl\drivers/peripheral/gpio/cy_gpio.h **** /** \} */
 422:Generated_Source\PSoC6\pdl\drivers/peripheral/gpio/cy_gpio.h **** 
 423:Generated_Source\PSoC6\pdl\drivers/peripheral/gpio/cy_gpio.h **** /**
 424:Generated_Source\PSoC6\pdl\drivers/peripheral/gpio/cy_gpio.h **** * \defgroup group_gpio_vtrip Voltage trip mode
 425:Generated_Source\PSoC6\pdl\drivers/peripheral/gpio/cy_gpio.h **** * \{
 426:Generated_Source\PSoC6\pdl\drivers/peripheral/gpio/cy_gpio.h **** * Constants to be used for setting the voltage trip type on the pin.
 427:Generated_Source\PSoC6\pdl\drivers/peripheral/gpio/cy_gpio.h **** */
 428:Generated_Source\PSoC6\pdl\drivers/peripheral/gpio/cy_gpio.h **** #define CY_GPIO_VTRIP_CMOS                     (0x00UL) /**< Input buffer compatible with CMOS and 
 429:Generated_Source\PSoC6\pdl\drivers/peripheral/gpio/cy_gpio.h **** #define CY_GPIO_VTRIP_TTL                      (0x01UL) /**< Input buffer compatible with TTL and M
 430:Generated_Source\PSoC6\pdl\drivers/peripheral/gpio/cy_gpio.h **** /** \} */
 431:Generated_Source\PSoC6\pdl\drivers/peripheral/gpio/cy_gpio.h **** 
 432:Generated_Source\PSoC6\pdl\drivers/peripheral/gpio/cy_gpio.h **** /**
 433:Generated_Source\PSoC6\pdl\drivers/peripheral/gpio/cy_gpio.h **** * \defgroup group_gpio_slewRate Slew Rate Mode
 434:Generated_Source\PSoC6\pdl\drivers/peripheral/gpio/cy_gpio.h **** * \{
 435:Generated_Source\PSoC6\pdl\drivers/peripheral/gpio/cy_gpio.h **** * Constants to be used for setting the slew rate of the pin.
 436:Generated_Source\PSoC6\pdl\drivers/peripheral/gpio/cy_gpio.h **** */
 437:Generated_Source\PSoC6\pdl\drivers/peripheral/gpio/cy_gpio.h **** #define CY_GPIO_SLEW_FAST                      (0x00UL) /**< Fast slew rate */
 438:Generated_Source\PSoC6\pdl\drivers/peripheral/gpio/cy_gpio.h **** #define CY_GPIO_SLEW_SLOW                      (0x01UL) /**< Slow slew rate */
 439:Generated_Source\PSoC6\pdl\drivers/peripheral/gpio/cy_gpio.h **** /** \} */
 440:Generated_Source\PSoC6\pdl\drivers/peripheral/gpio/cy_gpio.h **** 
 441:Generated_Source\PSoC6\pdl\drivers/peripheral/gpio/cy_gpio.h **** /**
 442:Generated_Source\PSoC6\pdl\drivers/peripheral/gpio/cy_gpio.h **** * \defgroup group_gpio_driveStrength Pin drive strength
 443:Generated_Source\PSoC6\pdl\drivers/peripheral/gpio/cy_gpio.h **** * \{
 444:Generated_Source\PSoC6\pdl\drivers/peripheral/gpio/cy_gpio.h **** * Constants to be used for setting the drive strength of the pin.
 445:Generated_Source\PSoC6\pdl\drivers/peripheral/gpio/cy_gpio.h **** */
 446:Generated_Source\PSoC6\pdl\drivers/peripheral/gpio/cy_gpio.h **** #define CY_GPIO_DRIVE_FULL                     (0x00UL) /**< Full drive strength: Max drive current
 447:Generated_Source\PSoC6\pdl\drivers/peripheral/gpio/cy_gpio.h **** #define CY_GPIO_DRIVE_1_2                      (0x01UL) /**< 1/2 drive strength: 1/2 drive current 
 448:Generated_Source\PSoC6\pdl\drivers/peripheral/gpio/cy_gpio.h **** #define CY_GPIO_DRIVE_1_4                      (0x02UL) /**< 1/4 drive strength: 1/4 drive current 
 449:Generated_Source\PSoC6\pdl\drivers/peripheral/gpio/cy_gpio.h **** #define CY_GPIO_DRIVE_1_8                      (0x03UL) /**< 1/8 drive strength: 1/8 drive current 
 450:Generated_Source\PSoC6\pdl\drivers/peripheral/gpio/cy_gpio.h **** /** \} */
 451:Generated_Source\PSoC6\pdl\drivers/peripheral/gpio/cy_gpio.h **** 
 452:Generated_Source\PSoC6\pdl\drivers/peripheral/gpio/cy_gpio.h **** /**
 453:Generated_Source\PSoC6\pdl\drivers/peripheral/gpio/cy_gpio.h **** * \defgroup group_gpio_interruptTrigger Interrupt trigger type
 454:Generated_Source\PSoC6\pdl\drivers/peripheral/gpio/cy_gpio.h **** * \{
 455:Generated_Source\PSoC6\pdl\drivers/peripheral/gpio/cy_gpio.h **** * Constants to be used for setting the interrupt trigger type on the pin.
 456:Generated_Source\PSoC6\pdl\drivers/peripheral/gpio/cy_gpio.h **** */
 457:Generated_Source\PSoC6\pdl\drivers/peripheral/gpio/cy_gpio.h **** #define CY_GPIO_INTR_DISABLE                   (0x00UL) /**< Disable the pin interrupt generation *
 458:Generated_Source\PSoC6\pdl\drivers/peripheral/gpio/cy_gpio.h **** #define CY_GPIO_INTR_RISING                    (0x01UL) /**< Rising-Edge interrupt */
 459:Generated_Source\PSoC6\pdl\drivers/peripheral/gpio/cy_gpio.h **** #define CY_GPIO_INTR_FALLING                   (0x02UL) /**< Falling-Edge interrupt */
 460:Generated_Source\PSoC6\pdl\drivers/peripheral/gpio/cy_gpio.h **** #define CY_GPIO_INTR_BOTH                      (0x03UL) /**< Both-Edge interrupt */
 461:Generated_Source\PSoC6\pdl\drivers/peripheral/gpio/cy_gpio.h **** /** \} */
 462:Generated_Source\PSoC6\pdl\drivers/peripheral/gpio/cy_gpio.h **** 
 463:Generated_Source\PSoC6\pdl\drivers/peripheral/gpio/cy_gpio.h **** /**
 464:Generated_Source\PSoC6\pdl\drivers/peripheral/gpio/cy_gpio.h **** * \defgroup group_gpio_sioVreg SIO output buffer mode
ARM GAS  C:\Users\vicpa\AppData\Local\Temp\ccqS0gg1.s 			page 37


 465:Generated_Source\PSoC6\pdl\drivers/peripheral/gpio/cy_gpio.h **** * \{
 466:Generated_Source\PSoC6\pdl\drivers/peripheral/gpio/cy_gpio.h **** * Constants to be used for setting the SIO output buffer mode on the pin.
 467:Generated_Source\PSoC6\pdl\drivers/peripheral/gpio/cy_gpio.h **** */
 468:Generated_Source\PSoC6\pdl\drivers/peripheral/gpio/cy_gpio.h **** #define CY_SIO_VREG_UNREGULATED                (0x00UL) /**< Unregulated output buffer */
 469:Generated_Source\PSoC6\pdl\drivers/peripheral/gpio/cy_gpio.h **** #define CY_SIO_VREG_REGULATED                  (0x01UL) /**< Regulated output buffer */
 470:Generated_Source\PSoC6\pdl\drivers/peripheral/gpio/cy_gpio.h **** /** \} */
 471:Generated_Source\PSoC6\pdl\drivers/peripheral/gpio/cy_gpio.h **** 
 472:Generated_Source\PSoC6\pdl\drivers/peripheral/gpio/cy_gpio.h **** /**
 473:Generated_Source\PSoC6\pdl\drivers/peripheral/gpio/cy_gpio.h **** * \defgroup group_gpio_sioIbuf SIO input buffer mode
 474:Generated_Source\PSoC6\pdl\drivers/peripheral/gpio/cy_gpio.h **** * \{
 475:Generated_Source\PSoC6\pdl\drivers/peripheral/gpio/cy_gpio.h **** * Constants to be used for setting the SIO input buffer mode on the pin.
 476:Generated_Source\PSoC6\pdl\drivers/peripheral/gpio/cy_gpio.h **** */
 477:Generated_Source\PSoC6\pdl\drivers/peripheral/gpio/cy_gpio.h **** #define CY_SIO_IBUF_SINGLEENDED                (0x00UL) /**< Single ended input buffer */
 478:Generated_Source\PSoC6\pdl\drivers/peripheral/gpio/cy_gpio.h **** #define CY_SIO_IBUF_DIFFERENTIAL               (0x01UL) /**< Differential input buffer */
 479:Generated_Source\PSoC6\pdl\drivers/peripheral/gpio/cy_gpio.h **** /** \} */
 480:Generated_Source\PSoC6\pdl\drivers/peripheral/gpio/cy_gpio.h **** 
 481:Generated_Source\PSoC6\pdl\drivers/peripheral/gpio/cy_gpio.h **** /**
 482:Generated_Source\PSoC6\pdl\drivers/peripheral/gpio/cy_gpio.h **** * \defgroup group_gpio_sioVtrip SIO input buffer trip-point
 483:Generated_Source\PSoC6\pdl\drivers/peripheral/gpio/cy_gpio.h **** * \{
 484:Generated_Source\PSoC6\pdl\drivers/peripheral/gpio/cy_gpio.h **** * Constants to be used for setting the SIO input buffer trip-point of the pin.
 485:Generated_Source\PSoC6\pdl\drivers/peripheral/gpio/cy_gpio.h **** */
 486:Generated_Source\PSoC6\pdl\drivers/peripheral/gpio/cy_gpio.h **** #define CY_SIO_VTRIP_CMOS                      (0x00UL) /**< CMOS input buffer (single-ended) */
 487:Generated_Source\PSoC6\pdl\drivers/peripheral/gpio/cy_gpio.h **** #define CY_SIO_VTRIP_TTL                       (0x01UL) /**< TTL input buffer (single-ended) */
 488:Generated_Source\PSoC6\pdl\drivers/peripheral/gpio/cy_gpio.h **** #define CY_SIO_VTRIP_0_5VDDIO_0_5VOH           (0x00UL) /**< 0.5xVddio or 0.5xVoh (differential) */
 489:Generated_Source\PSoC6\pdl\drivers/peripheral/gpio/cy_gpio.h **** #define CY_SIO_VTRIP_0_4VDDIO_1_0VREF          (0x01UL) /**< 0.4xVddio or 0.4xVoh (differential) */
 490:Generated_Source\PSoC6\pdl\drivers/peripheral/gpio/cy_gpio.h **** /** \} */
 491:Generated_Source\PSoC6\pdl\drivers/peripheral/gpio/cy_gpio.h **** 
 492:Generated_Source\PSoC6\pdl\drivers/peripheral/gpio/cy_gpio.h **** /**
 493:Generated_Source\PSoC6\pdl\drivers/peripheral/gpio/cy_gpio.h **** * \defgroup group_gpio_sioVref SIO reference voltage for input buffer trip-point
 494:Generated_Source\PSoC6\pdl\drivers/peripheral/gpio/cy_gpio.h **** * \{
 495:Generated_Source\PSoC6\pdl\drivers/peripheral/gpio/cy_gpio.h **** * Constants to be used for setting the reference voltage of SIO input buffer trip-point.
 496:Generated_Source\PSoC6\pdl\drivers/peripheral/gpio/cy_gpio.h **** */
 497:Generated_Source\PSoC6\pdl\drivers/peripheral/gpio/cy_gpio.h **** #define CY_SIO_VREF_PINREF                     (0x00UL) /**< Vref from analog pin */
 498:Generated_Source\PSoC6\pdl\drivers/peripheral/gpio/cy_gpio.h **** #define CY_SIO_VREF_1_2V                       (0x01UL) /**< Vref from internal 1.2V reference */
 499:Generated_Source\PSoC6\pdl\drivers/peripheral/gpio/cy_gpio.h **** #define CY_SIO_VREF_AMUX_A                     (0x02UL) /**< Vref from AMUXBUS_A */
 500:Generated_Source\PSoC6\pdl\drivers/peripheral/gpio/cy_gpio.h **** #define CY_SIO_VREF_AMUX_B                     (0x03UL) /**< Vref from AMUXBUS_B */
 501:Generated_Source\PSoC6\pdl\drivers/peripheral/gpio/cy_gpio.h **** /** \} */
 502:Generated_Source\PSoC6\pdl\drivers/peripheral/gpio/cy_gpio.h **** 
 503:Generated_Source\PSoC6\pdl\drivers/peripheral/gpio/cy_gpio.h **** /**
 504:Generated_Source\PSoC6\pdl\drivers/peripheral/gpio/cy_gpio.h **** * \defgroup group_gpio_sioVoh Regulated output voltage level (Voh) and input buffer trip-point of a
 505:Generated_Source\PSoC6\pdl\drivers/peripheral/gpio/cy_gpio.h **** * \{
 506:Generated_Source\PSoC6\pdl\drivers/peripheral/gpio/cy_gpio.h **** * Constants to be used for setting the Voh and input buffer trip-point of an SIO pair
 507:Generated_Source\PSoC6\pdl\drivers/peripheral/gpio/cy_gpio.h **** */
 508:Generated_Source\PSoC6\pdl\drivers/peripheral/gpio/cy_gpio.h **** #define CY_SIO_VOH_1_00                        (0x00UL) /**< Voh = 1 x Reference */
 509:Generated_Source\PSoC6\pdl\drivers/peripheral/gpio/cy_gpio.h **** #define CY_SIO_VOH_1_25                        (0x01UL) /**< Voh = 1.25 x Reference */
 510:Generated_Source\PSoC6\pdl\drivers/peripheral/gpio/cy_gpio.h **** #define CY_SIO_VOH_1_49                        (0x02UL) /**< Voh = 1.49 x Reference */
 511:Generated_Source\PSoC6\pdl\drivers/peripheral/gpio/cy_gpio.h **** #define CY_SIO_VOH_1_67                        (0x03UL) /**< Voh = 1.67 x Reference */
 512:Generated_Source\PSoC6\pdl\drivers/peripheral/gpio/cy_gpio.h **** #define CY_SIO_VOH_2_08                        (0x04UL) /**< Voh = 2.08 x Reference */
 513:Generated_Source\PSoC6\pdl\drivers/peripheral/gpio/cy_gpio.h **** #define CY_SIO_VOH_2_50                        (0x05UL) /**< Voh = 2.50 x Reference */
 514:Generated_Source\PSoC6\pdl\drivers/peripheral/gpio/cy_gpio.h **** #define CY_SIO_VOH_2_78                        (0x06UL) /**< Voh = 2.78 x Reference */
 515:Generated_Source\PSoC6\pdl\drivers/peripheral/gpio/cy_gpio.h **** #define CY_SIO_VOH_4_16                        (0x07UL) /**< Voh = 4.16 x Reference */
 516:Generated_Source\PSoC6\pdl\drivers/peripheral/gpio/cy_gpio.h **** /** \} */
 517:Generated_Source\PSoC6\pdl\drivers/peripheral/gpio/cy_gpio.h **** 
 518:Generated_Source\PSoC6\pdl\drivers/peripheral/gpio/cy_gpio.h **** /** \} group_gpio_macros */
 519:Generated_Source\PSoC6\pdl\drivers/peripheral/gpio/cy_gpio.h **** 
 520:Generated_Source\PSoC6\pdl\drivers/peripheral/gpio/cy_gpio.h **** /***************************************
 521:Generated_Source\PSoC6\pdl\drivers/peripheral/gpio/cy_gpio.h **** *        Function Prototypes
ARM GAS  C:\Users\vicpa\AppData\Local\Temp\ccqS0gg1.s 			page 38


 522:Generated_Source\PSoC6\pdl\drivers/peripheral/gpio/cy_gpio.h **** ***************************************/
 523:Generated_Source\PSoC6\pdl\drivers/peripheral/gpio/cy_gpio.h **** 
 524:Generated_Source\PSoC6\pdl\drivers/peripheral/gpio/cy_gpio.h **** /**
 525:Generated_Source\PSoC6\pdl\drivers/peripheral/gpio/cy_gpio.h **** * \addtogroup group_gpio_functions
 526:Generated_Source\PSoC6\pdl\drivers/peripheral/gpio/cy_gpio.h **** * \{
 527:Generated_Source\PSoC6\pdl\drivers/peripheral/gpio/cy_gpio.h **** */
 528:Generated_Source\PSoC6\pdl\drivers/peripheral/gpio/cy_gpio.h **** 
 529:Generated_Source\PSoC6\pdl\drivers/peripheral/gpio/cy_gpio.h **** /**
 530:Generated_Source\PSoC6\pdl\drivers/peripheral/gpio/cy_gpio.h **** * \addtogroup group_gpio_functions_init
 531:Generated_Source\PSoC6\pdl\drivers/peripheral/gpio/cy_gpio.h **** * \{
 532:Generated_Source\PSoC6\pdl\drivers/peripheral/gpio/cy_gpio.h **** */
 533:Generated_Source\PSoC6\pdl\drivers/peripheral/gpio/cy_gpio.h **** 
 534:Generated_Source\PSoC6\pdl\drivers/peripheral/gpio/cy_gpio.h **** cy_en_gpio_status_t Cy_GPIO_Pin_Init(GPIO_PRT_Type* base, uint32_t pinNum, const cy_stc_gpio_pin_co
 535:Generated_Source\PSoC6\pdl\drivers/peripheral/gpio/cy_gpio.h **** cy_en_gpio_status_t Cy_GPIO_Port_Init(GPIO_PRT_Type* base, const cy_stc_gpio_prt_config_t *config);
 536:Generated_Source\PSoC6\pdl\drivers/peripheral/gpio/cy_gpio.h **** void Cy_GPIO_Pin_FastInit(GPIO_PRT_Type* base, uint32_t pinNum, uint32_t driveMode, uint32_t outVal
 537:Generated_Source\PSoC6\pdl\drivers/peripheral/gpio/cy_gpio.h **** void Cy_GPIO_Port_Deinit(GPIO_PRT_Type* base);
 538:Generated_Source\PSoC6\pdl\drivers/peripheral/gpio/cy_gpio.h **** __STATIC_INLINE void Cy_GPIO_SetHSIOM(GPIO_PRT_Type* base, uint32_t pinNum, en_hsiom_sel_t value);
 539:Generated_Source\PSoC6\pdl\drivers/peripheral/gpio/cy_gpio.h **** __STATIC_INLINE en_hsiom_sel_t Cy_GPIO_GetHSIOM(GPIO_PRT_Type* base, uint32_t pinNum);
 540:Generated_Source\PSoC6\pdl\drivers/peripheral/gpio/cy_gpio.h **** __STATIC_INLINE GPIO_PRT_Type* Cy_GPIO_PortToAddr(uint32_t portNum);
 541:Generated_Source\PSoC6\pdl\drivers/peripheral/gpio/cy_gpio.h **** 
 542:Generated_Source\PSoC6\pdl\drivers/peripheral/gpio/cy_gpio.h **** /** \} group_gpio_functions_init */
 543:Generated_Source\PSoC6\pdl\drivers/peripheral/gpio/cy_gpio.h **** 
 544:Generated_Source\PSoC6\pdl\drivers/peripheral/gpio/cy_gpio.h **** /**
 545:Generated_Source\PSoC6\pdl\drivers/peripheral/gpio/cy_gpio.h **** * \addtogroup group_gpio_functions_gpio
 546:Generated_Source\PSoC6\pdl\drivers/peripheral/gpio/cy_gpio.h **** * \{
 547:Generated_Source\PSoC6\pdl\drivers/peripheral/gpio/cy_gpio.h **** */
 548:Generated_Source\PSoC6\pdl\drivers/peripheral/gpio/cy_gpio.h **** 
 549:Generated_Source\PSoC6\pdl\drivers/peripheral/gpio/cy_gpio.h **** void Cy_GPIO_SetAmuxSplit(cy_en_amux_split_t switchCtrl, cy_en_gpio_amuxconnect_t amuxConnect, cy_e
 550:Generated_Source\PSoC6\pdl\drivers/peripheral/gpio/cy_gpio.h **** cy_en_gpio_amuxconnect_t Cy_GPIO_GetAmuxSplit(cy_en_amux_split_t switchCtrl, cy_en_gpio_amuxselect_
 551:Generated_Source\PSoC6\pdl\drivers/peripheral/gpio/cy_gpio.h **** 
 552:Generated_Source\PSoC6\pdl\drivers/peripheral/gpio/cy_gpio.h **** __STATIC_INLINE uint32_t Cy_GPIO_Read(GPIO_PRT_Type* base, uint32_t pinNum);
 553:Generated_Source\PSoC6\pdl\drivers/peripheral/gpio/cy_gpio.h **** __STATIC_INLINE void Cy_GPIO_Write(GPIO_PRT_Type* base, uint32_t pinNum, uint32_t value);
 554:Generated_Source\PSoC6\pdl\drivers/peripheral/gpio/cy_gpio.h **** __STATIC_INLINE uint32_t Cy_GPIO_ReadOut(GPIO_PRT_Type* base, uint32_t pinNum);
 555:Generated_Source\PSoC6\pdl\drivers/peripheral/gpio/cy_gpio.h **** __STATIC_INLINE void Cy_GPIO_Set(GPIO_PRT_Type* base, uint32_t pinNum);
 556:Generated_Source\PSoC6\pdl\drivers/peripheral/gpio/cy_gpio.h **** __STATIC_INLINE void Cy_GPIO_Clr(GPIO_PRT_Type* base, uint32_t pinNum);
 557:Generated_Source\PSoC6\pdl\drivers/peripheral/gpio/cy_gpio.h **** __STATIC_INLINE void Cy_GPIO_Inv(GPIO_PRT_Type* base, uint32_t pinNum);
 558:Generated_Source\PSoC6\pdl\drivers/peripheral/gpio/cy_gpio.h **** __STATIC_INLINE void Cy_GPIO_SetDrivemode(GPIO_PRT_Type* base, uint32_t pinNum, uint32_t value);
 559:Generated_Source\PSoC6\pdl\drivers/peripheral/gpio/cy_gpio.h **** __STATIC_INLINE uint32_t Cy_GPIO_GetDrivemode(GPIO_PRT_Type* base, uint32_t pinNum);
 560:Generated_Source\PSoC6\pdl\drivers/peripheral/gpio/cy_gpio.h **** __STATIC_INLINE void Cy_GPIO_SetVtrip(GPIO_PRT_Type* base, uint32_t pinNum, uint32_t value);
 561:Generated_Source\PSoC6\pdl\drivers/peripheral/gpio/cy_gpio.h **** __STATIC_INLINE uint32_t Cy_GPIO_GetVtrip(GPIO_PRT_Type* base, uint32_t pinNum);
 562:Generated_Source\PSoC6\pdl\drivers/peripheral/gpio/cy_gpio.h **** __STATIC_INLINE void Cy_GPIO_SetSlewRate(GPIO_PRT_Type* base, uint32_t pinNum, uint32_t value);
 563:Generated_Source\PSoC6\pdl\drivers/peripheral/gpio/cy_gpio.h **** __STATIC_INLINE uint32_t Cy_GPIO_GetSlewRate(GPIO_PRT_Type* base, uint32_t pinNum);
 564:Generated_Source\PSoC6\pdl\drivers/peripheral/gpio/cy_gpio.h **** __STATIC_INLINE void Cy_GPIO_SetDriveSel(GPIO_PRT_Type* base, uint32_t pinNum, uint32_t value);
 565:Generated_Source\PSoC6\pdl\drivers/peripheral/gpio/cy_gpio.h **** __STATIC_INLINE uint32_t Cy_GPIO_GetDriveSel(GPIO_PRT_Type* base, uint32_t pinNum);
 566:Generated_Source\PSoC6\pdl\drivers/peripheral/gpio/cy_gpio.h **** 
 567:Generated_Source\PSoC6\pdl\drivers/peripheral/gpio/cy_gpio.h **** /** \} group_gpio_functions_gpio */
 568:Generated_Source\PSoC6\pdl\drivers/peripheral/gpio/cy_gpio.h **** 
 569:Generated_Source\PSoC6\pdl\drivers/peripheral/gpio/cy_gpio.h **** /**
 570:Generated_Source\PSoC6\pdl\drivers/peripheral/gpio/cy_gpio.h **** * \addtogroup group_gpio_functions_sio
 571:Generated_Source\PSoC6\pdl\drivers/peripheral/gpio/cy_gpio.h **** * \{
 572:Generated_Source\PSoC6\pdl\drivers/peripheral/gpio/cy_gpio.h **** */
 573:Generated_Source\PSoC6\pdl\drivers/peripheral/gpio/cy_gpio.h **** 
 574:Generated_Source\PSoC6\pdl\drivers/peripheral/gpio/cy_gpio.h **** __STATIC_INLINE void Cy_GPIO_SetVregEn(GPIO_PRT_Type* base, uint32_t pinNum, uint32_t value);
 575:Generated_Source\PSoC6\pdl\drivers/peripheral/gpio/cy_gpio.h **** __STATIC_INLINE uint32_t Cy_GPIO_GetVregEn(GPIO_PRT_Type* base, uint32_t pinNum);
 576:Generated_Source\PSoC6\pdl\drivers/peripheral/gpio/cy_gpio.h **** __STATIC_INLINE void Cy_GPIO_SetIbufMode(GPIO_PRT_Type* base, uint32_t pinNum, uint32_t value);
 577:Generated_Source\PSoC6\pdl\drivers/peripheral/gpio/cy_gpio.h **** __STATIC_INLINE uint32_t Cy_GPIO_GetIbufMode(GPIO_PRT_Type* base, uint32_t pinNum);
 578:Generated_Source\PSoC6\pdl\drivers/peripheral/gpio/cy_gpio.h **** __STATIC_INLINE void Cy_GPIO_SetVtripSel(GPIO_PRT_Type* base, uint32_t pinNum, uint32_t value);
ARM GAS  C:\Users\vicpa\AppData\Local\Temp\ccqS0gg1.s 			page 39


 579:Generated_Source\PSoC6\pdl\drivers/peripheral/gpio/cy_gpio.h **** __STATIC_INLINE uint32_t Cy_GPIO_GetVtripSel(GPIO_PRT_Type* base, uint32_t pinNum);
 580:Generated_Source\PSoC6\pdl\drivers/peripheral/gpio/cy_gpio.h **** __STATIC_INLINE void Cy_GPIO_SetVrefSel(GPIO_PRT_Type* base, uint32_t pinNum, uint32_t value);
 581:Generated_Source\PSoC6\pdl\drivers/peripheral/gpio/cy_gpio.h **** __STATIC_INLINE uint32_t Cy_GPIO_GetVrefSel(GPIO_PRT_Type* base, uint32_t pinNum);
 582:Generated_Source\PSoC6\pdl\drivers/peripheral/gpio/cy_gpio.h **** __STATIC_INLINE void Cy_GPIO_SetVohSel(GPIO_PRT_Type* base, uint32_t pinNum, uint32_t value);
 583:Generated_Source\PSoC6\pdl\drivers/peripheral/gpio/cy_gpio.h **** __STATIC_INLINE uint32_t Cy_GPIO_GetVohSel(GPIO_PRT_Type* base, uint32_t pinNum);
 584:Generated_Source\PSoC6\pdl\drivers/peripheral/gpio/cy_gpio.h **** 
 585:Generated_Source\PSoC6\pdl\drivers/peripheral/gpio/cy_gpio.h **** /** \} group_gpio_functions_sio */
 586:Generated_Source\PSoC6\pdl\drivers/peripheral/gpio/cy_gpio.h **** 
 587:Generated_Source\PSoC6\pdl\drivers/peripheral/gpio/cy_gpio.h **** /**
 588:Generated_Source\PSoC6\pdl\drivers/peripheral/gpio/cy_gpio.h **** * \addtogroup group_gpio_functions_interrupt
 589:Generated_Source\PSoC6\pdl\drivers/peripheral/gpio/cy_gpio.h **** * \{
 590:Generated_Source\PSoC6\pdl\drivers/peripheral/gpio/cy_gpio.h **** */
 591:Generated_Source\PSoC6\pdl\drivers/peripheral/gpio/cy_gpio.h **** 
 592:Generated_Source\PSoC6\pdl\drivers/peripheral/gpio/cy_gpio.h **** __STATIC_INLINE uint32_t Cy_GPIO_GetInterruptStatus(GPIO_PRT_Type* base, uint32_t pinNum);
 593:Generated_Source\PSoC6\pdl\drivers/peripheral/gpio/cy_gpio.h **** __STATIC_INLINE void Cy_GPIO_ClearInterrupt(GPIO_PRT_Type* base, uint32_t pinNum);
 594:Generated_Source\PSoC6\pdl\drivers/peripheral/gpio/cy_gpio.h **** __STATIC_INLINE void Cy_GPIO_SetInterruptMask(GPIO_PRT_Type* base, uint32_t pinNum, uint32_t value)
 595:Generated_Source\PSoC6\pdl\drivers/peripheral/gpio/cy_gpio.h **** __STATIC_INLINE uint32_t Cy_GPIO_GetInterruptMask(GPIO_PRT_Type* base, uint32_t pinNum);
 596:Generated_Source\PSoC6\pdl\drivers/peripheral/gpio/cy_gpio.h **** __STATIC_INLINE uint32_t Cy_GPIO_GetInterruptStatusMasked(GPIO_PRT_Type* base, uint32_t pinNum);
 597:Generated_Source\PSoC6\pdl\drivers/peripheral/gpio/cy_gpio.h **** __STATIC_INLINE void Cy_GPIO_SetSwInterrupt(GPIO_PRT_Type* base, uint32_t pinNum);
 598:Generated_Source\PSoC6\pdl\drivers/peripheral/gpio/cy_gpio.h **** __STATIC_INLINE void Cy_GPIO_SetInterruptEdge(GPIO_PRT_Type* base, uint32_t pinNum, uint32_t value)
 599:Generated_Source\PSoC6\pdl\drivers/peripheral/gpio/cy_gpio.h **** __STATIC_INLINE uint32_t Cy_GPIO_GetInterruptEdge(GPIO_PRT_Type* base, uint32_t pinNum);
 600:Generated_Source\PSoC6\pdl\drivers/peripheral/gpio/cy_gpio.h **** __STATIC_INLINE void Cy_GPIO_SetFilter(GPIO_PRT_Type* base, uint32_t value);
 601:Generated_Source\PSoC6\pdl\drivers/peripheral/gpio/cy_gpio.h **** __STATIC_INLINE uint32_t Cy_GPIO_GetFilter(GPIO_PRT_Type* base);
 602:Generated_Source\PSoC6\pdl\drivers/peripheral/gpio/cy_gpio.h **** 
 603:Generated_Source\PSoC6\pdl\drivers/peripheral/gpio/cy_gpio.h **** __STATIC_INLINE uint32_t Cy_GPIO_GetInterruptCause0(void);
 604:Generated_Source\PSoC6\pdl\drivers/peripheral/gpio/cy_gpio.h **** __STATIC_INLINE uint32_t Cy_GPIO_GetInterruptCause1(void);
 605:Generated_Source\PSoC6\pdl\drivers/peripheral/gpio/cy_gpio.h **** __STATIC_INLINE uint32_t Cy_GPIO_GetInterruptCause2(void);
 606:Generated_Source\PSoC6\pdl\drivers/peripheral/gpio/cy_gpio.h **** __STATIC_INLINE uint32_t Cy_GPIO_GetInterruptCause3(void);
 607:Generated_Source\PSoC6\pdl\drivers/peripheral/gpio/cy_gpio.h **** 
 608:Generated_Source\PSoC6\pdl\drivers/peripheral/gpio/cy_gpio.h **** /** \} group_gpio_functions_interrupt */
 609:Generated_Source\PSoC6\pdl\drivers/peripheral/gpio/cy_gpio.h **** 
 610:Generated_Source\PSoC6\pdl\drivers/peripheral/gpio/cy_gpio.h **** 
 611:Generated_Source\PSoC6\pdl\drivers/peripheral/gpio/cy_gpio.h **** /**
 612:Generated_Source\PSoC6\pdl\drivers/peripheral/gpio/cy_gpio.h **** * \addtogroup group_gpio_functions_init
 613:Generated_Source\PSoC6\pdl\drivers/peripheral/gpio/cy_gpio.h **** * \{
 614:Generated_Source\PSoC6\pdl\drivers/peripheral/gpio/cy_gpio.h **** */
 615:Generated_Source\PSoC6\pdl\drivers/peripheral/gpio/cy_gpio.h **** 
 616:Generated_Source\PSoC6\pdl\drivers/peripheral/gpio/cy_gpio.h **** /*******************************************************************************
 617:Generated_Source\PSoC6\pdl\drivers/peripheral/gpio/cy_gpio.h **** * Function Name: Cy_GPIO_SetHSIOM
 618:Generated_Source\PSoC6\pdl\drivers/peripheral/gpio/cy_gpio.h **** ****************************************************************************//**
 619:Generated_Source\PSoC6\pdl\drivers/peripheral/gpio/cy_gpio.h **** *
 620:Generated_Source\PSoC6\pdl\drivers/peripheral/gpio/cy_gpio.h **** * Configures the HSIOM connection to the pin.
 621:Generated_Source\PSoC6\pdl\drivers/peripheral/gpio/cy_gpio.h **** *
 622:Generated_Source\PSoC6\pdl\drivers/peripheral/gpio/cy_gpio.h **** * Connects the specified High-Speed Input Output Multiplexer (HSIOM) selection
 623:Generated_Source\PSoC6\pdl\drivers/peripheral/gpio/cy_gpio.h **** * to the pin.
 624:Generated_Source\PSoC6\pdl\drivers/peripheral/gpio/cy_gpio.h **** *
 625:Generated_Source\PSoC6\pdl\drivers/peripheral/gpio/cy_gpio.h **** * \param base
 626:Generated_Source\PSoC6\pdl\drivers/peripheral/gpio/cy_gpio.h **** * Pointer to the pin's port register base address
 627:Generated_Source\PSoC6\pdl\drivers/peripheral/gpio/cy_gpio.h **** *
 628:Generated_Source\PSoC6\pdl\drivers/peripheral/gpio/cy_gpio.h **** * \param pinNum
 629:Generated_Source\PSoC6\pdl\drivers/peripheral/gpio/cy_gpio.h **** * Position of the pin bit-field within the port register
 630:Generated_Source\PSoC6\pdl\drivers/peripheral/gpio/cy_gpio.h **** *
 631:Generated_Source\PSoC6\pdl\drivers/peripheral/gpio/cy_gpio.h **** * \param value
 632:Generated_Source\PSoC6\pdl\drivers/peripheral/gpio/cy_gpio.h **** * HSIOM input selection
 633:Generated_Source\PSoC6\pdl\drivers/peripheral/gpio/cy_gpio.h **** *
 634:Generated_Source\PSoC6\pdl\drivers/peripheral/gpio/cy_gpio.h **** * \note 
 635:Generated_Source\PSoC6\pdl\drivers/peripheral/gpio/cy_gpio.h **** * This function modifies a port register in a read-modify-write operation. It is
ARM GAS  C:\Users\vicpa\AppData\Local\Temp\ccqS0gg1.s 			page 40


 636:Generated_Source\PSoC6\pdl\drivers/peripheral/gpio/cy_gpio.h **** * not thread safe as the resource is shared among multiple pins on a port.
 637:Generated_Source\PSoC6\pdl\drivers/peripheral/gpio/cy_gpio.h **** *
 638:Generated_Source\PSoC6\pdl\drivers/peripheral/gpio/cy_gpio.h **** * \funcusage
 639:Generated_Source\PSoC6\pdl\drivers/peripheral/gpio/cy_gpio.h **** * \snippet gpio/gpio_v1_10_sut_01.cydsn/main_cm4.c snippet_Cy_GPIO_SetHSIOM
 640:Generated_Source\PSoC6\pdl\drivers/peripheral/gpio/cy_gpio.h **** *
 641:Generated_Source\PSoC6\pdl\drivers/peripheral/gpio/cy_gpio.h **** *******************************************************************************/
 642:Generated_Source\PSoC6\pdl\drivers/peripheral/gpio/cy_gpio.h **** __STATIC_INLINE void Cy_GPIO_SetHSIOM(GPIO_PRT_Type* base, uint32_t pinNum, en_hsiom_sel_t value)
 643:Generated_Source\PSoC6\pdl\drivers/peripheral/gpio/cy_gpio.h **** {
 644:Generated_Source\PSoC6\pdl\drivers/peripheral/gpio/cy_gpio.h ****     uint32_t portNum;
 645:Generated_Source\PSoC6\pdl\drivers/peripheral/gpio/cy_gpio.h ****     uint32_t tempReg;
 646:Generated_Source\PSoC6\pdl\drivers/peripheral/gpio/cy_gpio.h ****     HSIOM_PRT_V1_Type* portAddrHSIOM;
 647:Generated_Source\PSoC6\pdl\drivers/peripheral/gpio/cy_gpio.h **** 
 648:Generated_Source\PSoC6\pdl\drivers/peripheral/gpio/cy_gpio.h ****     CY_ASSERT_L2(CY_GPIO_IS_PIN_VALID(pinNum));
 649:Generated_Source\PSoC6\pdl\drivers/peripheral/gpio/cy_gpio.h ****     CY_ASSERT_L2(CY_GPIO_IS_HSIOM_VALID(value));
 650:Generated_Source\PSoC6\pdl\drivers/peripheral/gpio/cy_gpio.h **** 
 651:Generated_Source\PSoC6\pdl\drivers/peripheral/gpio/cy_gpio.h ****     portNum = ((uint32_t)(base) - CY_GPIO_BASE) / GPIO_PRT_SECTION_SIZE;
 652:Generated_Source\PSoC6\pdl\drivers/peripheral/gpio/cy_gpio.h ****     portAddrHSIOM = (HSIOM_PRT_V1_Type*)(CY_HSIOM_BASE + (HSIOM_PRT_SECTION_SIZE * portNum));
 653:Generated_Source\PSoC6\pdl\drivers/peripheral/gpio/cy_gpio.h **** 
 654:Generated_Source\PSoC6\pdl\drivers/peripheral/gpio/cy_gpio.h ****     if(pinNum < CY_GPIO_PRT_HALF)
 655:Generated_Source\PSoC6\pdl\drivers/peripheral/gpio/cy_gpio.h ****     {
 656:Generated_Source\PSoC6\pdl\drivers/peripheral/gpio/cy_gpio.h ****         tempReg = HSIOM_PRT_PORT_SEL0(portAddrHSIOM) & ~(CY_GPIO_HSIOM_MASK << (pinNum << CY_GPIO_H
 657:Generated_Source\PSoC6\pdl\drivers/peripheral/gpio/cy_gpio.h ****         HSIOM_PRT_PORT_SEL0(portAddrHSIOM) = tempReg | ((value & CY_GPIO_HSIOM_MASK) << (pinNum << 
 658:Generated_Source\PSoC6\pdl\drivers/peripheral/gpio/cy_gpio.h ****     }
 659:Generated_Source\PSoC6\pdl\drivers/peripheral/gpio/cy_gpio.h ****     else
 660:Generated_Source\PSoC6\pdl\drivers/peripheral/gpio/cy_gpio.h ****     {
 661:Generated_Source\PSoC6\pdl\drivers/peripheral/gpio/cy_gpio.h ****         pinNum -= CY_GPIO_PRT_HALF;
 662:Generated_Source\PSoC6\pdl\drivers/peripheral/gpio/cy_gpio.h ****         tempReg = HSIOM_PRT_PORT_SEL1(portAddrHSIOM) & ~(CY_GPIO_HSIOM_MASK << (pinNum << CY_GPIO_H
 663:Generated_Source\PSoC6\pdl\drivers/peripheral/gpio/cy_gpio.h ****         HSIOM_PRT_PORT_SEL1(portAddrHSIOM) = tempReg | ((value & CY_GPIO_HSIOM_MASK) << (pinNum << 
 664:Generated_Source\PSoC6\pdl\drivers/peripheral/gpio/cy_gpio.h ****     }
 665:Generated_Source\PSoC6\pdl\drivers/peripheral/gpio/cy_gpio.h **** }
 666:Generated_Source\PSoC6\pdl\drivers/peripheral/gpio/cy_gpio.h **** 
 667:Generated_Source\PSoC6\pdl\drivers/peripheral/gpio/cy_gpio.h **** 
 668:Generated_Source\PSoC6\pdl\drivers/peripheral/gpio/cy_gpio.h **** /*******************************************************************************
 669:Generated_Source\PSoC6\pdl\drivers/peripheral/gpio/cy_gpio.h **** * Function Name: Cy_GPIO_GetHSIOM
 670:Generated_Source\PSoC6\pdl\drivers/peripheral/gpio/cy_gpio.h **** ****************************************************************************//**
 671:Generated_Source\PSoC6\pdl\drivers/peripheral/gpio/cy_gpio.h **** *
 672:Generated_Source\PSoC6\pdl\drivers/peripheral/gpio/cy_gpio.h **** * Returns the current HSIOM multiplexer connection to the pin.
 673:Generated_Source\PSoC6\pdl\drivers/peripheral/gpio/cy_gpio.h **** *
 674:Generated_Source\PSoC6\pdl\drivers/peripheral/gpio/cy_gpio.h **** * \param base
 675:Generated_Source\PSoC6\pdl\drivers/peripheral/gpio/cy_gpio.h **** * Pointer to the pin's port register base address
 676:Generated_Source\PSoC6\pdl\drivers/peripheral/gpio/cy_gpio.h **** *
 677:Generated_Source\PSoC6\pdl\drivers/peripheral/gpio/cy_gpio.h **** * \param pinNum
 678:Generated_Source\PSoC6\pdl\drivers/peripheral/gpio/cy_gpio.h **** * Position of the pin bit-field within the port register
 679:Generated_Source\PSoC6\pdl\drivers/peripheral/gpio/cy_gpio.h **** *
 680:Generated_Source\PSoC6\pdl\drivers/peripheral/gpio/cy_gpio.h **** * \return
 681:Generated_Source\PSoC6\pdl\drivers/peripheral/gpio/cy_gpio.h **** * HSIOM input selection
 682:Generated_Source\PSoC6\pdl\drivers/peripheral/gpio/cy_gpio.h **** *
 683:Generated_Source\PSoC6\pdl\drivers/peripheral/gpio/cy_gpio.h **** * \funcusage
 684:Generated_Source\PSoC6\pdl\drivers/peripheral/gpio/cy_gpio.h **** * \snippet gpio/gpio_v1_10_sut_01.cydsn/main_cm4.c snippet_Cy_GPIO_SetHSIOM
 685:Generated_Source\PSoC6\pdl\drivers/peripheral/gpio/cy_gpio.h **** *
 686:Generated_Source\PSoC6\pdl\drivers/peripheral/gpio/cy_gpio.h **** *******************************************************************************/
 687:Generated_Source\PSoC6\pdl\drivers/peripheral/gpio/cy_gpio.h **** __STATIC_INLINE en_hsiom_sel_t Cy_GPIO_GetHSIOM(GPIO_PRT_Type* base, uint32_t pinNum)
 688:Generated_Source\PSoC6\pdl\drivers/peripheral/gpio/cy_gpio.h **** {
 689:Generated_Source\PSoC6\pdl\drivers/peripheral/gpio/cy_gpio.h ****     uint32_t returnValue;
 690:Generated_Source\PSoC6\pdl\drivers/peripheral/gpio/cy_gpio.h ****     uint32_t portNum;
 691:Generated_Source\PSoC6\pdl\drivers/peripheral/gpio/cy_gpio.h ****     HSIOM_PRT_V1_Type* portAddrHSIOM;
 692:Generated_Source\PSoC6\pdl\drivers/peripheral/gpio/cy_gpio.h ****     
ARM GAS  C:\Users\vicpa\AppData\Local\Temp\ccqS0gg1.s 			page 41


 693:Generated_Source\PSoC6\pdl\drivers/peripheral/gpio/cy_gpio.h ****     CY_ASSERT_L2(CY_GPIO_IS_PIN_VALID(pinNum));
 694:Generated_Source\PSoC6\pdl\drivers/peripheral/gpio/cy_gpio.h **** 
 695:Generated_Source\PSoC6\pdl\drivers/peripheral/gpio/cy_gpio.h ****     portNum = ((uint32_t)(base) - CY_GPIO_BASE) / GPIO_PRT_SECTION_SIZE;
 696:Generated_Source\PSoC6\pdl\drivers/peripheral/gpio/cy_gpio.h ****     portAddrHSIOM = (HSIOM_PRT_V1_Type*)(CY_HSIOM_BASE + (HSIOM_PRT_SECTION_SIZE * portNum));
 697:Generated_Source\PSoC6\pdl\drivers/peripheral/gpio/cy_gpio.h **** 
 698:Generated_Source\PSoC6\pdl\drivers/peripheral/gpio/cy_gpio.h ****     if(pinNum < CY_GPIO_PRT_HALF)
 699:Generated_Source\PSoC6\pdl\drivers/peripheral/gpio/cy_gpio.h ****     {
 700:Generated_Source\PSoC6\pdl\drivers/peripheral/gpio/cy_gpio.h ****         returnValue = (HSIOM_PRT_PORT_SEL0(portAddrHSIOM) >> (pinNum << CY_GPIO_HSIOM_OFFSET)) & CY
 701:Generated_Source\PSoC6\pdl\drivers/peripheral/gpio/cy_gpio.h ****     }
 702:Generated_Source\PSoC6\pdl\drivers/peripheral/gpio/cy_gpio.h ****     else
 703:Generated_Source\PSoC6\pdl\drivers/peripheral/gpio/cy_gpio.h ****     {
 704:Generated_Source\PSoC6\pdl\drivers/peripheral/gpio/cy_gpio.h ****         pinNum -= CY_GPIO_PRT_HALF;
 705:Generated_Source\PSoC6\pdl\drivers/peripheral/gpio/cy_gpio.h ****         returnValue = (HSIOM_PRT_PORT_SEL1(portAddrHSIOM) >> (pinNum << CY_GPIO_HSIOM_OFFSET)) & CY
 706:Generated_Source\PSoC6\pdl\drivers/peripheral/gpio/cy_gpio.h ****     }
 707:Generated_Source\PSoC6\pdl\drivers/peripheral/gpio/cy_gpio.h **** 
 708:Generated_Source\PSoC6\pdl\drivers/peripheral/gpio/cy_gpio.h ****     return (en_hsiom_sel_t)returnValue;
 709:Generated_Source\PSoC6\pdl\drivers/peripheral/gpio/cy_gpio.h **** }
 710:Generated_Source\PSoC6\pdl\drivers/peripheral/gpio/cy_gpio.h **** 
 711:Generated_Source\PSoC6\pdl\drivers/peripheral/gpio/cy_gpio.h **** 
 712:Generated_Source\PSoC6\pdl\drivers/peripheral/gpio/cy_gpio.h **** /*******************************************************************************
 713:Generated_Source\PSoC6\pdl\drivers/peripheral/gpio/cy_gpio.h **** * Function Name: Cy_GPIO_PortToAddr
 714:Generated_Source\PSoC6\pdl\drivers/peripheral/gpio/cy_gpio.h **** ****************************************************************************//**
 715:Generated_Source\PSoC6\pdl\drivers/peripheral/gpio/cy_gpio.h **** *
 716:Generated_Source\PSoC6\pdl\drivers/peripheral/gpio/cy_gpio.h **** * Retrieves the port address based on the given port number.
 717:Generated_Source\PSoC6\pdl\drivers/peripheral/gpio/cy_gpio.h **** *
 718:Generated_Source\PSoC6\pdl\drivers/peripheral/gpio/cy_gpio.h **** * This is a helper function to calculate the port base address when given a port
 719:Generated_Source\PSoC6\pdl\drivers/peripheral/gpio/cy_gpio.h **** * number. It is to be used when pin access needs to be calculated at runtime.
 720:Generated_Source\PSoC6\pdl\drivers/peripheral/gpio/cy_gpio.h **** *
 721:Generated_Source\PSoC6\pdl\drivers/peripheral/gpio/cy_gpio.h **** * \param portNum
 722:Generated_Source\PSoC6\pdl\drivers/peripheral/gpio/cy_gpio.h **** * Port number
 723:Generated_Source\PSoC6\pdl\drivers/peripheral/gpio/cy_gpio.h **** *
 724:Generated_Source\PSoC6\pdl\drivers/peripheral/gpio/cy_gpio.h **** * \return
 725:Generated_Source\PSoC6\pdl\drivers/peripheral/gpio/cy_gpio.h **** * Base address of the port register structure
 726:Generated_Source\PSoC6\pdl\drivers/peripheral/gpio/cy_gpio.h **** *
 727:Generated_Source\PSoC6\pdl\drivers/peripheral/gpio/cy_gpio.h **** * \funcusage
 728:Generated_Source\PSoC6\pdl\drivers/peripheral/gpio/cy_gpio.h **** * \snippet gpio/gpio_v1_10_sut_01.cydsn/main_cm4.c snippet_Cy_GPIO_PortToAddr
 729:Generated_Source\PSoC6\pdl\drivers/peripheral/gpio/cy_gpio.h **** *
 730:Generated_Source\PSoC6\pdl\drivers/peripheral/gpio/cy_gpio.h **** *******************************************************************************/
 731:Generated_Source\PSoC6\pdl\drivers/peripheral/gpio/cy_gpio.h **** __STATIC_INLINE GPIO_PRT_Type* Cy_GPIO_PortToAddr(uint32_t portNum)
 732:Generated_Source\PSoC6\pdl\drivers/peripheral/gpio/cy_gpio.h **** {
 733:Generated_Source\PSoC6\pdl\drivers/peripheral/gpio/cy_gpio.h ****     GPIO_PRT_Type* portBase;
 734:Generated_Source\PSoC6\pdl\drivers/peripheral/gpio/cy_gpio.h ****     
 735:Generated_Source\PSoC6\pdl\drivers/peripheral/gpio/cy_gpio.h ****     if(portNum < (uint32_t)IOSS_GPIO_GPIO_PORT_NR)
 736:Generated_Source\PSoC6\pdl\drivers/peripheral/gpio/cy_gpio.h ****     {
 737:Generated_Source\PSoC6\pdl\drivers/peripheral/gpio/cy_gpio.h ****         portBase = (GPIO_PRT_Type *)(CY_GPIO_BASE + (GPIO_PRT_SECTION_SIZE * portNum));
 738:Generated_Source\PSoC6\pdl\drivers/peripheral/gpio/cy_gpio.h ****     }
 739:Generated_Source\PSoC6\pdl\drivers/peripheral/gpio/cy_gpio.h ****     else
 740:Generated_Source\PSoC6\pdl\drivers/peripheral/gpio/cy_gpio.h ****     {
 741:Generated_Source\PSoC6\pdl\drivers/peripheral/gpio/cy_gpio.h ****         /* Error: Return default base address */
 742:Generated_Source\PSoC6\pdl\drivers/peripheral/gpio/cy_gpio.h ****         portBase = (GPIO_PRT_Type *)(CY_GPIO_BASE);
 743:Generated_Source\PSoC6\pdl\drivers/peripheral/gpio/cy_gpio.h ****     }
 744:Generated_Source\PSoC6\pdl\drivers/peripheral/gpio/cy_gpio.h **** 
 745:Generated_Source\PSoC6\pdl\drivers/peripheral/gpio/cy_gpio.h ****     return (portBase);
 746:Generated_Source\PSoC6\pdl\drivers/peripheral/gpio/cy_gpio.h **** }
 747:Generated_Source\PSoC6\pdl\drivers/peripheral/gpio/cy_gpio.h **** 
 748:Generated_Source\PSoC6\pdl\drivers/peripheral/gpio/cy_gpio.h **** /** \} group_gpio_functions_init */
 749:Generated_Source\PSoC6\pdl\drivers/peripheral/gpio/cy_gpio.h **** 
ARM GAS  C:\Users\vicpa\AppData\Local\Temp\ccqS0gg1.s 			page 42


 750:Generated_Source\PSoC6\pdl\drivers/peripheral/gpio/cy_gpio.h **** /**
 751:Generated_Source\PSoC6\pdl\drivers/peripheral/gpio/cy_gpio.h **** * \addtogroup group_gpio_functions_gpio
 752:Generated_Source\PSoC6\pdl\drivers/peripheral/gpio/cy_gpio.h **** * \{
 753:Generated_Source\PSoC6\pdl\drivers/peripheral/gpio/cy_gpio.h **** */
 754:Generated_Source\PSoC6\pdl\drivers/peripheral/gpio/cy_gpio.h **** 
 755:Generated_Source\PSoC6\pdl\drivers/peripheral/gpio/cy_gpio.h **** /*******************************************************************************
 756:Generated_Source\PSoC6\pdl\drivers/peripheral/gpio/cy_gpio.h **** * Function Name: Cy_GPIO_Read
 757:Generated_Source\PSoC6\pdl\drivers/peripheral/gpio/cy_gpio.h **** ****************************************************************************//**
 758:Generated_Source\PSoC6\pdl\drivers/peripheral/gpio/cy_gpio.h **** *
 759:Generated_Source\PSoC6\pdl\drivers/peripheral/gpio/cy_gpio.h **** * Reads the current logic level on the input buffer of the pin.
 760:Generated_Source\PSoC6\pdl\drivers/peripheral/gpio/cy_gpio.h **** *
 761:Generated_Source\PSoC6\pdl\drivers/peripheral/gpio/cy_gpio.h **** * \param base
 762:Generated_Source\PSoC6\pdl\drivers/peripheral/gpio/cy_gpio.h **** * Pointer to the pin's port register base address
 763:Generated_Source\PSoC6\pdl\drivers/peripheral/gpio/cy_gpio.h **** *
 764:Generated_Source\PSoC6\pdl\drivers/peripheral/gpio/cy_gpio.h **** * \param pinNum
 765:Generated_Source\PSoC6\pdl\drivers/peripheral/gpio/cy_gpio.h **** * Position of the pin bit-field within the port register.
 766:Generated_Source\PSoC6\pdl\drivers/peripheral/gpio/cy_gpio.h **** * Bit position 8 is the routed pin through the port glitch filter.
 767:Generated_Source\PSoC6\pdl\drivers/peripheral/gpio/cy_gpio.h **** *
 768:Generated_Source\PSoC6\pdl\drivers/peripheral/gpio/cy_gpio.h **** * \return
 769:Generated_Source\PSoC6\pdl\drivers/peripheral/gpio/cy_gpio.h **** * Logic level present on the pin
 770:Generated_Source\PSoC6\pdl\drivers/peripheral/gpio/cy_gpio.h **** *
 771:Generated_Source\PSoC6\pdl\drivers/peripheral/gpio/cy_gpio.h **** * \funcusage
 772:Generated_Source\PSoC6\pdl\drivers/peripheral/gpio/cy_gpio.h **** * \snippet gpio/gpio_v1_10_sut_01.cydsn/main_cm4.c snippet_Cy_GPIO_Read
 773:Generated_Source\PSoC6\pdl\drivers/peripheral/gpio/cy_gpio.h **** *
 774:Generated_Source\PSoC6\pdl\drivers/peripheral/gpio/cy_gpio.h **** *******************************************************************************/
 775:Generated_Source\PSoC6\pdl\drivers/peripheral/gpio/cy_gpio.h **** __STATIC_INLINE uint32_t Cy_GPIO_Read(GPIO_PRT_Type* base, uint32_t pinNum)
 776:Generated_Source\PSoC6\pdl\drivers/peripheral/gpio/cy_gpio.h **** {
 777:Generated_Source\PSoC6\pdl\drivers/peripheral/gpio/cy_gpio.h ****     CY_ASSERT_L2(CY_GPIO_IS_FILTER_PIN_VALID(pinNum));
 778:Generated_Source\PSoC6\pdl\drivers/peripheral/gpio/cy_gpio.h ****     
 779:Generated_Source\PSoC6\pdl\drivers/peripheral/gpio/cy_gpio.h ****     return (GPIO_PRT_IN(base) >> (pinNum)) & CY_GPIO_IN_MASK;
 780:Generated_Source\PSoC6\pdl\drivers/peripheral/gpio/cy_gpio.h **** }
 781:Generated_Source\PSoC6\pdl\drivers/peripheral/gpio/cy_gpio.h **** 
 782:Generated_Source\PSoC6\pdl\drivers/peripheral/gpio/cy_gpio.h **** 
 783:Generated_Source\PSoC6\pdl\drivers/peripheral/gpio/cy_gpio.h **** /*******************************************************************************
 784:Generated_Source\PSoC6\pdl\drivers/peripheral/gpio/cy_gpio.h **** * Function Name: Cy_GPIO_Write
 785:Generated_Source\PSoC6\pdl\drivers/peripheral/gpio/cy_gpio.h **** ****************************************************************************//**
 786:Generated_Source\PSoC6\pdl\drivers/peripheral/gpio/cy_gpio.h **** *
 787:Generated_Source\PSoC6\pdl\drivers/peripheral/gpio/cy_gpio.h **** * Write a logic 0 or logic 1 state to the output driver.
 788:Generated_Source\PSoC6\pdl\drivers/peripheral/gpio/cy_gpio.h **** *
 789:Generated_Source\PSoC6\pdl\drivers/peripheral/gpio/cy_gpio.h **** * This function should be used only for software driven pins. It does not have
 790:Generated_Source\PSoC6\pdl\drivers/peripheral/gpio/cy_gpio.h **** * any effect on peripheral driven pins.
 791:Generated_Source\PSoC6\pdl\drivers/peripheral/gpio/cy_gpio.h **** *
 792:Generated_Source\PSoC6\pdl\drivers/peripheral/gpio/cy_gpio.h **** * \param base
 793:Generated_Source\PSoC6\pdl\drivers/peripheral/gpio/cy_gpio.h **** * Pointer to the pin's port register base address
 794:Generated_Source\PSoC6\pdl\drivers/peripheral/gpio/cy_gpio.h **** *
 795:Generated_Source\PSoC6\pdl\drivers/peripheral/gpio/cy_gpio.h **** * \param pinNum
 796:Generated_Source\PSoC6\pdl\drivers/peripheral/gpio/cy_gpio.h **** * Position of the pin bit-field within the port register
 797:Generated_Source\PSoC6\pdl\drivers/peripheral/gpio/cy_gpio.h **** *
 798:Generated_Source\PSoC6\pdl\drivers/peripheral/gpio/cy_gpio.h **** * \param value
 799:Generated_Source\PSoC6\pdl\drivers/peripheral/gpio/cy_gpio.h **** * Logic level to drive out on the pin
 800:Generated_Source\PSoC6\pdl\drivers/peripheral/gpio/cy_gpio.h **** *
 801:Generated_Source\PSoC6\pdl\drivers/peripheral/gpio/cy_gpio.h **** * \funcusage
 802:Generated_Source\PSoC6\pdl\drivers/peripheral/gpio/cy_gpio.h **** * \snippet gpio/gpio_v1_10_sut_01.cydsn/main_cm4.c snippet_Cy_GPIO_Write
 803:Generated_Source\PSoC6\pdl\drivers/peripheral/gpio/cy_gpio.h **** *
 804:Generated_Source\PSoC6\pdl\drivers/peripheral/gpio/cy_gpio.h **** *******************************************************************************/
 805:Generated_Source\PSoC6\pdl\drivers/peripheral/gpio/cy_gpio.h **** __STATIC_INLINE void Cy_GPIO_Write(GPIO_PRT_Type* base, uint32_t pinNum, uint32_t value)
 806:Generated_Source\PSoC6\pdl\drivers/peripheral/gpio/cy_gpio.h **** {
ARM GAS  C:\Users\vicpa\AppData\Local\Temp\ccqS0gg1.s 			page 43


 807:Generated_Source\PSoC6\pdl\drivers/peripheral/gpio/cy_gpio.h ****     CY_ASSERT_L2(CY_GPIO_IS_PIN_VALID(pinNum));
 808:Generated_Source\PSoC6\pdl\drivers/peripheral/gpio/cy_gpio.h ****     CY_ASSERT_L2(CY_GPIO_IS_VALUE_VALID(value));
 809:Generated_Source\PSoC6\pdl\drivers/peripheral/gpio/cy_gpio.h **** 
 810:Generated_Source\PSoC6\pdl\drivers/peripheral/gpio/cy_gpio.h ****     /* Thread-safe: Directly access the pin registers instead of base->OUT */
 811:Generated_Source\PSoC6\pdl\drivers/peripheral/gpio/cy_gpio.h ****     if(0UL == value)
 812:Generated_Source\PSoC6\pdl\drivers/peripheral/gpio/cy_gpio.h ****     {
 813:Generated_Source\PSoC6\pdl\drivers/peripheral/gpio/cy_gpio.h ****         GPIO_PRT_OUT_CLR(base) = CY_GPIO_OUT_MASK << pinNum;
 1278              		.loc 2 813 0 is_stmt 1
 1279 0016 0222     		movs	r2, #2
 1280 0018 054B     		ldr	r3, .L90+4
 1281 001a 5A60     		str	r2, [r3, #4]
 1282 001c 02E0     		b	.L87
 1283              	.LVL135:
 1284              	.L86:
 1285              	.LBE13:
 1286              	.LBE12:
 1287              	.LBB14:
 1288              	.LBB15:
 814:Generated_Source\PSoC6\pdl\drivers/peripheral/gpio/cy_gpio.h ****     }
 815:Generated_Source\PSoC6\pdl\drivers/peripheral/gpio/cy_gpio.h ****     else
 816:Generated_Source\PSoC6\pdl\drivers/peripheral/gpio/cy_gpio.h ****     {
 817:Generated_Source\PSoC6\pdl\drivers/peripheral/gpio/cy_gpio.h ****         GPIO_PRT_OUT_SET(base) = CY_GPIO_OUT_MASK << pinNum;
 1289              		.loc 2 817 0
 1290 001e 0222     		movs	r2, #2
 1291 0020 034B     		ldr	r3, .L90+4
 1292 0022 9A60     		str	r2, [r3, #8]
 1293              	.LVL136:
 1294              	.L87:
 1295              	.LBE15:
 1296              	.LBE14:
 307:TasksInterface.c ****         {
 308:TasksInterface.c ****             Cy_GPIO_Write(Blue_0_PORT,Blue_0_NUM,0);
 309:TasksInterface.c ****         }
 310:TasksInterface.c ****         else
 311:TasksInterface.c ****         {
 312:TasksInterface.c ****             Cy_GPIO_Write(Blue_0_PORT,Blue_0_NUM,1);
 313:TasksInterface.c ****         }
 314:TasksInterface.c ****         vTaskDelay(pdMS_TO_TICKS(200));
 1297              		.loc 1 314 0
 1298 0024 C820     		movs	r0, #200
 1299 0026 FFF7FEFF 		bl	vTaskDelay
 1300              	.LVL137:
 315:TasksInterface.c ****     }
 1301              		.loc 1 315 0
 1302 002a EAE7     		b	.L88
 1303              	.L91:
 1304              		.align	2
 1305              	.L90:
 1306 002c 00000000 		.word	.LANCHOR2
 1307 0030 80053240 		.word	1077020032
 1308              		.cfi_endproc
 1309              	.LFE574:
 1310              		.size	HeartRateAlarm, .-HeartRateAlarm
 1311              		.section	.text.CapSense_ChangeMenu,"ax",%progbits
 1312              		.align	2
 1313              		.global	CapSense_ChangeMenu
 1314              		.thumb
ARM GAS  C:\Users\vicpa\AppData\Local\Temp\ccqS0gg1.s 			page 44


 1315              		.thumb_func
 1316              		.type	CapSense_ChangeMenu, %function
 1317              	CapSense_ChangeMenu:
 1318              	.LFB575:
 316:TasksInterface.c **** }
 317:TasksInterface.c **** 
 318:TasksInterface.c **** // 3)Tâche pour naviguer entre les pages et les paramètres en fonction des boutons appuyés par l
 319:TasksInterface.c **** /*
 320:TasksInterface.c **** Page1: 2 paramètres; 1)ChangeLedIntensity 2)Enable/Disable BLed 
 321:TasksInterface.c **** Page2: 2 paramètres; 1)Borne inférieure bpm 2)Borne supérieure bpm 
 322:TasksInterface.c **** */
 323:TasksInterface.c **** volatile int Page1Params=0;
 324:TasksInterface.c **** volatile int Page2Params=0;
 325:TasksInterface.c **** volatile int ScreenNumber=0;
 326:TasksInterface.c **** void CapSense_ChangeMenu()
 327:TasksInterface.c **** {   
 1319              		.loc 1 327 0
 1320              		.cfi_startproc
 1321              		@ args = 0, pretend = 0, frame = 8
 1322              		@ frame_needed = 0, uses_anonymous_args = 0
 1323 0000 00B5     		push	{lr}
 1324              		.cfi_def_cfa_offset 4
 1325              		.cfi_offset 14, -4
 1326 0002 83B0     		sub	sp, sp, #12
 1327              		.cfi_def_cfa_offset 16
 1328              	.L117:
 1329              	.LBB16:
 328:TasksInterface.c ****     for(;;)
 329:TasksInterface.c ****     {   
 330:TasksInterface.c ****         volatile int SliderPosII=50;
 1330              		.loc 1 330 0
 1331 0004 3223     		movs	r3, #50
 1332 0006 0193     		str	r3, [sp, #4]
 331:TasksInterface.c ****         CapSense_ProcessAllWidgets();
 1333              		.loc 1 331 0
 1334 0008 FFF7FEFF 		bl	CapSense_ProcessAllWidgets
 1335              	.LVL138:
 332:TasksInterface.c ****         if(CapSense_IsWidgetActive(CapSense_BUTTON0_WDGT_ID))
 1336              		.loc 1 332 0
 1337 000c 0120     		movs	r0, #1
 1338 000e FFF7FEFF 		bl	CapSense_IsWidgetActive
 1339              	.LVL139:
 1340 0012 08B3     		cbz	r0, .L93
 333:TasksInterface.c ****         {
 334:TasksInterface.c ****             AffichageGraph=false;
 1341              		.loc 1 334 0
 1342 0014 0022     		movs	r2, #0
 1343 0016 B34B     		ldr	r3, .L119
 1344 0018 1A70     		strb	r2, [r3]
 335:TasksInterface.c ****             if (Page1Params==0&&Page2Params==0){
 1345              		.loc 1 335 0
 1346 001a B34B     		ldr	r3, .L119+4
 1347 001c D3F8C435 		ldr	r3, [r3, #1476]
 1348 0020 D3B9     		cbnz	r3, .L93
 1349              		.loc 1 335 0 is_stmt 0 discriminator 1
 1350 0022 B14B     		ldr	r3, .L119+4
 1351 0024 D3F8C835 		ldr	r3, [r3, #1480]
ARM GAS  C:\Users\vicpa\AppData\Local\Temp\ccqS0gg1.s 			page 45


 1352 0028 B3B9     		cbnz	r3, .L93
 336:TasksInterface.c ****                 ScreenNumber--;
 1353              		.loc 1 336 0 is_stmt 1
 1354 002a AF4B     		ldr	r3, .L119+4
 1355 002c D3F8CC25 		ldr	r2, [r3, #1484]
 1356 0030 013A     		subs	r2, r2, #1
 1357 0032 C3F8CC25 		str	r2, [r3, #1484]
 337:TasksInterface.c ****                 if (ScreenNumber<0)
 1358              		.loc 1 337 0
 1359 0036 D3F8CC35 		ldr	r3, [r3, #1484]
 1360 003a 002B     		cmp	r3, #0
 1361 003c 03DA     		bge	.L94
 338:TasksInterface.c ****                 {
 339:TasksInterface.c ****                     ScreenNumber=2; 
 1362              		.loc 1 339 0
 1363 003e 0222     		movs	r2, #2
 1364 0040 A94B     		ldr	r3, .L119+4
 1365 0042 C3F8CC25 		str	r2, [r3, #1484]
 1366              	.L94:
 340:TasksInterface.c ****                 }
 341:TasksInterface.c ****                 DisplayPage(ScreenNumber, Page1Params, Page2Params);
 1367              		.loc 1 341 0
 1368 0046 A84B     		ldr	r3, .L119+4
 1369 0048 D3F8CC05 		ldr	r0, [r3, #1484]
 1370 004c D3F8C415 		ldr	r1, [r3, #1476]
 1371 0050 D3F8C825 		ldr	r2, [r3, #1480]
 1372 0054 FFF7FEFF 		bl	DisplayPage
 1373              	.LVL140:
 1374              	.L93:
 342:TasksInterface.c ****             }
 343:TasksInterface.c ****         }
 344:TasksInterface.c ****         if(CapSense_IsWidgetActive(CapSense_BUTTON1_WDGT_ID))
 1375              		.loc 1 344 0
 1376 0058 0220     		movs	r0, #2
 1377 005a FFF7FEFF 		bl	CapSense_IsWidgetActive
 1378              	.LVL141:
 1379 005e 08B3     		cbz	r0, .L95
 345:TasksInterface.c ****         {
 346:TasksInterface.c ****             AffichageGraph=false;
 1380              		.loc 1 346 0
 1381 0060 0022     		movs	r2, #0
 1382 0062 A04B     		ldr	r3, .L119
 1383 0064 1A70     		strb	r2, [r3]
 347:TasksInterface.c ****             if (Page1Params==0&&Page2Params==0){
 1384              		.loc 1 347 0
 1385 0066 A04B     		ldr	r3, .L119+4
 1386 0068 D3F8C435 		ldr	r3, [r3, #1476]
 1387 006c D3B9     		cbnz	r3, .L95
 1388              		.loc 1 347 0 is_stmt 0 discriminator 1
 1389 006e 9E4B     		ldr	r3, .L119+4
 1390 0070 D3F8C835 		ldr	r3, [r3, #1480]
 1391 0074 B3B9     		cbnz	r3, .L95
 348:TasksInterface.c ****                 ScreenNumber++;
 1392              		.loc 1 348 0 is_stmt 1
 1393 0076 9C4B     		ldr	r3, .L119+4
 1394 0078 D3F8CC25 		ldr	r2, [r3, #1484]
 1395 007c 0132     		adds	r2, r2, #1
ARM GAS  C:\Users\vicpa\AppData\Local\Temp\ccqS0gg1.s 			page 46


 1396 007e C3F8CC25 		str	r2, [r3, #1484]
 349:TasksInterface.c ****                 if (ScreenNumber>2)
 1397              		.loc 1 349 0
 1398 0082 D3F8CC35 		ldr	r3, [r3, #1484]
 1399 0086 022B     		cmp	r3, #2
 1400 0088 03DD     		ble	.L96
 350:TasksInterface.c ****                 {
 351:TasksInterface.c ****                     ScreenNumber=0; 
 1401              		.loc 1 351 0
 1402 008a 0022     		movs	r2, #0
 1403 008c 964B     		ldr	r3, .L119+4
 1404 008e C3F8CC25 		str	r2, [r3, #1484]
 1405              	.L96:
 352:TasksInterface.c ****                 }
 353:TasksInterface.c ****             DisplayPage(ScreenNumber, Page1Params,Page2Params);
 1406              		.loc 1 353 0
 1407 0092 954B     		ldr	r3, .L119+4
 1408 0094 D3F8CC05 		ldr	r0, [r3, #1484]
 1409 0098 D3F8C415 		ldr	r1, [r3, #1476]
 1410 009c D3F8C825 		ldr	r2, [r3, #1480]
 1411 00a0 FFF7FEFF 		bl	DisplayPage
 1412              	.LVL142:
 1413              	.L95:
 354:TasksInterface.c ****             }
 355:TasksInterface.c ****         }
 356:TasksInterface.c ****         if (ScreenNumber==1)
 1414              		.loc 1 356 0
 1415 00a4 904B     		ldr	r3, .L119+4
 1416 00a6 D3F8CC35 		ldr	r3, [r3, #1484]
 1417 00aa 012B     		cmp	r3, #1
 1418 00ac 7ED1     		bne	.L97
 357:TasksInterface.c ****         { 
 358:TasksInterface.c ****             CapSense_ProcessAllWidgets();
 1419              		.loc 1 358 0
 1420 00ae FFF7FEFF 		bl	CapSense_ProcessAllWidgets
 1421              	.LVL143:
 359:TasksInterface.c ****             SliderPosII=CapSense_GetCentroidPos(CapSense_LINEARSLIDER0_WDGT_ID);
 1422              		.loc 1 359 0
 1423 00b2 0020     		movs	r0, #0
 1424 00b4 FFF7FEFF 		bl	CapSense_GetCentroidPos
 1425              	.LVL144:
 1426 00b8 0190     		str	r0, [sp, #4]
 360:TasksInterface.c ****             if (SliderPosII>50 && SliderPosII<65535)
 1427              		.loc 1 360 0
 1428 00ba 019B     		ldr	r3, [sp, #4]
 1429 00bc 322B     		cmp	r3, #50
 1430 00be 1BDD     		ble	.L98
 1431              		.loc 1 360 0 is_stmt 0 discriminator 1
 1432 00c0 019A     		ldr	r2, [sp, #4]
 1433 00c2 4FF6FE73 		movw	r3, #65534
 1434 00c6 9A42     		cmp	r2, r3
 1435 00c8 16DC     		bgt	.L98
 361:TasksInterface.c ****             {
 362:TasksInterface.c ****                 Page1Params++;
 1436              		.loc 1 362 0 is_stmt 1
 1437 00ca 874B     		ldr	r3, .L119+4
 1438 00cc D3F8C425 		ldr	r2, [r3, #1476]
ARM GAS  C:\Users\vicpa\AppData\Local\Temp\ccqS0gg1.s 			page 47


 1439 00d0 0132     		adds	r2, r2, #1
 1440 00d2 C3F8C425 		str	r2, [r3, #1476]
 363:TasksInterface.c ****                 if (Page1Params>2)
 1441              		.loc 1 363 0
 1442 00d6 D3F8C435 		ldr	r3, [r3, #1476]
 1443 00da 022B     		cmp	r3, #2
 1444 00dc 03DD     		ble	.L99
 364:TasksInterface.c ****                 {
 365:TasksInterface.c ****                     Page1Params=0;
 1445              		.loc 1 365 0
 1446 00de 0022     		movs	r2, #0
 1447 00e0 814B     		ldr	r3, .L119+4
 1448 00e2 C3F8C425 		str	r2, [r3, #1476]
 1449              	.L99:
 366:TasksInterface.c ****                 }
 367:TasksInterface.c ****                 DisplayPage(ScreenNumber,Page1Params,Page2Params);
 1450              		.loc 1 367 0
 1451 00e6 804B     		ldr	r3, .L119+4
 1452 00e8 D3F8CC05 		ldr	r0, [r3, #1484]
 1453 00ec D3F8C415 		ldr	r1, [r3, #1476]
 1454 00f0 D3F8C825 		ldr	r2, [r3, #1480]
 1455 00f4 FFF7FEFF 		bl	DisplayPage
 1456              	.LVL145:
 1457              	.L98:
 368:TasksInterface.c ****             }
 369:TasksInterface.c ****             if (SliderPosII<50)
 1458              		.loc 1 369 0
 1459 00f8 019B     		ldr	r3, [sp, #4]
 1460 00fa 312B     		cmp	r3, #49
 1461 00fc 16DC     		bgt	.L100
 370:TasksInterface.c ****             {
 371:TasksInterface.c ****                 Page1Params--;
 1462              		.loc 1 371 0
 1463 00fe 7A4B     		ldr	r3, .L119+4
 1464 0100 D3F8C425 		ldr	r2, [r3, #1476]
 1465 0104 013A     		subs	r2, r2, #1
 1466 0106 C3F8C425 		str	r2, [r3, #1476]
 372:TasksInterface.c ****                 if (Page1Params<0)
 1467              		.loc 1 372 0
 1468 010a D3F8C435 		ldr	r3, [r3, #1476]
 1469 010e 002B     		cmp	r3, #0
 1470 0110 03DA     		bge	.L101
 373:TasksInterface.c ****                 {
 374:TasksInterface.c ****                     Page1Params=2;
 1471              		.loc 1 374 0
 1472 0112 0222     		movs	r2, #2
 1473 0114 744B     		ldr	r3, .L119+4
 1474 0116 C3F8C425 		str	r2, [r3, #1476]
 1475              	.L101:
 375:TasksInterface.c ****                 }  
 376:TasksInterface.c ****                 DisplayPage(ScreenNumber,Page1Params,Page2Params);
 1476              		.loc 1 376 0
 1477 011a 734B     		ldr	r3, .L119+4
 1478 011c D3F8CC05 		ldr	r0, [r3, #1484]
 1479 0120 D3F8C415 		ldr	r1, [r3, #1476]
 1480 0124 D3F8C825 		ldr	r2, [r3, #1480]
 1481 0128 FFF7FEFF 		bl	DisplayPage
ARM GAS  C:\Users\vicpa\AppData\Local\Temp\ccqS0gg1.s 			page 48


 1482              	.LVL146:
 1483              	.L100:
 377:TasksInterface.c ****             }
 378:TasksInterface.c ****             if (Page1Params==1)
 1484              		.loc 1 378 0
 1485 012c 6E4B     		ldr	r3, .L119+4
 1486 012e D3F8C435 		ldr	r3, [r3, #1476]
 1487 0132 012B     		cmp	r3, #1
 1488 0134 15D1     		bne	.L102
 379:TasksInterface.c ****             {
 380:TasksInterface.c ****                 CapSense_ProcessAllWidgets();
 1489              		.loc 1 380 0
 1490 0136 FFF7FEFF 		bl	CapSense_ProcessAllWidgets
 1491              	.LVL147:
 381:TasksInterface.c ****                 if(CapSense_IsWidgetActive(CapSense_BUTTON1_WDGT_ID))
 1492              		.loc 1 381 0
 1493 013a 0220     		movs	r0, #2
 1494 013c FFF7FEFF 		bl	CapSense_IsWidgetActive
 1495              	.LVL148:
 1496 0140 28B9     		cbnz	r0, .L103
 1497 0142 0EE0     		b	.L102
 1498              	.L104:
 382:TasksInterface.c ****                 {
 383:TasksInterface.c ****                     while (StopChangeLedIntensity==false)
 384:TasksInterface.c ****                     {
 385:TasksInterface.c ****                         CapSense_ChangeLedIntensity();
 1499              		.loc 1 385 0
 1500 0144 FFF7FEFF 		bl	CapSense_ChangeLedIntensity
 1501              	.LVL149:
 386:TasksInterface.c ****                         vTaskDelay(pdMS_TO_TICKS(10));
 1502              		.loc 1 386 0
 1503 0148 0A20     		movs	r0, #10
 1504 014a FFF7FEFF 		bl	vTaskDelay
 1505              	.LVL150:
 1506              	.L103:
 383:TasksInterface.c ****                     {
 1507              		.loc 1 383 0
 1508 014e 664B     		ldr	r3, .L119+4
 1509 0150 93F8BC35 		ldrb	r3, [r3, #1468]	@ zero_extendqisi2
 1510 0154 13F0FF0F 		tst	r3, #255
 1511 0158 F4D0     		beq	.L104
 387:TasksInterface.c ****                     }
 388:TasksInterface.c ****                     StopChangeLedIntensity=false;
 1512              		.loc 1 388 0
 1513 015a 0022     		movs	r2, #0
 1514 015c 624B     		ldr	r3, .L119+4
 1515 015e 83F8BC25 		strb	r2, [r3, #1468]
 1516              	.L102:
 389:TasksInterface.c ****                     //DisplayPage(ScreenNumber,Page1Params,Page2Params);
 390:TasksInterface.c ****                 }
 391:TasksInterface.c ****             }
 392:TasksInterface.c ****             if (Page1Params==2)
 1517              		.loc 1 392 0
 1518 0162 614B     		ldr	r3, .L119+4
 1519 0164 D3F8C435 		ldr	r3, [r3, #1476]
 1520 0168 022B     		cmp	r3, #2
 1521 016a 1FD1     		bne	.L97
ARM GAS  C:\Users\vicpa\AppData\Local\Temp\ccqS0gg1.s 			page 49


 393:TasksInterface.c ****             {
 394:TasksInterface.c ****                 CapSense_ProcessAllWidgets();
 1522              		.loc 1 394 0
 1523 016c FFF7FEFF 		bl	CapSense_ProcessAllWidgets
 1524              	.LVL151:
 395:TasksInterface.c ****                 if(CapSense_IsWidgetActive(CapSense_BUTTON1_WDGT_ID))
 1525              		.loc 1 395 0
 1526 0170 0220     		movs	r0, #2
 1527 0172 FFF7FEFF 		bl	CapSense_IsWidgetActive
 1528              	.LVL152:
 1529 0176 C8B1     		cbz	r0, .L97
 396:TasksInterface.c ****                 {
 397:TasksInterface.c ****                     updateMotionAlarm();
 1530              		.loc 1 397 0
 1531 0178 FFF7FEFF 		bl	updateMotionAlarm
 1532              	.LVL153:
 398:TasksInterface.c ****                     while (StopDisableAlarm==false)
 1533              		.loc 1 398 0
 1534 017c 04E0     		b	.L105
 1535              	.L106:
 399:TasksInterface.c ****                     {
 400:TasksInterface.c ****                         CapSense_EnableDisableMotionAlarm();
 1536              		.loc 1 400 0
 1537 017e FFF7FEFF 		bl	CapSense_EnableDisableMotionAlarm
 1538              	.LVL154:
 401:TasksInterface.c ****                         vTaskDelay(pdMS_TO_TICKS(200));
 1539              		.loc 1 401 0
 1540 0182 C820     		movs	r0, #200
 1541 0184 FFF7FEFF 		bl	vTaskDelay
 1542              	.LVL155:
 1543              	.L105:
 398:TasksInterface.c ****                     while (StopDisableAlarm==false)
 1544              		.loc 1 398 0
 1545 0188 574B     		ldr	r3, .L119+4
 1546 018a 93F8BF35 		ldrb	r3, [r3, #1471]	@ zero_extendqisi2
 1547 018e 13F0FF0F 		tst	r3, #255
 1548 0192 F4D0     		beq	.L106
 402:TasksInterface.c ****                     }
 403:TasksInterface.c ****                     StopDisableAlarm=false;
 1549              		.loc 1 403 0
 1550 0194 544B     		ldr	r3, .L119+4
 1551 0196 0022     		movs	r2, #0
 1552 0198 83F8BF25 		strb	r2, [r3, #1471]
 404:TasksInterface.c ****                     DisplayPage(ScreenNumber,Page1Params,Page2Params);
 1553              		.loc 1 404 0
 1554 019c D3F8CC05 		ldr	r0, [r3, #1484]
 1555 01a0 D3F8C415 		ldr	r1, [r3, #1476]
 1556 01a4 D3F8C825 		ldr	r2, [r3, #1480]
 1557 01a8 FFF7FEFF 		bl	DisplayPage
 1558              	.LVL156:
 1559              	.L97:
 405:TasksInterface.c ****                 }
 406:TasksInterface.c ****             }
 407:TasksInterface.c ****         }
 408:TasksInterface.c ****         if (ScreenNumber==2)
 1560              		.loc 1 408 0
 1561 01ac 4E4B     		ldr	r3, .L119+4
ARM GAS  C:\Users\vicpa\AppData\Local\Temp\ccqS0gg1.s 			page 50


 1562 01ae D3F8CC35 		ldr	r3, [r3, #1484]
 1563 01b2 022B     		cmp	r3, #2
 1564 01b4 40F08D80 		bne	.L107
 409:TasksInterface.c ****         { 
 410:TasksInterface.c ****             CapSense_ProcessAllWidgets();
 1565              		.loc 1 410 0
 1566 01b8 FFF7FEFF 		bl	CapSense_ProcessAllWidgets
 1567              	.LVL157:
 411:TasksInterface.c ****             SliderPosII=CapSense_GetCentroidPos(CapSense_LINEARSLIDER0_WDGT_ID);
 1568              		.loc 1 411 0
 1569 01bc 0020     		movs	r0, #0
 1570 01be FFF7FEFF 		bl	CapSense_GetCentroidPos
 1571              	.LVL158:
 1572 01c2 0190     		str	r0, [sp, #4]
 412:TasksInterface.c ****             if (SliderPosII>50 && SliderPosII<65535)
 1573              		.loc 1 412 0
 1574 01c4 019B     		ldr	r3, [sp, #4]
 1575 01c6 322B     		cmp	r3, #50
 1576 01c8 1BDD     		ble	.L108
 1577              		.loc 1 412 0 is_stmt 0 discriminator 1
 1578 01ca 019A     		ldr	r2, [sp, #4]
 1579 01cc 4FF6FE73 		movw	r3, #65534
 1580 01d0 9A42     		cmp	r2, r3
 1581 01d2 16DC     		bgt	.L108
 413:TasksInterface.c ****             {
 414:TasksInterface.c ****                 Page2Params++;
 1582              		.loc 1 414 0 is_stmt 1
 1583 01d4 444B     		ldr	r3, .L119+4
 1584 01d6 D3F8C825 		ldr	r2, [r3, #1480]
 1585 01da 0132     		adds	r2, r2, #1
 1586 01dc C3F8C825 		str	r2, [r3, #1480]
 415:TasksInterface.c ****                 if (Page2Params>2)
 1587              		.loc 1 415 0
 1588 01e0 D3F8C835 		ldr	r3, [r3, #1480]
 1589 01e4 022B     		cmp	r3, #2
 1590 01e6 03DD     		ble	.L109
 416:TasksInterface.c ****                 {
 417:TasksInterface.c ****                     Page2Params=0;
 1591              		.loc 1 417 0
 1592 01e8 0022     		movs	r2, #0
 1593 01ea 3F4B     		ldr	r3, .L119+4
 1594 01ec C3F8C825 		str	r2, [r3, #1480]
 1595              	.L109:
 418:TasksInterface.c ****                 }
 419:TasksInterface.c ****                 DisplayPage(ScreenNumber,Page1Params,Page2Params);
 1596              		.loc 1 419 0
 1597 01f0 3D4B     		ldr	r3, .L119+4
 1598 01f2 D3F8CC05 		ldr	r0, [r3, #1484]
 1599 01f6 D3F8C415 		ldr	r1, [r3, #1476]
 1600 01fa D3F8C825 		ldr	r2, [r3, #1480]
 1601 01fe FFF7FEFF 		bl	DisplayPage
 1602              	.LVL159:
 1603              	.L108:
 420:TasksInterface.c ****             }
 421:TasksInterface.c ****             if (SliderPosII<50)
 1604              		.loc 1 421 0
 1605 0202 019B     		ldr	r3, [sp, #4]
ARM GAS  C:\Users\vicpa\AppData\Local\Temp\ccqS0gg1.s 			page 51


 1606 0204 312B     		cmp	r3, #49
 1607 0206 16DC     		bgt	.L110
 422:TasksInterface.c ****             {
 423:TasksInterface.c ****                 Page2Params--;
 1608              		.loc 1 423 0
 1609 0208 374B     		ldr	r3, .L119+4
 1610 020a D3F8C825 		ldr	r2, [r3, #1480]
 1611 020e 013A     		subs	r2, r2, #1
 1612 0210 C3F8C825 		str	r2, [r3, #1480]
 424:TasksInterface.c **** 
 425:TasksInterface.c ****                 if (Page2Params<0)
 1613              		.loc 1 425 0
 1614 0214 D3F8C835 		ldr	r3, [r3, #1480]
 1615 0218 002B     		cmp	r3, #0
 1616 021a 03DA     		bge	.L111
 426:TasksInterface.c ****                 {
 427:TasksInterface.c ****                     Page2Params=2;
 1617              		.loc 1 427 0
 1618 021c 0222     		movs	r2, #2
 1619 021e 324B     		ldr	r3, .L119+4
 1620 0220 C3F8C825 		str	r2, [r3, #1480]
 1621              	.L111:
 428:TasksInterface.c ****                 }
 429:TasksInterface.c ****                 DisplayPage(ScreenNumber,Page1Params,Page2Params);                
 1622              		.loc 1 429 0
 1623 0224 304B     		ldr	r3, .L119+4
 1624 0226 D3F8CC05 		ldr	r0, [r3, #1484]
 1625 022a D3F8C415 		ldr	r1, [r3, #1476]
 1626 022e D3F8C825 		ldr	r2, [r3, #1480]
 1627 0232 FFF7FEFF 		bl	DisplayPage
 1628              	.LVL160:
 1629              	.L110:
 430:TasksInterface.c ****             }
 431:TasksInterface.c ****             if (Page2Params==1)
 1630              		.loc 1 431 0
 1631 0236 2C4B     		ldr	r3, .L119+4
 1632 0238 D3F8C835 		ldr	r3, [r3, #1480]
 1633 023c 012B     		cmp	r3, #1
 1634 023e 21D1     		bne	.L112
 432:TasksInterface.c ****             {
 433:TasksInterface.c ****                 CapSense_ProcessAllWidgets();
 1635              		.loc 1 433 0
 1636 0240 FFF7FEFF 		bl	CapSense_ProcessAllWidgets
 1637              	.LVL161:
 434:TasksInterface.c ****                 if(CapSense_IsWidgetActive(CapSense_BUTTON1_WDGT_ID))
 1638              		.loc 1 434 0
 1639 0244 0220     		movs	r0, #2
 1640 0246 FFF7FEFF 		bl	CapSense_IsWidgetActive
 1641              	.LVL162:
 1642 024a D8B1     		cbz	r0, .L112
 435:TasksInterface.c ****                 {
 436:TasksInterface.c ****                     updateLowHeartRateLimit(LowHeartRateI);
 1643              		.loc 1 436 0
 1644 024c 274B     		ldr	r3, .L119+8
 1645 024e 5868     		ldr	r0, [r3, #4]
 1646 0250 FFF7FEFF 		bl	updateLowHeartRateLimit
 1647              	.LVL163:
ARM GAS  C:\Users\vicpa\AppData\Local\Temp\ccqS0gg1.s 			page 52


 437:TasksInterface.c ****                     while (StopChangeLowHeartRate==false)
 1648              		.loc 1 437 0
 1649 0254 04E0     		b	.L113
 1650              	.L114:
 438:TasksInterface.c ****                     {
 439:TasksInterface.c ****                         CapSense_ChangeLowHeartRateLimit();
 1651              		.loc 1 439 0
 1652 0256 FFF7FEFF 		bl	CapSense_ChangeLowHeartRateLimit
 1653              	.LVL164:
 440:TasksInterface.c ****                         vTaskDelay(pdMS_TO_TICKS(200));
 1654              		.loc 1 440 0
 1655 025a C820     		movs	r0, #200
 1656 025c FFF7FEFF 		bl	vTaskDelay
 1657              	.LVL165:
 1658              	.L113:
 437:TasksInterface.c ****                     while (StopChangeLowHeartRate==false)
 1659              		.loc 1 437 0
 1660 0260 214B     		ldr	r3, .L119+4
 1661 0262 93F8BD35 		ldrb	r3, [r3, #1469]	@ zero_extendqisi2
 1662 0266 13F0FF0F 		tst	r3, #255
 1663 026a F4D0     		beq	.L114
 441:TasksInterface.c ****                     }
 442:TasksInterface.c ****                     StopChangeLowHeartRate=false;
 1664              		.loc 1 442 0
 1665 026c 1E4B     		ldr	r3, .L119+4
 1666 026e 0022     		movs	r2, #0
 1667 0270 83F8BD25 		strb	r2, [r3, #1469]
 443:TasksInterface.c ****                     DisplayPage(ScreenNumber,Page1Params,Page2Params);
 1668              		.loc 1 443 0
 1669 0274 D3F8CC05 		ldr	r0, [r3, #1484]
 1670 0278 D3F8C415 		ldr	r1, [r3, #1476]
 1671 027c D3F8C825 		ldr	r2, [r3, #1480]
 1672 0280 FFF7FEFF 		bl	DisplayPage
 1673              	.LVL166:
 1674              	.L112:
 444:TasksInterface.c ****                 }
 445:TasksInterface.c ****             }
 446:TasksInterface.c ****             if (Page2Params==2)
 1675              		.loc 1 446 0
 1676 0284 184B     		ldr	r3, .L119+4
 1677 0286 D3F8C835 		ldr	r3, [r3, #1480]
 1678 028a 022B     		cmp	r3, #2
 1679 028c 21D1     		bne	.L107
 447:TasksInterface.c ****             {
 448:TasksInterface.c ****                 CapSense_ProcessAllWidgets();
 1680              		.loc 1 448 0
 1681 028e FFF7FEFF 		bl	CapSense_ProcessAllWidgets
 1682              	.LVL167:
 449:TasksInterface.c ****                 if(CapSense_IsWidgetActive(CapSense_BUTTON1_WDGT_ID))
 1683              		.loc 1 449 0
 1684 0292 0220     		movs	r0, #2
 1685 0294 FFF7FEFF 		bl	CapSense_IsWidgetActive
 1686              	.LVL168:
 1687 0298 D8B1     		cbz	r0, .L107
 450:TasksInterface.c ****                 {
 451:TasksInterface.c ****                     updateHighHeartRateLimit(HighHeartRateI);
 1688              		.loc 1 451 0
ARM GAS  C:\Users\vicpa\AppData\Local\Temp\ccqS0gg1.s 			page 53


 1689 029a 144B     		ldr	r3, .L119+8
 1690 029c 1869     		ldr	r0, [r3, #16]
 1691 029e FFF7FEFF 		bl	updateHighHeartRateLimit
 1692              	.LVL169:
 452:TasksInterface.c ****                     while (StopChangeHighHeartRate==false)
 1693              		.loc 1 452 0
 1694 02a2 04E0     		b	.L115
 1695              	.L116:
 453:TasksInterface.c ****                     {
 454:TasksInterface.c ****                         CapSense_ChangeHighHeartRateLimit();
 1696              		.loc 1 454 0
 1697 02a4 FFF7FEFF 		bl	CapSense_ChangeHighHeartRateLimit
 1698              	.LVL170:
 455:TasksInterface.c ****                         vTaskDelay(pdMS_TO_TICKS(200));
 1699              		.loc 1 455 0
 1700 02a8 C820     		movs	r0, #200
 1701 02aa FFF7FEFF 		bl	vTaskDelay
 1702              	.LVL171:
 1703              	.L115:
 452:TasksInterface.c ****                     while (StopChangeHighHeartRate==false)
 1704              		.loc 1 452 0
 1705 02ae 0E4B     		ldr	r3, .L119+4
 1706 02b0 93F8BE35 		ldrb	r3, [r3, #1470]	@ zero_extendqisi2
 1707 02b4 13F0FF0F 		tst	r3, #255
 1708 02b8 F4D0     		beq	.L116
 456:TasksInterface.c ****                     }
 457:TasksInterface.c ****                     StopChangeHighHeartRate=false;
 1709              		.loc 1 457 0
 1710 02ba 0B4B     		ldr	r3, .L119+4
 1711 02bc 0022     		movs	r2, #0
 1712 02be 83F8BE25 		strb	r2, [r3, #1470]
 458:TasksInterface.c ****                     DisplayPage(ScreenNumber,Page1Params,Page2Params);
 1713              		.loc 1 458 0
 1714 02c2 D3F8CC05 		ldr	r0, [r3, #1484]
 1715 02c6 D3F8C415 		ldr	r1, [r3, #1476]
 1716 02ca D3F8C825 		ldr	r2, [r3, #1480]
 1717 02ce FFF7FEFF 		bl	DisplayPage
 1718              	.LVL172:
 1719              	.L107:
 459:TasksInterface.c ****                 }
 460:TasksInterface.c ****             }
 461:TasksInterface.c ****             
 462:TasksInterface.c ****         }
 463:TasksInterface.c ****         CapSense_UpdateAllBaselines();
 1720              		.loc 1 463 0
 1721 02d2 FFF7FEFF 		bl	CapSense_UpdateAllBaselines
 1722              	.LVL173:
 464:TasksInterface.c ****         CapSense_ScanAllWidgets();
 1723              		.loc 1 464 0
 1724 02d6 FFF7FEFF 		bl	CapSense_ScanAllWidgets
 1725              	.LVL174:
 465:TasksInterface.c ****         vTaskDelay(pdMS_TO_TICKS(200));
 1726              		.loc 1 465 0
 1727 02da C820     		movs	r0, #200
 1728 02dc FFF7FEFF 		bl	vTaskDelay
 1729              	.LVL175:
 1730              	.LBE16:
ARM GAS  C:\Users\vicpa\AppData\Local\Temp\ccqS0gg1.s 			page 54


 466:TasksInterface.c ****     }
 1731              		.loc 1 466 0
 1732 02e0 90E6     		b	.L117
 1733              	.L120:
 1734 02e2 00BF     		.align	2
 1735              	.L119:
 1736 02e4 00000000 		.word	AffichageGraph
 1737 02e8 F8100000 		.word	.LANCHOR1
 1738 02ec 00000000 		.word	.LANCHOR2
 1739              		.cfi_endproc
 1740              	.LFE575:
 1741              		.size	CapSense_ChangeMenu, .-CapSense_ChangeMenu
 1742              		.global	ScreenNumber
 1743              		.global	Page2Params
 1744              		.global	Page1Params
 1745              		.global	RythmeCardiaque
 1746              		.global	Saturation
 1747              		.comm	bufferRouge,3000,4
 1748              		.comm	bufferInfrarouge,3000,4
 1749              		.comm	AffichageGraph,1,1
 1750              		.comm	CompteurSW2,4,4
 1751              		.global	StopDisableAlarm
 1752              		.global	SliderPosV
 1753              		.global	MotionAlarmEnable
 1754              		.global	StopChangeHighHeartRate
 1755              		.global	SliderPosIV
 1756              		.global	HighHeartRateF
 1757              		.global	HighHeartRateI
 1758              		.global	StopChangeLowHeartRate
 1759              		.global	SliderPosIII
 1760              		.global	LowHeartRateF
 1761              		.global	LowHeartRateI
 1762              		.global	StopChangeLedIntensity
 1763              		.global	SliderPosI
 1764              		.global	imageBufferCache
 1765              		.data
 1766              		.align	2
 1767              		.set	.LANCHOR2,. + 0
 1768              		.type	SliderPosIII, %object
 1769              		.size	SliderPosIII, 4
 1770              	SliderPosIII:
 1771 0000 32000000 		.word	50
 1772              		.type	LowHeartRateI, %object
 1773              		.size	LowHeartRateI, 4
 1774              	LowHeartRateI:
 1775 0004 3C000000 		.word	60
 1776              		.type	LowHeartRateF, %object
 1777              		.size	LowHeartRateF, 4
 1778              	LowHeartRateF:
 1779 0008 3C000000 		.word	60
 1780              		.type	SliderPosIV, %object
 1781              		.size	SliderPosIV, 4
 1782              	SliderPosIV:
 1783 000c 32000000 		.word	50
 1784              		.type	HighHeartRateI, %object
 1785              		.size	HighHeartRateI, 4
 1786              	HighHeartRateI:
ARM GAS  C:\Users\vicpa\AppData\Local\Temp\ccqS0gg1.s 			page 55


 1787 0010 46000000 		.word	70
 1788              		.type	HighHeartRateF, %object
 1789              		.size	HighHeartRateF, 4
 1790              	HighHeartRateF:
 1791 0014 46000000 		.word	70
 1792              		.type	MotionAlarmEnable, %object
 1793              		.size	MotionAlarmEnable, 1
 1794              	MotionAlarmEnable:
 1795 0018 01       		.byte	1
 1796 0019 000000   		.space	3
 1797              		.type	SliderPosV, %object
 1798              		.size	SliderPosV, 4
 1799              	SliderPosV:
 1800 001c 32000000 		.word	50
 1801              		.type	RythmeCardiaque, %object
 1802              		.size	RythmeCardiaque, 4
 1803              	RythmeCardiaque:
 1804 0020 41000000 		.word	65
 1805              		.section	.rodata.str1.4,"aMS",%progbits,1
 1806              		.align	2
 1807              	.LC0:
 1808 0000 256400   		.ascii	"%d\000"
 1809 0003 00       		.space	1
 1810              	.LC1:
 1811 0004 4F787967 		.ascii	"Oxygen saturation:\000"
 1811      656E2073 
 1811      61747572 
 1811      6174696F 
 1811      6E3A00
 1812 0017 00       		.space	1
 1813              	.LC2:
 1814 0018 2500     		.ascii	"%\000"
 1815 001a 0000     		.space	2
 1816              	.LC3:
 1817 001c 48656172 		.ascii	"Heart rate:\000"
 1817      74207261 
 1817      74653A00 
 1818              	.LC4:
 1819 0028 62706D00 		.ascii	"bpm\000"
 1820              	.LC5:
 1821 002c 4C6F7720 		.ascii	"Low heart rate limit\000"
 1821      68656172 
 1821      74207261 
 1821      7465206C 
 1821      696D6974 
 1822 0041 000000   		.space	3
 1823              	.LC6:
 1824 0044 48696768 		.ascii	"High heart rate limit\000"
 1824      20686561 
 1824      72742072 
 1824      61746520 
 1824      6C696D69 
 1825 005a 0000     		.space	2
 1826              	.LC7:
 1827 005c 50726573 		.ascii	"Press SW2 to show graphs\000"
 1827      73205357 
 1827      3220746F 
ARM GAS  C:\Users\vicpa\AppData\Local\Temp\ccqS0gg1.s 			page 56


 1827      2073686F 
 1827      77206772 
 1828 0075 000000   		.space	3
 1829              	.LC8:
 1830 0078 55736520 		.ascii	"Use the CapSense buttons to modify parameters\000"
 1830      74686520 
 1830      43617053 
 1830      656E7365 
 1830      20627574 
 1831 00a6 0000     		.space	2
 1832              	.LC9:
 1833 00a8 50617261 		.ascii	"Parameters page 1\000"
 1833      6D657465 
 1833      72732070 
 1833      61676520 
 1833      3100
 1834 00ba 0000     		.space	2
 1835              	.LC10:
 1836 00bc 31294368 		.ascii	"1)Change LED intensity\000"
 1836      616E6765 
 1836      204C4544 
 1836      20696E74 
 1836      656E7369 
 1837 00d3 00       		.space	1
 1838              	.LC11:
 1839 00d4 3229456E 		.ascii	"2)Enable/Disable motion sensor alarm\000"
 1839      61626C65 
 1839      2F446973 
 1839      61626C65 
 1839      206D6F74 
 1840 00f9 000000   		.space	3
 1841              	.LC12:
 1842 00fc 50617261 		.ascii	"Parameters page 2\000"
 1842      6D657465 
 1842      72732070 
 1842      61676520 
 1842      3200
 1843 010e 0000     		.space	2
 1844              	.LC13:
 1845 0110 31295365 		.ascii	"1)Set low heart rate limit\000"
 1845      74206C6F 
 1845      77206865 
 1845      61727420 
 1845      72617465 
 1846 012b 00       		.space	1
 1847              	.LC14:
 1848 012c 32295365 		.ascii	"2)Set high heart rate limit\000"
 1848      74206869 
 1848      67682068 
 1848      65617274 
 1848      20726174 
 1849              	.LC15:
 1850 0148 416C6172 		.ascii	"Alarm enabled\000"
 1850      6D20656E 
 1850      61626C65 
 1850      6400
 1851 0156 0000     		.space	2
ARM GAS  C:\Users\vicpa\AppData\Local\Temp\ccqS0gg1.s 			page 57


 1852              	.LC16:
 1853 0158 416C6172 		.ascii	"Alarm disabled\000"
 1853      6D206469 
 1853      7361626C 
 1853      656400
 1854 0167 00       		.space	1
 1855              	.LC17:
 1856 0168 52656420 		.ascii	"Red curve:\000"
 1856      63757276 
 1856      653A00
 1857 0173 00       		.space	1
 1858              	.LC18:
 1859 0174 496E6672 		.ascii	"Infrared curve:\000"
 1859      61726564 
 1859      20637572 
 1859      76653A00 
 1860              		.bss
 1861              		.align	2
 1862              		.set	.LANCHOR0,. + 0
 1863              		.set	.LANCHOR1,. + 4344
 1864              		.type	imageBufferCache, %object
 1865              		.size	imageBufferCache, 5808
 1866              	imageBufferCache:
 1867 0000 00000000 		.space	5808
 1867      00000000 
 1867      00000000 
 1867      00000000 
 1867      00000000 
 1868              		.type	SliderPosI, %object
 1869              		.size	SliderPosI, 4
 1870              	SliderPosI:
 1871 16b0 00000000 		.space	4
 1872              		.type	StopChangeLedIntensity, %object
 1873              		.size	StopChangeLedIntensity, 1
 1874              	StopChangeLedIntensity:
 1875 16b4 00       		.space	1
 1876              		.type	StopChangeLowHeartRate, %object
 1877              		.size	StopChangeLowHeartRate, 1
 1878              	StopChangeLowHeartRate:
 1879 16b5 00       		.space	1
 1880              		.type	StopChangeHighHeartRate, %object
 1881              		.size	StopChangeHighHeartRate, 1
 1882              	StopChangeHighHeartRate:
 1883 16b6 00       		.space	1
 1884              		.type	StopDisableAlarm, %object
 1885              		.size	StopDisableAlarm, 1
 1886              	StopDisableAlarm:
 1887 16b7 00       		.space	1
 1888              		.type	Saturation, %object
 1889              		.size	Saturation, 4
 1890              	Saturation:
 1891 16b8 00000000 		.space	4
 1892              		.type	Page1Params, %object
 1893              		.size	Page1Params, 4
 1894              	Page1Params:
 1895 16bc 00000000 		.space	4
 1896              		.type	Page2Params, %object
ARM GAS  C:\Users\vicpa\AppData\Local\Temp\ccqS0gg1.s 			page 58


 1897              		.size	Page2Params, 4
 1898              	Page2Params:
 1899 16c0 00000000 		.space	4
 1900              		.type	ScreenNumber, %object
 1901              		.size	ScreenNumber, 4
 1902              	ScreenNumber:
 1903 16c4 00000000 		.space	4
 1904              		.text
 1905              	.Letext0:
 1906              		.file 3 "c:\\program files (x86)\\cypress\\psoc creator\\4.4\\psoc creator\\import\\gnu\\arm\\5.4.
 1907              		.file 4 "c:\\program files (x86)\\cypress\\psoc creator\\4.4\\psoc creator\\import\\gnu\\arm\\5.4.
 1908              		.file 5 "Generated_Source\\PSoC6\\pdl\\devices/psoc6/include/ip/cyip_gpio.h"
 1909              		.file 6 "Generated_Source\\PSoC6\\pdl\\devices/psoc6/include/psoc6_01_config.h"
 1910              		.file 7 "Generated_Source\\PSoC6\\pdl\\drivers/peripheral/device/cy_device.h"
 1911              		.file 8 "Generated_Source\\PSoC6\\pdl\\drivers/peripheral/syslib/cy_syslib.h"
 1912              		.file 9 "Generated_Source\\PSoC6\\pdl\\drivers/peripheral/scb/cy_scb_spi.h"
 1913              		.file 10 "Generated_Source\\PSoC6\\pdl\\drivers/peripheral/tcpwm/cy_tcpwm_counter.h"
 1914              		.file 11 "Generated_Source\\PSoC6\\pdl\\rtos/FreeRTOS/10.0.1/Source/portable/GCC/CM4F/portmacro.h"
 1915              		.file 12 "Generated_Source\\PSoC6\\pdl\\middleware/emWin/code/include/GUI_Type.h"
 1916              		.file 13 ".\\eInk Library/pervasive_eink_hardware_driver.h"
 1917              		.file 14 ".\\eInk Library/cy_eink_library.h"
 1918              		.file 15 "Generated_Source\\PSoC6\\pdl\\cmsis/include/core_cm4.h"
 1919              		.file 16 "Generated_Source\\PSoC6/CY_EINK_SPIM.h"
 1920              		.file 17 "Generated_Source\\PSoC6/CY_EINK_Timer.h"
 1921              		.file 18 "Generated_Source\\PSoC6\\pdl\\middleware/emWin/code/include/GUI.h"
 1922              		.file 19 "LCDConf.h"
 1923              		.file 20 "c:\\program files (x86)\\cypress\\psoc creator\\4.4\\psoc creator\\import\\gnu\\arm\\5.4
 1924              		.file 21 "c:\\program files (x86)\\cypress\\psoc creator\\4.4\\psoc creator\\import\\gnu\\arm\\5.4
 1925              		.file 22 "Generated_Source\\PSoC6/CapSense_Control.h"
 1926              		.file 23 "Generated_Source\\PSoC6/CapSense_Structure.h"
 1927              		.file 24 "Generated_Source\\PSoC6/CapSense_Filter.h"
 1928              		.file 25 "Generated_Source\\PSoC6/CapSense_Sensing.h"
 1929              		.file 26 "Generated_Source\\PSoC6\\pdl\\rtos/FreeRTOS/10.0.1/Source/include/task.h"