ARM GAS  C:\Users\felha\AppData\Local\Temp\ccuk7kBX.s 			page 1


   1              		.syntax unified
   2              		.cpu cortex-m4
   3              		.eabi_attribute 27, 1
   4              		.fpu fpv4-sp-d16
   5              		.eabi_attribute 20, 1
   6              		.eabi_attribute 21, 1
   7              		.eabi_attribute 23, 3
   8              		.eabi_attribute 24, 1
   9              		.eabi_attribute 25, 1
  10              		.eabi_attribute 26, 1
  11              		.eabi_attribute 30, 1
  12              		.eabi_attribute 34, 1
  13              		.eabi_attribute 18, 4
  14              		.thumb
  15              		.syntax unified
  16              		.file	"TasksInterface.c"
  17              		.text
  18              	.Ltext0:
  19              		.cfi_sections	.debug_frame
  20              		.section	.text.UpdateDisplay,"ax",%progbits
  21              		.align	2
  22              		.global	UpdateDisplay
  23              		.thumb
  24              		.thumb_func
  25              		.type	UpdateDisplay, %function
  26              	UpdateDisplay:
  27              	.LFB650:
  28              		.file 1 "TasksInterface.c"
   1:TasksInterface.c **** #include "project.h"
   2:TasksInterface.c **** #include "FreeRTOS.h"
   3:TasksInterface.c **** #include "task.h"
   4:TasksInterface.c **** #include "semphr.h"
   5:TasksInterface.c **** #include "queue.h"
   6:TasksInterface.c **** #include "GUI.h"
   7:TasksInterface.c **** #include "pervasive_eink_hardware_driver.h"
   8:TasksInterface.c **** #include "cy_eink_library.h"
   9:TasksInterface.c **** #include "LCDConf.h"
  10:TasksInterface.c **** #include <stdlib.h>
  11:TasksInterface.c **** #include "math.h"
  12:TasksInterface.c **** #include "TasksInterface.h"
  13:TasksInterface.c **** #include "Max30102_task.h"
  14:TasksInterface.c **** #include "traitementSignal.h"
  15:TasksInterface.c **** 
  16:TasksInterface.c **** //---------------------------------------------------- Fonctions d'affichage / Fonctions appelées 
  17:TasksInterface.c **** 
  18:TasksInterface.c **** // 1)Fonction pour mettre à jour l'écran
  19:TasksInterface.c **** uint8 imageBufferCache[CY_EINK_FRAME_SIZE] = {0};
  20:TasksInterface.c **** void UpdateDisplay(cy_eink_update_t updateMethod, bool powerCycle)
  21:TasksInterface.c **** {
  29              		.loc 1 21 0
  30              		.cfi_startproc
  31              		@ args = 0, pretend = 0, frame = 0
  32              		@ frame_needed = 0, uses_anonymous_args = 0
  33              	.LVL0:
  34 0000 F8B5     		push	{r3, r4, r5, r6, r7, lr}
  35              		.cfi_def_cfa_offset 24
  36              		.cfi_offset 3, -24
ARM GAS  C:\Users\felha\AppData\Local\Temp\ccuk7kBX.s 			page 2


  37              		.cfi_offset 4, -20
  38              		.cfi_offset 5, -16
  39              		.cfi_offset 6, -12
  40              		.cfi_offset 7, -8
  41              		.cfi_offset 14, -4
  42 0002 0646     		mov	r6, r0
  43 0004 0F46     		mov	r7, r1
  22:TasksInterface.c ****     cy_eink_frame_t* pEmwinBuffer;
  23:TasksInterface.c ****     pEmwinBuffer = (cy_eink_frame_t*)LCD_GetDisplayBuffer();
  44              		.loc 1 23 0
  45 0006 FFF7FEFF 		bl	LCD_GetDisplayBuffer
  46              	.LVL1:
  47 000a 0546     		mov	r5, r0
  48              	.LVL2:
  24:TasksInterface.c ****     Cy_EINK_ShowFrame(imageBufferCache, pEmwinBuffer, updateMethod, powerCycle);
  49              		.loc 1 24 0
  50 000c 064C     		ldr	r4, .L3
  51 000e 3B46     		mov	r3, r7
  52 0010 3246     		mov	r2, r6
  53 0012 0146     		mov	r1, r0
  54 0014 2046     		mov	r0, r4
  55              	.LVL3:
  56 0016 FFF7FEFF 		bl	Cy_EINK_ShowFrame
  57              	.LVL4:
  25:TasksInterface.c ****     memcpy(imageBufferCache, pEmwinBuffer, CY_EINK_FRAME_SIZE);
  58              		.loc 1 25 0
  59 001a 41F2B062 		movw	r2, #5808
  60 001e 2946     		mov	r1, r5
  61 0020 2046     		mov	r0, r4
  62 0022 FFF7FEFF 		bl	memcpy
  63              	.LVL5:
  64 0026 F8BD     		pop	{r3, r4, r5, r6, r7, pc}
  65              	.LVL6:
  66              	.L4:
  67              		.align	2
  68              	.L3:
  69 0028 00000000 		.word	.LANCHOR0
  70              		.cfi_endproc
  71              	.LFE650:
  72              		.size	UpdateDisplay, .-UpdateDisplay
  73              		.section	.text.ClearScreen,"ax",%progbits
  74              		.align	2
  75              		.global	ClearScreen
  76              		.thumb
  77              		.thumb_func
  78              		.type	ClearScreen, %function
  79              	ClearScreen:
  80              	.LFB651:
  26:TasksInterface.c **** }
  27:TasksInterface.c **** 
  28:TasksInterface.c **** // 2)Fonction pour effacer l'écran
  29:TasksInterface.c **** void ClearScreen(void)
  30:TasksInterface.c **** {
  81              		.loc 1 30 0
  82              		.cfi_startproc
  83              		@ args = 0, pretend = 0, frame = 0
  84              		@ frame_needed = 0, uses_anonymous_args = 0
ARM GAS  C:\Users\felha\AppData\Local\Temp\ccuk7kBX.s 			page 3


  85 0000 08B5     		push	{r3, lr}
  86              		.cfi_def_cfa_offset 8
  87              		.cfi_offset 3, -8
  88              		.cfi_offset 14, -4
  31:TasksInterface.c ****     GUI_SetColor(GUI_BLACK);
  89              		.loc 1 31 0
  90 0002 0020     		movs	r0, #0
  91 0004 FFF7FEFF 		bl	GUI_SetColor
  92              	.LVL7:
  32:TasksInterface.c ****     GUI_SetBkColor(GUI_WHITE);
  93              		.loc 1 32 0
  94 0008 6FF07F40 		mvn	r0, #-16777216
  95 000c FFF7FEFF 		bl	GUI_SetBkColor
  96              	.LVL8:
  33:TasksInterface.c ****     GUI_Clear();
  97              		.loc 1 33 0
  98 0010 FFF7FEFF 		bl	GUI_Clear
  99              	.LVL9:
  34:TasksInterface.c ****     UpdateDisplay(CY_EINK_FULL_4STAGE, true);
 100              		.loc 1 34 0
 101 0014 0121     		movs	r1, #1
 102 0016 0846     		mov	r0, r1
 103 0018 FFF7FEFF 		bl	UpdateDisplay
 104              	.LVL10:
 105 001c 08BD     		pop	{r3, pc}
 106              		.cfi_endproc
 107              	.LFE651:
 108              		.size	ClearScreen, .-ClearScreen
 109              		.global	__aeabi_i2d
 110              		.global	__aeabi_d2iz
 111 001e 00BF     		.section	.text.drawGraph,"ax",%progbits
 112              		.align	2
 113              		.global	drawGraph
 114              		.thumb
 115              		.thumb_func
 116              		.type	drawGraph, %function
 117              	drawGraph:
 118              	.LFB652:
  35:TasksInterface.c **** }
  36:TasksInterface.c **** 
  37:TasksInterface.c **** // 3)Fonction pour tracer le graphe d'un vecteur de 750 éléments
  38:TasksInterface.c **** volatile bool DrawRedGraph=false;
  39:TasksInterface.c **** volatile bool DrawInfraredGraph=false;
  40:TasksInterface.c **** void drawGraph(volatile int32_t *vector750elements) 
  41:TasksInterface.c **** {
 119              		.loc 1 41 0
 120              		.cfi_startproc
 121              		@ args = 0, pretend = 0, frame = 1000
 122              		@ frame_needed = 0, uses_anonymous_args = 0
 123              	.LVL11:
 124 0000 70B5     		push	{r4, r5, r6, lr}
 125              		.cfi_def_cfa_offset 16
 126              		.cfi_offset 4, -16
 127              		.cfi_offset 5, -12
 128              		.cfi_offset 6, -8
 129              		.cfi_offset 14, -4
 130 0002 ADF57A7D 		sub	sp, sp, #1000
ARM GAS  C:\Users\felha\AppData\Local\Temp\ccuk7kBX.s 			page 4


 131              		.cfi_def_cfa_offset 1016
 132 0006 0446     		mov	r4, r0
  42:TasksInterface.c ****     GUI_Clear();
 133              		.loc 1 42 0
 134 0008 FFF7FEFF 		bl	GUI_Clear
 135              	.LVL12:
 136              	.LBB6:
  43:TasksInterface.c ****     int x=0; int32_t max=0;
  44:TasksInterface.c ****     int32_t vector250elements[250];
  45:TasksInterface.c ****     for (int i=0; i < 250; i++)
 137              		.loc 1 45 0
 138 000c 0023     		movs	r3, #0
 139              	.LBE6:
  43:TasksInterface.c ****     int x=0; int32_t max=0;
 140              		.loc 1 43 0
 141 000e 1846     		mov	r0, r3
 142              	.LBB7:
 143              		.loc 1 45 0
 144 0010 09E0     		b	.L8
 145              	.LVL13:
 146              	.L10:
  46:TasksInterface.c ****     {
  47:TasksInterface.c ****         vector250elements[i]=vector750elements[3*i];
 147              		.loc 1 47 0
 148 0012 03EB4301 		add	r1, r3, r3, lsl #1
 149 0016 8A00     		lsls	r2, r1, #2
 150 0018 A258     		ldr	r2, [r4, r2]
 151              	.LVL14:
 152 001a 4DF82320 		str	r2, [sp, r3, lsl #2]
  48:TasksInterface.c ****         if (vector250elements[i]>max){
 153              		.loc 1 48 0
 154 001e 9042     		cmp	r0, r2
 155 0020 00DA     		bge	.L9
  49:TasksInterface.c ****             max=vector250elements[i];
 156              		.loc 1 49 0
 157 0022 1046     		mov	r0, r2
 158              	.L9:
 159              	.LVL15:
  45:TasksInterface.c ****     {
 160              		.loc 1 45 0 discriminator 2
 161 0024 0133     		adds	r3, r3, #1
 162              	.LVL16:
 163              	.L8:
  45:TasksInterface.c ****     {
 164              		.loc 1 45 0 is_stmt 0 discriminator 1
 165 0026 F92B     		cmp	r3, #249
 166 0028 F3DD     		ble	.L10
 167 002a 0021     		movs	r1, #0
 168 002c 0BE0     		b	.L11
 169              	.LVL17:
 170              	.L12:
 171              	.LBE7:
 172              	.LBB8:
  50:TasksInterface.c ****         }
  51:TasksInterface.c ****     }
  52:TasksInterface.c ****     for (int i=0; i < 250; i++)
  53:TasksInterface.c ****     {  
ARM GAS  C:\Users\felha\AppData\Local\Temp\ccuk7kBX.s 			page 5


  54:TasksInterface.c ****         vector250elements[i]=150*(vector250elements[i]+max)/(2*max);
 173              		.loc 1 54 0 is_stmt 1 discriminator 3
 174 002e 5DF82130 		ldr	r3, [sp, r1, lsl #2]
 175 0032 0344     		add	r3, r3, r0
 176 0034 9622     		movs	r2, #150
 177 0036 02FB03F3 		mul	r3, r2, r3
 178 003a 4200     		lsls	r2, r0, #1
 179 003c 93FBF2F3 		sdiv	r3, r3, r2
 180 0040 4DF82130 		str	r3, [sp, r1, lsl #2]
  52:TasksInterface.c ****     {  
 181              		.loc 1 52 0 discriminator 3
 182 0044 0131     		adds	r1, r1, #1
 183              	.LVL18:
 184              	.L11:
  52:TasksInterface.c ****     {  
 185              		.loc 1 52 0 is_stmt 0 discriminator 1
 186 0046 F929     		cmp	r1, #249
 187 0048 F1DD     		ble	.L12
 188 004a 0024     		movs	r4, #0
 189              	.LVL19:
 190 004c 2546     		mov	r5, r4
 191 004e 1FE0     		b	.L13
 192              	.LVL20:
 193              	.L15:
 194              	.LBE8:
 195              	.LBB9:
 196              	.LBB10:
  55:TasksInterface.c ****     }
  56:TasksInterface.c ****     for (int i=0; i < 250; i++)
  57:TasksInterface.c ****     {
  58:TasksInterface.c ****         int y0=round((vector250elements[i])); 
 197              		.loc 1 58 0 is_stmt 1
 198 0050 5DF82400 		ldr	r0, [sp, r4, lsl #2]
 199 0054 FFF7FEFF 		bl	__aeabi_i2d
 200              	.LVL21:
 201 0058 FFF7FEFF 		bl	round
 202              	.LVL22:
 203 005c FFF7FEFF 		bl	__aeabi_d2iz
 204              	.LVL23:
 205 0060 0646     		mov	r6, r0
 206              	.LVL24:
  59:TasksInterface.c ****         GUI_DrawPoint(x,y0); 
 207              		.loc 1 59 0
 208 0062 0146     		mov	r1, r0
 209 0064 2846     		mov	r0, r5
 210              	.LVL25:
 211 0066 FFF7FEFF 		bl	GUI_DrawPoint
 212              	.LVL26:
  60:TasksInterface.c ****         if (i<249)
 213              		.loc 1 60 0
 214 006a F82C     		cmp	r4, #248
 215 006c 0EDC     		bgt	.L14
 216              	.LBB11:
  61:TasksInterface.c ****         {
  62:TasksInterface.c ****             int y1=round((vector250elements[i+1]));
 217              		.loc 1 62 0
 218 006e 631C     		adds	r3, r4, #1
ARM GAS  C:\Users\felha\AppData\Local\Temp\ccuk7kBX.s 			page 6


 219 0070 5DF82300 		ldr	r0, [sp, r3, lsl #2]
 220 0074 FFF7FEFF 		bl	__aeabi_i2d
 221              	.LVL27:
 222 0078 FFF7FEFF 		bl	round
 223              	.LVL28:
 224 007c FFF7FEFF 		bl	__aeabi_d2iz
 225              	.LVL29:
  63:TasksInterface.c ****             GUI_DrawLine(x,y0,(x+1),y1); 
 226              		.loc 1 63 0
 227 0080 0346     		mov	r3, r0
 228 0082 6A1C     		adds	r2, r5, #1
 229 0084 3146     		mov	r1, r6
 230 0086 2846     		mov	r0, r5
 231              	.LVL30:
 232 0088 FFF7FEFF 		bl	GUI_DrawLine
 233              	.LVL31:
 234              	.L14:
 235              	.LBE11:
  64:TasksInterface.c ****         }
  65:TasksInterface.c ****         x++;   
 236              		.loc 1 65 0 discriminator 2
 237 008c 0135     		adds	r5, r5, #1
 238              	.LVL32:
 239              	.LBE10:
  56:TasksInterface.c ****     {
 240              		.loc 1 56 0 discriminator 2
 241 008e 0134     		adds	r4, r4, #1
 242              	.LVL33:
 243              	.L13:
  56:TasksInterface.c ****     {
 244              		.loc 1 56 0 is_stmt 0 discriminator 1
 245 0090 F92C     		cmp	r4, #249
 246 0092 DDDD     		ble	.L15
 247              	.LBE9:
  66:TasksInterface.c ****     }
  67:TasksInterface.c ****     UpdateDisplay(CY_EINK_FULL_4STAGE, true);
 248              		.loc 1 67 0 is_stmt 1
 249 0094 0121     		movs	r1, #1
 250 0096 0846     		mov	r0, r1
 251 0098 FFF7FEFF 		bl	UpdateDisplay
 252              	.LVL34:
  68:TasksInterface.c **** }
 253              		.loc 1 68 0
 254 009c 0DF57A7D 		add	sp, sp, #1000
 255              		.cfi_def_cfa_offset 16
 256              		@ sp needed
 257 00a0 70BD     		pop	{r4, r5, r6, pc}
 258              		.cfi_endproc
 259              	.LFE652:
 260              		.size	drawGraph, .-drawGraph
 261 00a2 00BF     		.section	.text.DrawBool,"ax",%progbits
 262              		.align	2
 263              		.global	DrawBool
 264              		.thumb
 265              		.thumb_func
 266              		.type	DrawBool, %function
 267              	DrawBool:
ARM GAS  C:\Users\felha\AppData\Local\Temp\ccuk7kBX.s 			page 7


 268              	.LFB653:
  69:TasksInterface.c **** void DrawBool(int Page1Param) 
  70:TasksInterface.c **** {
 269              		.loc 1 70 0
 270              		.cfi_startproc
 271              		@ args = 0, pretend = 0, frame = 0
 272              		@ frame_needed = 0, uses_anonymous_args = 0
 273              	.LVL35:
 274 0000 10B5     		push	{r4, lr}
 275              		.cfi_def_cfa_offset 8
 276              		.cfi_offset 4, -8
 277              		.cfi_offset 14, -4
 278 0002 0446     		mov	r4, r0
  71:TasksInterface.c ****     GUI_Clear();
 279              		.loc 1 71 0
 280 0004 FFF7FEFF 		bl	GUI_Clear
 281              	.LVL36:
  72:TasksInterface.c ****     GUI_SetPenSize(6); GUI_SetFont(GUI_FONT_10_1); 
 282              		.loc 1 72 0
 283 0008 0620     		movs	r0, #6
 284 000a FFF7FEFF 		bl	GUI_SetPenSize
 285              	.LVL37:
 286 000e 0B48     		ldr	r0, .L22
 287 0010 FFF7FEFF 		bl	GUI_SetFont
 288              	.LVL38:
  73:TasksInterface.c ****     if (Page1Param==3){
 289              		.loc 1 73 0
 290 0014 032C     		cmp	r4, #3
 291 0016 04D1     		bne	.L19
  74:TasksInterface.c ****         GUI_DispStringAt("Red graph can be drawn",75,80);
 292              		.loc 1 74 0
 293 0018 5022     		movs	r2, #80
 294 001a 4B21     		movs	r1, #75
 295 001c 0848     		ldr	r0, .L22+4
 296 001e FFF7FEFF 		bl	GUI_DispStringAt
 297              	.LVL39:
 298              	.L19:
  75:TasksInterface.c ****     }
  76:TasksInterface.c ****     if (Page1Param==4){
 299              		.loc 1 76 0
 300 0022 042C     		cmp	r4, #4
 301 0024 04D1     		bne	.L20
  77:TasksInterface.c ****         GUI_DispStringAt("Infrared graph can be drawn",75,80);
 302              		.loc 1 77 0
 303 0026 5022     		movs	r2, #80
 304 0028 4B21     		movs	r1, #75
 305 002a 0648     		ldr	r0, .L22+8
 306 002c FFF7FEFF 		bl	GUI_DispStringAt
 307              	.LVL40:
 308              	.L20:
  78:TasksInterface.c ****     }
  79:TasksInterface.c ****     UpdateDisplay(CY_EINK_FULL_4STAGE, true); 
 309              		.loc 1 79 0
 310 0030 0121     		movs	r1, #1
 311 0032 0846     		mov	r0, r1
 312 0034 FFF7FEFF 		bl	UpdateDisplay
 313              	.LVL41:
ARM GAS  C:\Users\felha\AppData\Local\Temp\ccuk7kBX.s 			page 8


 314 0038 10BD     		pop	{r4, pc}
 315              	.LVL42:
 316              	.L23:
 317 003a 00BF     		.align	2
 318              	.L22:
 319 003c 00000000 		.word	GUI_Font10_1
 320 0040 00000000 		.word	.LC0
 321 0044 18000000 		.word	.LC1
 322              		.cfi_endproc
 323              	.LFE653:
 324              		.size	DrawBool, .-DrawBool
 325              		.section	.text.updateParameters,"ax",%progbits
 326              		.align	2
 327              		.global	updateParameters
 328              		.thumb
 329              		.thumb_func
 330              		.type	updateParameters, %function
 331              	updateParameters:
 332              	.LFB654:
  80:TasksInterface.c **** }
  81:TasksInterface.c **** // 4)Fonction pour afficher des données à jour (param1 et param2) sur l'écran
  82:TasksInterface.c **** void updateParameters(int param1, int param2, int CurveParam) 
  83:TasksInterface.c **** {
 333              		.loc 1 83 0
 334              		.cfi_startproc
 335              		@ args = 0, pretend = 0, frame = 16
 336              		@ frame_needed = 0, uses_anonymous_args = 0
 337              	.LVL43:
 338 0000 70B5     		push	{r4, r5, r6, lr}
 339              		.cfi_def_cfa_offset 16
 340              		.cfi_offset 4, -16
 341              		.cfi_offset 5, -12
 342              		.cfi_offset 6, -8
 343              		.cfi_offset 14, -4
 344 0002 84B0     		sub	sp, sp, #16
 345              		.cfi_def_cfa_offset 32
 346 0004 0E46     		mov	r6, r1
 347 0006 1446     		mov	r4, r2
  84:TasksInterface.c ****     char Parametre1[6]; char Parametre2[6];
  85:TasksInterface.c ****     sprintf(Parametre1,"%d",param1); sprintf(Parametre2,"%d",param2); 
 348              		.loc 1 85 0
 349 0008 254D     		ldr	r5, .L28
 350 000a 0246     		mov	r2, r0
 351              	.LVL44:
 352 000c 2946     		mov	r1, r5
 353              	.LVL45:
 354 000e 02A8     		add	r0, sp, #8
 355              	.LVL46:
 356 0010 FFF7FEFF 		bl	sprintf
 357              	.LVL47:
 358 0014 3246     		mov	r2, r6
 359 0016 2946     		mov	r1, r5
 360 0018 6846     		mov	r0, sp
 361 001a FFF7FEFF 		bl	sprintf
 362              	.LVL48:
  86:TasksInterface.c ****     GUI_SetPenSize(8); GUI_DrawRect(10,155,255,175); 
 363              		.loc 1 86 0
ARM GAS  C:\Users\felha\AppData\Local\Temp\ccuk7kBX.s 			page 9


 364 001e 0820     		movs	r0, #8
 365 0020 FFF7FEFF 		bl	GUI_SetPenSize
 366              	.LVL49:
 367 0024 AF23     		movs	r3, #175
 368 0026 FF22     		movs	r2, #255
 369 0028 9B21     		movs	r1, #155
 370 002a 0A20     		movs	r0, #10
 371 002c FFF7FEFF 		bl	GUI_DrawRect
 372              	.LVL50:
  87:TasksInterface.c ****     GUI_SetPenSize(6); GUI_SetFont(GUI_FONT_10_1); 
 373              		.loc 1 87 0
 374 0030 0620     		movs	r0, #6
 375 0032 FFF7FEFF 		bl	GUI_SetPenSize
 376              	.LVL51:
 377 0036 1B48     		ldr	r0, .L28+4
 378 0038 FFF7FEFF 		bl	GUI_SetFont
 379              	.LVL52:
  88:TasksInterface.c ****     GUI_DispStringAt("Oxygen saturation:",20,160); GUI_DispStringAt(Parametre1,115,160); GUI_DispSt
 380              		.loc 1 88 0
 381 003c A022     		movs	r2, #160
 382 003e 1421     		movs	r1, #20
 383 0040 1948     		ldr	r0, .L28+8
 384 0042 FFF7FEFF 		bl	GUI_DispStringAt
 385              	.LVL53:
 386 0046 A022     		movs	r2, #160
 387 0048 7321     		movs	r1, #115
 388 004a 02A8     		add	r0, sp, #8
 389 004c FFF7FEFF 		bl	GUI_DispStringAt
 390              	.LVL54:
 391 0050 A022     		movs	r2, #160
 392 0052 8221     		movs	r1, #130
 393 0054 1548     		ldr	r0, .L28+12
 394 0056 FFF7FEFF 		bl	GUI_DispStringAt
 395              	.LVL55:
  89:TasksInterface.c ****     GUI_DispStringAt("Heart rate:",150,160); GUI_DispStringAt(Parametre2,210,160); GUI_DispStringAt
 396              		.loc 1 89 0
 397 005a A022     		movs	r2, #160
 398 005c 9621     		movs	r1, #150
 399 005e 1448     		ldr	r0, .L28+16
 400 0060 FFF7FEFF 		bl	GUI_DispStringAt
 401              	.LVL56:
 402 0064 A022     		movs	r2, #160
 403 0066 D221     		movs	r1, #210
 404 0068 6846     		mov	r0, sp
 405 006a FFF7FEFF 		bl	GUI_DispStringAt
 406              	.LVL57:
 407 006e A022     		movs	r2, #160
 408 0070 E621     		movs	r1, #230
 409 0072 1048     		ldr	r0, .L28+20
 410 0074 FFF7FEFF 		bl	GUI_DispStringAt
 411              	.LVL58:
  90:TasksInterface.c ****     if (CurveParam==3){
 412              		.loc 1 90 0
 413 0078 032C     		cmp	r4, #3
 414 007a 04D1     		bne	.L25
  91:TasksInterface.c ****         GUI_DispStringAt("Red curve:",110,0);
 415              		.loc 1 91 0
ARM GAS  C:\Users\felha\AppData\Local\Temp\ccuk7kBX.s 			page 10


 416 007c 0022     		movs	r2, #0
 417 007e 6E21     		movs	r1, #110
 418 0080 0D48     		ldr	r0, .L28+24
 419 0082 FFF7FEFF 		bl	GUI_DispStringAt
 420              	.LVL59:
 421              	.L25:
  92:TasksInterface.c ****     }
  93:TasksInterface.c ****     if (CurveParam==4){
 422              		.loc 1 93 0
 423 0086 042C     		cmp	r4, #4
 424 0088 04D1     		bne	.L26
  94:TasksInterface.c ****         GUI_DispStringAt("Infrared curve:",105,0);
 425              		.loc 1 94 0
 426 008a 0022     		movs	r2, #0
 427 008c 6921     		movs	r1, #105
 428 008e 0B48     		ldr	r0, .L28+28
 429 0090 FFF7FEFF 		bl	GUI_DispStringAt
 430              	.LVL60:
 431              	.L26:
  95:TasksInterface.c ****     }
  96:TasksInterface.c ****     UpdateDisplay(CY_EINK_FULL_4STAGE, true); 
 432              		.loc 1 96 0
 433 0094 0121     		movs	r1, #1
 434 0096 0846     		mov	r0, r1
 435 0098 FFF7FEFF 		bl	UpdateDisplay
 436              	.LVL61:
  97:TasksInterface.c **** }
 437              		.loc 1 97 0
 438 009c 04B0     		add	sp, sp, #16
 439              		.cfi_def_cfa_offset 16
 440              		@ sp needed
 441 009e 70BD     		pop	{r4, r5, r6, pc}
 442              	.LVL62:
 443              	.L29:
 444              		.align	2
 445              	.L28:
 446 00a0 34000000 		.word	.LC2
 447 00a4 00000000 		.word	GUI_Font10_1
 448 00a8 38000000 		.word	.LC3
 449 00ac 4C000000 		.word	.LC4
 450 00b0 50000000 		.word	.LC5
 451 00b4 5C000000 		.word	.LC6
 452 00b8 60000000 		.word	.LC7
 453 00bc 6C000000 		.word	.LC8
 454              		.cfi_endproc
 455              	.LFE654:
 456              		.size	updateParameters, .-updateParameters
 457              		.section	.text.updateLowHeartRateLimit,"ax",%progbits
 458              		.align	2
 459              		.global	updateLowHeartRateLimit
 460              		.thumb
 461              		.thumb_func
 462              		.type	updateLowHeartRateLimit, %function
 463              	updateLowHeartRateLimit:
 464              	.LFB655:
  98:TasksInterface.c **** 
  99:TasksInterface.c **** // 5)Fonction pour afficher la valeur inférieure du rythme cardiaque définie par l'utilisateur
ARM GAS  C:\Users\felha\AppData\Local\Temp\ccuk7kBX.s 			page 11


 100:TasksInterface.c **** void updateLowHeartRateLimit(int HeartRate)
 101:TasksInterface.c **** {
 465              		.loc 1 101 0
 466              		.cfi_startproc
 467              		@ args = 0, pretend = 0, frame = 8
 468              		@ frame_needed = 0, uses_anonymous_args = 0
 469              	.LVL63:
 470 0000 10B5     		push	{r4, lr}
 471              		.cfi_def_cfa_offset 8
 472              		.cfi_offset 4, -8
 473              		.cfi_offset 14, -4
 474 0002 82B0     		sub	sp, sp, #8
 475              		.cfi_def_cfa_offset 16
 476 0004 0446     		mov	r4, r0
 102:TasksInterface.c ****     GUI_Clear();
 477              		.loc 1 102 0
 478 0006 FFF7FEFF 		bl	GUI_Clear
 479              	.LVL64:
 103:TasksInterface.c ****     char HeartRateLow[6];
 104:TasksInterface.c ****     sprintf(HeartRateLow,"%d",HeartRate);
 480              		.loc 1 104 0
 481 000a 2246     		mov	r2, r4
 482 000c 0F49     		ldr	r1, .L32
 483 000e 6846     		mov	r0, sp
 484 0010 FFF7FEFF 		bl	sprintf
 485              	.LVL65:
 105:TasksInterface.c ****     GUI_SetPenSize(18); GUI_SetFont(GUI_FONT_24_1); 
 486              		.loc 1 105 0
 487 0014 1220     		movs	r0, #18
 488 0016 FFF7FEFF 		bl	GUI_SetPenSize
 489              	.LVL66:
 490 001a 0D48     		ldr	r0, .L32+4
 491 001c FFF7FEFF 		bl	GUI_SetFont
 492              	.LVL67:
 106:TasksInterface.c ****     GUI_DispStringAt(HeartRateLow,115,90); 
 493              		.loc 1 106 0
 494 0020 5A22     		movs	r2, #90
 495 0022 7321     		movs	r1, #115
 496 0024 6846     		mov	r0, sp
 497 0026 FFF7FEFF 		bl	GUI_DispStringAt
 498              	.LVL68:
 107:TasksInterface.c ****     GUI_SetPenSize(7); GUI_SetFont(GUI_FONT_13_1); 
 499              		.loc 1 107 0
 500 002a 0720     		movs	r0, #7
 501 002c FFF7FEFF 		bl	GUI_SetPenSize
 502              	.LVL69:
 503 0030 0848     		ldr	r0, .L32+8
 504 0032 FFF7FEFF 		bl	GUI_SetFont
 505              	.LVL70:
 108:TasksInterface.c ****     GUI_DispStringAt("Low heart rate limit",80,20);
 506              		.loc 1 108 0
 507 0036 1422     		movs	r2, #20
 508 0038 5021     		movs	r1, #80
 509 003a 0748     		ldr	r0, .L32+12
 510 003c FFF7FEFF 		bl	GUI_DispStringAt
 511              	.LVL71:
 109:TasksInterface.c ****     UpdateDisplay(CY_EINK_FULL_4STAGE, true);
ARM GAS  C:\Users\felha\AppData\Local\Temp\ccuk7kBX.s 			page 12


 512              		.loc 1 109 0
 513 0040 0121     		movs	r1, #1
 514 0042 0846     		mov	r0, r1
 515 0044 FFF7FEFF 		bl	UpdateDisplay
 516              	.LVL72:
 110:TasksInterface.c **** }
 517              		.loc 1 110 0
 518 0048 02B0     		add	sp, sp, #8
 519              		.cfi_def_cfa_offset 8
 520              		@ sp needed
 521 004a 10BD     		pop	{r4, pc}
 522              	.LVL73:
 523              	.L33:
 524              		.align	2
 525              	.L32:
 526 004c 34000000 		.word	.LC2
 527 0050 00000000 		.word	GUI_Font24_1
 528 0054 00000000 		.word	GUI_Font13_1
 529 0058 7C000000 		.word	.LC9
 530              		.cfi_endproc
 531              	.LFE655:
 532              		.size	updateLowHeartRateLimit, .-updateLowHeartRateLimit
 533              		.section	.text.updateHighHeartRateLimit,"ax",%progbits
 534              		.align	2
 535              		.global	updateHighHeartRateLimit
 536              		.thumb
 537              		.thumb_func
 538              		.type	updateHighHeartRateLimit, %function
 539              	updateHighHeartRateLimit:
 540              	.LFB656:
 111:TasksInterface.c **** 
 112:TasksInterface.c **** // 6)Fonction pour afficher la valeur supérieure du rythme cardiaque définie par l'utilisatuer
 113:TasksInterface.c **** void updateHighHeartRateLimit(int HeartRate)
 114:TasksInterface.c **** {
 541              		.loc 1 114 0
 542              		.cfi_startproc
 543              		@ args = 0, pretend = 0, frame = 8
 544              		@ frame_needed = 0, uses_anonymous_args = 0
 545              	.LVL74:
 546 0000 10B5     		push	{r4, lr}
 547              		.cfi_def_cfa_offset 8
 548              		.cfi_offset 4, -8
 549              		.cfi_offset 14, -4
 550 0002 82B0     		sub	sp, sp, #8
 551              		.cfi_def_cfa_offset 16
 552 0004 0446     		mov	r4, r0
 115:TasksInterface.c ****     GUI_Clear();
 553              		.loc 1 115 0
 554 0006 FFF7FEFF 		bl	GUI_Clear
 555              	.LVL75:
 116:TasksInterface.c ****     char HeartRateHigh[6];
 117:TasksInterface.c ****     sprintf(HeartRateHigh,"%d",HeartRate);
 556              		.loc 1 117 0
 557 000a 2246     		mov	r2, r4
 558 000c 0F49     		ldr	r1, .L36
 559 000e 6846     		mov	r0, sp
 560 0010 FFF7FEFF 		bl	sprintf
ARM GAS  C:\Users\felha\AppData\Local\Temp\ccuk7kBX.s 			page 13


 561              	.LVL76:
 118:TasksInterface.c ****     GUI_SetPenSize(18); GUI_SetFont(GUI_FONT_24_1); 
 562              		.loc 1 118 0
 563 0014 1220     		movs	r0, #18
 564 0016 FFF7FEFF 		bl	GUI_SetPenSize
 565              	.LVL77:
 566 001a 0D48     		ldr	r0, .L36+4
 567 001c FFF7FEFF 		bl	GUI_SetFont
 568              	.LVL78:
 119:TasksInterface.c ****     GUI_DispStringAt(HeartRateHigh,115,90); 
 569              		.loc 1 119 0
 570 0020 5A22     		movs	r2, #90
 571 0022 7321     		movs	r1, #115
 572 0024 6846     		mov	r0, sp
 573 0026 FFF7FEFF 		bl	GUI_DispStringAt
 574              	.LVL79:
 120:TasksInterface.c ****     GUI_SetPenSize(7); GUI_SetFont(GUI_FONT_13_1); 
 575              		.loc 1 120 0
 576 002a 0720     		movs	r0, #7
 577 002c FFF7FEFF 		bl	GUI_SetPenSize
 578              	.LVL80:
 579 0030 0848     		ldr	r0, .L36+8
 580 0032 FFF7FEFF 		bl	GUI_SetFont
 581              	.LVL81:
 121:TasksInterface.c ****     GUI_DispStringAt("High heart rate limit",80,20);
 582              		.loc 1 121 0
 583 0036 1422     		movs	r2, #20
 584 0038 5021     		movs	r1, #80
 585 003a 0748     		ldr	r0, .L36+12
 586 003c FFF7FEFF 		bl	GUI_DispStringAt
 587              	.LVL82:
 122:TasksInterface.c ****     UpdateDisplay(CY_EINK_FULL_4STAGE, true);
 588              		.loc 1 122 0
 589 0040 0121     		movs	r1, #1
 590 0042 0846     		mov	r0, r1
 591 0044 FFF7FEFF 		bl	UpdateDisplay
 592              	.LVL83:
 123:TasksInterface.c **** }
 593              		.loc 1 123 0
 594 0048 02B0     		add	sp, sp, #8
 595              		.cfi_def_cfa_offset 8
 596              		@ sp needed
 597 004a 10BD     		pop	{r4, pc}
 598              	.LVL84:
 599              	.L37:
 600              		.align	2
 601              	.L36:
 602 004c 34000000 		.word	.LC2
 603 0050 00000000 		.word	GUI_Font24_1
 604 0054 00000000 		.word	GUI_Font13_1
 605 0058 94000000 		.word	.LC10
 606              		.cfi_endproc
 607              	.LFE656:
 608              		.size	updateHighHeartRateLimit, .-updateHighHeartRateLimit
 609              		.section	.text.DisplayPage,"ax",%progbits
 610              		.align	2
 611              		.global	DisplayPage
ARM GAS  C:\Users\felha\AppData\Local\Temp\ccuk7kBX.s 			page 14


 612              		.thumb
 613              		.thumb_func
 614              		.type	DisplayPage, %function
 615              	DisplayPage:
 616              	.LFB657:
 124:TasksInterface.c **** 
 125:TasksInterface.c **** // 7)Fonction pour afficher la page actuelle et le curseur définissant le paramètre à modifier d
 126:TasksInterface.c **** void DisplayPage(int PageNumber, int ParamP1, int ParamP2){
 617              		.loc 1 126 0
 618              		.cfi_startproc
 619              		@ args = 0, pretend = 0, frame = 0
 620              		@ frame_needed = 0, uses_anonymous_args = 0
 621              	.LVL85:
 622 0000 70B5     		push	{r4, r5, r6, lr}
 623              		.cfi_def_cfa_offset 16
 624              		.cfi_offset 4, -16
 625              		.cfi_offset 5, -12
 626              		.cfi_offset 6, -8
 627              		.cfi_offset 14, -4
 628 0002 0446     		mov	r4, r0
 629 0004 0D46     		mov	r5, r1
 630 0006 1646     		mov	r6, r2
 127:TasksInterface.c ****     GUI_Clear();
 631              		.loc 1 127 0
 632 0008 FFF7FEFF 		bl	GUI_Clear
 633              	.LVL86:
 128:TasksInterface.c ****     GUI_SetPenSize(7); GUI_SetFont(GUI_FONT_13_1);
 634              		.loc 1 128 0
 635 000c 0720     		movs	r0, #7
 636 000e FFF7FEFF 		bl	GUI_SetPenSize
 637              	.LVL87:
 638 0012 3748     		ldr	r0, .L47
 639 0014 FFF7FEFF 		bl	GUI_SetFont
 640              	.LVL88:
 129:TasksInterface.c ****     if (PageNumber==0)
 641              		.loc 1 129 0
 642 0018 74B9     		cbnz	r4, .L39
 130:TasksInterface.c ****     {
 131:TasksInterface.c ****         GUI_DispStringAt("Use the CapSense buttons to change pages",20,20);
 643              		.loc 1 131 0
 644 001a 1422     		movs	r2, #20
 645 001c 1146     		mov	r1, r2
 646 001e 3548     		ldr	r0, .L47+4
 647 0020 FFF7FEFF 		bl	GUI_DispStringAt
 648              	.LVL89:
 132:TasksInterface.c ****         GUI_DispStringAt("Use the CapSense slider to change parameters",20,50);
 649              		.loc 1 132 0
 650 0024 3222     		movs	r2, #50
 651 0026 1421     		movs	r1, #20
 652 0028 3348     		ldr	r0, .L47+8
 653 002a FFF7FEFF 		bl	GUI_DispStringAt
 654              	.LVL90:
 133:TasksInterface.c ****         GUI_DispStringAt("Use the CapSense buttons to select a parameter",20,80);
 655              		.loc 1 133 0
 656 002e 5022     		movs	r2, #80
 657 0030 1421     		movs	r1, #20
 658 0032 3248     		ldr	r0, .L47+12
ARM GAS  C:\Users\felha\AppData\Local\Temp\ccuk7kBX.s 			page 15


 659 0034 FFF7FEFF 		bl	GUI_DispStringAt
 660              	.LVL91:
 661              	.L39:
 134:TasksInterface.c ****     }
 135:TasksInterface.c ****     if (PageNumber==1)
 662              		.loc 1 135 0
 663 0038 012C     		cmp	r4, #1
 664 003a 34D1     		bne	.L40
 136:TasksInterface.c ****     {
 137:TasksInterface.c ****         GUI_DispStringAt("Parameters page 1",80,0);
 665              		.loc 1 137 0
 666 003c 0022     		movs	r2, #0
 667 003e 5021     		movs	r1, #80
 668 0040 2F48     		ldr	r0, .L47+16
 669 0042 FFF7FEFF 		bl	GUI_DispStringAt
 670              	.LVL92:
 138:TasksInterface.c ****         GUI_DispStringAt("1)Change LED intensity",30,50);
 671              		.loc 1 138 0
 672 0046 3222     		movs	r2, #50
 673 0048 1E21     		movs	r1, #30
 674 004a 2E48     		ldr	r0, .L47+20
 675 004c FFF7FEFF 		bl	GUI_DispStringAt
 676              	.LVL93:
 139:TasksInterface.c ****         GUI_DispStringAt("2)Enable/Disable motion sensor alarm",30,80);
 677              		.loc 1 139 0
 678 0050 5022     		movs	r2, #80
 679 0052 1E21     		movs	r1, #30
 680 0054 2C48     		ldr	r0, .L47+24
 681 0056 FFF7FEFF 		bl	GUI_DispStringAt
 682              	.LVL94:
 140:TasksInterface.c ****         GUI_DispStringAt("3)Draw red curve",30,110);
 683              		.loc 1 140 0
 684 005a 6E22     		movs	r2, #110
 685 005c 1E21     		movs	r1, #30
 686 005e 2B48     		ldr	r0, .L47+28
 687 0060 FFF7FEFF 		bl	GUI_DispStringAt
 688              	.LVL95:
 141:TasksInterface.c ****         GUI_DispStringAt("4)Draw infrared curve",30,140);
 689              		.loc 1 141 0
 690 0064 8C22     		movs	r2, #140
 691 0066 1E21     		movs	r1, #30
 692 0068 2948     		ldr	r0, .L47+32
 693 006a FFF7FEFF 		bl	GUI_DispStringAt
 694              	.LVL96:
 142:TasksInterface.c ****         if (ParamP1==1)
 695              		.loc 1 142 0
 696 006e 012D     		cmp	r5, #1
 697 0070 04D1     		bne	.L41
 143:TasksInterface.c ****         {
 144:TasksInterface.c ****             GUI_DrawCircle(15,55,5);
 698              		.loc 1 144 0
 699 0072 0522     		movs	r2, #5
 700 0074 3721     		movs	r1, #55
 701 0076 0F20     		movs	r0, #15
 702 0078 FFF7FEFF 		bl	GUI_DrawCircle
 703              	.LVL97:
 704              	.L41:
ARM GAS  C:\Users\felha\AppData\Local\Temp\ccuk7kBX.s 			page 16


 145:TasksInterface.c ****         }
 146:TasksInterface.c ****         if (ParamP1==2)
 705              		.loc 1 146 0
 706 007c 022D     		cmp	r5, #2
 707 007e 04D1     		bne	.L42
 147:TasksInterface.c ****         {
 148:TasksInterface.c ****             GUI_DrawCircle(15,85,5);
 708              		.loc 1 148 0
 709 0080 0522     		movs	r2, #5
 710 0082 5521     		movs	r1, #85
 711 0084 0F20     		movs	r0, #15
 712 0086 FFF7FEFF 		bl	GUI_DrawCircle
 713              	.LVL98:
 714              	.L42:
 149:TasksInterface.c ****         }
 150:TasksInterface.c ****         if (ParamP1==3)
 715              		.loc 1 150 0
 716 008a 032D     		cmp	r5, #3
 717 008c 04D1     		bne	.L43
 151:TasksInterface.c ****         {
 152:TasksInterface.c ****             GUI_DrawCircle(15,115,5);
 718              		.loc 1 152 0
 719 008e 0522     		movs	r2, #5
 720 0090 7321     		movs	r1, #115
 721 0092 0F20     		movs	r0, #15
 722 0094 FFF7FEFF 		bl	GUI_DrawCircle
 723              	.LVL99:
 724              	.L43:
 153:TasksInterface.c ****         }
 154:TasksInterface.c ****         if (ParamP1==4)
 725              		.loc 1 154 0
 726 0098 042D     		cmp	r5, #4
 727 009a 04D1     		bne	.L40
 155:TasksInterface.c ****         {
 156:TasksInterface.c ****             GUI_DrawCircle(15,145,5);
 728              		.loc 1 156 0
 729 009c 0522     		movs	r2, #5
 730 009e 9121     		movs	r1, #145
 731 00a0 0F20     		movs	r0, #15
 732 00a2 FFF7FEFF 		bl	GUI_DrawCircle
 733              	.LVL100:
 734              	.L40:
 157:TasksInterface.c ****         }
 158:TasksInterface.c ****     }
 159:TasksInterface.c ****     if (PageNumber==2)
 735              		.loc 1 159 0
 736 00a6 022C     		cmp	r4, #2
 737 00a8 1CD1     		bne	.L44
 160:TasksInterface.c ****     {
 161:TasksInterface.c ****         
 162:TasksInterface.c ****         GUI_DispStringAt("Parameters page 2",80,0);
 738              		.loc 1 162 0
 739 00aa 0022     		movs	r2, #0
 740 00ac 5021     		movs	r1, #80
 741 00ae 1948     		ldr	r0, .L47+36
 742 00b0 FFF7FEFF 		bl	GUI_DispStringAt
 743              	.LVL101:
ARM GAS  C:\Users\felha\AppData\Local\Temp\ccuk7kBX.s 			page 17


 163:TasksInterface.c ****         GUI_DispStringAt("1)Set low heart rate limit",30,50);
 744              		.loc 1 163 0
 745 00b4 3222     		movs	r2, #50
 746 00b6 1E21     		movs	r1, #30
 747 00b8 1748     		ldr	r0, .L47+40
 748 00ba FFF7FEFF 		bl	GUI_DispStringAt
 749              	.LVL102:
 164:TasksInterface.c ****         GUI_DispStringAt("2)Set high heart rate limit",30,80);
 750              		.loc 1 164 0
 751 00be 5022     		movs	r2, #80
 752 00c0 1E21     		movs	r1, #30
 753 00c2 1648     		ldr	r0, .L47+44
 754 00c4 FFF7FEFF 		bl	GUI_DispStringAt
 755              	.LVL103:
 165:TasksInterface.c ****         if (ParamP2==1)
 756              		.loc 1 165 0
 757 00c8 012E     		cmp	r6, #1
 758 00ca 04D1     		bne	.L45
 166:TasksInterface.c ****         {
 167:TasksInterface.c ****             GUI_DrawCircle(15,55,5);
 759              		.loc 1 167 0
 760 00cc 0522     		movs	r2, #5
 761 00ce 3721     		movs	r1, #55
 762 00d0 0F20     		movs	r0, #15
 763 00d2 FFF7FEFF 		bl	GUI_DrawCircle
 764              	.LVL104:
 765              	.L45:
 168:TasksInterface.c ****         }
 169:TasksInterface.c ****         if (ParamP2==2)
 766              		.loc 1 169 0
 767 00d6 022E     		cmp	r6, #2
 768 00d8 04D1     		bne	.L44
 170:TasksInterface.c ****         {
 171:TasksInterface.c ****             GUI_DrawCircle(15,85,5);
 769              		.loc 1 171 0
 770 00da 0522     		movs	r2, #5
 771 00dc 5521     		movs	r1, #85
 772 00de 0F20     		movs	r0, #15
 773 00e0 FFF7FEFF 		bl	GUI_DrawCircle
 774              	.LVL105:
 775              	.L44:
 172:TasksInterface.c ****         }
 173:TasksInterface.c ****     }
 174:TasksInterface.c ****     UpdateDisplay(CY_EINK_FULL_4STAGE, true);
 776              		.loc 1 174 0
 777 00e4 0121     		movs	r1, #1
 778 00e6 0846     		mov	r0, r1
 779 00e8 FFF7FEFF 		bl	UpdateDisplay
 780              	.LVL106:
 781 00ec 70BD     		pop	{r4, r5, r6, pc}
 782              	.LVL107:
 783              	.L48:
 784 00ee 00BF     		.align	2
 785              	.L47:
 786 00f0 00000000 		.word	GUI_Font13_1
 787 00f4 AC000000 		.word	.LC11
 788 00f8 D8000000 		.word	.LC12
ARM GAS  C:\Users\felha\AppData\Local\Temp\ccuk7kBX.s 			page 18


 789 00fc 08010000 		.word	.LC13
 790 0100 38010000 		.word	.LC14
 791 0104 4C010000 		.word	.LC15
 792 0108 64010000 		.word	.LC16
 793 010c 8C010000 		.word	.LC17
 794 0110 A0010000 		.word	.LC18
 795 0114 B8010000 		.word	.LC19
 796 0118 CC010000 		.word	.LC20
 797 011c E8010000 		.word	.LC21
 798              		.cfi_endproc
 799              	.LFE657:
 800              		.size	DisplayPage, .-DisplayPage
 801              		.section	.text.CapSense_ChangeLedIntensity,"ax",%progbits
 802              		.align	2
 803              		.global	CapSense_ChangeLedIntensity
 804              		.thumb
 805              		.thumb_func
 806              		.type	CapSense_ChangeLedIntensity, %function
 807              	CapSense_ChangeLedIntensity:
 808              	.LFB658:
 175:TasksInterface.c **** }
 176:TasksInterface.c **** 
 177:TasksInterface.c **** // 8)Fonction pour changer l'intensité de la LED du capteur SpO2
 178:TasksInterface.c **** volatile uint32_t SliderPosI=0; volatile bool StopChangeLedIntensity=false; 
 179:TasksInterface.c **** void CapSense_ChangeLedIntensity()
 180:TasksInterface.c **** {      
 809              		.loc 1 180 0
 810              		.cfi_startproc
 811              		@ args = 0, pretend = 0, frame = 0
 812              		@ frame_needed = 0, uses_anonymous_args = 0
 813 0000 10B5     		push	{r4, lr}
 814              		.cfi_def_cfa_offset 8
 815              		.cfi_offset 4, -8
 816              		.cfi_offset 14, -4
 181:TasksInterface.c ****         CapSense_ProcessAllWidgets();
 817              		.loc 1 181 0
 818 0002 FFF7FEFF 		bl	CapSense_ProcessAllWidgets
 819              	.LVL108:
 182:TasksInterface.c ****         SliderPosI=CapSense_GetCentroidPos(CapSense_LINEARSLIDER0_WDGT_ID);
 820              		.loc 1 182 0
 821 0006 0020     		movs	r0, #0
 822 0008 FFF7FEFF 		bl	CapSense_GetCentroidPos
 823              	.LVL109:
 824 000c 134B     		ldr	r3, .L53
 825 000e C3F8B805 		str	r0, [r3, #1464]
 183:TasksInterface.c ****         if (SliderPosI<65534)
 826              		.loc 1 183 0
 827 0012 D3F8B825 		ldr	r2, [r3, #1464]
 828 0016 4FF6FD73 		movw	r3, #65533
 829 001a 9A42     		cmp	r2, r3
 830 001c 0CD8     		bhi	.L50
 831              	.LBB12:
 184:TasksInterface.c ****         {
 185:TasksInterface.c ****             uint8_t Current=2*SliderPosI;
 832              		.loc 1 185 0
 833 001e 0F4B     		ldr	r3, .L53
 834 0020 D3F8B845 		ldr	r4, [r3, #1464]
ARM GAS  C:\Users\felha\AppData\Local\Temp\ccuk7kBX.s 			page 19


 835 0024 6400     		lsls	r4, r4, #1
 836 0026 E4B2     		uxtb	r4, r4
 837              	.LVL110:
 186:TasksInterface.c ****             write_Register(REG_LED1_PA, Current);  //8bits varie de 0 à 255, 0=0ma et 255=51ma
 838              		.loc 1 186 0
 839 0028 2146     		mov	r1, r4
 840 002a 0C20     		movs	r0, #12
 841 002c FFF7FEFF 		bl	write_Register
 842              	.LVL111:
 187:TasksInterface.c ****             write_Register(REG_LED2_PA, Current);  //
 843              		.loc 1 187 0
 844 0030 2146     		mov	r1, r4
 845 0032 0D20     		movs	r0, #13
 846 0034 FFF7FEFF 		bl	write_Register
 847              	.LVL112:
 848              	.L50:
 849              	.LBE12:
 188:TasksInterface.c ****         }
 189:TasksInterface.c ****         SliderPosI=0;
 850              		.loc 1 189 0
 851 0038 0022     		movs	r2, #0
 852 003a 084B     		ldr	r3, .L53
 853 003c C3F8B825 		str	r2, [r3, #1464]
 190:TasksInterface.c ****         CapSense_UpdateAllBaselines();
 854              		.loc 1 190 0
 855 0040 FFF7FEFF 		bl	CapSense_UpdateAllBaselines
 856              	.LVL113:
 191:TasksInterface.c ****         CapSense_ScanAllWidgets();
 857              		.loc 1 191 0
 858 0044 FFF7FEFF 		bl	CapSense_ScanAllWidgets
 859              	.LVL114:
 192:TasksInterface.c ****         if (CapSense_IsWidgetActive(CapSense_BUTTON0_WDGT_ID)){
 860              		.loc 1 192 0
 861 0048 0120     		movs	r0, #1
 862 004a FFF7FEFF 		bl	CapSense_IsWidgetActive
 863              	.LVL115:
 864 004e 18B1     		cbz	r0, .L49
 193:TasksInterface.c ****         StopChangeLedIntensity=true;
 865              		.loc 1 193 0
 866 0050 0122     		movs	r2, #1
 867 0052 024B     		ldr	r3, .L53
 868 0054 83F8BC25 		strb	r2, [r3, #1468]
 869              	.L49:
 870 0058 10BD     		pop	{r4, pc}
 871              	.L54:
 872 005a 00BF     		.align	2
 873              	.L53:
 874 005c F8100000 		.word	.LANCHOR1
 875              		.cfi_endproc
 876              	.LFE658:
 877              		.size	CapSense_ChangeLedIntensity, .-CapSense_ChangeLedIntensity
 878              		.section	.text.CapSense_ChangeLowHeartRateLimit,"ax",%progbits
 879              		.align	2
 880              		.global	CapSense_ChangeLowHeartRateLimit
 881              		.thumb
 882              		.thumb_func
 883              		.type	CapSense_ChangeLowHeartRateLimit, %function
ARM GAS  C:\Users\felha\AppData\Local\Temp\ccuk7kBX.s 			page 20


 884              	CapSense_ChangeLowHeartRateLimit:
 885              	.LFB659:
 194:TasksInterface.c ****         }
 195:TasksInterface.c **** }
 196:TasksInterface.c **** 
 197:TasksInterface.c **** // 9)Fonction pour changer la valeur inférieure du rythme cardiaque définie par l'utilisateur
 198:TasksInterface.c **** volatile int LowHeartRateI=60; volatile int LowHeartRateF=60; volatile uint32_t SliderPosIII=50; vo
 199:TasksInterface.c **** void CapSense_ChangeLowHeartRateLimit()
 200:TasksInterface.c **** {      
 886              		.loc 1 200 0
 887              		.cfi_startproc
 888              		@ args = 0, pretend = 0, frame = 0
 889              		@ frame_needed = 0, uses_anonymous_args = 0
 890 0000 10B5     		push	{r4, lr}
 891              		.cfi_def_cfa_offset 8
 892              		.cfi_offset 4, -8
 893              		.cfi_offset 14, -4
 201:TasksInterface.c ****     CapSense_ProcessAllWidgets();
 894              		.loc 1 201 0
 895 0002 FFF7FEFF 		bl	CapSense_ProcessAllWidgets
 896              	.LVL116:
 202:TasksInterface.c ****     SliderPosIII=CapSense_GetCentroidPos(CapSense_LINEARSLIDER0_WDGT_ID);
 897              		.loc 1 202 0
 898 0006 0020     		movs	r0, #0
 899 0008 FFF7FEFF 		bl	CapSense_GetCentroidPos
 900              	.LVL117:
 901 000c 254B     		ldr	r3, .L63
 902 000e 1860     		str	r0, [r3]
 203:TasksInterface.c ****     if (SliderPosIII<65534&&SliderPosIII>=80)
 903              		.loc 1 203 0
 904 0010 1A68     		ldr	r2, [r3]
 905 0012 4FF6FD73 		movw	r3, #65533
 906 0016 9A42     		cmp	r2, r3
 907 0018 07D8     		bhi	.L56
 908              		.loc 1 203 0 is_stmt 0 discriminator 1
 909 001a 224B     		ldr	r3, .L63
 910 001c 1B68     		ldr	r3, [r3]
 911 001e 4F2B     		cmp	r3, #79
 912 0020 03D9     		bls	.L56
 204:TasksInterface.c ****     {
 205:TasksInterface.c ****         LowHeartRateI=LowHeartRateI+2;
 913              		.loc 1 205 0 is_stmt 1
 914 0022 204A     		ldr	r2, .L63
 915 0024 5368     		ldr	r3, [r2, #4]
 916 0026 0233     		adds	r3, r3, #2
 917 0028 5360     		str	r3, [r2, #4]
 918              	.L56:
 206:TasksInterface.c ****     }
 207:TasksInterface.c ****     if (SliderPosIII<80&&SliderPosIII>50)
 919              		.loc 1 207 0
 920 002a 1E4B     		ldr	r3, .L63
 921 002c 1B68     		ldr	r3, [r3]
 922 002e 4F2B     		cmp	r3, #79
 923 0030 07D8     		bhi	.L57
 924              		.loc 1 207 0 is_stmt 0 discriminator 1
 925 0032 1C4B     		ldr	r3, .L63
 926 0034 1B68     		ldr	r3, [r3]
ARM GAS  C:\Users\felha\AppData\Local\Temp\ccuk7kBX.s 			page 21


 927 0036 322B     		cmp	r3, #50
 928 0038 03D9     		bls	.L57
 208:TasksInterface.c ****     {
 209:TasksInterface.c ****         LowHeartRateI++;
 929              		.loc 1 209 0 is_stmt 1
 930 003a 1A4A     		ldr	r2, .L63
 931 003c 5368     		ldr	r3, [r2, #4]
 932 003e 0133     		adds	r3, r3, #1
 933 0040 5360     		str	r3, [r2, #4]
 934              	.L57:
 210:TasksInterface.c ****     }
 211:TasksInterface.c ****     if (SliderPosIII<50&&SliderPosIII>20)
 935              		.loc 1 211 0
 936 0042 184B     		ldr	r3, .L63
 937 0044 1B68     		ldr	r3, [r3]
 938 0046 312B     		cmp	r3, #49
 939 0048 07D8     		bhi	.L58
 940              		.loc 1 211 0 is_stmt 0 discriminator 1
 941 004a 164B     		ldr	r3, .L63
 942 004c 1B68     		ldr	r3, [r3]
 943 004e 142B     		cmp	r3, #20
 944 0050 03D9     		bls	.L58
 212:TasksInterface.c ****     {
 213:TasksInterface.c ****         LowHeartRateI--;
 945              		.loc 1 213 0 is_stmt 1
 946 0052 144A     		ldr	r2, .L63
 947 0054 5368     		ldr	r3, [r2, #4]
 948 0056 013B     		subs	r3, r3, #1
 949 0058 5360     		str	r3, [r2, #4]
 950              	.L58:
 214:TasksInterface.c ****     }
 215:TasksInterface.c ****     if (SliderPosIII<=20)
 951              		.loc 1 215 0
 952 005a 124B     		ldr	r3, .L63
 953 005c 1B68     		ldr	r3, [r3]
 954 005e 142B     		cmp	r3, #20
 955 0060 03D8     		bhi	.L59
 216:TasksInterface.c ****     {
 217:TasksInterface.c ****         LowHeartRateI=LowHeartRateI-2;
 956              		.loc 1 217 0
 957 0062 104A     		ldr	r2, .L63
 958 0064 5368     		ldr	r3, [r2, #4]
 959 0066 023B     		subs	r3, r3, #2
 960 0068 5360     		str	r3, [r2, #4]
 961              	.L59:
 218:TasksInterface.c ****     }
 219:TasksInterface.c ****     SliderPosIII=50;
 962              		.loc 1 219 0
 963 006a 0E4C     		ldr	r4, .L63
 964 006c 3223     		movs	r3, #50
 965 006e 2360     		str	r3, [r4]
 220:TasksInterface.c ****     CapSense_UpdateAllBaselines();
 966              		.loc 1 220 0
 967 0070 FFF7FEFF 		bl	CapSense_UpdateAllBaselines
 968              	.LVL118:
 221:TasksInterface.c ****     CapSense_ScanAllWidgets();
 969              		.loc 1 221 0
ARM GAS  C:\Users\felha\AppData\Local\Temp\ccuk7kBX.s 			page 22


 970 0074 FFF7FEFF 		bl	CapSense_ScanAllWidgets
 971              	.LVL119:
 222:TasksInterface.c ****     if (LowHeartRateI != LowHeartRateF)
 972              		.loc 1 222 0
 973 0078 6268     		ldr	r2, [r4, #4]
 974 007a A368     		ldr	r3, [r4, #8]
 975 007c 9A42     		cmp	r2, r3
 976 007e 02D0     		beq	.L60
 223:TasksInterface.c ****     {
 224:TasksInterface.c ****         updateLowHeartRateLimit(LowHeartRateI);
 977              		.loc 1 224 0
 978 0080 6068     		ldr	r0, [r4, #4]
 979 0082 FFF7FEFF 		bl	updateLowHeartRateLimit
 980              	.LVL120:
 981              	.L60:
 225:TasksInterface.c ****     }
 226:TasksInterface.c ****     LowHeartRateF=LowHeartRateI;
 982              		.loc 1 226 0
 983 0086 074B     		ldr	r3, .L63
 984 0088 5A68     		ldr	r2, [r3, #4]
 985 008a 9A60     		str	r2, [r3, #8]
 227:TasksInterface.c ****     CapSense_ProcessAllWidgets();
 986              		.loc 1 227 0
 987 008c FFF7FEFF 		bl	CapSense_ProcessAllWidgets
 988              	.LVL121:
 228:TasksInterface.c ****     if (CapSense_IsWidgetActive(CapSense_BUTTON0_WDGT_ID)){
 989              		.loc 1 228 0
 990 0090 0120     		movs	r0, #1
 991 0092 FFF7FEFF 		bl	CapSense_IsWidgetActive
 992              	.LVL122:
 993 0096 18B1     		cbz	r0, .L55
 229:TasksInterface.c ****         StopChangeLowHeartRate=true;
 994              		.loc 1 229 0
 995 0098 0122     		movs	r2, #1
 996 009a 034B     		ldr	r3, .L63+4
 997 009c 83F8BD25 		strb	r2, [r3, #1469]
 998              	.L55:
 999 00a0 10BD     		pop	{r4, pc}
 1000              	.L64:
 1001 00a2 00BF     		.align	2
 1002              	.L63:
 1003 00a4 00000000 		.word	.LANCHOR2
 1004 00a8 F8100000 		.word	.LANCHOR1
 1005              		.cfi_endproc
 1006              	.LFE659:
 1007              		.size	CapSense_ChangeLowHeartRateLimit, .-CapSense_ChangeLowHeartRateLimit
 1008              		.section	.text.CapSense_ChangeHighHeartRateLimit,"ax",%progbits
 1009              		.align	2
 1010              		.global	CapSense_ChangeHighHeartRateLimit
 1011              		.thumb
 1012              		.thumb_func
 1013              		.type	CapSense_ChangeHighHeartRateLimit, %function
 1014              	CapSense_ChangeHighHeartRateLimit:
 1015              	.LFB660:
 230:TasksInterface.c ****     }
 231:TasksInterface.c **** }
 232:TasksInterface.c **** 
ARM GAS  C:\Users\felha\AppData\Local\Temp\ccuk7kBX.s 			page 23


 233:TasksInterface.c **** // 10)Fonction pour changer la valeur supérieure du rythme cardiaque définie par l'utilisateur
 234:TasksInterface.c **** volatile int HighHeartRateI=70; volatile int HighHeartRateF=70; volatile uint32_t SliderPosIV=50; v
 235:TasksInterface.c **** void CapSense_ChangeHighHeartRateLimit()
 236:TasksInterface.c **** {      
 1016              		.loc 1 236 0
 1017              		.cfi_startproc
 1018              		@ args = 0, pretend = 0, frame = 0
 1019              		@ frame_needed = 0, uses_anonymous_args = 0
 1020 0000 10B5     		push	{r4, lr}
 1021              		.cfi_def_cfa_offset 8
 1022              		.cfi_offset 4, -8
 1023              		.cfi_offset 14, -4
 237:TasksInterface.c ****     CapSense_ProcessAllWidgets();
 1024              		.loc 1 237 0
 1025 0002 FFF7FEFF 		bl	CapSense_ProcessAllWidgets
 1026              	.LVL123:
 238:TasksInterface.c ****     SliderPosIV=CapSense_GetCentroidPos(CapSense_LINEARSLIDER0_WDGT_ID);
 1027              		.loc 1 238 0
 1028 0006 0020     		movs	r0, #0
 1029 0008 FFF7FEFF 		bl	CapSense_GetCentroidPos
 1030              	.LVL124:
 1031 000c 254B     		ldr	r3, .L73
 1032 000e D860     		str	r0, [r3, #12]
 239:TasksInterface.c ****     if (SliderPosIV<65534&&SliderPosIV>=80)
 1033              		.loc 1 239 0
 1034 0010 DA68     		ldr	r2, [r3, #12]
 1035 0012 4FF6FD73 		movw	r3, #65533
 1036 0016 9A42     		cmp	r2, r3
 1037 0018 07D8     		bhi	.L66
 1038              		.loc 1 239 0 is_stmt 0 discriminator 1
 1039 001a 224B     		ldr	r3, .L73
 1040 001c DB68     		ldr	r3, [r3, #12]
 1041 001e 4F2B     		cmp	r3, #79
 1042 0020 03D9     		bls	.L66
 240:TasksInterface.c ****     {
 241:TasksInterface.c ****         HighHeartRateI=HighHeartRateI+2;
 1043              		.loc 1 241 0 is_stmt 1
 1044 0022 204A     		ldr	r2, .L73
 1045 0024 1369     		ldr	r3, [r2, #16]
 1046 0026 0233     		adds	r3, r3, #2
 1047 0028 1361     		str	r3, [r2, #16]
 1048              	.L66:
 242:TasksInterface.c ****     }
 243:TasksInterface.c ****     if (SliderPosIV<80&&SliderPosIV>50)
 1049              		.loc 1 243 0
 1050 002a 1E4B     		ldr	r3, .L73
 1051 002c DB68     		ldr	r3, [r3, #12]
 1052 002e 4F2B     		cmp	r3, #79
 1053 0030 07D8     		bhi	.L67
 1054              		.loc 1 243 0 is_stmt 0 discriminator 1
 1055 0032 1C4B     		ldr	r3, .L73
 1056 0034 DB68     		ldr	r3, [r3, #12]
 1057 0036 322B     		cmp	r3, #50
 1058 0038 03D9     		bls	.L67
 244:TasksInterface.c ****     {
 245:TasksInterface.c ****         HighHeartRateI++;
 1059              		.loc 1 245 0 is_stmt 1
ARM GAS  C:\Users\felha\AppData\Local\Temp\ccuk7kBX.s 			page 24


 1060 003a 1A4A     		ldr	r2, .L73
 1061 003c 1369     		ldr	r3, [r2, #16]
 1062 003e 0133     		adds	r3, r3, #1
 1063 0040 1361     		str	r3, [r2, #16]
 1064              	.L67:
 246:TasksInterface.c ****     }
 247:TasksInterface.c ****     if (SliderPosIV<50&&SliderPosIV>20)
 1065              		.loc 1 247 0
 1066 0042 184B     		ldr	r3, .L73
 1067 0044 DB68     		ldr	r3, [r3, #12]
 1068 0046 312B     		cmp	r3, #49
 1069 0048 07D8     		bhi	.L68
 1070              		.loc 1 247 0 is_stmt 0 discriminator 1
 1071 004a 164B     		ldr	r3, .L73
 1072 004c DB68     		ldr	r3, [r3, #12]
 1073 004e 142B     		cmp	r3, #20
 1074 0050 03D9     		bls	.L68
 248:TasksInterface.c ****     {
 249:TasksInterface.c ****         HighHeartRateI--;
 1075              		.loc 1 249 0 is_stmt 1
 1076 0052 144A     		ldr	r2, .L73
 1077 0054 1369     		ldr	r3, [r2, #16]
 1078 0056 013B     		subs	r3, r3, #1
 1079 0058 1361     		str	r3, [r2, #16]
 1080              	.L68:
 250:TasksInterface.c ****     }
 251:TasksInterface.c ****     if (SliderPosIV<=20)
 1081              		.loc 1 251 0
 1082 005a 124B     		ldr	r3, .L73
 1083 005c DB68     		ldr	r3, [r3, #12]
 1084 005e 142B     		cmp	r3, #20
 1085 0060 03D8     		bhi	.L69
 252:TasksInterface.c ****     {
 253:TasksInterface.c ****         HighHeartRateI=HighHeartRateI-2;
 1086              		.loc 1 253 0
 1087 0062 104A     		ldr	r2, .L73
 1088 0064 1369     		ldr	r3, [r2, #16]
 1089 0066 023B     		subs	r3, r3, #2
 1090 0068 1361     		str	r3, [r2, #16]
 1091              	.L69:
 254:TasksInterface.c ****     }
 255:TasksInterface.c ****     SliderPosIV=50;
 1092              		.loc 1 255 0
 1093 006a 0E4C     		ldr	r4, .L73
 1094 006c 3223     		movs	r3, #50
 1095 006e E360     		str	r3, [r4, #12]
 256:TasksInterface.c ****     CapSense_UpdateAllBaselines();
 1096              		.loc 1 256 0
 1097 0070 FFF7FEFF 		bl	CapSense_UpdateAllBaselines
 1098              	.LVL125:
 257:TasksInterface.c ****     CapSense_ScanAllWidgets();
 1099              		.loc 1 257 0
 1100 0074 FFF7FEFF 		bl	CapSense_ScanAllWidgets
 1101              	.LVL126:
 258:TasksInterface.c ****     if (HighHeartRateI != HighHeartRateF)
 1102              		.loc 1 258 0
 1103 0078 2269     		ldr	r2, [r4, #16]
ARM GAS  C:\Users\felha\AppData\Local\Temp\ccuk7kBX.s 			page 25


 1104 007a 6369     		ldr	r3, [r4, #20]
 1105 007c 9A42     		cmp	r2, r3
 1106 007e 02D0     		beq	.L70
 259:TasksInterface.c ****     {
 260:TasksInterface.c ****         updateHighHeartRateLimit(HighHeartRateI);
 1107              		.loc 1 260 0
 1108 0080 2069     		ldr	r0, [r4, #16]
 1109 0082 FFF7FEFF 		bl	updateHighHeartRateLimit
 1110              	.LVL127:
 1111              	.L70:
 261:TasksInterface.c ****     }
 262:TasksInterface.c ****     HighHeartRateF=HighHeartRateI;
 1112              		.loc 1 262 0
 1113 0086 074B     		ldr	r3, .L73
 1114 0088 1A69     		ldr	r2, [r3, #16]
 1115 008a 5A61     		str	r2, [r3, #20]
 263:TasksInterface.c ****     CapSense_ProcessAllWidgets();
 1116              		.loc 1 263 0
 1117 008c FFF7FEFF 		bl	CapSense_ProcessAllWidgets
 1118              	.LVL128:
 264:TasksInterface.c ****     if (CapSense_IsWidgetActive(CapSense_BUTTON0_WDGT_ID)){
 1119              		.loc 1 264 0
 1120 0090 0120     		movs	r0, #1
 1121 0092 FFF7FEFF 		bl	CapSense_IsWidgetActive
 1122              	.LVL129:
 1123 0096 18B1     		cbz	r0, .L65
 265:TasksInterface.c ****         StopChangeHighHeartRate=true;
 1124              		.loc 1 265 0
 1125 0098 0122     		movs	r2, #1
 1126 009a 034B     		ldr	r3, .L73+4
 1127 009c 83F8BE25 		strb	r2, [r3, #1470]
 1128              	.L65:
 1129 00a0 10BD     		pop	{r4, pc}
 1130              	.L74:
 1131 00a2 00BF     		.align	2
 1132              	.L73:
 1133 00a4 00000000 		.word	.LANCHOR2
 1134 00a8 F8100000 		.word	.LANCHOR1
 1135              		.cfi_endproc
 1136              	.LFE660:
 1137              		.size	CapSense_ChangeHighHeartRateLimit, .-CapSense_ChangeHighHeartRateLimit
 1138              		.section	.text.updateMotionAlarm,"ax",%progbits
 1139              		.align	2
 1140              		.global	updateMotionAlarm
 1141              		.thumb
 1142              		.thumb_func
 1143              		.type	updateMotionAlarm, %function
 1144              	updateMotionAlarm:
 1145              	.LFB661:
 266:TasksInterface.c ****     }
 267:TasksInterface.c **** }
 268:TasksInterface.c **** 
 269:TasksInterface.c **** // 11)Fonction pour afficher l'état de l'alarme (enabled/disabled) issue de l'accéléromètre
 270:TasksInterface.c **** volatile bool MotionAlarmEnable=true;
 271:TasksInterface.c **** void updateMotionAlarm(){
 1146              		.loc 1 271 0
 1147              		.cfi_startproc
ARM GAS  C:\Users\felha\AppData\Local\Temp\ccuk7kBX.s 			page 26


 1148              		@ args = 0, pretend = 0, frame = 0
 1149              		@ frame_needed = 0, uses_anonymous_args = 0
 1150 0000 08B5     		push	{r3, lr}
 1151              		.cfi_def_cfa_offset 8
 1152              		.cfi_offset 3, -8
 1153              		.cfi_offset 14, -4
 272:TasksInterface.c ****     GUI_Clear();GUI_SetPenSize(7); GUI_SetFont(GUI_FONT_13_1);
 1154              		.loc 1 272 0
 1155 0002 FFF7FEFF 		bl	GUI_Clear
 1156              	.LVL130:
 1157 0006 0720     		movs	r0, #7
 1158 0008 FFF7FEFF 		bl	GUI_SetPenSize
 1159              	.LVL131:
 1160 000c 0D48     		ldr	r0, .L79
 1161 000e FFF7FEFF 		bl	GUI_SetFont
 1162              	.LVL132:
 273:TasksInterface.c ****     if (MotionAlarmEnable==true)
 1163              		.loc 1 273 0
 1164 0012 0D4B     		ldr	r3, .L79+4
 1165 0014 1B7E     		ldrb	r3, [r3, #24]	@ zero_extendqisi2
 1166 0016 13F0FF0F 		tst	r3, #255
 1167 001a 04D0     		beq	.L76
 274:TasksInterface.c ****     {
 275:TasksInterface.c ****         GUI_DispStringAt("Alarm enabled",80,80);
 1168              		.loc 1 275 0
 1169 001c 5022     		movs	r2, #80
 1170 001e 1146     		mov	r1, r2
 1171 0020 0A48     		ldr	r0, .L79+8
 1172 0022 FFF7FEFF 		bl	GUI_DispStringAt
 1173              	.LVL133:
 1174              	.L76:
 276:TasksInterface.c ****     }
 277:TasksInterface.c ****     if (MotionAlarmEnable==false)
 1175              		.loc 1 277 0
 1176 0026 084B     		ldr	r3, .L79+4
 1177 0028 1B7E     		ldrb	r3, [r3, #24]	@ zero_extendqisi2
 1178 002a 13F0FF0F 		tst	r3, #255
 1179 002e 04D1     		bne	.L77
 278:TasksInterface.c ****     {
 279:TasksInterface.c ****         GUI_DispStringAt("Alarm disabled",80,80);
 1180              		.loc 1 279 0
 1181 0030 5022     		movs	r2, #80
 1182 0032 1146     		mov	r1, r2
 1183 0034 0648     		ldr	r0, .L79+12
 1184 0036 FFF7FEFF 		bl	GUI_DispStringAt
 1185              	.LVL134:
 1186              	.L77:
 280:TasksInterface.c ****     }
 281:TasksInterface.c ****     UpdateDisplay(CY_EINK_FULL_4STAGE, true);
 1187              		.loc 1 281 0
 1188 003a 0121     		movs	r1, #1
 1189 003c 0846     		mov	r0, r1
 1190 003e FFF7FEFF 		bl	UpdateDisplay
 1191              	.LVL135:
 1192 0042 08BD     		pop	{r3, pc}
 1193              	.L80:
 1194              		.align	2
ARM GAS  C:\Users\felha\AppData\Local\Temp\ccuk7kBX.s 			page 27


 1195              	.L79:
 1196 0044 00000000 		.word	GUI_Font13_1
 1197 0048 00000000 		.word	.LANCHOR2
 1198 004c 04020000 		.word	.LC22
 1199 0050 14020000 		.word	.LC23
 1200              		.cfi_endproc
 1201              	.LFE661:
 1202              		.size	updateMotionAlarm, .-updateMotionAlarm
 1203              		.section	.text.CapSense_EnableDisableMotionAlarm,"ax",%progbits
 1204              		.align	2
 1205              		.global	CapSense_EnableDisableMotionAlarm
 1206              		.thumb
 1207              		.thumb_func
 1208              		.type	CapSense_EnableDisableMotionAlarm, %function
 1209              	CapSense_EnableDisableMotionAlarm:
 1210              	.LFB662:
 282:TasksInterface.c **** }
 283:TasksInterface.c **** 
 284:TasksInterface.c **** // 12)Fonction pour changer un flag correspondant à l'état de l'alarme (enabled/disabled) issue d
 285:TasksInterface.c **** volatile uint32_t SliderPosV=50; volatile bool StopDisableAlarm=false;
 286:TasksInterface.c **** void CapSense_EnableDisableMotionAlarm()
 287:TasksInterface.c **** {      
 1211              		.loc 1 287 0
 1212              		.cfi_startproc
 1213              		@ args = 0, pretend = 0, frame = 0
 1214              		@ frame_needed = 0, uses_anonymous_args = 0
 1215 0000 08B5     		push	{r3, lr}
 1216              		.cfi_def_cfa_offset 8
 1217              		.cfi_offset 3, -8
 1218              		.cfi_offset 14, -4
 288:TasksInterface.c ****     CapSense_ProcessAllWidgets();
 1219              		.loc 1 288 0
 1220 0002 FFF7FEFF 		bl	CapSense_ProcessAllWidgets
 1221              	.LVL136:
 289:TasksInterface.c ****     SliderPosV=CapSense_GetCentroidPos(CapSense_LINEARSLIDER0_WDGT_ID);
 1222              		.loc 1 289 0
 1223 0006 0020     		movs	r0, #0
 1224 0008 FFF7FEFF 		bl	CapSense_GetCentroidPos
 1225              	.LVL137:
 1226 000c 154B     		ldr	r3, .L86
 1227 000e D861     		str	r0, [r3, #28]
 290:TasksInterface.c ****     if (SliderPosV<65534&&SliderPosV>50)
 1228              		.loc 1 290 0
 1229 0010 DA69     		ldr	r2, [r3, #28]
 1230 0012 4FF6FD73 		movw	r3, #65533
 1231 0016 9A42     		cmp	r2, r3
 1232 0018 08D8     		bhi	.L82
 1233              		.loc 1 290 0 is_stmt 0 discriminator 1
 1234 001a 124B     		ldr	r3, .L86
 1235 001c DB69     		ldr	r3, [r3, #28]
 1236 001e 322B     		cmp	r3, #50
 1237 0020 04D9     		bls	.L82
 291:TasksInterface.c ****     {
 292:TasksInterface.c ****         MotionAlarmEnable=true;
 1238              		.loc 1 292 0 is_stmt 1
 1239 0022 0122     		movs	r2, #1
 1240 0024 0F4B     		ldr	r3, .L86
ARM GAS  C:\Users\felha\AppData\Local\Temp\ccuk7kBX.s 			page 28


 1241 0026 1A76     		strb	r2, [r3, #24]
 293:TasksInterface.c ****         updateMotionAlarm();
 1242              		.loc 1 293 0
 1243 0028 FFF7FEFF 		bl	updateMotionAlarm
 1244              	.LVL138:
 1245              	.L82:
 294:TasksInterface.c ****     }
 295:TasksInterface.c ****     if (SliderPosV<50)
 1246              		.loc 1 295 0
 1247 002c 0D4B     		ldr	r3, .L86
 1248 002e DB69     		ldr	r3, [r3, #28]
 1249 0030 312B     		cmp	r3, #49
 1250 0032 04D8     		bhi	.L83
 296:TasksInterface.c ****     {
 297:TasksInterface.c ****         MotionAlarmEnable=false;
 1251              		.loc 1 297 0
 1252 0034 0022     		movs	r2, #0
 1253 0036 0B4B     		ldr	r3, .L86
 1254 0038 1A76     		strb	r2, [r3, #24]
 298:TasksInterface.c ****         updateMotionAlarm();
 1255              		.loc 1 298 0
 1256 003a FFF7FEFF 		bl	updateMotionAlarm
 1257              	.LVL139:
 1258              	.L83:
 299:TasksInterface.c ****     }
 300:TasksInterface.c ****     SliderPosV=50;
 1259              		.loc 1 300 0
 1260 003e 3222     		movs	r2, #50
 1261 0040 084B     		ldr	r3, .L86
 1262 0042 DA61     		str	r2, [r3, #28]
 301:TasksInterface.c ****     CapSense_UpdateAllBaselines();
 1263              		.loc 1 301 0
 1264 0044 FFF7FEFF 		bl	CapSense_UpdateAllBaselines
 1265              	.LVL140:
 302:TasksInterface.c ****     CapSense_ScanAllWidgets();
 1266              		.loc 1 302 0
 1267 0048 FFF7FEFF 		bl	CapSense_ScanAllWidgets
 1268              	.LVL141:
 303:TasksInterface.c ****     CapSense_ProcessAllWidgets();
 1269              		.loc 1 303 0
 1270 004c FFF7FEFF 		bl	CapSense_ProcessAllWidgets
 1271              	.LVL142:
 304:TasksInterface.c ****     if (CapSense_IsWidgetActive(CapSense_BUTTON0_WDGT_ID)){
 1272              		.loc 1 304 0
 1273 0050 0120     		movs	r0, #1
 1274 0052 FFF7FEFF 		bl	CapSense_IsWidgetActive
 1275              	.LVL143:
 1276 0056 18B1     		cbz	r0, .L81
 305:TasksInterface.c ****         StopDisableAlarm=true;
 1277              		.loc 1 305 0
 1278 0058 0122     		movs	r2, #1
 1279 005a 034B     		ldr	r3, .L86+4
 1280 005c 83F8BF25 		strb	r2, [r3, #1471]
 1281              	.L81:
 1282 0060 08BD     		pop	{r3, pc}
 1283              	.L87:
 1284 0062 00BF     		.align	2
ARM GAS  C:\Users\felha\AppData\Local\Temp\ccuk7kBX.s 			page 29


 1285              	.L86:
 1286 0064 00000000 		.word	.LANCHOR2
 1287 0068 F8100000 		.word	.LANCHOR1
 1288              		.cfi_endproc
 1289              	.LFE662:
 1290              		.size	CapSense_EnableDisableMotionAlarm, .-CapSense_EnableDisableMotionAlarm
 1291              		.section	.text.HeartRateAlarm,"ax",%progbits
 1292              		.align	2
 1293              		.global	HeartRateAlarm
 1294              		.thumb
 1295              		.thumb_func
 1296              		.type	HeartRateAlarm, %function
 1297              	HeartRateAlarm:
 1298              	.LFB663:
 306:TasksInterface.c ****     }
 307:TasksInterface.c **** }
 308:TasksInterface.c **** 
 309:TasksInterface.c **** //------------------------------------------------------------------- Tâches ---------------------
 310:TasksInterface.c **** 
 311:TasksInterface.c **** volatile int32_t vectorRed[750]; volatile int32_t vectorInfra[750]; volatile int Saturation=0; vola
 312:TasksInterface.c **** 
 313:TasksInterface.c **** // 1)Tâche pour allumer ou éteindre une alarme lorsque le rythme cardiaque est à l'extérieur de
 314:TasksInterface.c **** void HeartRateAlarm()
 315:TasksInterface.c **** {
 1299              		.loc 1 315 0
 1300              		.cfi_startproc
 1301              		@ Volatile: function does not return.
 1302              		@ args = 0, pretend = 0, frame = 0
 1303              		@ frame_needed = 0, uses_anonymous_args = 0
 1304 0000 08B5     		push	{r3, lr}
 1305              		.cfi_def_cfa_offset 8
 1306              		.cfi_offset 3, -8
 1307              		.cfi_offset 14, -4
 1308              	.L92:
 316:TasksInterface.c ****     for(;;)
 317:TasksInterface.c ****     {
 318:TasksInterface.c ****         if (RythmeCardiaque>HighHeartRateI || RythmeCardiaque<LowHeartRateI)
 1309              		.loc 1 318 0
 1310 0002 0A4B     		ldr	r3, .L94
 1311 0004 1A6A     		ldr	r2, [r3, #32]
 1312 0006 1B69     		ldr	r3, [r3, #16]
 1313 0008 9A42     		cmp	r2, r3
 1314 000a 04DC     		bgt	.L89
 1315              		.loc 1 318 0 is_stmt 0 discriminator 1
 1316 000c 074B     		ldr	r3, .L94
 1317 000e 1A6A     		ldr	r2, [r3, #32]
 1318 0010 5B68     		ldr	r3, [r3, #4]
 1319 0012 9A42     		cmp	r2, r3
 1320 0014 03DA     		bge	.L90
 1321              	.L89:
 1322              	.LVL144:
 1323              	.LBB13:
 1324              	.LBB14:
 1325              		.file 2 "Generated_Source\\PSoC6\\pdl\\drivers/peripheral/gpio/cy_gpio.h"
   1:Generated_Source\PSoC6\pdl\drivers/peripheral/gpio/cy_gpio.h **** /***************************************************************************//**
   2:Generated_Source\PSoC6\pdl\drivers/peripheral/gpio/cy_gpio.h **** * \file cy_gpio.h
   3:Generated_Source\PSoC6\pdl\drivers/peripheral/gpio/cy_gpio.h **** * \version 1.20
ARM GAS  C:\Users\felha\AppData\Local\Temp\ccuk7kBX.s 			page 30


   4:Generated_Source\PSoC6\pdl\drivers/peripheral/gpio/cy_gpio.h **** *
   5:Generated_Source\PSoC6\pdl\drivers/peripheral/gpio/cy_gpio.h **** * Provides an API declaration of the GPIO driver
   6:Generated_Source\PSoC6\pdl\drivers/peripheral/gpio/cy_gpio.h **** *
   7:Generated_Source\PSoC6\pdl\drivers/peripheral/gpio/cy_gpio.h **** ********************************************************************************
   8:Generated_Source\PSoC6\pdl\drivers/peripheral/gpio/cy_gpio.h **** * \copyright
   9:Generated_Source\PSoC6\pdl\drivers/peripheral/gpio/cy_gpio.h **** * Copyright 2016-2018, Cypress Semiconductor Corporation. All rights reserved.
  10:Generated_Source\PSoC6\pdl\drivers/peripheral/gpio/cy_gpio.h **** * You may use this file only in accordance with the license, terms, conditions,
  11:Generated_Source\PSoC6\pdl\drivers/peripheral/gpio/cy_gpio.h **** * disclaimers, and limitations in the end user license agreement accompanying
  12:Generated_Source\PSoC6\pdl\drivers/peripheral/gpio/cy_gpio.h **** * the software package with which this file was provided.
  13:Generated_Source\PSoC6\pdl\drivers/peripheral/gpio/cy_gpio.h **** *******************************************************************************/
  14:Generated_Source\PSoC6\pdl\drivers/peripheral/gpio/cy_gpio.h **** 
  15:Generated_Source\PSoC6\pdl\drivers/peripheral/gpio/cy_gpio.h **** /**
  16:Generated_Source\PSoC6\pdl\drivers/peripheral/gpio/cy_gpio.h **** * \addtogroup group_gpio
  17:Generated_Source\PSoC6\pdl\drivers/peripheral/gpio/cy_gpio.h **** * \{
  18:Generated_Source\PSoC6\pdl\drivers/peripheral/gpio/cy_gpio.h **** * The GPIO driver provides an API to configure and access device Input/Output pins.
  19:Generated_Source\PSoC6\pdl\drivers/peripheral/gpio/cy_gpio.h **** *
  20:Generated_Source\PSoC6\pdl\drivers/peripheral/gpio/cy_gpio.h **** * The functions and other declarations used in this driver are in cy_gpio.h. 
  21:Generated_Source\PSoC6\pdl\drivers/peripheral/gpio/cy_gpio.h **** * You can include cy_pdl.h (ModusToolbox only) to get access to all functions 
  22:Generated_Source\PSoC6\pdl\drivers/peripheral/gpio/cy_gpio.h **** * and declarations in the PDL.
  23:Generated_Source\PSoC6\pdl\drivers/peripheral/gpio/cy_gpio.h **** *
  24:Generated_Source\PSoC6\pdl\drivers/peripheral/gpio/cy_gpio.h **** * IO pins include all general purpose types such as GPIO, SIO, HSIO, AUXIO, and
  25:Generated_Source\PSoC6\pdl\drivers/peripheral/gpio/cy_gpio.h **** * their variants.
  26:Generated_Source\PSoC6\pdl\drivers/peripheral/gpio/cy_gpio.h **** *
  27:Generated_Source\PSoC6\pdl\drivers/peripheral/gpio/cy_gpio.h **** * Initialization can be performed either at the port level or by configuring the
  28:Generated_Source\PSoC6\pdl\drivers/peripheral/gpio/cy_gpio.h **** * individual pins. For efficient use of code space, port
  29:Generated_Source\PSoC6\pdl\drivers/peripheral/gpio/cy_gpio.h **** * configuration should be used in the field. Refer to the product device header files 
  30:Generated_Source\PSoC6\pdl\drivers/peripheral/gpio/cy_gpio.h **** * for the list of supported ports and pins.
  31:Generated_Source\PSoC6\pdl\drivers/peripheral/gpio/cy_gpio.h **** * 
  32:Generated_Source\PSoC6\pdl\drivers/peripheral/gpio/cy_gpio.h **** * - Single pin configuration is performed by using \ref Cy_GPIO_Pin_FastInit 
  33:Generated_Source\PSoC6\pdl\drivers/peripheral/gpio/cy_gpio.h **** *   (provide specific values) or \ref Cy_GPIO_Pin_Init (provide a filled
  34:Generated_Source\PSoC6\pdl\drivers/peripheral/gpio/cy_gpio.h **** *   cy_stc_gpio_pin_config_t structure).
  35:Generated_Source\PSoC6\pdl\drivers/peripheral/gpio/cy_gpio.h **** * - An entire port can be configured using \ref Cy_GPIO_Port_Init. Provide a filled 
  36:Generated_Source\PSoC6\pdl\drivers/peripheral/gpio/cy_gpio.h **** *   cy_stc_gpio_prt_config_t structure. The values in the structure are 
  37:Generated_Source\PSoC6\pdl\drivers/peripheral/gpio/cy_gpio.h **** *   bitfields representing the desired value for each pin in the port.
  38:Generated_Source\PSoC6\pdl\drivers/peripheral/gpio/cy_gpio.h **** * - Pin configuration and management is based on the port address and pin number.
  39:Generated_Source\PSoC6\pdl\drivers/peripheral/gpio/cy_gpio.h **** *   \ref Cy_GPIO_PortToAddr function can optionally be used to calculate the port
  40:Generated_Source\PSoC6\pdl\drivers/peripheral/gpio/cy_gpio.h **** *   address from the port number at run-time.
  41:Generated_Source\PSoC6\pdl\drivers/peripheral/gpio/cy_gpio.h **** *
  42:Generated_Source\PSoC6\pdl\drivers/peripheral/gpio/cy_gpio.h **** * Once the pin/port initialization is complete, each pin can be accessed by 
  43:Generated_Source\PSoC6\pdl\drivers/peripheral/gpio/cy_gpio.h **** * specifying the port (GPIO_PRT_Type) and the pin (0-7) in the provided API 
  44:Generated_Source\PSoC6\pdl\drivers/peripheral/gpio/cy_gpio.h **** * functions.
  45:Generated_Source\PSoC6\pdl\drivers/peripheral/gpio/cy_gpio.h **** *
  46:Generated_Source\PSoC6\pdl\drivers/peripheral/gpio/cy_gpio.h **** * \section group_gpio_configuration Configuration Considerations
  47:Generated_Source\PSoC6\pdl\drivers/peripheral/gpio/cy_gpio.h **** *
  48:Generated_Source\PSoC6\pdl\drivers/peripheral/gpio/cy_gpio.h **** * 1. Pin multiplexing is controlled through the High-Speed IO Matrix (HSIOM) selection.
  49:Generated_Source\PSoC6\pdl\drivers/peripheral/gpio/cy_gpio.h **** *    This allows the pin to connect to signal sources/sinks throughout the device,
  50:Generated_Source\PSoC6\pdl\drivers/peripheral/gpio/cy_gpio.h **** *    as defined by the pin HSIOM selection options (en_hsiom_sel_t).
  51:Generated_Source\PSoC6\pdl\drivers/peripheral/gpio/cy_gpio.h **** * 2. All pins are initialized to High-Z drive mode with HSIOM connected to CPU (SW
  52:Generated_Source\PSoC6\pdl\drivers/peripheral/gpio/cy_gpio.h **** *    control digital pin only) at Power-On-Reset(POR).
  53:Generated_Source\PSoC6\pdl\drivers/peripheral/gpio/cy_gpio.h **** * 3. Some API functions perform read-modify-write operations on shared port
  54:Generated_Source\PSoC6\pdl\drivers/peripheral/gpio/cy_gpio.h **** *    registers. These functions are not thread safe and care must be taken when
  55:Generated_Source\PSoC6\pdl\drivers/peripheral/gpio/cy_gpio.h **** *    called by the application.
  56:Generated_Source\PSoC6\pdl\drivers/peripheral/gpio/cy_gpio.h **** * 4. Digital input buffer provides a high-impedance buffer for the external 
  57:Generated_Source\PSoC6\pdl\drivers/peripheral/gpio/cy_gpio.h **** *    digital input. The input buffer is connected to the HSIOM for routing to 
  58:Generated_Source\PSoC6\pdl\drivers/peripheral/gpio/cy_gpio.h **** *    the CPU port registers and selected peripheral. Enabling the input 
  59:Generated_Source\PSoC6\pdl\drivers/peripheral/gpio/cy_gpio.h **** *    buffer provides possibility to read the pin state via the CPU.
  60:Generated_Source\PSoC6\pdl\drivers/peripheral/gpio/cy_gpio.h **** *    If pin is connected to an analog signal, the input buffer should be 
ARM GAS  C:\Users\felha\AppData\Local\Temp\ccuk7kBX.s 			page 31


  61:Generated_Source\PSoC6\pdl\drivers/peripheral/gpio/cy_gpio.h **** *    disabled to avoid crowbar currents. For more information refer to device 
  62:Generated_Source\PSoC6\pdl\drivers/peripheral/gpio/cy_gpio.h **** *    TRM and the device datasheet.
  63:Generated_Source\PSoC6\pdl\drivers/peripheral/gpio/cy_gpio.h **** *
  64:Generated_Source\PSoC6\pdl\drivers/peripheral/gpio/cy_gpio.h **** * Multiple pins on a port can be updated using direct port register writes with an
  65:Generated_Source\PSoC6\pdl\drivers/peripheral/gpio/cy_gpio.h **** * appropriate port mask. An example is shown below, highlighting the different ways of 
  66:Generated_Source\PSoC6\pdl\drivers/peripheral/gpio/cy_gpio.h **** * configuring Port 1 pins using:
  67:Generated_Source\PSoC6\pdl\drivers/peripheral/gpio/cy_gpio.h **** * 
  68:Generated_Source\PSoC6\pdl\drivers/peripheral/gpio/cy_gpio.h **** * - Port output data register
  69:Generated_Source\PSoC6\pdl\drivers/peripheral/gpio/cy_gpio.h **** * - Port output data set register
  70:Generated_Source\PSoC6\pdl\drivers/peripheral/gpio/cy_gpio.h **** * - Port output data clear register
  71:Generated_Source\PSoC6\pdl\drivers/peripheral/gpio/cy_gpio.h **** *
  72:Generated_Source\PSoC6\pdl\drivers/peripheral/gpio/cy_gpio.h **** * \snippet gpio/gpio_v1_10_sut_01.cydsn/main_cm4.c Cy_GPIO_Snippet
  73:Generated_Source\PSoC6\pdl\drivers/peripheral/gpio/cy_gpio.h **** *
  74:Generated_Source\PSoC6\pdl\drivers/peripheral/gpio/cy_gpio.h **** * \section group_gpio_more_information More Information
  75:Generated_Source\PSoC6\pdl\drivers/peripheral/gpio/cy_gpio.h **** *
  76:Generated_Source\PSoC6\pdl\drivers/peripheral/gpio/cy_gpio.h **** * Refer to the technical reference manual (TRM) and the device datasheet.
  77:Generated_Source\PSoC6\pdl\drivers/peripheral/gpio/cy_gpio.h **** *
  78:Generated_Source\PSoC6\pdl\drivers/peripheral/gpio/cy_gpio.h **** * \section group_gpio_MISRA MISRA-C Compliance
  79:Generated_Source\PSoC6\pdl\drivers/peripheral/gpio/cy_gpio.h **** * The GPIO driver has the following specific deviations:
  80:Generated_Source\PSoC6\pdl\drivers/peripheral/gpio/cy_gpio.h **** *
  81:Generated_Source\PSoC6\pdl\drivers/peripheral/gpio/cy_gpio.h **** * <table class="doxtable">
  82:Generated_Source\PSoC6\pdl\drivers/peripheral/gpio/cy_gpio.h **** *   <tr>
  83:Generated_Source\PSoC6\pdl\drivers/peripheral/gpio/cy_gpio.h **** *     <th>MISRA Rule</th>
  84:Generated_Source\PSoC6\pdl\drivers/peripheral/gpio/cy_gpio.h **** *     <th>Rule Class (Required/Advisory)</th>
  85:Generated_Source\PSoC6\pdl\drivers/peripheral/gpio/cy_gpio.h **** *     <th>Rule Description</th>
  86:Generated_Source\PSoC6\pdl\drivers/peripheral/gpio/cy_gpio.h **** *     <th>Description of Deviation(s)</th>
  87:Generated_Source\PSoC6\pdl\drivers/peripheral/gpio/cy_gpio.h **** *   </tr>
  88:Generated_Source\PSoC6\pdl\drivers/peripheral/gpio/cy_gpio.h **** *   <tr>
  89:Generated_Source\PSoC6\pdl\drivers/peripheral/gpio/cy_gpio.h **** *     <td>11.4</td>
  90:Generated_Source\PSoC6\pdl\drivers/peripheral/gpio/cy_gpio.h **** *     <td>A</td>
  91:Generated_Source\PSoC6\pdl\drivers/peripheral/gpio/cy_gpio.h **** *     <td>A cast should not be performed between a pointer to object type and
  92:Generated_Source\PSoC6\pdl\drivers/peripheral/gpio/cy_gpio.h **** *         a different pointer to object type.</td>
  93:Generated_Source\PSoC6\pdl\drivers/peripheral/gpio/cy_gpio.h **** *     <td> This code is safe because the elements of both GPIO_PRT_V1_Type and GPIO_PRT_V2_Type 
  94:Generated_Source\PSoC6\pdl\drivers/peripheral/gpio/cy_gpio.h **** *          types have identical alignment.</td>
  95:Generated_Source\PSoC6\pdl\drivers/peripheral/gpio/cy_gpio.h **** *   </tr>
  96:Generated_Source\PSoC6\pdl\drivers/peripheral/gpio/cy_gpio.h **** *   <tr>
  97:Generated_Source\PSoC6\pdl\drivers/peripheral/gpio/cy_gpio.h **** *     <td>16.7</td>
  98:Generated_Source\PSoC6\pdl\drivers/peripheral/gpio/cy_gpio.h **** *     <td>A</td>
  99:Generated_Source\PSoC6\pdl\drivers/peripheral/gpio/cy_gpio.h **** *     <td>A pointer parameter in a function prototype should be declared as pointer 
 100:Generated_Source\PSoC6\pdl\drivers/peripheral/gpio/cy_gpio.h **** *         to const if the pointer is not used to modify the addressed object.</td>
 101:Generated_Source\PSoC6\pdl\drivers/peripheral/gpio/cy_gpio.h **** *     <td>The objects pointed to by the base addresses of the GPIO port are not always modified.
 102:Generated_Source\PSoC6\pdl\drivers/peripheral/gpio/cy_gpio.h **** *         While a const qualifier can be used in select scenarios, it brings little benefit
 103:Generated_Source\PSoC6\pdl\drivers/peripheral/gpio/cy_gpio.h **** *         in adding this to the affected functions. </td>
 104:Generated_Source\PSoC6\pdl\drivers/peripheral/gpio/cy_gpio.h **** *   </tr>
 105:Generated_Source\PSoC6\pdl\drivers/peripheral/gpio/cy_gpio.h **** * </table>
 106:Generated_Source\PSoC6\pdl\drivers/peripheral/gpio/cy_gpio.h **** *
 107:Generated_Source\PSoC6\pdl\drivers/peripheral/gpio/cy_gpio.h **** * \section group_gpio_changelog Changelog
 108:Generated_Source\PSoC6\pdl\drivers/peripheral/gpio/cy_gpio.h **** * <table class="doxtable">
 109:Generated_Source\PSoC6\pdl\drivers/peripheral/gpio/cy_gpio.h **** *   <tr><th>Version</th><th>Changes</th><th>Reason for Change</th></tr>
 110:Generated_Source\PSoC6\pdl\drivers/peripheral/gpio/cy_gpio.h **** *   <tr>
 111:Generated_Source\PSoC6\pdl\drivers/peripheral/gpio/cy_gpio.h **** *     <td rowspan="3">1.20</td>
 112:Generated_Source\PSoC6\pdl\drivers/peripheral/gpio/cy_gpio.h **** *     <td>Flattened the organization of the driver source code into the single source directory and
 113:Generated_Source\PSoC6\pdl\drivers/peripheral/gpio/cy_gpio.h **** *     <td>Driver library directory-structure simplification.</td>
 114:Generated_Source\PSoC6\pdl\drivers/peripheral/gpio/cy_gpio.h **** *   </tr>
 115:Generated_Source\PSoC6\pdl\drivers/peripheral/gpio/cy_gpio.h **** *   <tr>
 116:Generated_Source\PSoC6\pdl\drivers/peripheral/gpio/cy_gpio.h **** *     <td>Added the functions for configuring the AMux bus splitter switch cells:
 117:Generated_Source\PSoC6\pdl\drivers/peripheral/gpio/cy_gpio.h **** *     - \ref Cy_GPIO_SetAmuxSplit
ARM GAS  C:\Users\felha\AppData\Local\Temp\ccuk7kBX.s 			page 32


 118:Generated_Source\PSoC6\pdl\drivers/peripheral/gpio/cy_gpio.h **** *     - \ref Cy_GPIO_GetAmuxSplit
 119:Generated_Source\PSoC6\pdl\drivers/peripheral/gpio/cy_gpio.h **** *     </td>
 120:Generated_Source\PSoC6\pdl\drivers/peripheral/gpio/cy_gpio.h **** *     <td>Added a new functionality related to AMux bus.</td>
 121:Generated_Source\PSoC6\pdl\drivers/peripheral/gpio/cy_gpio.h **** *   </tr>
 122:Generated_Source\PSoC6\pdl\drivers/peripheral/gpio/cy_gpio.h **** *   <tr>
 123:Generated_Source\PSoC6\pdl\drivers/peripheral/gpio/cy_gpio.h **** *     <td>Added register access layer. Use register access macros instead
 124:Generated_Source\PSoC6\pdl\drivers/peripheral/gpio/cy_gpio.h **** *         of direct register access using dereferenced pointers.</td>
 125:Generated_Source\PSoC6\pdl\drivers/peripheral/gpio/cy_gpio.h **** *     <td>Makes register access device-independent, so that the PDL does 
 126:Generated_Source\PSoC6\pdl\drivers/peripheral/gpio/cy_gpio.h **** *         not need to be recompiled for each supported part number.</td>
 127:Generated_Source\PSoC6\pdl\drivers/peripheral/gpio/cy_gpio.h **** *   </tr>
 128:Generated_Source\PSoC6\pdl\drivers/peripheral/gpio/cy_gpio.h **** *   <tr>
 129:Generated_Source\PSoC6\pdl\drivers/peripheral/gpio/cy_gpio.h **** *     <td>1.10.1</td>
 130:Generated_Source\PSoC6\pdl\drivers/peripheral/gpio/cy_gpio.h **** *     <td>Updated description for the functions: \ref Cy_GPIO_GetInterruptStatus, 
 131:Generated_Source\PSoC6\pdl\drivers/peripheral/gpio/cy_gpio.h **** *         \ref Cy_GPIO_GetInterruptMask, \ref Cy_GPIO_GetInterruptStatusMasked.
 132:Generated_Source\PSoC6\pdl\drivers/peripheral/gpio/cy_gpio.h **** *
 133:Generated_Source\PSoC6\pdl\drivers/peripheral/gpio/cy_gpio.h **** *         Minor documentation edits.
 134:Generated_Source\PSoC6\pdl\drivers/peripheral/gpio/cy_gpio.h **** *     </td>
 135:Generated_Source\PSoC6\pdl\drivers/peripheral/gpio/cy_gpio.h **** *     <td>Documentation update and clarification</td>
 136:Generated_Source\PSoC6\pdl\drivers/peripheral/gpio/cy_gpio.h **** *   </tr>
 137:Generated_Source\PSoC6\pdl\drivers/peripheral/gpio/cy_gpio.h **** *   <tr>
 138:Generated_Source\PSoC6\pdl\drivers/peripheral/gpio/cy_gpio.h **** *     <td>1.10</td>
 139:Generated_Source\PSoC6\pdl\drivers/peripheral/gpio/cy_gpio.h **** *     <td>Added input parameter validation to the API functions</td>
 140:Generated_Source\PSoC6\pdl\drivers/peripheral/gpio/cy_gpio.h **** *     <td></td>
 141:Generated_Source\PSoC6\pdl\drivers/peripheral/gpio/cy_gpio.h **** *   </tr>
 142:Generated_Source\PSoC6\pdl\drivers/peripheral/gpio/cy_gpio.h **** *   <tr>
 143:Generated_Source\PSoC6\pdl\drivers/peripheral/gpio/cy_gpio.h **** *     <td>1.0</td>
 144:Generated_Source\PSoC6\pdl\drivers/peripheral/gpio/cy_gpio.h **** *     <td>Initial version</td>
 145:Generated_Source\PSoC6\pdl\drivers/peripheral/gpio/cy_gpio.h **** *     <td></td>
 146:Generated_Source\PSoC6\pdl\drivers/peripheral/gpio/cy_gpio.h **** *   </tr>
 147:Generated_Source\PSoC6\pdl\drivers/peripheral/gpio/cy_gpio.h **** * </table>
 148:Generated_Source\PSoC6\pdl\drivers/peripheral/gpio/cy_gpio.h **** *
 149:Generated_Source\PSoC6\pdl\drivers/peripheral/gpio/cy_gpio.h **** * \defgroup group_gpio_macros Macros
 150:Generated_Source\PSoC6\pdl\drivers/peripheral/gpio/cy_gpio.h **** * \defgroup group_gpio_functions Functions
 151:Generated_Source\PSoC6\pdl\drivers/peripheral/gpio/cy_gpio.h **** * \{
 152:Generated_Source\PSoC6\pdl\drivers/peripheral/gpio/cy_gpio.h **** *   \defgroup group_gpio_functions_init       Initialization Functions
 153:Generated_Source\PSoC6\pdl\drivers/peripheral/gpio/cy_gpio.h **** *   \defgroup group_gpio_functions_gpio       GPIO Functions
 154:Generated_Source\PSoC6\pdl\drivers/peripheral/gpio/cy_gpio.h **** *   \defgroup group_gpio_functions_sio        SIO Functions
 155:Generated_Source\PSoC6\pdl\drivers/peripheral/gpio/cy_gpio.h **** *   \defgroup group_gpio_functions_interrupt  Port Interrupt Functions
 156:Generated_Source\PSoC6\pdl\drivers/peripheral/gpio/cy_gpio.h **** * \}
 157:Generated_Source\PSoC6\pdl\drivers/peripheral/gpio/cy_gpio.h **** * \defgroup group_gpio_data_structures Data Structures
 158:Generated_Source\PSoC6\pdl\drivers/peripheral/gpio/cy_gpio.h **** * \defgroup group_gpio_enums Enumerated Types
 159:Generated_Source\PSoC6\pdl\drivers/peripheral/gpio/cy_gpio.h **** */
 160:Generated_Source\PSoC6\pdl\drivers/peripheral/gpio/cy_gpio.h **** 
 161:Generated_Source\PSoC6\pdl\drivers/peripheral/gpio/cy_gpio.h **** #if !defined(CY_GPIO_H)
 162:Generated_Source\PSoC6\pdl\drivers/peripheral/gpio/cy_gpio.h **** #define CY_GPIO_H
 163:Generated_Source\PSoC6\pdl\drivers/peripheral/gpio/cy_gpio.h **** 
 164:Generated_Source\PSoC6\pdl\drivers/peripheral/gpio/cy_gpio.h **** #include <stddef.h>
 165:Generated_Source\PSoC6\pdl\drivers/peripheral/gpio/cy_gpio.h **** #include "cy_device.h"
 166:Generated_Source\PSoC6\pdl\drivers/peripheral/gpio/cy_gpio.h **** #include "cy_device_headers.h"
 167:Generated_Source\PSoC6\pdl\drivers/peripheral/gpio/cy_gpio.h **** #include "cy_syslib.h"
 168:Generated_Source\PSoC6\pdl\drivers/peripheral/gpio/cy_gpio.h **** 
 169:Generated_Source\PSoC6\pdl\drivers/peripheral/gpio/cy_gpio.h **** #if defined(__cplusplus)
 170:Generated_Source\PSoC6\pdl\drivers/peripheral/gpio/cy_gpio.h **** extern "C" {
 171:Generated_Source\PSoC6\pdl\drivers/peripheral/gpio/cy_gpio.h **** #endif
 172:Generated_Source\PSoC6\pdl\drivers/peripheral/gpio/cy_gpio.h **** 
 173:Generated_Source\PSoC6\pdl\drivers/peripheral/gpio/cy_gpio.h **** /** \addtogroup group_gpio_macros
 174:Generated_Source\PSoC6\pdl\drivers/peripheral/gpio/cy_gpio.h **** * \{
ARM GAS  C:\Users\felha\AppData\Local\Temp\ccuk7kBX.s 			page 33


 175:Generated_Source\PSoC6\pdl\drivers/peripheral/gpio/cy_gpio.h **** */
 176:Generated_Source\PSoC6\pdl\drivers/peripheral/gpio/cy_gpio.h **** 
 177:Generated_Source\PSoC6\pdl\drivers/peripheral/gpio/cy_gpio.h **** /** Driver major version */
 178:Generated_Source\PSoC6\pdl\drivers/peripheral/gpio/cy_gpio.h **** #define CY_GPIO_DRV_VERSION_MAJOR       1
 179:Generated_Source\PSoC6\pdl\drivers/peripheral/gpio/cy_gpio.h **** 
 180:Generated_Source\PSoC6\pdl\drivers/peripheral/gpio/cy_gpio.h **** /** Driver minor version */
 181:Generated_Source\PSoC6\pdl\drivers/peripheral/gpio/cy_gpio.h **** #define CY_GPIO_DRV_VERSION_MINOR       20
 182:Generated_Source\PSoC6\pdl\drivers/peripheral/gpio/cy_gpio.h **** 
 183:Generated_Source\PSoC6\pdl\drivers/peripheral/gpio/cy_gpio.h **** /** GPIO driver ID */
 184:Generated_Source\PSoC6\pdl\drivers/peripheral/gpio/cy_gpio.h **** #define CY_GPIO_ID CY_PDL_DRV_ID(0x16U)
 185:Generated_Source\PSoC6\pdl\drivers/peripheral/gpio/cy_gpio.h **** 
 186:Generated_Source\PSoC6\pdl\drivers/peripheral/gpio/cy_gpio.h **** /** \} group_gpio_macros */
 187:Generated_Source\PSoC6\pdl\drivers/peripheral/gpio/cy_gpio.h **** 
 188:Generated_Source\PSoC6\pdl\drivers/peripheral/gpio/cy_gpio.h **** 
 189:Generated_Source\PSoC6\pdl\drivers/peripheral/gpio/cy_gpio.h **** /***************************************
 190:Generated_Source\PSoC6\pdl\drivers/peripheral/gpio/cy_gpio.h **** *       Enumerations
 191:Generated_Source\PSoC6\pdl\drivers/peripheral/gpio/cy_gpio.h **** ***************************************/
 192:Generated_Source\PSoC6\pdl\drivers/peripheral/gpio/cy_gpio.h **** /**
 193:Generated_Source\PSoC6\pdl\drivers/peripheral/gpio/cy_gpio.h **** * \addtogroup group_gpio_enums
 194:Generated_Source\PSoC6\pdl\drivers/peripheral/gpio/cy_gpio.h **** * \{
 195:Generated_Source\PSoC6\pdl\drivers/peripheral/gpio/cy_gpio.h **** */
 196:Generated_Source\PSoC6\pdl\drivers/peripheral/gpio/cy_gpio.h **** 
 197:Generated_Source\PSoC6\pdl\drivers/peripheral/gpio/cy_gpio.h **** /** GPIO Driver error codes */
 198:Generated_Source\PSoC6\pdl\drivers/peripheral/gpio/cy_gpio.h **** typedef enum 
 199:Generated_Source\PSoC6\pdl\drivers/peripheral/gpio/cy_gpio.h **** {
 200:Generated_Source\PSoC6\pdl\drivers/peripheral/gpio/cy_gpio.h ****     CY_GPIO_SUCCESS   = 0x00U,                                    /**< Returned successful */
 201:Generated_Source\PSoC6\pdl\drivers/peripheral/gpio/cy_gpio.h ****     CY_GPIO_BAD_PARAM = CY_GPIO_ID | CY_PDL_STATUS_ERROR | 0x01U, /**< Bad parameter was passed */
 202:Generated_Source\PSoC6\pdl\drivers/peripheral/gpio/cy_gpio.h **** } cy_en_gpio_status_t;
 203:Generated_Source\PSoC6\pdl\drivers/peripheral/gpio/cy_gpio.h **** 
 204:Generated_Source\PSoC6\pdl\drivers/peripheral/gpio/cy_gpio.h **** /** AMux switch open/close config */
 205:Generated_Source\PSoC6\pdl\drivers/peripheral/gpio/cy_gpio.h **** typedef enum
 206:Generated_Source\PSoC6\pdl\drivers/peripheral/gpio/cy_gpio.h **** {
 207:Generated_Source\PSoC6\pdl\drivers/peripheral/gpio/cy_gpio.h ****     CY_GPIO_AMUX_OPENALL,   /**< Open ground switch. Open right switch. Open left switch */
 208:Generated_Source\PSoC6\pdl\drivers/peripheral/gpio/cy_gpio.h ****     CY_GPIO_AMUX_L,         /**< Open ground switch. Open right switch. Close left switch */
 209:Generated_Source\PSoC6\pdl\drivers/peripheral/gpio/cy_gpio.h ****     CY_GPIO_AMUX_R,         /**< Open ground switch. Close right switch. Open left switch */
 210:Generated_Source\PSoC6\pdl\drivers/peripheral/gpio/cy_gpio.h ****     CY_GPIO_AMUX_LR,        /**< Open ground switch. Close right switch. Close left switch */
 211:Generated_Source\PSoC6\pdl\drivers/peripheral/gpio/cy_gpio.h ****     CY_GPIO_AMUX_G,         /**< Close ground switch. Open right switch. Open left switch */
 212:Generated_Source\PSoC6\pdl\drivers/peripheral/gpio/cy_gpio.h ****     CY_GPIO_AMUX_GL,        /**< Close ground switch. Open right switch. Close left switch */
 213:Generated_Source\PSoC6\pdl\drivers/peripheral/gpio/cy_gpio.h ****     CY_GPIO_AMUX_GR,        /**< Close ground switch. Close right switch. Open left switch */
 214:Generated_Source\PSoC6\pdl\drivers/peripheral/gpio/cy_gpio.h ****     CY_GPIO_AMUX_GLR,       /**< Close ground switch. Close right switch. Close left switch */
 215:Generated_Source\PSoC6\pdl\drivers/peripheral/gpio/cy_gpio.h **** }cy_en_gpio_amuxconnect_t;
 216:Generated_Source\PSoC6\pdl\drivers/peripheral/gpio/cy_gpio.h **** 
 217:Generated_Source\PSoC6\pdl\drivers/peripheral/gpio/cy_gpio.h **** /**
 218:Generated_Source\PSoC6\pdl\drivers/peripheral/gpio/cy_gpio.h **** * AMux Bus selection
 219:Generated_Source\PSoC6\pdl\drivers/peripheral/gpio/cy_gpio.h **** */
 220:Generated_Source\PSoC6\pdl\drivers/peripheral/gpio/cy_gpio.h **** typedef enum
 221:Generated_Source\PSoC6\pdl\drivers/peripheral/gpio/cy_gpio.h **** {
 222:Generated_Source\PSoC6\pdl\drivers/peripheral/gpio/cy_gpio.h ****     CY_GPIO_AMUXBUSA,       /**< AMuxBus A */
 223:Generated_Source\PSoC6\pdl\drivers/peripheral/gpio/cy_gpio.h ****     CY_GPIO_AMUXBUSB        /**< AMuxBus B */
 224:Generated_Source\PSoC6\pdl\drivers/peripheral/gpio/cy_gpio.h **** }cy_en_gpio_amuxselect_t;
 225:Generated_Source\PSoC6\pdl\drivers/peripheral/gpio/cy_gpio.h **** 
 226:Generated_Source\PSoC6\pdl\drivers/peripheral/gpio/cy_gpio.h **** /** \} group_gpio_enums */
 227:Generated_Source\PSoC6\pdl\drivers/peripheral/gpio/cy_gpio.h **** 
 228:Generated_Source\PSoC6\pdl\drivers/peripheral/gpio/cy_gpio.h **** 
 229:Generated_Source\PSoC6\pdl\drivers/peripheral/gpio/cy_gpio.h **** /***************************************
 230:Generated_Source\PSoC6\pdl\drivers/peripheral/gpio/cy_gpio.h **** *       Configuration Structures
 231:Generated_Source\PSoC6\pdl\drivers/peripheral/gpio/cy_gpio.h **** ***************************************/
ARM GAS  C:\Users\felha\AppData\Local\Temp\ccuk7kBX.s 			page 34


 232:Generated_Source\PSoC6\pdl\drivers/peripheral/gpio/cy_gpio.h **** 
 233:Generated_Source\PSoC6\pdl\drivers/peripheral/gpio/cy_gpio.h **** /**
 234:Generated_Source\PSoC6\pdl\drivers/peripheral/gpio/cy_gpio.h **** * \addtogroup group_gpio_data_structures
 235:Generated_Source\PSoC6\pdl\drivers/peripheral/gpio/cy_gpio.h **** * \{
 236:Generated_Source\PSoC6\pdl\drivers/peripheral/gpio/cy_gpio.h **** */
 237:Generated_Source\PSoC6\pdl\drivers/peripheral/gpio/cy_gpio.h **** 
 238:Generated_Source\PSoC6\pdl\drivers/peripheral/gpio/cy_gpio.h **** /** This structure is used to initialize a port of GPIO pins */
 239:Generated_Source\PSoC6\pdl\drivers/peripheral/gpio/cy_gpio.h **** typedef struct 
 240:Generated_Source\PSoC6\pdl\drivers/peripheral/gpio/cy_gpio.h **** {
 241:Generated_Source\PSoC6\pdl\drivers/peripheral/gpio/cy_gpio.h ****     uint32_t out;           /**< Initial output data for the IO pins in the port */
 242:Generated_Source\PSoC6\pdl\drivers/peripheral/gpio/cy_gpio.h ****     uint32_t intrMask;      /**< Interrupt enable mask for the port interrupt */
 243:Generated_Source\PSoC6\pdl\drivers/peripheral/gpio/cy_gpio.h ****     uint32_t intrCfg;       /**< Port pin interrupt edge detection configuration */
 244:Generated_Source\PSoC6\pdl\drivers/peripheral/gpio/cy_gpio.h ****     uint32_t cfg;           /**< Port pin drive modes and input buffer enable configuration */
 245:Generated_Source\PSoC6\pdl\drivers/peripheral/gpio/cy_gpio.h ****     uint32_t cfgIn;         /**< Port pin input buffer configuration */
 246:Generated_Source\PSoC6\pdl\drivers/peripheral/gpio/cy_gpio.h ****     uint32_t cfgOut;        /**< Port pin output buffer configuration */
 247:Generated_Source\PSoC6\pdl\drivers/peripheral/gpio/cy_gpio.h ****     uint32_t cfgSIO;        /**< Port SIO pins configuration */
 248:Generated_Source\PSoC6\pdl\drivers/peripheral/gpio/cy_gpio.h ****     uint32_t sel0Active;    /**< HSIOM selection for port pins 0,1,2,3 */
 249:Generated_Source\PSoC6\pdl\drivers/peripheral/gpio/cy_gpio.h ****     uint32_t sel1Active;    /**< HSIOM selection for port pins 4,5,6,7 */
 250:Generated_Source\PSoC6\pdl\drivers/peripheral/gpio/cy_gpio.h **** } cy_stc_gpio_prt_config_t;
 251:Generated_Source\PSoC6\pdl\drivers/peripheral/gpio/cy_gpio.h **** 
 252:Generated_Source\PSoC6\pdl\drivers/peripheral/gpio/cy_gpio.h **** /** This structure is used to initialize a single GPIO pin */
 253:Generated_Source\PSoC6\pdl\drivers/peripheral/gpio/cy_gpio.h **** typedef struct
 254:Generated_Source\PSoC6\pdl\drivers/peripheral/gpio/cy_gpio.h **** {
 255:Generated_Source\PSoC6\pdl\drivers/peripheral/gpio/cy_gpio.h ****     uint32_t outVal;         /**< Pin output state */
 256:Generated_Source\PSoC6\pdl\drivers/peripheral/gpio/cy_gpio.h ****     uint32_t driveMode;      /**< Drive mode */
 257:Generated_Source\PSoC6\pdl\drivers/peripheral/gpio/cy_gpio.h ****     en_hsiom_sel_t hsiom;    /**< HSIOM selection */
 258:Generated_Source\PSoC6\pdl\drivers/peripheral/gpio/cy_gpio.h ****     uint32_t intEdge;        /**< Interrupt Edge type */
 259:Generated_Source\PSoC6\pdl\drivers/peripheral/gpio/cy_gpio.h ****     uint32_t intMask;        /**< Interrupt enable mask */
 260:Generated_Source\PSoC6\pdl\drivers/peripheral/gpio/cy_gpio.h ****     uint32_t vtrip;          /**< Input buffer voltage trip type */
 261:Generated_Source\PSoC6\pdl\drivers/peripheral/gpio/cy_gpio.h ****     uint32_t slewRate;       /**< Output buffer slew rate */
 262:Generated_Source\PSoC6\pdl\drivers/peripheral/gpio/cy_gpio.h ****     uint32_t driveSel;       /**< Drive strength */
 263:Generated_Source\PSoC6\pdl\drivers/peripheral/gpio/cy_gpio.h ****     uint32_t vregEn;         /**< SIO pair output buffer mode */
 264:Generated_Source\PSoC6\pdl\drivers/peripheral/gpio/cy_gpio.h ****     uint32_t ibufMode;       /**< SIO pair input buffer mode */
 265:Generated_Source\PSoC6\pdl\drivers/peripheral/gpio/cy_gpio.h ****     uint32_t vtripSel;       /**< SIO pair input buffer trip point */
 266:Generated_Source\PSoC6\pdl\drivers/peripheral/gpio/cy_gpio.h ****     uint32_t vrefSel;        /**< SIO pair reference voltage for input buffer trip point */
 267:Generated_Source\PSoC6\pdl\drivers/peripheral/gpio/cy_gpio.h ****     uint32_t vohSel;         /**< SIO pair regulated voltage output level */
 268:Generated_Source\PSoC6\pdl\drivers/peripheral/gpio/cy_gpio.h **** } cy_stc_gpio_pin_config_t;
 269:Generated_Source\PSoC6\pdl\drivers/peripheral/gpio/cy_gpio.h **** 
 270:Generated_Source\PSoC6\pdl\drivers/peripheral/gpio/cy_gpio.h **** /** \} group_gpio_data_structures */
 271:Generated_Source\PSoC6\pdl\drivers/peripheral/gpio/cy_gpio.h **** 
 272:Generated_Source\PSoC6\pdl\drivers/peripheral/gpio/cy_gpio.h **** /***************************************
 273:Generated_Source\PSoC6\pdl\drivers/peripheral/gpio/cy_gpio.h **** *        Constants
 274:Generated_Source\PSoC6\pdl\drivers/peripheral/gpio/cy_gpio.h **** ***************************************/
 275:Generated_Source\PSoC6\pdl\drivers/peripheral/gpio/cy_gpio.h **** 
 276:Generated_Source\PSoC6\pdl\drivers/peripheral/gpio/cy_gpio.h **** /** \cond INTERNAL */
 277:Generated_Source\PSoC6\pdl\drivers/peripheral/gpio/cy_gpio.h **** 
 278:Generated_Source\PSoC6\pdl\drivers/peripheral/gpio/cy_gpio.h **** /* General Constants */
 279:Generated_Source\PSoC6\pdl\drivers/peripheral/gpio/cy_gpio.h **** #define CY_GPIO_PRT_HALF                       (4UL)      /**< Half-way point of a GPIO port */
 280:Generated_Source\PSoC6\pdl\drivers/peripheral/gpio/cy_gpio.h **** #define CY_GPIO_PRT_DEINIT                     (0UL)      /**< De-init value for port registers */
 281:Generated_Source\PSoC6\pdl\drivers/peripheral/gpio/cy_gpio.h **** 
 282:Generated_Source\PSoC6\pdl\drivers/peripheral/gpio/cy_gpio.h **** /* GPIO Masks */
 283:Generated_Source\PSoC6\pdl\drivers/peripheral/gpio/cy_gpio.h **** #define CY_GPIO_HSIOM_MASK                     (0x1FUL)   /**< HSIOM selection mask */
 284:Generated_Source\PSoC6\pdl\drivers/peripheral/gpio/cy_gpio.h **** #define CY_GPIO_OUT_MASK                       (0x01UL)   /**< Single pin mask for OUT register */
 285:Generated_Source\PSoC6\pdl\drivers/peripheral/gpio/cy_gpio.h **** #define CY_GPIO_IN_MASK                        (0x01UL)   /**< Single pin mask for IN register */
 286:Generated_Source\PSoC6\pdl\drivers/peripheral/gpio/cy_gpio.h **** #define CY_GPIO_CFG_DM_MASK                    (0x0FUL)   /**< Single pin mask for drive mode in CF
 287:Generated_Source\PSoC6\pdl\drivers/peripheral/gpio/cy_gpio.h **** #define CY_GPIO_CFG_IN_VTRIP_SEL_MASK          (0x01UL)   /**< Single pin mask for VTRIP selection 
 288:Generated_Source\PSoC6\pdl\drivers/peripheral/gpio/cy_gpio.h **** #define CY_GPIO_CFG_OUT_SLOW_MASK              (0x01UL)   /**< Single pin mask for slew rate in CFG
ARM GAS  C:\Users\felha\AppData\Local\Temp\ccuk7kBX.s 			page 35


 289:Generated_Source\PSoC6\pdl\drivers/peripheral/gpio/cy_gpio.h **** #define CY_GPIO_CFG_OUT_DRIVE_SEL_MASK         (0x03UL)   /**< Single pin mask for drive strength i
 290:Generated_Source\PSoC6\pdl\drivers/peripheral/gpio/cy_gpio.h **** #define CY_GPIO_INTR_STATUS_MASK               (0x01UL)   /**< Single pin mask for interrupt status
 291:Generated_Source\PSoC6\pdl\drivers/peripheral/gpio/cy_gpio.h **** #define CY_GPIO_INTR_EN_MASK                   (0x01UL)   /**< Single pin mask for interrupt status
 292:Generated_Source\PSoC6\pdl\drivers/peripheral/gpio/cy_gpio.h **** #define CY_GPIO_INTR_MASKED_MASK               (0x01UL)   /**< Single pin mask for masked interrupt
 293:Generated_Source\PSoC6\pdl\drivers/peripheral/gpio/cy_gpio.h **** #define CY_GPIO_INTR_SET_MASK                  (0x01UL)   /**< Single pin mask for setting the inte
 294:Generated_Source\PSoC6\pdl\drivers/peripheral/gpio/cy_gpio.h **** #define CY_GPIO_INTR_EDGE_MASK                 (0x03UL)   /**< Single pin mask for interrupt edge t
 295:Generated_Source\PSoC6\pdl\drivers/peripheral/gpio/cy_gpio.h **** #define CY_GPIO_INTR_FLT_EDGE_MASK             (0x07UL)   /**< Single pin mask for setting filtered
 296:Generated_Source\PSoC6\pdl\drivers/peripheral/gpio/cy_gpio.h **** 
 297:Generated_Source\PSoC6\pdl\drivers/peripheral/gpio/cy_gpio.h **** /* SIO Masks */
 298:Generated_Source\PSoC6\pdl\drivers/peripheral/gpio/cy_gpio.h **** #define CY_GPIO_VREG_EN_MASK                   (0x01UL)   /**< Single SIO pin mask for voltage regu
 299:Generated_Source\PSoC6\pdl\drivers/peripheral/gpio/cy_gpio.h **** #define CY_GPIO_IBUF_MASK                      (0x01UL)   /**< Single SIO pin mask for input buffer
 300:Generated_Source\PSoC6\pdl\drivers/peripheral/gpio/cy_gpio.h **** #define CY_GPIO_IBUF_SHIFT                     (0x01UL)   /**< Single SIO pin shift for input buffe
 301:Generated_Source\PSoC6\pdl\drivers/peripheral/gpio/cy_gpio.h **** #define CY_GPIO_VTRIP_SEL_MASK                 (0x01UL)   /**< Single SIO pin mask for the input bu
 302:Generated_Source\PSoC6\pdl\drivers/peripheral/gpio/cy_gpio.h **** #define CY_GPIO_VTRIP_SEL_SHIFT                (0x02UL)   /**< Single SIO pin shift for the input b
 303:Generated_Source\PSoC6\pdl\drivers/peripheral/gpio/cy_gpio.h **** #define CY_GPIO_VREF_SEL_MASK                  (0x03UL)   /**< Single SIO pin mask for voltage refe
 304:Generated_Source\PSoC6\pdl\drivers/peripheral/gpio/cy_gpio.h **** #define CY_GPIO_VREF_SEL_SHIFT                 (0x03UL)   /**< Single SIO pin shift for voltage ref
 305:Generated_Source\PSoC6\pdl\drivers/peripheral/gpio/cy_gpio.h **** #define CY_GPIO_VOH_SEL_MASK                   (0x07UL)   /**< Single SIO pin mask for VOH */
 306:Generated_Source\PSoC6\pdl\drivers/peripheral/gpio/cy_gpio.h **** #define CY_GPIO_VOH_SEL_SHIFT                  (0x05UL)   /**< Single SIO pin shift for VOH */
 307:Generated_Source\PSoC6\pdl\drivers/peripheral/gpio/cy_gpio.h **** 
 308:Generated_Source\PSoC6\pdl\drivers/peripheral/gpio/cy_gpio.h **** /* Special mask for SIO pin pair setting */
 309:Generated_Source\PSoC6\pdl\drivers/peripheral/gpio/cy_gpio.h **** #define CY_GPIO_SIO_ODD_PIN_MASK               (0x00FEUL) /**< SIO pin pair selection mask */
 310:Generated_Source\PSoC6\pdl\drivers/peripheral/gpio/cy_gpio.h **** #define CY_GPIO_SIO_PIN_MASK                   (0x00FFUL) /**< SIO pin pair mask */
 311:Generated_Source\PSoC6\pdl\drivers/peripheral/gpio/cy_gpio.h **** 
 312:Generated_Source\PSoC6\pdl\drivers/peripheral/gpio/cy_gpio.h **** /* Offsets */
 313:Generated_Source\PSoC6\pdl\drivers/peripheral/gpio/cy_gpio.h **** #define CY_GPIO_HSIOM_OFFSET                   (3UL)      /**< Offset for HSIOM */
 314:Generated_Source\PSoC6\pdl\drivers/peripheral/gpio/cy_gpio.h **** #define CY_GPIO_DRIVE_MODE_OFFSET              (2UL)      /**< Offset for Drive mode */
 315:Generated_Source\PSoC6\pdl\drivers/peripheral/gpio/cy_gpio.h **** #define CY_GPIO_INBUF_OFFSET                   (3UL)      /**< Offset for input buffer */
 316:Generated_Source\PSoC6\pdl\drivers/peripheral/gpio/cy_gpio.h **** #define CY_GPIO_CFG_OUT_DRIVE_OFFSET           (16UL)     /**< Offset for drive strength */
 317:Generated_Source\PSoC6\pdl\drivers/peripheral/gpio/cy_gpio.h **** #define CY_GPIO_INTR_CFG_OFFSET                (1UL)      /**< Offset for interrupt config */
 318:Generated_Source\PSoC6\pdl\drivers/peripheral/gpio/cy_gpio.h **** #define CY_GPIO_INTR_FILT_OFFSET               (18UL)     /**< Offset for filtered interrupt config
 319:Generated_Source\PSoC6\pdl\drivers/peripheral/gpio/cy_gpio.h **** #define CY_GPIO_CFG_SIO_OFFSET                 (2UL)      /**< Offset for SIO config */
 320:Generated_Source\PSoC6\pdl\drivers/peripheral/gpio/cy_gpio.h **** 
 321:Generated_Source\PSoC6\pdl\drivers/peripheral/gpio/cy_gpio.h **** /* Parameter validation constants */
 322:Generated_Source\PSoC6\pdl\drivers/peripheral/gpio/cy_gpio.h **** #define CY_GPIO_PINS_MAX                       (8UL)      /**< Number of pins in the port */
 323:Generated_Source\PSoC6\pdl\drivers/peripheral/gpio/cy_gpio.h **** #define CY_GPIO_PRT_PINS_MASK                  (0x0000000FFUL)
 324:Generated_Source\PSoC6\pdl\drivers/peripheral/gpio/cy_gpio.h **** #define CY_GPIO_PRT_INTR_CFG_EDGE_SEL_MASK     (GPIO_PRT_INTR_CFG_EDGE0_SEL_Msk | \
 325:Generated_Source\PSoC6\pdl\drivers/peripheral/gpio/cy_gpio.h ****                                                 GPIO_PRT_INTR_CFG_EDGE1_SEL_Msk | \
 326:Generated_Source\PSoC6\pdl\drivers/peripheral/gpio/cy_gpio.h ****                                                 GPIO_PRT_INTR_CFG_EDGE2_SEL_Msk | \
 327:Generated_Source\PSoC6\pdl\drivers/peripheral/gpio/cy_gpio.h ****                                                 GPIO_PRT_INTR_CFG_EDGE3_SEL_Msk | \
 328:Generated_Source\PSoC6\pdl\drivers/peripheral/gpio/cy_gpio.h ****                                                 GPIO_PRT_INTR_CFG_EDGE4_SEL_Msk | \
 329:Generated_Source\PSoC6\pdl\drivers/peripheral/gpio/cy_gpio.h ****                                                 GPIO_PRT_INTR_CFG_EDGE5_SEL_Msk | \
 330:Generated_Source\PSoC6\pdl\drivers/peripheral/gpio/cy_gpio.h ****                                                 GPIO_PRT_INTR_CFG_EDGE6_SEL_Msk | \
 331:Generated_Source\PSoC6\pdl\drivers/peripheral/gpio/cy_gpio.h ****                                                 GPIO_PRT_INTR_CFG_EDGE7_SEL_Msk)
 332:Generated_Source\PSoC6\pdl\drivers/peripheral/gpio/cy_gpio.h **** #define CY_GPIO_PRT_INTR_CFG_RANGE_MASK        (CY_GPIO_PRT_INTR_CFG_EDGE_SEL_MASK | \
 333:Generated_Source\PSoC6\pdl\drivers/peripheral/gpio/cy_gpio.h ****                                                 GPIO_PRT_INTR_CFG_FLT_EDGE_SEL_Msk | \
 334:Generated_Source\PSoC6\pdl\drivers/peripheral/gpio/cy_gpio.h ****                                                 GPIO_PRT_INTR_CFG_FLT_SEL_Msk)
 335:Generated_Source\PSoC6\pdl\drivers/peripheral/gpio/cy_gpio.h **** #define CY_GPIO_PRT_INT_MASK_MASK              (0x0000001FFUL)
 336:Generated_Source\PSoC6\pdl\drivers/peripheral/gpio/cy_gpio.h **** #define CY_GPIO_PRT_SEL_ACTIVE_MASK            (0x1FFFFFFFUL)
 337:Generated_Source\PSoC6\pdl\drivers/peripheral/gpio/cy_gpio.h **** 
 338:Generated_Source\PSoC6\pdl\drivers/peripheral/gpio/cy_gpio.h **** #define GPIO_MAX_SPLIT_CELL_SEGMENTS           (9U)
 339:Generated_Source\PSoC6\pdl\drivers/peripheral/gpio/cy_gpio.h **** 
 340:Generated_Source\PSoC6\pdl\drivers/peripheral/gpio/cy_gpio.h **** /* Parameter validation macros */
 341:Generated_Source\PSoC6\pdl\drivers/peripheral/gpio/cy_gpio.h **** #define CY_GPIO_IS_PIN_VALID(pinNum)           (CY_GPIO_PINS_MAX > (pinNum))
 342:Generated_Source\PSoC6\pdl\drivers/peripheral/gpio/cy_gpio.h **** #define CY_GPIO_IS_FILTER_PIN_VALID(pinNum)    (CY_GPIO_PINS_MAX >= (pinNum))
 343:Generated_Source\PSoC6\pdl\drivers/peripheral/gpio/cy_gpio.h **** #define CY_GPIO_IS_VALUE_VALID(outVal)         (1UL >= (outVal))
 344:Generated_Source\PSoC6\pdl\drivers/peripheral/gpio/cy_gpio.h **** #define CY_GPIO_IS_DM_VALID(driveMode)         (0U == ((driveMode) & (uint32_t)~CY_GPIO_CFG_DM_MASK
 345:Generated_Source\PSoC6\pdl\drivers/peripheral/gpio/cy_gpio.h **** 
ARM GAS  C:\Users\felha\AppData\Local\Temp\ccuk7kBX.s 			page 36


 346:Generated_Source\PSoC6\pdl\drivers/peripheral/gpio/cy_gpio.h **** #define CY_GPIO_IS_HSIOM_VALID(hsiom)          (0U == ((hsiom) & (uint32_t)~CY_GPIO_HSIOM_MASK))
 347:Generated_Source\PSoC6\pdl\drivers/peripheral/gpio/cy_gpio.h **** 
 348:Generated_Source\PSoC6\pdl\drivers/peripheral/gpio/cy_gpio.h **** #define CY_GPIO_IS_INT_EDGE_VALID(intEdge)     ((CY_GPIO_INTR_DISABLE  == (intEdge)) || \
 349:Generated_Source\PSoC6\pdl\drivers/peripheral/gpio/cy_gpio.h ****                                                 (CY_GPIO_INTR_RISING   == (intEdge)) || \
 350:Generated_Source\PSoC6\pdl\drivers/peripheral/gpio/cy_gpio.h ****                                                 (CY_GPIO_INTR_FALLING  == (intEdge)) || \
 351:Generated_Source\PSoC6\pdl\drivers/peripheral/gpio/cy_gpio.h ****                                                 (CY_GPIO_INTR_BOTH     == (intEdge)))
 352:Generated_Source\PSoC6\pdl\drivers/peripheral/gpio/cy_gpio.h **** 
 353:Generated_Source\PSoC6\pdl\drivers/peripheral/gpio/cy_gpio.h **** #define CY_GPIO_IS_DRIVE_SEL_VALID(driveSel)   ((CY_GPIO_DRIVE_FULL    == (driveSel)) || \
 354:Generated_Source\PSoC6\pdl\drivers/peripheral/gpio/cy_gpio.h ****                                                 (CY_GPIO_DRIVE_1_2     == (driveSel)) || \
 355:Generated_Source\PSoC6\pdl\drivers/peripheral/gpio/cy_gpio.h ****                                                 (CY_GPIO_DRIVE_1_4     == (driveSel)) || \
 356:Generated_Source\PSoC6\pdl\drivers/peripheral/gpio/cy_gpio.h ****                                                 (CY_GPIO_DRIVE_1_8     == (driveSel)))
 357:Generated_Source\PSoC6\pdl\drivers/peripheral/gpio/cy_gpio.h **** 
 358:Generated_Source\PSoC6\pdl\drivers/peripheral/gpio/cy_gpio.h **** #define CY_GPIO_IS_VREF_SEL_VALID(vrefSel)     ((CY_SIO_VREF_PINREF    == (vrefSel)) || \
 359:Generated_Source\PSoC6\pdl\drivers/peripheral/gpio/cy_gpio.h ****                                                 (CY_SIO_VREF_1_2V      == (vrefSel)) || \
 360:Generated_Source\PSoC6\pdl\drivers/peripheral/gpio/cy_gpio.h ****                                                 (CY_SIO_VREF_AMUX_A    == (vrefSel)) || \
 361:Generated_Source\PSoC6\pdl\drivers/peripheral/gpio/cy_gpio.h ****                                                 (CY_SIO_VREF_AMUX_B    == (vrefSel)))
 362:Generated_Source\PSoC6\pdl\drivers/peripheral/gpio/cy_gpio.h **** 
 363:Generated_Source\PSoC6\pdl\drivers/peripheral/gpio/cy_gpio.h **** #define CY_GPIO_IS_VOH_SEL_VALID(vrefSel)      ((CY_SIO_VOH_1_00       == (vrefSel)) || \
 364:Generated_Source\PSoC6\pdl\drivers/peripheral/gpio/cy_gpio.h ****                                                 (CY_SIO_VOH_1_25       == (vrefSel)) || \
 365:Generated_Source\PSoC6\pdl\drivers/peripheral/gpio/cy_gpio.h ****                                                 (CY_SIO_VOH_1_49       == (vrefSel)) || \
 366:Generated_Source\PSoC6\pdl\drivers/peripheral/gpio/cy_gpio.h ****                                                 (CY_SIO_VOH_1_67       == (vrefSel)) || \
 367:Generated_Source\PSoC6\pdl\drivers/peripheral/gpio/cy_gpio.h ****                                                 (CY_SIO_VOH_2_08       == (vrefSel)) || \
 368:Generated_Source\PSoC6\pdl\drivers/peripheral/gpio/cy_gpio.h ****                                                 (CY_SIO_VOH_2_50       == (vrefSel)) || \
 369:Generated_Source\PSoC6\pdl\drivers/peripheral/gpio/cy_gpio.h ****                                                 (CY_SIO_VOH_2_78       == (vrefSel)) || \
 370:Generated_Source\PSoC6\pdl\drivers/peripheral/gpio/cy_gpio.h ****                                                 (CY_SIO_VOH_4_16       == (vrefSel)))
 371:Generated_Source\PSoC6\pdl\drivers/peripheral/gpio/cy_gpio.h ****                    
 372:Generated_Source\PSoC6\pdl\drivers/peripheral/gpio/cy_gpio.h **** #define CY_GPIO_IS_PIN_BIT_VALID(pinBit)       (0U == ((pinBit) & (uint32_t)~CY_GPIO_PRT_PINS_MASK)
 373:Generated_Source\PSoC6\pdl\drivers/peripheral/gpio/cy_gpio.h **** #define CY_GPIO_IS_INTR_CFG_VALID(intrCfg)     (0U == ((intrCfg) & (uint32_t)~CY_GPIO_PRT_INTR_CFG_
 374:Generated_Source\PSoC6\pdl\drivers/peripheral/gpio/cy_gpio.h **** #define CY_GPIO_IS_INTR_MASK_VALID(intrMask)   (0U == ((intrMask) & (uint32_t)~CY_GPIO_PRT_INT_MASK
 375:Generated_Source\PSoC6\pdl\drivers/peripheral/gpio/cy_gpio.h **** #define CY_GPIO_IS_SEL_ACT_VALID(selActive)    (0U == ((selActive) & (uint32_t)~CY_GPIO_PRT_SEL_ACT
 376:Generated_Source\PSoC6\pdl\drivers/peripheral/gpio/cy_gpio.h **** 
 377:Generated_Source\PSoC6\pdl\drivers/peripheral/gpio/cy_gpio.h **** #define CY_GPIO_IS_AMUX_SPLIT_VALID(switchCtrl)       (((uint32_t) (switchCtrl)) < GPIO_MAX_SPLIT_C
 378:Generated_Source\PSoC6\pdl\drivers/peripheral/gpio/cy_gpio.h **** 
 379:Generated_Source\PSoC6\pdl\drivers/peripheral/gpio/cy_gpio.h **** #define CY_GPIO_IS_AMUX_CONNECT_VALID(amuxConnect)    ((CY_GPIO_AMUX_OPENALL == (amuxConnect)) || \
 380:Generated_Source\PSoC6\pdl\drivers/peripheral/gpio/cy_gpio.h ****                                                        (CY_GPIO_AMUX_L       == (amuxConnect)) || \
 381:Generated_Source\PSoC6\pdl\drivers/peripheral/gpio/cy_gpio.h ****                                                        (CY_GPIO_AMUX_R       == (amuxConnect)) || \
 382:Generated_Source\PSoC6\pdl\drivers/peripheral/gpio/cy_gpio.h ****                                                        (CY_GPIO_AMUX_LR      == (amuxConnect)) || \
 383:Generated_Source\PSoC6\pdl\drivers/peripheral/gpio/cy_gpio.h ****                                                        (CY_GPIO_AMUX_G       == (amuxConnect)) || \
 384:Generated_Source\PSoC6\pdl\drivers/peripheral/gpio/cy_gpio.h ****                                                        (CY_GPIO_AMUX_GL      == (amuxConnect)) || \
 385:Generated_Source\PSoC6\pdl\drivers/peripheral/gpio/cy_gpio.h ****                                                        (CY_GPIO_AMUX_GR      == (amuxConnect)) || \
 386:Generated_Source\PSoC6\pdl\drivers/peripheral/gpio/cy_gpio.h ****                                                        (CY_GPIO_AMUX_GLR     == (amuxConnect)))
 387:Generated_Source\PSoC6\pdl\drivers/peripheral/gpio/cy_gpio.h **** 
 388:Generated_Source\PSoC6\pdl\drivers/peripheral/gpio/cy_gpio.h **** #define CY_GPIO_IS_AMUX_SELECT_VALID(amuxBus)       ((CY_GPIO_AMUXBUSA       == (amuxBus)) || \
 389:Generated_Source\PSoC6\pdl\drivers/peripheral/gpio/cy_gpio.h ****                                                      (CY_GPIO_AMUXBUSB       == (amuxBus)))
 390:Generated_Source\PSoC6\pdl\drivers/peripheral/gpio/cy_gpio.h **** /** \endcond */
 391:Generated_Source\PSoC6\pdl\drivers/peripheral/gpio/cy_gpio.h **** 
 392:Generated_Source\PSoC6\pdl\drivers/peripheral/gpio/cy_gpio.h **** 
 393:Generated_Source\PSoC6\pdl\drivers/peripheral/gpio/cy_gpio.h **** /***************************************
 394:Generated_Source\PSoC6\pdl\drivers/peripheral/gpio/cy_gpio.h **** *        Function Constants
 395:Generated_Source\PSoC6\pdl\drivers/peripheral/gpio/cy_gpio.h **** ***************************************/
 396:Generated_Source\PSoC6\pdl\drivers/peripheral/gpio/cy_gpio.h **** 
 397:Generated_Source\PSoC6\pdl\drivers/peripheral/gpio/cy_gpio.h **** /**
 398:Generated_Source\PSoC6\pdl\drivers/peripheral/gpio/cy_gpio.h **** * \addtogroup group_gpio_macros
 399:Generated_Source\PSoC6\pdl\drivers/peripheral/gpio/cy_gpio.h **** * \{
 400:Generated_Source\PSoC6\pdl\drivers/peripheral/gpio/cy_gpio.h **** */
 401:Generated_Source\PSoC6\pdl\drivers/peripheral/gpio/cy_gpio.h **** 
 402:Generated_Source\PSoC6\pdl\drivers/peripheral/gpio/cy_gpio.h **** /**
ARM GAS  C:\Users\felha\AppData\Local\Temp\ccuk7kBX.s 			page 37


 403:Generated_Source\PSoC6\pdl\drivers/peripheral/gpio/cy_gpio.h **** * \defgroup group_gpio_driveModes Pin drive mode
 404:Generated_Source\PSoC6\pdl\drivers/peripheral/gpio/cy_gpio.h **** * \{
 405:Generated_Source\PSoC6\pdl\drivers/peripheral/gpio/cy_gpio.h **** * Constants to be used for setting the drive mode of the pin.
 406:Generated_Source\PSoC6\pdl\drivers/peripheral/gpio/cy_gpio.h **** */
 407:Generated_Source\PSoC6\pdl\drivers/peripheral/gpio/cy_gpio.h **** #define CY_GPIO_DM_ANALOG                      (0x00UL) /**< Analog High-Z. Input buffer off */
 408:Generated_Source\PSoC6\pdl\drivers/peripheral/gpio/cy_gpio.h **** #define CY_GPIO_DM_PULLUP_IN_OFF               (0x02UL) /**< Resistive Pull-Up. Input buffer off */
 409:Generated_Source\PSoC6\pdl\drivers/peripheral/gpio/cy_gpio.h **** #define CY_GPIO_DM_PULLDOWN_IN_OFF             (0x03UL) /**< Resistive Pull-Down. Input buffer off 
 410:Generated_Source\PSoC6\pdl\drivers/peripheral/gpio/cy_gpio.h **** #define CY_GPIO_DM_OD_DRIVESLOW_IN_OFF         (0x04UL) /**< Open Drain, Drives Low. Input buffer o
 411:Generated_Source\PSoC6\pdl\drivers/peripheral/gpio/cy_gpio.h **** #define CY_GPIO_DM_OD_DRIVESHIGH_IN_OFF        (0x05UL) /**< Open Drain, Drives High. Input buffer 
 412:Generated_Source\PSoC6\pdl\drivers/peripheral/gpio/cy_gpio.h **** #define CY_GPIO_DM_STRONG_IN_OFF               (0x06UL) /**< Strong Drive. Input buffer off */
 413:Generated_Source\PSoC6\pdl\drivers/peripheral/gpio/cy_gpio.h **** #define CY_GPIO_DM_PULLUP_DOWN_IN_OFF          (0x07UL) /**< Resistive Pull-Up/Down. Input buffer o
 414:Generated_Source\PSoC6\pdl\drivers/peripheral/gpio/cy_gpio.h **** #define CY_GPIO_DM_HIGHZ                       (0x08UL) /**< Digital High-Z. Input buffer on */
 415:Generated_Source\PSoC6\pdl\drivers/peripheral/gpio/cy_gpio.h **** #define CY_GPIO_DM_PULLUP                      (0x0AUL) /**< Resistive Pull-Up. Input buffer on */
 416:Generated_Source\PSoC6\pdl\drivers/peripheral/gpio/cy_gpio.h **** #define CY_GPIO_DM_PULLDOWN                    (0x0BUL) /**< Resistive Pull-Down. Input buffer on *
 417:Generated_Source\PSoC6\pdl\drivers/peripheral/gpio/cy_gpio.h **** #define CY_GPIO_DM_OD_DRIVESLOW                (0x0CUL) /**< Open Drain, Drives Low. Input buffer o
 418:Generated_Source\PSoC6\pdl\drivers/peripheral/gpio/cy_gpio.h **** #define CY_GPIO_DM_OD_DRIVESHIGH               (0x0DUL) /**< Open Drain, Drives High. Input buffer 
 419:Generated_Source\PSoC6\pdl\drivers/peripheral/gpio/cy_gpio.h **** #define CY_GPIO_DM_STRONG                      (0x0EUL) /**< Strong Drive. Input buffer on */
 420:Generated_Source\PSoC6\pdl\drivers/peripheral/gpio/cy_gpio.h **** #define CY_GPIO_DM_PULLUP_DOWN                 (0x0FUL) /**< Resistive Pull-Up/Down. Input buffer o
 421:Generated_Source\PSoC6\pdl\drivers/peripheral/gpio/cy_gpio.h **** /** \} */
 422:Generated_Source\PSoC6\pdl\drivers/peripheral/gpio/cy_gpio.h **** 
 423:Generated_Source\PSoC6\pdl\drivers/peripheral/gpio/cy_gpio.h **** /**
 424:Generated_Source\PSoC6\pdl\drivers/peripheral/gpio/cy_gpio.h **** * \defgroup group_gpio_vtrip Voltage trip mode
 425:Generated_Source\PSoC6\pdl\drivers/peripheral/gpio/cy_gpio.h **** * \{
 426:Generated_Source\PSoC6\pdl\drivers/peripheral/gpio/cy_gpio.h **** * Constants to be used for setting the voltage trip type on the pin.
 427:Generated_Source\PSoC6\pdl\drivers/peripheral/gpio/cy_gpio.h **** */
 428:Generated_Source\PSoC6\pdl\drivers/peripheral/gpio/cy_gpio.h **** #define CY_GPIO_VTRIP_CMOS                     (0x00UL) /**< Input buffer compatible with CMOS and 
 429:Generated_Source\PSoC6\pdl\drivers/peripheral/gpio/cy_gpio.h **** #define CY_GPIO_VTRIP_TTL                      (0x01UL) /**< Input buffer compatible with TTL and M
 430:Generated_Source\PSoC6\pdl\drivers/peripheral/gpio/cy_gpio.h **** /** \} */
 431:Generated_Source\PSoC6\pdl\drivers/peripheral/gpio/cy_gpio.h **** 
 432:Generated_Source\PSoC6\pdl\drivers/peripheral/gpio/cy_gpio.h **** /**
 433:Generated_Source\PSoC6\pdl\drivers/peripheral/gpio/cy_gpio.h **** * \defgroup group_gpio_slewRate Slew Rate Mode
 434:Generated_Source\PSoC6\pdl\drivers/peripheral/gpio/cy_gpio.h **** * \{
 435:Generated_Source\PSoC6\pdl\drivers/peripheral/gpio/cy_gpio.h **** * Constants to be used for setting the slew rate of the pin.
 436:Generated_Source\PSoC6\pdl\drivers/peripheral/gpio/cy_gpio.h **** */
 437:Generated_Source\PSoC6\pdl\drivers/peripheral/gpio/cy_gpio.h **** #define CY_GPIO_SLEW_FAST                      (0x00UL) /**< Fast slew rate */
 438:Generated_Source\PSoC6\pdl\drivers/peripheral/gpio/cy_gpio.h **** #define CY_GPIO_SLEW_SLOW                      (0x01UL) /**< Slow slew rate */
 439:Generated_Source\PSoC6\pdl\drivers/peripheral/gpio/cy_gpio.h **** /** \} */
 440:Generated_Source\PSoC6\pdl\drivers/peripheral/gpio/cy_gpio.h **** 
 441:Generated_Source\PSoC6\pdl\drivers/peripheral/gpio/cy_gpio.h **** /**
 442:Generated_Source\PSoC6\pdl\drivers/peripheral/gpio/cy_gpio.h **** * \defgroup group_gpio_driveStrength Pin drive strength
 443:Generated_Source\PSoC6\pdl\drivers/peripheral/gpio/cy_gpio.h **** * \{
 444:Generated_Source\PSoC6\pdl\drivers/peripheral/gpio/cy_gpio.h **** * Constants to be used for setting the drive strength of the pin.
 445:Generated_Source\PSoC6\pdl\drivers/peripheral/gpio/cy_gpio.h **** */
 446:Generated_Source\PSoC6\pdl\drivers/peripheral/gpio/cy_gpio.h **** #define CY_GPIO_DRIVE_FULL                     (0x00UL) /**< Full drive strength: Max drive current
 447:Generated_Source\PSoC6\pdl\drivers/peripheral/gpio/cy_gpio.h **** #define CY_GPIO_DRIVE_1_2                      (0x01UL) /**< 1/2 drive strength: 1/2 drive current 
 448:Generated_Source\PSoC6\pdl\drivers/peripheral/gpio/cy_gpio.h **** #define CY_GPIO_DRIVE_1_4                      (0x02UL) /**< 1/4 drive strength: 1/4 drive current 
 449:Generated_Source\PSoC6\pdl\drivers/peripheral/gpio/cy_gpio.h **** #define CY_GPIO_DRIVE_1_8                      (0x03UL) /**< 1/8 drive strength: 1/8 drive current 
 450:Generated_Source\PSoC6\pdl\drivers/peripheral/gpio/cy_gpio.h **** /** \} */
 451:Generated_Source\PSoC6\pdl\drivers/peripheral/gpio/cy_gpio.h **** 
 452:Generated_Source\PSoC6\pdl\drivers/peripheral/gpio/cy_gpio.h **** /**
 453:Generated_Source\PSoC6\pdl\drivers/peripheral/gpio/cy_gpio.h **** * \defgroup group_gpio_interruptTrigger Interrupt trigger type
 454:Generated_Source\PSoC6\pdl\drivers/peripheral/gpio/cy_gpio.h **** * \{
 455:Generated_Source\PSoC6\pdl\drivers/peripheral/gpio/cy_gpio.h **** * Constants to be used for setting the interrupt trigger type on the pin.
 456:Generated_Source\PSoC6\pdl\drivers/peripheral/gpio/cy_gpio.h **** */
 457:Generated_Source\PSoC6\pdl\drivers/peripheral/gpio/cy_gpio.h **** #define CY_GPIO_INTR_DISABLE                   (0x00UL) /**< Disable the pin interrupt generation *
 458:Generated_Source\PSoC6\pdl\drivers/peripheral/gpio/cy_gpio.h **** #define CY_GPIO_INTR_RISING                    (0x01UL) /**< Rising-Edge interrupt */
 459:Generated_Source\PSoC6\pdl\drivers/peripheral/gpio/cy_gpio.h **** #define CY_GPIO_INTR_FALLING                   (0x02UL) /**< Falling-Edge interrupt */
ARM GAS  C:\Users\felha\AppData\Local\Temp\ccuk7kBX.s 			page 38


 460:Generated_Source\PSoC6\pdl\drivers/peripheral/gpio/cy_gpio.h **** #define CY_GPIO_INTR_BOTH                      (0x03UL) /**< Both-Edge interrupt */
 461:Generated_Source\PSoC6\pdl\drivers/peripheral/gpio/cy_gpio.h **** /** \} */
 462:Generated_Source\PSoC6\pdl\drivers/peripheral/gpio/cy_gpio.h **** 
 463:Generated_Source\PSoC6\pdl\drivers/peripheral/gpio/cy_gpio.h **** /**
 464:Generated_Source\PSoC6\pdl\drivers/peripheral/gpio/cy_gpio.h **** * \defgroup group_gpio_sioVreg SIO output buffer mode
 465:Generated_Source\PSoC6\pdl\drivers/peripheral/gpio/cy_gpio.h **** * \{
 466:Generated_Source\PSoC6\pdl\drivers/peripheral/gpio/cy_gpio.h **** * Constants to be used for setting the SIO output buffer mode on the pin.
 467:Generated_Source\PSoC6\pdl\drivers/peripheral/gpio/cy_gpio.h **** */
 468:Generated_Source\PSoC6\pdl\drivers/peripheral/gpio/cy_gpio.h **** #define CY_SIO_VREG_UNREGULATED                (0x00UL) /**< Unregulated output buffer */
 469:Generated_Source\PSoC6\pdl\drivers/peripheral/gpio/cy_gpio.h **** #define CY_SIO_VREG_REGULATED                  (0x01UL) /**< Regulated output buffer */
 470:Generated_Source\PSoC6\pdl\drivers/peripheral/gpio/cy_gpio.h **** /** \} */
 471:Generated_Source\PSoC6\pdl\drivers/peripheral/gpio/cy_gpio.h **** 
 472:Generated_Source\PSoC6\pdl\drivers/peripheral/gpio/cy_gpio.h **** /**
 473:Generated_Source\PSoC6\pdl\drivers/peripheral/gpio/cy_gpio.h **** * \defgroup group_gpio_sioIbuf SIO input buffer mode
 474:Generated_Source\PSoC6\pdl\drivers/peripheral/gpio/cy_gpio.h **** * \{
 475:Generated_Source\PSoC6\pdl\drivers/peripheral/gpio/cy_gpio.h **** * Constants to be used for setting the SIO input buffer mode on the pin.
 476:Generated_Source\PSoC6\pdl\drivers/peripheral/gpio/cy_gpio.h **** */
 477:Generated_Source\PSoC6\pdl\drivers/peripheral/gpio/cy_gpio.h **** #define CY_SIO_IBUF_SINGLEENDED                (0x00UL) /**< Single ended input buffer */
 478:Generated_Source\PSoC6\pdl\drivers/peripheral/gpio/cy_gpio.h **** #define CY_SIO_IBUF_DIFFERENTIAL               (0x01UL) /**< Differential input buffer */
 479:Generated_Source\PSoC6\pdl\drivers/peripheral/gpio/cy_gpio.h **** /** \} */
 480:Generated_Source\PSoC6\pdl\drivers/peripheral/gpio/cy_gpio.h **** 
 481:Generated_Source\PSoC6\pdl\drivers/peripheral/gpio/cy_gpio.h **** /**
 482:Generated_Source\PSoC6\pdl\drivers/peripheral/gpio/cy_gpio.h **** * \defgroup group_gpio_sioVtrip SIO input buffer trip-point
 483:Generated_Source\PSoC6\pdl\drivers/peripheral/gpio/cy_gpio.h **** * \{
 484:Generated_Source\PSoC6\pdl\drivers/peripheral/gpio/cy_gpio.h **** * Constants to be used for setting the SIO input buffer trip-point of the pin.
 485:Generated_Source\PSoC6\pdl\drivers/peripheral/gpio/cy_gpio.h **** */
 486:Generated_Source\PSoC6\pdl\drivers/peripheral/gpio/cy_gpio.h **** #define CY_SIO_VTRIP_CMOS                      (0x00UL) /**< CMOS input buffer (single-ended) */
 487:Generated_Source\PSoC6\pdl\drivers/peripheral/gpio/cy_gpio.h **** #define CY_SIO_VTRIP_TTL                       (0x01UL) /**< TTL input buffer (single-ended) */
 488:Generated_Source\PSoC6\pdl\drivers/peripheral/gpio/cy_gpio.h **** #define CY_SIO_VTRIP_0_5VDDIO_0_5VOH           (0x00UL) /**< 0.5xVddio or 0.5xVoh (differential) */
 489:Generated_Source\PSoC6\pdl\drivers/peripheral/gpio/cy_gpio.h **** #define CY_SIO_VTRIP_0_4VDDIO_1_0VREF          (0x01UL) /**< 0.4xVddio or 0.4xVoh (differential) */
 490:Generated_Source\PSoC6\pdl\drivers/peripheral/gpio/cy_gpio.h **** /** \} */
 491:Generated_Source\PSoC6\pdl\drivers/peripheral/gpio/cy_gpio.h **** 
 492:Generated_Source\PSoC6\pdl\drivers/peripheral/gpio/cy_gpio.h **** /**
 493:Generated_Source\PSoC6\pdl\drivers/peripheral/gpio/cy_gpio.h **** * \defgroup group_gpio_sioVref SIO reference voltage for input buffer trip-point
 494:Generated_Source\PSoC6\pdl\drivers/peripheral/gpio/cy_gpio.h **** * \{
 495:Generated_Source\PSoC6\pdl\drivers/peripheral/gpio/cy_gpio.h **** * Constants to be used for setting the reference voltage of SIO input buffer trip-point.
 496:Generated_Source\PSoC6\pdl\drivers/peripheral/gpio/cy_gpio.h **** */
 497:Generated_Source\PSoC6\pdl\drivers/peripheral/gpio/cy_gpio.h **** #define CY_SIO_VREF_PINREF                     (0x00UL) /**< Vref from analog pin */
 498:Generated_Source\PSoC6\pdl\drivers/peripheral/gpio/cy_gpio.h **** #define CY_SIO_VREF_1_2V                       (0x01UL) /**< Vref from internal 1.2V reference */
 499:Generated_Source\PSoC6\pdl\drivers/peripheral/gpio/cy_gpio.h **** #define CY_SIO_VREF_AMUX_A                     (0x02UL) /**< Vref from AMUXBUS_A */
 500:Generated_Source\PSoC6\pdl\drivers/peripheral/gpio/cy_gpio.h **** #define CY_SIO_VREF_AMUX_B                     (0x03UL) /**< Vref from AMUXBUS_B */
 501:Generated_Source\PSoC6\pdl\drivers/peripheral/gpio/cy_gpio.h **** /** \} */
 502:Generated_Source\PSoC6\pdl\drivers/peripheral/gpio/cy_gpio.h **** 
 503:Generated_Source\PSoC6\pdl\drivers/peripheral/gpio/cy_gpio.h **** /**
 504:Generated_Source\PSoC6\pdl\drivers/peripheral/gpio/cy_gpio.h **** * \defgroup group_gpio_sioVoh Regulated output voltage level (Voh) and input buffer trip-point of a
 505:Generated_Source\PSoC6\pdl\drivers/peripheral/gpio/cy_gpio.h **** * \{
 506:Generated_Source\PSoC6\pdl\drivers/peripheral/gpio/cy_gpio.h **** * Constants to be used for setting the Voh and input buffer trip-point of an SIO pair
 507:Generated_Source\PSoC6\pdl\drivers/peripheral/gpio/cy_gpio.h **** */
 508:Generated_Source\PSoC6\pdl\drivers/peripheral/gpio/cy_gpio.h **** #define CY_SIO_VOH_1_00                        (0x00UL) /**< Voh = 1 x Reference */
 509:Generated_Source\PSoC6\pdl\drivers/peripheral/gpio/cy_gpio.h **** #define CY_SIO_VOH_1_25                        (0x01UL) /**< Voh = 1.25 x Reference */
 510:Generated_Source\PSoC6\pdl\drivers/peripheral/gpio/cy_gpio.h **** #define CY_SIO_VOH_1_49                        (0x02UL) /**< Voh = 1.49 x Reference */
 511:Generated_Source\PSoC6\pdl\drivers/peripheral/gpio/cy_gpio.h **** #define CY_SIO_VOH_1_67                        (0x03UL) /**< Voh = 1.67 x Reference */
 512:Generated_Source\PSoC6\pdl\drivers/peripheral/gpio/cy_gpio.h **** #define CY_SIO_VOH_2_08                        (0x04UL) /**< Voh = 2.08 x Reference */
 513:Generated_Source\PSoC6\pdl\drivers/peripheral/gpio/cy_gpio.h **** #define CY_SIO_VOH_2_50                        (0x05UL) /**< Voh = 2.50 x Reference */
 514:Generated_Source\PSoC6\pdl\drivers/peripheral/gpio/cy_gpio.h **** #define CY_SIO_VOH_2_78                        (0x06UL) /**< Voh = 2.78 x Reference */
 515:Generated_Source\PSoC6\pdl\drivers/peripheral/gpio/cy_gpio.h **** #define CY_SIO_VOH_4_16                        (0x07UL) /**< Voh = 4.16 x Reference */
 516:Generated_Source\PSoC6\pdl\drivers/peripheral/gpio/cy_gpio.h **** /** \} */
ARM GAS  C:\Users\felha\AppData\Local\Temp\ccuk7kBX.s 			page 39


 517:Generated_Source\PSoC6\pdl\drivers/peripheral/gpio/cy_gpio.h **** 
 518:Generated_Source\PSoC6\pdl\drivers/peripheral/gpio/cy_gpio.h **** /** \} group_gpio_macros */
 519:Generated_Source\PSoC6\pdl\drivers/peripheral/gpio/cy_gpio.h **** 
 520:Generated_Source\PSoC6\pdl\drivers/peripheral/gpio/cy_gpio.h **** /***************************************
 521:Generated_Source\PSoC6\pdl\drivers/peripheral/gpio/cy_gpio.h **** *        Function Prototypes
 522:Generated_Source\PSoC6\pdl\drivers/peripheral/gpio/cy_gpio.h **** ***************************************/
 523:Generated_Source\PSoC6\pdl\drivers/peripheral/gpio/cy_gpio.h **** 
 524:Generated_Source\PSoC6\pdl\drivers/peripheral/gpio/cy_gpio.h **** /**
 525:Generated_Source\PSoC6\pdl\drivers/peripheral/gpio/cy_gpio.h **** * \addtogroup group_gpio_functions
 526:Generated_Source\PSoC6\pdl\drivers/peripheral/gpio/cy_gpio.h **** * \{
 527:Generated_Source\PSoC6\pdl\drivers/peripheral/gpio/cy_gpio.h **** */
 528:Generated_Source\PSoC6\pdl\drivers/peripheral/gpio/cy_gpio.h **** 
 529:Generated_Source\PSoC6\pdl\drivers/peripheral/gpio/cy_gpio.h **** /**
 530:Generated_Source\PSoC6\pdl\drivers/peripheral/gpio/cy_gpio.h **** * \addtogroup group_gpio_functions_init
 531:Generated_Source\PSoC6\pdl\drivers/peripheral/gpio/cy_gpio.h **** * \{
 532:Generated_Source\PSoC6\pdl\drivers/peripheral/gpio/cy_gpio.h **** */
 533:Generated_Source\PSoC6\pdl\drivers/peripheral/gpio/cy_gpio.h **** 
 534:Generated_Source\PSoC6\pdl\drivers/peripheral/gpio/cy_gpio.h **** cy_en_gpio_status_t Cy_GPIO_Pin_Init(GPIO_PRT_Type* base, uint32_t pinNum, const cy_stc_gpio_pin_co
 535:Generated_Source\PSoC6\pdl\drivers/peripheral/gpio/cy_gpio.h **** cy_en_gpio_status_t Cy_GPIO_Port_Init(GPIO_PRT_Type* base, const cy_stc_gpio_prt_config_t *config);
 536:Generated_Source\PSoC6\pdl\drivers/peripheral/gpio/cy_gpio.h **** void Cy_GPIO_Pin_FastInit(GPIO_PRT_Type* base, uint32_t pinNum, uint32_t driveMode, uint32_t outVal
 537:Generated_Source\PSoC6\pdl\drivers/peripheral/gpio/cy_gpio.h **** void Cy_GPIO_Port_Deinit(GPIO_PRT_Type* base);
 538:Generated_Source\PSoC6\pdl\drivers/peripheral/gpio/cy_gpio.h **** __STATIC_INLINE void Cy_GPIO_SetHSIOM(GPIO_PRT_Type* base, uint32_t pinNum, en_hsiom_sel_t value);
 539:Generated_Source\PSoC6\pdl\drivers/peripheral/gpio/cy_gpio.h **** __STATIC_INLINE en_hsiom_sel_t Cy_GPIO_GetHSIOM(GPIO_PRT_Type* base, uint32_t pinNum);
 540:Generated_Source\PSoC6\pdl\drivers/peripheral/gpio/cy_gpio.h **** __STATIC_INLINE GPIO_PRT_Type* Cy_GPIO_PortToAddr(uint32_t portNum);
 541:Generated_Source\PSoC6\pdl\drivers/peripheral/gpio/cy_gpio.h **** 
 542:Generated_Source\PSoC6\pdl\drivers/peripheral/gpio/cy_gpio.h **** /** \} group_gpio_functions_init */
 543:Generated_Source\PSoC6\pdl\drivers/peripheral/gpio/cy_gpio.h **** 
 544:Generated_Source\PSoC6\pdl\drivers/peripheral/gpio/cy_gpio.h **** /**
 545:Generated_Source\PSoC6\pdl\drivers/peripheral/gpio/cy_gpio.h **** * \addtogroup group_gpio_functions_gpio
 546:Generated_Source\PSoC6\pdl\drivers/peripheral/gpio/cy_gpio.h **** * \{
 547:Generated_Source\PSoC6\pdl\drivers/peripheral/gpio/cy_gpio.h **** */
 548:Generated_Source\PSoC6\pdl\drivers/peripheral/gpio/cy_gpio.h **** 
 549:Generated_Source\PSoC6\pdl\drivers/peripheral/gpio/cy_gpio.h **** void Cy_GPIO_SetAmuxSplit(cy_en_amux_split_t switchCtrl, cy_en_gpio_amuxconnect_t amuxConnect, cy_e
 550:Generated_Source\PSoC6\pdl\drivers/peripheral/gpio/cy_gpio.h **** cy_en_gpio_amuxconnect_t Cy_GPIO_GetAmuxSplit(cy_en_amux_split_t switchCtrl, cy_en_gpio_amuxselect_
 551:Generated_Source\PSoC6\pdl\drivers/peripheral/gpio/cy_gpio.h **** 
 552:Generated_Source\PSoC6\pdl\drivers/peripheral/gpio/cy_gpio.h **** __STATIC_INLINE uint32_t Cy_GPIO_Read(GPIO_PRT_Type* base, uint32_t pinNum);
 553:Generated_Source\PSoC6\pdl\drivers/peripheral/gpio/cy_gpio.h **** __STATIC_INLINE void Cy_GPIO_Write(GPIO_PRT_Type* base, uint32_t pinNum, uint32_t value);
 554:Generated_Source\PSoC6\pdl\drivers/peripheral/gpio/cy_gpio.h **** __STATIC_INLINE uint32_t Cy_GPIO_ReadOut(GPIO_PRT_Type* base, uint32_t pinNum);
 555:Generated_Source\PSoC6\pdl\drivers/peripheral/gpio/cy_gpio.h **** __STATIC_INLINE void Cy_GPIO_Set(GPIO_PRT_Type* base, uint32_t pinNum);
 556:Generated_Source\PSoC6\pdl\drivers/peripheral/gpio/cy_gpio.h **** __STATIC_INLINE void Cy_GPIO_Clr(GPIO_PRT_Type* base, uint32_t pinNum);
 557:Generated_Source\PSoC6\pdl\drivers/peripheral/gpio/cy_gpio.h **** __STATIC_INLINE void Cy_GPIO_Inv(GPIO_PRT_Type* base, uint32_t pinNum);
 558:Generated_Source\PSoC6\pdl\drivers/peripheral/gpio/cy_gpio.h **** __STATIC_INLINE void Cy_GPIO_SetDrivemode(GPIO_PRT_Type* base, uint32_t pinNum, uint32_t value);
 559:Generated_Source\PSoC6\pdl\drivers/peripheral/gpio/cy_gpio.h **** __STATIC_INLINE uint32_t Cy_GPIO_GetDrivemode(GPIO_PRT_Type* base, uint32_t pinNum);
 560:Generated_Source\PSoC6\pdl\drivers/peripheral/gpio/cy_gpio.h **** __STATIC_INLINE void Cy_GPIO_SetVtrip(GPIO_PRT_Type* base, uint32_t pinNum, uint32_t value);
 561:Generated_Source\PSoC6\pdl\drivers/peripheral/gpio/cy_gpio.h **** __STATIC_INLINE uint32_t Cy_GPIO_GetVtrip(GPIO_PRT_Type* base, uint32_t pinNum);
 562:Generated_Source\PSoC6\pdl\drivers/peripheral/gpio/cy_gpio.h **** __STATIC_INLINE void Cy_GPIO_SetSlewRate(GPIO_PRT_Type* base, uint32_t pinNum, uint32_t value);
 563:Generated_Source\PSoC6\pdl\drivers/peripheral/gpio/cy_gpio.h **** __STATIC_INLINE uint32_t Cy_GPIO_GetSlewRate(GPIO_PRT_Type* base, uint32_t pinNum);
 564:Generated_Source\PSoC6\pdl\drivers/peripheral/gpio/cy_gpio.h **** __STATIC_INLINE void Cy_GPIO_SetDriveSel(GPIO_PRT_Type* base, uint32_t pinNum, uint32_t value);
 565:Generated_Source\PSoC6\pdl\drivers/peripheral/gpio/cy_gpio.h **** __STATIC_INLINE uint32_t Cy_GPIO_GetDriveSel(GPIO_PRT_Type* base, uint32_t pinNum);
 566:Generated_Source\PSoC6\pdl\drivers/peripheral/gpio/cy_gpio.h **** 
 567:Generated_Source\PSoC6\pdl\drivers/peripheral/gpio/cy_gpio.h **** /** \} group_gpio_functions_gpio */
 568:Generated_Source\PSoC6\pdl\drivers/peripheral/gpio/cy_gpio.h **** 
 569:Generated_Source\PSoC6\pdl\drivers/peripheral/gpio/cy_gpio.h **** /**
 570:Generated_Source\PSoC6\pdl\drivers/peripheral/gpio/cy_gpio.h **** * \addtogroup group_gpio_functions_sio
 571:Generated_Source\PSoC6\pdl\drivers/peripheral/gpio/cy_gpio.h **** * \{
 572:Generated_Source\PSoC6\pdl\drivers/peripheral/gpio/cy_gpio.h **** */
 573:Generated_Source\PSoC6\pdl\drivers/peripheral/gpio/cy_gpio.h **** 
ARM GAS  C:\Users\felha\AppData\Local\Temp\ccuk7kBX.s 			page 40


 574:Generated_Source\PSoC6\pdl\drivers/peripheral/gpio/cy_gpio.h **** __STATIC_INLINE void Cy_GPIO_SetVregEn(GPIO_PRT_Type* base, uint32_t pinNum, uint32_t value);
 575:Generated_Source\PSoC6\pdl\drivers/peripheral/gpio/cy_gpio.h **** __STATIC_INLINE uint32_t Cy_GPIO_GetVregEn(GPIO_PRT_Type* base, uint32_t pinNum);
 576:Generated_Source\PSoC6\pdl\drivers/peripheral/gpio/cy_gpio.h **** __STATIC_INLINE void Cy_GPIO_SetIbufMode(GPIO_PRT_Type* base, uint32_t pinNum, uint32_t value);
 577:Generated_Source\PSoC6\pdl\drivers/peripheral/gpio/cy_gpio.h **** __STATIC_INLINE uint32_t Cy_GPIO_GetIbufMode(GPIO_PRT_Type* base, uint32_t pinNum);
 578:Generated_Source\PSoC6\pdl\drivers/peripheral/gpio/cy_gpio.h **** __STATIC_INLINE void Cy_GPIO_SetVtripSel(GPIO_PRT_Type* base, uint32_t pinNum, uint32_t value);
 579:Generated_Source\PSoC6\pdl\drivers/peripheral/gpio/cy_gpio.h **** __STATIC_INLINE uint32_t Cy_GPIO_GetVtripSel(GPIO_PRT_Type* base, uint32_t pinNum);
 580:Generated_Source\PSoC6\pdl\drivers/peripheral/gpio/cy_gpio.h **** __STATIC_INLINE void Cy_GPIO_SetVrefSel(GPIO_PRT_Type* base, uint32_t pinNum, uint32_t value);
 581:Generated_Source\PSoC6\pdl\drivers/peripheral/gpio/cy_gpio.h **** __STATIC_INLINE uint32_t Cy_GPIO_GetVrefSel(GPIO_PRT_Type* base, uint32_t pinNum);
 582:Generated_Source\PSoC6\pdl\drivers/peripheral/gpio/cy_gpio.h **** __STATIC_INLINE void Cy_GPIO_SetVohSel(GPIO_PRT_Type* base, uint32_t pinNum, uint32_t value);
 583:Generated_Source\PSoC6\pdl\drivers/peripheral/gpio/cy_gpio.h **** __STATIC_INLINE uint32_t Cy_GPIO_GetVohSel(GPIO_PRT_Type* base, uint32_t pinNum);
 584:Generated_Source\PSoC6\pdl\drivers/peripheral/gpio/cy_gpio.h **** 
 585:Generated_Source\PSoC6\pdl\drivers/peripheral/gpio/cy_gpio.h **** /** \} group_gpio_functions_sio */
 586:Generated_Source\PSoC6\pdl\drivers/peripheral/gpio/cy_gpio.h **** 
 587:Generated_Source\PSoC6\pdl\drivers/peripheral/gpio/cy_gpio.h **** /**
 588:Generated_Source\PSoC6\pdl\drivers/peripheral/gpio/cy_gpio.h **** * \addtogroup group_gpio_functions_interrupt
 589:Generated_Source\PSoC6\pdl\drivers/peripheral/gpio/cy_gpio.h **** * \{
 590:Generated_Source\PSoC6\pdl\drivers/peripheral/gpio/cy_gpio.h **** */
 591:Generated_Source\PSoC6\pdl\drivers/peripheral/gpio/cy_gpio.h **** 
 592:Generated_Source\PSoC6\pdl\drivers/peripheral/gpio/cy_gpio.h **** __STATIC_INLINE uint32_t Cy_GPIO_GetInterruptStatus(GPIO_PRT_Type* base, uint32_t pinNum);
 593:Generated_Source\PSoC6\pdl\drivers/peripheral/gpio/cy_gpio.h **** __STATIC_INLINE void Cy_GPIO_ClearInterrupt(GPIO_PRT_Type* base, uint32_t pinNum);
 594:Generated_Source\PSoC6\pdl\drivers/peripheral/gpio/cy_gpio.h **** __STATIC_INLINE void Cy_GPIO_SetInterruptMask(GPIO_PRT_Type* base, uint32_t pinNum, uint32_t value)
 595:Generated_Source\PSoC6\pdl\drivers/peripheral/gpio/cy_gpio.h **** __STATIC_INLINE uint32_t Cy_GPIO_GetInterruptMask(GPIO_PRT_Type* base, uint32_t pinNum);
 596:Generated_Source\PSoC6\pdl\drivers/peripheral/gpio/cy_gpio.h **** __STATIC_INLINE uint32_t Cy_GPIO_GetInterruptStatusMasked(GPIO_PRT_Type* base, uint32_t pinNum);
 597:Generated_Source\PSoC6\pdl\drivers/peripheral/gpio/cy_gpio.h **** __STATIC_INLINE void Cy_GPIO_SetSwInterrupt(GPIO_PRT_Type* base, uint32_t pinNum);
 598:Generated_Source\PSoC6\pdl\drivers/peripheral/gpio/cy_gpio.h **** __STATIC_INLINE void Cy_GPIO_SetInterruptEdge(GPIO_PRT_Type* base, uint32_t pinNum, uint32_t value)
 599:Generated_Source\PSoC6\pdl\drivers/peripheral/gpio/cy_gpio.h **** __STATIC_INLINE uint32_t Cy_GPIO_GetInterruptEdge(GPIO_PRT_Type* base, uint32_t pinNum);
 600:Generated_Source\PSoC6\pdl\drivers/peripheral/gpio/cy_gpio.h **** __STATIC_INLINE void Cy_GPIO_SetFilter(GPIO_PRT_Type* base, uint32_t value);
 601:Generated_Source\PSoC6\pdl\drivers/peripheral/gpio/cy_gpio.h **** __STATIC_INLINE uint32_t Cy_GPIO_GetFilter(GPIO_PRT_Type* base);
 602:Generated_Source\PSoC6\pdl\drivers/peripheral/gpio/cy_gpio.h **** 
 603:Generated_Source\PSoC6\pdl\drivers/peripheral/gpio/cy_gpio.h **** __STATIC_INLINE uint32_t Cy_GPIO_GetInterruptCause0(void);
 604:Generated_Source\PSoC6\pdl\drivers/peripheral/gpio/cy_gpio.h **** __STATIC_INLINE uint32_t Cy_GPIO_GetInterruptCause1(void);
 605:Generated_Source\PSoC6\pdl\drivers/peripheral/gpio/cy_gpio.h **** __STATIC_INLINE uint32_t Cy_GPIO_GetInterruptCause2(void);
 606:Generated_Source\PSoC6\pdl\drivers/peripheral/gpio/cy_gpio.h **** __STATIC_INLINE uint32_t Cy_GPIO_GetInterruptCause3(void);
 607:Generated_Source\PSoC6\pdl\drivers/peripheral/gpio/cy_gpio.h **** 
 608:Generated_Source\PSoC6\pdl\drivers/peripheral/gpio/cy_gpio.h **** /** \} group_gpio_functions_interrupt */
 609:Generated_Source\PSoC6\pdl\drivers/peripheral/gpio/cy_gpio.h **** 
 610:Generated_Source\PSoC6\pdl\drivers/peripheral/gpio/cy_gpio.h **** 
 611:Generated_Source\PSoC6\pdl\drivers/peripheral/gpio/cy_gpio.h **** /**
 612:Generated_Source\PSoC6\pdl\drivers/peripheral/gpio/cy_gpio.h **** * \addtogroup group_gpio_functions_init
 613:Generated_Source\PSoC6\pdl\drivers/peripheral/gpio/cy_gpio.h **** * \{
 614:Generated_Source\PSoC6\pdl\drivers/peripheral/gpio/cy_gpio.h **** */
 615:Generated_Source\PSoC6\pdl\drivers/peripheral/gpio/cy_gpio.h **** 
 616:Generated_Source\PSoC6\pdl\drivers/peripheral/gpio/cy_gpio.h **** /*******************************************************************************
 617:Generated_Source\PSoC6\pdl\drivers/peripheral/gpio/cy_gpio.h **** * Function Name: Cy_GPIO_SetHSIOM
 618:Generated_Source\PSoC6\pdl\drivers/peripheral/gpio/cy_gpio.h **** ****************************************************************************//**
 619:Generated_Source\PSoC6\pdl\drivers/peripheral/gpio/cy_gpio.h **** *
 620:Generated_Source\PSoC6\pdl\drivers/peripheral/gpio/cy_gpio.h **** * Configures the HSIOM connection to the pin.
 621:Generated_Source\PSoC6\pdl\drivers/peripheral/gpio/cy_gpio.h **** *
 622:Generated_Source\PSoC6\pdl\drivers/peripheral/gpio/cy_gpio.h **** * Connects the specified High-Speed Input Output Multiplexer (HSIOM) selection
 623:Generated_Source\PSoC6\pdl\drivers/peripheral/gpio/cy_gpio.h **** * to the pin.
 624:Generated_Source\PSoC6\pdl\drivers/peripheral/gpio/cy_gpio.h **** *
 625:Generated_Source\PSoC6\pdl\drivers/peripheral/gpio/cy_gpio.h **** * \param base
 626:Generated_Source\PSoC6\pdl\drivers/peripheral/gpio/cy_gpio.h **** * Pointer to the pin's port register base address
 627:Generated_Source\PSoC6\pdl\drivers/peripheral/gpio/cy_gpio.h **** *
 628:Generated_Source\PSoC6\pdl\drivers/peripheral/gpio/cy_gpio.h **** * \param pinNum
 629:Generated_Source\PSoC6\pdl\drivers/peripheral/gpio/cy_gpio.h **** * Position of the pin bit-field within the port register
 630:Generated_Source\PSoC6\pdl\drivers/peripheral/gpio/cy_gpio.h **** *
ARM GAS  C:\Users\felha\AppData\Local\Temp\ccuk7kBX.s 			page 41


 631:Generated_Source\PSoC6\pdl\drivers/peripheral/gpio/cy_gpio.h **** * \param value
 632:Generated_Source\PSoC6\pdl\drivers/peripheral/gpio/cy_gpio.h **** * HSIOM input selection
 633:Generated_Source\PSoC6\pdl\drivers/peripheral/gpio/cy_gpio.h **** *
 634:Generated_Source\PSoC6\pdl\drivers/peripheral/gpio/cy_gpio.h **** * \note 
 635:Generated_Source\PSoC6\pdl\drivers/peripheral/gpio/cy_gpio.h **** * This function modifies a port register in a read-modify-write operation. It is
 636:Generated_Source\PSoC6\pdl\drivers/peripheral/gpio/cy_gpio.h **** * not thread safe as the resource is shared among multiple pins on a port.
 637:Generated_Source\PSoC6\pdl\drivers/peripheral/gpio/cy_gpio.h **** *
 638:Generated_Source\PSoC6\pdl\drivers/peripheral/gpio/cy_gpio.h **** * \funcusage
 639:Generated_Source\PSoC6\pdl\drivers/peripheral/gpio/cy_gpio.h **** * \snippet gpio/gpio_v1_10_sut_01.cydsn/main_cm4.c snippet_Cy_GPIO_SetHSIOM
 640:Generated_Source\PSoC6\pdl\drivers/peripheral/gpio/cy_gpio.h **** *
 641:Generated_Source\PSoC6\pdl\drivers/peripheral/gpio/cy_gpio.h **** *******************************************************************************/
 642:Generated_Source\PSoC6\pdl\drivers/peripheral/gpio/cy_gpio.h **** __STATIC_INLINE void Cy_GPIO_SetHSIOM(GPIO_PRT_Type* base, uint32_t pinNum, en_hsiom_sel_t value)
 643:Generated_Source\PSoC6\pdl\drivers/peripheral/gpio/cy_gpio.h **** {
 644:Generated_Source\PSoC6\pdl\drivers/peripheral/gpio/cy_gpio.h ****     uint32_t portNum;
 645:Generated_Source\PSoC6\pdl\drivers/peripheral/gpio/cy_gpio.h ****     uint32_t tempReg;
 646:Generated_Source\PSoC6\pdl\drivers/peripheral/gpio/cy_gpio.h ****     HSIOM_PRT_V1_Type* portAddrHSIOM;
 647:Generated_Source\PSoC6\pdl\drivers/peripheral/gpio/cy_gpio.h **** 
 648:Generated_Source\PSoC6\pdl\drivers/peripheral/gpio/cy_gpio.h ****     CY_ASSERT_L2(CY_GPIO_IS_PIN_VALID(pinNum));
 649:Generated_Source\PSoC6\pdl\drivers/peripheral/gpio/cy_gpio.h ****     CY_ASSERT_L2(CY_GPIO_IS_HSIOM_VALID(value));
 650:Generated_Source\PSoC6\pdl\drivers/peripheral/gpio/cy_gpio.h **** 
 651:Generated_Source\PSoC6\pdl\drivers/peripheral/gpio/cy_gpio.h ****     portNum = ((uint32_t)(base) - CY_GPIO_BASE) / GPIO_PRT_SECTION_SIZE;
 652:Generated_Source\PSoC6\pdl\drivers/peripheral/gpio/cy_gpio.h ****     portAddrHSIOM = (HSIOM_PRT_V1_Type*)(CY_HSIOM_BASE + (HSIOM_PRT_SECTION_SIZE * portNum));
 653:Generated_Source\PSoC6\pdl\drivers/peripheral/gpio/cy_gpio.h **** 
 654:Generated_Source\PSoC6\pdl\drivers/peripheral/gpio/cy_gpio.h ****     if(pinNum < CY_GPIO_PRT_HALF)
 655:Generated_Source\PSoC6\pdl\drivers/peripheral/gpio/cy_gpio.h ****     {
 656:Generated_Source\PSoC6\pdl\drivers/peripheral/gpio/cy_gpio.h ****         tempReg = HSIOM_PRT_PORT_SEL0(portAddrHSIOM) & ~(CY_GPIO_HSIOM_MASK << (pinNum << CY_GPIO_H
 657:Generated_Source\PSoC6\pdl\drivers/peripheral/gpio/cy_gpio.h ****         HSIOM_PRT_PORT_SEL0(portAddrHSIOM) = tempReg | ((value & CY_GPIO_HSIOM_MASK) << (pinNum << 
 658:Generated_Source\PSoC6\pdl\drivers/peripheral/gpio/cy_gpio.h ****     }
 659:Generated_Source\PSoC6\pdl\drivers/peripheral/gpio/cy_gpio.h ****     else
 660:Generated_Source\PSoC6\pdl\drivers/peripheral/gpio/cy_gpio.h ****     {
 661:Generated_Source\PSoC6\pdl\drivers/peripheral/gpio/cy_gpio.h ****         pinNum -= CY_GPIO_PRT_HALF;
 662:Generated_Source\PSoC6\pdl\drivers/peripheral/gpio/cy_gpio.h ****         tempReg = HSIOM_PRT_PORT_SEL1(portAddrHSIOM) & ~(CY_GPIO_HSIOM_MASK << (pinNum << CY_GPIO_H
 663:Generated_Source\PSoC6\pdl\drivers/peripheral/gpio/cy_gpio.h ****         HSIOM_PRT_PORT_SEL1(portAddrHSIOM) = tempReg | ((value & CY_GPIO_HSIOM_MASK) << (pinNum << 
 664:Generated_Source\PSoC6\pdl\drivers/peripheral/gpio/cy_gpio.h ****     }
 665:Generated_Source\PSoC6\pdl\drivers/peripheral/gpio/cy_gpio.h **** }
 666:Generated_Source\PSoC6\pdl\drivers/peripheral/gpio/cy_gpio.h **** 
 667:Generated_Source\PSoC6\pdl\drivers/peripheral/gpio/cy_gpio.h **** 
 668:Generated_Source\PSoC6\pdl\drivers/peripheral/gpio/cy_gpio.h **** /*******************************************************************************
 669:Generated_Source\PSoC6\pdl\drivers/peripheral/gpio/cy_gpio.h **** * Function Name: Cy_GPIO_GetHSIOM
 670:Generated_Source\PSoC6\pdl\drivers/peripheral/gpio/cy_gpio.h **** ****************************************************************************//**
 671:Generated_Source\PSoC6\pdl\drivers/peripheral/gpio/cy_gpio.h **** *
 672:Generated_Source\PSoC6\pdl\drivers/peripheral/gpio/cy_gpio.h **** * Returns the current HSIOM multiplexer connection to the pin.
 673:Generated_Source\PSoC6\pdl\drivers/peripheral/gpio/cy_gpio.h **** *
 674:Generated_Source\PSoC6\pdl\drivers/peripheral/gpio/cy_gpio.h **** * \param base
 675:Generated_Source\PSoC6\pdl\drivers/peripheral/gpio/cy_gpio.h **** * Pointer to the pin's port register base address
 676:Generated_Source\PSoC6\pdl\drivers/peripheral/gpio/cy_gpio.h **** *
 677:Generated_Source\PSoC6\pdl\drivers/peripheral/gpio/cy_gpio.h **** * \param pinNum
 678:Generated_Source\PSoC6\pdl\drivers/peripheral/gpio/cy_gpio.h **** * Position of the pin bit-field within the port register
 679:Generated_Source\PSoC6\pdl\drivers/peripheral/gpio/cy_gpio.h **** *
 680:Generated_Source\PSoC6\pdl\drivers/peripheral/gpio/cy_gpio.h **** * \return
 681:Generated_Source\PSoC6\pdl\drivers/peripheral/gpio/cy_gpio.h **** * HSIOM input selection
 682:Generated_Source\PSoC6\pdl\drivers/peripheral/gpio/cy_gpio.h **** *
 683:Generated_Source\PSoC6\pdl\drivers/peripheral/gpio/cy_gpio.h **** * \funcusage
 684:Generated_Source\PSoC6\pdl\drivers/peripheral/gpio/cy_gpio.h **** * \snippet gpio/gpio_v1_10_sut_01.cydsn/main_cm4.c snippet_Cy_GPIO_SetHSIOM
 685:Generated_Source\PSoC6\pdl\drivers/peripheral/gpio/cy_gpio.h **** *
 686:Generated_Source\PSoC6\pdl\drivers/peripheral/gpio/cy_gpio.h **** *******************************************************************************/
 687:Generated_Source\PSoC6\pdl\drivers/peripheral/gpio/cy_gpio.h **** __STATIC_INLINE en_hsiom_sel_t Cy_GPIO_GetHSIOM(GPIO_PRT_Type* base, uint32_t pinNum)
ARM GAS  C:\Users\felha\AppData\Local\Temp\ccuk7kBX.s 			page 42


 688:Generated_Source\PSoC6\pdl\drivers/peripheral/gpio/cy_gpio.h **** {
 689:Generated_Source\PSoC6\pdl\drivers/peripheral/gpio/cy_gpio.h ****     uint32_t returnValue;
 690:Generated_Source\PSoC6\pdl\drivers/peripheral/gpio/cy_gpio.h ****     uint32_t portNum;
 691:Generated_Source\PSoC6\pdl\drivers/peripheral/gpio/cy_gpio.h ****     HSIOM_PRT_V1_Type* portAddrHSIOM;
 692:Generated_Source\PSoC6\pdl\drivers/peripheral/gpio/cy_gpio.h ****     
 693:Generated_Source\PSoC6\pdl\drivers/peripheral/gpio/cy_gpio.h ****     CY_ASSERT_L2(CY_GPIO_IS_PIN_VALID(pinNum));
 694:Generated_Source\PSoC6\pdl\drivers/peripheral/gpio/cy_gpio.h **** 
 695:Generated_Source\PSoC6\pdl\drivers/peripheral/gpio/cy_gpio.h ****     portNum = ((uint32_t)(base) - CY_GPIO_BASE) / GPIO_PRT_SECTION_SIZE;
 696:Generated_Source\PSoC6\pdl\drivers/peripheral/gpio/cy_gpio.h ****     portAddrHSIOM = (HSIOM_PRT_V1_Type*)(CY_HSIOM_BASE + (HSIOM_PRT_SECTION_SIZE * portNum));
 697:Generated_Source\PSoC6\pdl\drivers/peripheral/gpio/cy_gpio.h **** 
 698:Generated_Source\PSoC6\pdl\drivers/peripheral/gpio/cy_gpio.h ****     if(pinNum < CY_GPIO_PRT_HALF)
 699:Generated_Source\PSoC6\pdl\drivers/peripheral/gpio/cy_gpio.h ****     {
 700:Generated_Source\PSoC6\pdl\drivers/peripheral/gpio/cy_gpio.h ****         returnValue = (HSIOM_PRT_PORT_SEL0(portAddrHSIOM) >> (pinNum << CY_GPIO_HSIOM_OFFSET)) & CY
 701:Generated_Source\PSoC6\pdl\drivers/peripheral/gpio/cy_gpio.h ****     }
 702:Generated_Source\PSoC6\pdl\drivers/peripheral/gpio/cy_gpio.h ****     else
 703:Generated_Source\PSoC6\pdl\drivers/peripheral/gpio/cy_gpio.h ****     {
 704:Generated_Source\PSoC6\pdl\drivers/peripheral/gpio/cy_gpio.h ****         pinNum -= CY_GPIO_PRT_HALF;
 705:Generated_Source\PSoC6\pdl\drivers/peripheral/gpio/cy_gpio.h ****         returnValue = (HSIOM_PRT_PORT_SEL1(portAddrHSIOM) >> (pinNum << CY_GPIO_HSIOM_OFFSET)) & CY
 706:Generated_Source\PSoC6\pdl\drivers/peripheral/gpio/cy_gpio.h ****     }
 707:Generated_Source\PSoC6\pdl\drivers/peripheral/gpio/cy_gpio.h **** 
 708:Generated_Source\PSoC6\pdl\drivers/peripheral/gpio/cy_gpio.h ****     return (en_hsiom_sel_t)returnValue;
 709:Generated_Source\PSoC6\pdl\drivers/peripheral/gpio/cy_gpio.h **** }
 710:Generated_Source\PSoC6\pdl\drivers/peripheral/gpio/cy_gpio.h **** 
 711:Generated_Source\PSoC6\pdl\drivers/peripheral/gpio/cy_gpio.h **** 
 712:Generated_Source\PSoC6\pdl\drivers/peripheral/gpio/cy_gpio.h **** /*******************************************************************************
 713:Generated_Source\PSoC6\pdl\drivers/peripheral/gpio/cy_gpio.h **** * Function Name: Cy_GPIO_PortToAddr
 714:Generated_Source\PSoC6\pdl\drivers/peripheral/gpio/cy_gpio.h **** ****************************************************************************//**
 715:Generated_Source\PSoC6\pdl\drivers/peripheral/gpio/cy_gpio.h **** *
 716:Generated_Source\PSoC6\pdl\drivers/peripheral/gpio/cy_gpio.h **** * Retrieves the port address based on the given port number.
 717:Generated_Source\PSoC6\pdl\drivers/peripheral/gpio/cy_gpio.h **** *
 718:Generated_Source\PSoC6\pdl\drivers/peripheral/gpio/cy_gpio.h **** * This is a helper function to calculate the port base address when given a port
 719:Generated_Source\PSoC6\pdl\drivers/peripheral/gpio/cy_gpio.h **** * number. It is to be used when pin access needs to be calculated at runtime.
 720:Generated_Source\PSoC6\pdl\drivers/peripheral/gpio/cy_gpio.h **** *
 721:Generated_Source\PSoC6\pdl\drivers/peripheral/gpio/cy_gpio.h **** * \param portNum
 722:Generated_Source\PSoC6\pdl\drivers/peripheral/gpio/cy_gpio.h **** * Port number
 723:Generated_Source\PSoC6\pdl\drivers/peripheral/gpio/cy_gpio.h **** *
 724:Generated_Source\PSoC6\pdl\drivers/peripheral/gpio/cy_gpio.h **** * \return
 725:Generated_Source\PSoC6\pdl\drivers/peripheral/gpio/cy_gpio.h **** * Base address of the port register structure
 726:Generated_Source\PSoC6\pdl\drivers/peripheral/gpio/cy_gpio.h **** *
 727:Generated_Source\PSoC6\pdl\drivers/peripheral/gpio/cy_gpio.h **** * \funcusage
 728:Generated_Source\PSoC6\pdl\drivers/peripheral/gpio/cy_gpio.h **** * \snippet gpio/gpio_v1_10_sut_01.cydsn/main_cm4.c snippet_Cy_GPIO_PortToAddr
 729:Generated_Source\PSoC6\pdl\drivers/peripheral/gpio/cy_gpio.h **** *
 730:Generated_Source\PSoC6\pdl\drivers/peripheral/gpio/cy_gpio.h **** *******************************************************************************/
 731:Generated_Source\PSoC6\pdl\drivers/peripheral/gpio/cy_gpio.h **** __STATIC_INLINE GPIO_PRT_Type* Cy_GPIO_PortToAddr(uint32_t portNum)
 732:Generated_Source\PSoC6\pdl\drivers/peripheral/gpio/cy_gpio.h **** {
 733:Generated_Source\PSoC6\pdl\drivers/peripheral/gpio/cy_gpio.h ****     GPIO_PRT_Type* portBase;
 734:Generated_Source\PSoC6\pdl\drivers/peripheral/gpio/cy_gpio.h ****     
 735:Generated_Source\PSoC6\pdl\drivers/peripheral/gpio/cy_gpio.h ****     if(portNum < (uint32_t)IOSS_GPIO_GPIO_PORT_NR)
 736:Generated_Source\PSoC6\pdl\drivers/peripheral/gpio/cy_gpio.h ****     {
 737:Generated_Source\PSoC6\pdl\drivers/peripheral/gpio/cy_gpio.h ****         portBase = (GPIO_PRT_Type *)(CY_GPIO_BASE + (GPIO_PRT_SECTION_SIZE * portNum));
 738:Generated_Source\PSoC6\pdl\drivers/peripheral/gpio/cy_gpio.h ****     }
 739:Generated_Source\PSoC6\pdl\drivers/peripheral/gpio/cy_gpio.h ****     else
 740:Generated_Source\PSoC6\pdl\drivers/peripheral/gpio/cy_gpio.h ****     {
 741:Generated_Source\PSoC6\pdl\drivers/peripheral/gpio/cy_gpio.h ****         /* Error: Return default base address */
 742:Generated_Source\PSoC6\pdl\drivers/peripheral/gpio/cy_gpio.h ****         portBase = (GPIO_PRT_Type *)(CY_GPIO_BASE);
 743:Generated_Source\PSoC6\pdl\drivers/peripheral/gpio/cy_gpio.h ****     }
 744:Generated_Source\PSoC6\pdl\drivers/peripheral/gpio/cy_gpio.h **** 
ARM GAS  C:\Users\felha\AppData\Local\Temp\ccuk7kBX.s 			page 43


 745:Generated_Source\PSoC6\pdl\drivers/peripheral/gpio/cy_gpio.h ****     return (portBase);
 746:Generated_Source\PSoC6\pdl\drivers/peripheral/gpio/cy_gpio.h **** }
 747:Generated_Source\PSoC6\pdl\drivers/peripheral/gpio/cy_gpio.h **** 
 748:Generated_Source\PSoC6\pdl\drivers/peripheral/gpio/cy_gpio.h **** /** \} group_gpio_functions_init */
 749:Generated_Source\PSoC6\pdl\drivers/peripheral/gpio/cy_gpio.h **** 
 750:Generated_Source\PSoC6\pdl\drivers/peripheral/gpio/cy_gpio.h **** /**
 751:Generated_Source\PSoC6\pdl\drivers/peripheral/gpio/cy_gpio.h **** * \addtogroup group_gpio_functions_gpio
 752:Generated_Source\PSoC6\pdl\drivers/peripheral/gpio/cy_gpio.h **** * \{
 753:Generated_Source\PSoC6\pdl\drivers/peripheral/gpio/cy_gpio.h **** */
 754:Generated_Source\PSoC6\pdl\drivers/peripheral/gpio/cy_gpio.h **** 
 755:Generated_Source\PSoC6\pdl\drivers/peripheral/gpio/cy_gpio.h **** /*******************************************************************************
 756:Generated_Source\PSoC6\pdl\drivers/peripheral/gpio/cy_gpio.h **** * Function Name: Cy_GPIO_Read
 757:Generated_Source\PSoC6\pdl\drivers/peripheral/gpio/cy_gpio.h **** ****************************************************************************//**
 758:Generated_Source\PSoC6\pdl\drivers/peripheral/gpio/cy_gpio.h **** *
 759:Generated_Source\PSoC6\pdl\drivers/peripheral/gpio/cy_gpio.h **** * Reads the current logic level on the input buffer of the pin.
 760:Generated_Source\PSoC6\pdl\drivers/peripheral/gpio/cy_gpio.h **** *
 761:Generated_Source\PSoC6\pdl\drivers/peripheral/gpio/cy_gpio.h **** * \param base
 762:Generated_Source\PSoC6\pdl\drivers/peripheral/gpio/cy_gpio.h **** * Pointer to the pin's port register base address
 763:Generated_Source\PSoC6\pdl\drivers/peripheral/gpio/cy_gpio.h **** *
 764:Generated_Source\PSoC6\pdl\drivers/peripheral/gpio/cy_gpio.h **** * \param pinNum
 765:Generated_Source\PSoC6\pdl\drivers/peripheral/gpio/cy_gpio.h **** * Position of the pin bit-field within the port register.
 766:Generated_Source\PSoC6\pdl\drivers/peripheral/gpio/cy_gpio.h **** * Bit position 8 is the routed pin through the port glitch filter.
 767:Generated_Source\PSoC6\pdl\drivers/peripheral/gpio/cy_gpio.h **** *
 768:Generated_Source\PSoC6\pdl\drivers/peripheral/gpio/cy_gpio.h **** * \return
 769:Generated_Source\PSoC6\pdl\drivers/peripheral/gpio/cy_gpio.h **** * Logic level present on the pin
 770:Generated_Source\PSoC6\pdl\drivers/peripheral/gpio/cy_gpio.h **** *
 771:Generated_Source\PSoC6\pdl\drivers/peripheral/gpio/cy_gpio.h **** * \funcusage
 772:Generated_Source\PSoC6\pdl\drivers/peripheral/gpio/cy_gpio.h **** * \snippet gpio/gpio_v1_10_sut_01.cydsn/main_cm4.c snippet_Cy_GPIO_Read
 773:Generated_Source\PSoC6\pdl\drivers/peripheral/gpio/cy_gpio.h **** *
 774:Generated_Source\PSoC6\pdl\drivers/peripheral/gpio/cy_gpio.h **** *******************************************************************************/
 775:Generated_Source\PSoC6\pdl\drivers/peripheral/gpio/cy_gpio.h **** __STATIC_INLINE uint32_t Cy_GPIO_Read(GPIO_PRT_Type* base, uint32_t pinNum)
 776:Generated_Source\PSoC6\pdl\drivers/peripheral/gpio/cy_gpio.h **** {
 777:Generated_Source\PSoC6\pdl\drivers/peripheral/gpio/cy_gpio.h ****     CY_ASSERT_L2(CY_GPIO_IS_FILTER_PIN_VALID(pinNum));
 778:Generated_Source\PSoC6\pdl\drivers/peripheral/gpio/cy_gpio.h ****     
 779:Generated_Source\PSoC6\pdl\drivers/peripheral/gpio/cy_gpio.h ****     return (GPIO_PRT_IN(base) >> (pinNum)) & CY_GPIO_IN_MASK;
 780:Generated_Source\PSoC6\pdl\drivers/peripheral/gpio/cy_gpio.h **** }
 781:Generated_Source\PSoC6\pdl\drivers/peripheral/gpio/cy_gpio.h **** 
 782:Generated_Source\PSoC6\pdl\drivers/peripheral/gpio/cy_gpio.h **** 
 783:Generated_Source\PSoC6\pdl\drivers/peripheral/gpio/cy_gpio.h **** /*******************************************************************************
 784:Generated_Source\PSoC6\pdl\drivers/peripheral/gpio/cy_gpio.h **** * Function Name: Cy_GPIO_Write
 785:Generated_Source\PSoC6\pdl\drivers/peripheral/gpio/cy_gpio.h **** ****************************************************************************//**
 786:Generated_Source\PSoC6\pdl\drivers/peripheral/gpio/cy_gpio.h **** *
 787:Generated_Source\PSoC6\pdl\drivers/peripheral/gpio/cy_gpio.h **** * Write a logic 0 or logic 1 state to the output driver.
 788:Generated_Source\PSoC6\pdl\drivers/peripheral/gpio/cy_gpio.h **** *
 789:Generated_Source\PSoC6\pdl\drivers/peripheral/gpio/cy_gpio.h **** * This function should be used only for software driven pins. It does not have
 790:Generated_Source\PSoC6\pdl\drivers/peripheral/gpio/cy_gpio.h **** * any effect on peripheral driven pins.
 791:Generated_Source\PSoC6\pdl\drivers/peripheral/gpio/cy_gpio.h **** *
 792:Generated_Source\PSoC6\pdl\drivers/peripheral/gpio/cy_gpio.h **** * \param base
 793:Generated_Source\PSoC6\pdl\drivers/peripheral/gpio/cy_gpio.h **** * Pointer to the pin's port register base address
 794:Generated_Source\PSoC6\pdl\drivers/peripheral/gpio/cy_gpio.h **** *
 795:Generated_Source\PSoC6\pdl\drivers/peripheral/gpio/cy_gpio.h **** * \param pinNum
 796:Generated_Source\PSoC6\pdl\drivers/peripheral/gpio/cy_gpio.h **** * Position of the pin bit-field within the port register
 797:Generated_Source\PSoC6\pdl\drivers/peripheral/gpio/cy_gpio.h **** *
 798:Generated_Source\PSoC6\pdl\drivers/peripheral/gpio/cy_gpio.h **** * \param value
 799:Generated_Source\PSoC6\pdl\drivers/peripheral/gpio/cy_gpio.h **** * Logic level to drive out on the pin
 800:Generated_Source\PSoC6\pdl\drivers/peripheral/gpio/cy_gpio.h **** *
 801:Generated_Source\PSoC6\pdl\drivers/peripheral/gpio/cy_gpio.h **** * \funcusage
ARM GAS  C:\Users\felha\AppData\Local\Temp\ccuk7kBX.s 			page 44


 802:Generated_Source\PSoC6\pdl\drivers/peripheral/gpio/cy_gpio.h **** * \snippet gpio/gpio_v1_10_sut_01.cydsn/main_cm4.c snippet_Cy_GPIO_Write
 803:Generated_Source\PSoC6\pdl\drivers/peripheral/gpio/cy_gpio.h **** *
 804:Generated_Source\PSoC6\pdl\drivers/peripheral/gpio/cy_gpio.h **** *******************************************************************************/
 805:Generated_Source\PSoC6\pdl\drivers/peripheral/gpio/cy_gpio.h **** __STATIC_INLINE void Cy_GPIO_Write(GPIO_PRT_Type* base, uint32_t pinNum, uint32_t value)
 806:Generated_Source\PSoC6\pdl\drivers/peripheral/gpio/cy_gpio.h **** {
 807:Generated_Source\PSoC6\pdl\drivers/peripheral/gpio/cy_gpio.h ****     CY_ASSERT_L2(CY_GPIO_IS_PIN_VALID(pinNum));
 808:Generated_Source\PSoC6\pdl\drivers/peripheral/gpio/cy_gpio.h ****     CY_ASSERT_L2(CY_GPIO_IS_VALUE_VALID(value));
 809:Generated_Source\PSoC6\pdl\drivers/peripheral/gpio/cy_gpio.h **** 
 810:Generated_Source\PSoC6\pdl\drivers/peripheral/gpio/cy_gpio.h ****     /* Thread-safe: Directly access the pin registers instead of base->OUT */
 811:Generated_Source\PSoC6\pdl\drivers/peripheral/gpio/cy_gpio.h ****     if(0UL == value)
 812:Generated_Source\PSoC6\pdl\drivers/peripheral/gpio/cy_gpio.h ****     {
 813:Generated_Source\PSoC6\pdl\drivers/peripheral/gpio/cy_gpio.h ****         GPIO_PRT_OUT_CLR(base) = CY_GPIO_OUT_MASK << pinNum;
 1326              		.loc 2 813 0 is_stmt 1
 1327 0016 0222     		movs	r2, #2
 1328 0018 054B     		ldr	r3, .L94+4
 1329 001a 5A60     		str	r2, [r3, #4]
 1330 001c 02E0     		b	.L91
 1331              	.LVL145:
 1332              	.L90:
 1333              	.LBE14:
 1334              	.LBE13:
 1335              	.LBB15:
 1336              	.LBB16:
 814:Generated_Source\PSoC6\pdl\drivers/peripheral/gpio/cy_gpio.h ****     }
 815:Generated_Source\PSoC6\pdl\drivers/peripheral/gpio/cy_gpio.h ****     else
 816:Generated_Source\PSoC6\pdl\drivers/peripheral/gpio/cy_gpio.h ****     {
 817:Generated_Source\PSoC6\pdl\drivers/peripheral/gpio/cy_gpio.h ****         GPIO_PRT_OUT_SET(base) = CY_GPIO_OUT_MASK << pinNum;
 1337              		.loc 2 817 0
 1338 001e 0222     		movs	r2, #2
 1339 0020 034B     		ldr	r3, .L94+4
 1340 0022 9A60     		str	r2, [r3, #8]
 1341              	.LVL146:
 1342              	.L91:
 1343              	.LBE16:
 1344              	.LBE15:
 319:TasksInterface.c ****         {
 320:TasksInterface.c ****             Cy_GPIO_Write(Blue_0_PORT,Blue_0_NUM,0);
 321:TasksInterface.c ****         }
 322:TasksInterface.c ****         else
 323:TasksInterface.c ****         {
 324:TasksInterface.c ****             Cy_GPIO_Write(Blue_0_PORT,Blue_0_NUM,1);
 325:TasksInterface.c ****         }
 326:TasksInterface.c ****         vTaskDelay(pdMS_TO_TICKS(200));
 1345              		.loc 1 326 0
 1346 0024 C820     		movs	r0, #200
 1347 0026 FFF7FEFF 		bl	vTaskDelay
 1348              	.LVL147:
 327:TasksInterface.c ****     }
 1349              		.loc 1 327 0
 1350 002a EAE7     		b	.L92
 1351              	.L95:
 1352              		.align	2
 1353              	.L94:
 1354 002c 00000000 		.word	.LANCHOR2
 1355 0030 80053240 		.word	1077020032
 1356              		.cfi_endproc
 1357              	.LFE663:
ARM GAS  C:\Users\felha\AppData\Local\Temp\ccuk7kBX.s 			page 45


 1358              		.size	HeartRateAlarm, .-HeartRateAlarm
 1359              		.section	.text.CapSense_ChangeMenu,"ax",%progbits
 1360              		.align	2
 1361              		.global	CapSense_ChangeMenu
 1362              		.thumb
 1363              		.thumb_func
 1364              		.type	CapSense_ChangeMenu, %function
 1365              	CapSense_ChangeMenu:
 1366              	.LFB664:
 328:TasksInterface.c **** }
 329:TasksInterface.c **** 
 330:TasksInterface.c **** // 2)Tâche pour naviguer entre les pages et les paramètres en fonction des boutons appuyés par l
 331:TasksInterface.c **** /*
 332:TasksInterface.c **** Page1: 4 paramètres; 1)ChangeLedIntensity 2)Enable/Disable RLed 3)DrawGraph Red 4) DrawGraphInfra
 333:TasksInterface.c **** Page2: 2 paramètres; 1)Borne inférieure bpm 2)Borne supérieure bpm 
 334:TasksInterface.c **** */
 335:TasksInterface.c **** volatile int Page1Params=0;
 336:TasksInterface.c **** volatile int Page2Params=0;
 337:TasksInterface.c **** volatile int ScreenNumber=0;
 338:TasksInterface.c **** void CapSense_ChangeMenu()
 339:TasksInterface.c **** {   
 1367              		.loc 1 339 0
 1368              		.cfi_startproc
 1369              		@ args = 0, pretend = 0, frame = 8
 1370              		@ frame_needed = 0, uses_anonymous_args = 0
 1371 0000 10B5     		push	{r4, lr}
 1372              		.cfi_def_cfa_offset 8
 1373              		.cfi_offset 4, -8
 1374              		.cfi_offset 14, -4
 1375 0002 82B0     		sub	sp, sp, #8
 1376              		.cfi_def_cfa_offset 16
 1377              	.L123:
 1378              	.LBB17:
 340:TasksInterface.c ****     for(;;)
 341:TasksInterface.c ****     {   
 342:TasksInterface.c ****         volatile int SliderPosII=50;
 1379              		.loc 1 342 0
 1380 0004 3223     		movs	r3, #50
 1381 0006 0193     		str	r3, [sp, #4]
 343:TasksInterface.c ****         CapSense_ProcessAllWidgets();
 1382              		.loc 1 343 0
 1383 0008 FFF7FEFF 		bl	CapSense_ProcessAllWidgets
 1384              	.LVL148:
 344:TasksInterface.c ****         if(CapSense_IsWidgetActive(CapSense_BUTTON0_WDGT_ID))
 1385              		.loc 1 344 0
 1386 000c 0120     		movs	r0, #1
 1387 000e FFF7FEFF 		bl	CapSense_IsWidgetActive
 1388              	.LVL149:
 1389 0012 F0B1     		cbz	r0, .L97
 345:TasksInterface.c ****         {
 346:TasksInterface.c ****             if (Page1Params==0&&Page2Params==0){
 1390              		.loc 1 346 0
 1391 0014 C64B     		ldr	r3, .L125
 1392 0016 D3F8C035 		ldr	r3, [r3, #1472]
 1393 001a D3B9     		cbnz	r3, .L97
 1394              		.loc 1 346 0 is_stmt 0 discriminator 1
 1395 001c C44B     		ldr	r3, .L125
ARM GAS  C:\Users\felha\AppData\Local\Temp\ccuk7kBX.s 			page 46


 1396 001e D3F8C435 		ldr	r3, [r3, #1476]
 1397 0022 B3B9     		cbnz	r3, .L97
 347:TasksInterface.c ****                 ScreenNumber--;
 1398              		.loc 1 347 0 is_stmt 1
 1399 0024 C24B     		ldr	r3, .L125
 1400 0026 D3F8C825 		ldr	r2, [r3, #1480]
 1401 002a 013A     		subs	r2, r2, #1
 1402 002c C3F8C825 		str	r2, [r3, #1480]
 348:TasksInterface.c ****                 if (ScreenNumber<0)
 1403              		.loc 1 348 0
 1404 0030 D3F8C835 		ldr	r3, [r3, #1480]
 1405 0034 002B     		cmp	r3, #0
 1406 0036 03DA     		bge	.L98
 349:TasksInterface.c ****                 {
 350:TasksInterface.c ****                     ScreenNumber=2; 
 1407              		.loc 1 350 0
 1408 0038 0222     		movs	r2, #2
 1409 003a BD4B     		ldr	r3, .L125
 1410 003c C3F8C825 		str	r2, [r3, #1480]
 1411              	.L98:
 351:TasksInterface.c ****                 }
 352:TasksInterface.c ****                 DisplayPage(ScreenNumber, Page1Params, Page2Params);
 1412              		.loc 1 352 0
 1413 0040 BB4B     		ldr	r3, .L125
 1414 0042 D3F8C805 		ldr	r0, [r3, #1480]
 1415 0046 D3F8C015 		ldr	r1, [r3, #1472]
 1416 004a D3F8C425 		ldr	r2, [r3, #1476]
 1417 004e FFF7FEFF 		bl	DisplayPage
 1418              	.LVL150:
 1419              	.L97:
 353:TasksInterface.c ****             }
 354:TasksInterface.c ****         }
 355:TasksInterface.c ****         if(CapSense_IsWidgetActive(CapSense_BUTTON1_WDGT_ID))
 1420              		.loc 1 355 0
 1421 0052 0220     		movs	r0, #2
 1422 0054 FFF7FEFF 		bl	CapSense_IsWidgetActive
 1423              	.LVL151:
 1424 0058 F0B1     		cbz	r0, .L99
 356:TasksInterface.c ****         {
 357:TasksInterface.c ****             if (Page1Params==0&&Page2Params==0){
 1425              		.loc 1 357 0
 1426 005a B54B     		ldr	r3, .L125
 1427 005c D3F8C035 		ldr	r3, [r3, #1472]
 1428 0060 D3B9     		cbnz	r3, .L99
 1429              		.loc 1 357 0 is_stmt 0 discriminator 1
 1430 0062 B34B     		ldr	r3, .L125
 1431 0064 D3F8C435 		ldr	r3, [r3, #1476]
 1432 0068 B3B9     		cbnz	r3, .L99
 358:TasksInterface.c ****                 ScreenNumber++;
 1433              		.loc 1 358 0 is_stmt 1
 1434 006a B14B     		ldr	r3, .L125
 1435 006c D3F8C825 		ldr	r2, [r3, #1480]
 1436 0070 0132     		adds	r2, r2, #1
 1437 0072 C3F8C825 		str	r2, [r3, #1480]
 359:TasksInterface.c ****                 if (ScreenNumber>2)
 1438              		.loc 1 359 0
 1439 0076 D3F8C835 		ldr	r3, [r3, #1480]
ARM GAS  C:\Users\felha\AppData\Local\Temp\ccuk7kBX.s 			page 47


 1440 007a 022B     		cmp	r3, #2
 1441 007c 03DD     		ble	.L100
 360:TasksInterface.c ****                 {
 361:TasksInterface.c ****                     ScreenNumber=0; 
 1442              		.loc 1 361 0
 1443 007e 0022     		movs	r2, #0
 1444 0080 AB4B     		ldr	r3, .L125
 1445 0082 C3F8C825 		str	r2, [r3, #1480]
 1446              	.L100:
 362:TasksInterface.c ****                 }
 363:TasksInterface.c ****             DisplayPage(ScreenNumber, Page1Params,Page2Params);
 1447              		.loc 1 363 0
 1448 0086 AA4B     		ldr	r3, .L125
 1449 0088 D3F8C805 		ldr	r0, [r3, #1480]
 1450 008c D3F8C015 		ldr	r1, [r3, #1472]
 1451 0090 D3F8C425 		ldr	r2, [r3, #1476]
 1452 0094 FFF7FEFF 		bl	DisplayPage
 1453              	.LVL152:
 1454              	.L99:
 364:TasksInterface.c ****             }
 365:TasksInterface.c ****         }
 366:TasksInterface.c ****         if (ScreenNumber==1)
 1455              		.loc 1 366 0
 1456 0098 A54B     		ldr	r3, .L125
 1457 009a D3F8C835 		ldr	r3, [r3, #1480]
 1458 009e 012B     		cmp	r3, #1
 1459 00a0 40F0C980 		bne	.L101
 367:TasksInterface.c ****         { 
 368:TasksInterface.c ****             CapSense_ProcessAllWidgets();
 1460              		.loc 1 368 0
 1461 00a4 FFF7FEFF 		bl	CapSense_ProcessAllWidgets
 1462              	.LVL153:
 369:TasksInterface.c ****             SliderPosII=CapSense_GetCentroidPos(CapSense_LINEARSLIDER0_WDGT_ID);
 1463              		.loc 1 369 0
 1464 00a8 0020     		movs	r0, #0
 1465 00aa FFF7FEFF 		bl	CapSense_GetCentroidPos
 1466              	.LVL154:
 1467 00ae 0190     		str	r0, [sp, #4]
 370:TasksInterface.c ****             if (SliderPosII>50 && SliderPosII<65535)
 1468              		.loc 1 370 0
 1469 00b0 019B     		ldr	r3, [sp, #4]
 1470 00b2 322B     		cmp	r3, #50
 1471 00b4 1BDD     		ble	.L102
 1472              		.loc 1 370 0 is_stmt 0 discriminator 1
 1473 00b6 019A     		ldr	r2, [sp, #4]
 1474 00b8 4FF6FE73 		movw	r3, #65534
 1475 00bc 9A42     		cmp	r2, r3
 1476 00be 16DC     		bgt	.L102
 371:TasksInterface.c ****             {
 372:TasksInterface.c ****                 Page1Params++;
 1477              		.loc 1 372 0 is_stmt 1
 1478 00c0 9B4B     		ldr	r3, .L125
 1479 00c2 D3F8C025 		ldr	r2, [r3, #1472]
 1480 00c6 0132     		adds	r2, r2, #1
 1481 00c8 C3F8C025 		str	r2, [r3, #1472]
 373:TasksInterface.c ****                 if (Page1Params>4)
 1482              		.loc 1 373 0
ARM GAS  C:\Users\felha\AppData\Local\Temp\ccuk7kBX.s 			page 48


 1483 00cc D3F8C035 		ldr	r3, [r3, #1472]
 1484 00d0 042B     		cmp	r3, #4
 1485 00d2 03DD     		ble	.L103
 374:TasksInterface.c ****                 {
 375:TasksInterface.c ****                     Page1Params=0;
 1486              		.loc 1 375 0
 1487 00d4 0022     		movs	r2, #0
 1488 00d6 964B     		ldr	r3, .L125
 1489 00d8 C3F8C025 		str	r2, [r3, #1472]
 1490              	.L103:
 376:TasksInterface.c ****                 }
 377:TasksInterface.c ****                 DisplayPage(ScreenNumber,Page1Params,Page2Params);
 1491              		.loc 1 377 0
 1492 00dc 944B     		ldr	r3, .L125
 1493 00de D3F8C805 		ldr	r0, [r3, #1480]
 1494 00e2 D3F8C015 		ldr	r1, [r3, #1472]
 1495 00e6 D3F8C425 		ldr	r2, [r3, #1476]
 1496 00ea FFF7FEFF 		bl	DisplayPage
 1497              	.LVL155:
 1498              	.L102:
 378:TasksInterface.c ****             }
 379:TasksInterface.c ****             if (SliderPosII<50)
 1499              		.loc 1 379 0
 1500 00ee 019B     		ldr	r3, [sp, #4]
 1501 00f0 312B     		cmp	r3, #49
 1502 00f2 16DC     		bgt	.L104
 380:TasksInterface.c ****             {
 381:TasksInterface.c ****                 Page1Params--;
 1503              		.loc 1 381 0
 1504 00f4 8E4B     		ldr	r3, .L125
 1505 00f6 D3F8C025 		ldr	r2, [r3, #1472]
 1506 00fa 013A     		subs	r2, r2, #1
 1507 00fc C3F8C025 		str	r2, [r3, #1472]
 382:TasksInterface.c ****                 if (Page1Params<0)
 1508              		.loc 1 382 0
 1509 0100 D3F8C035 		ldr	r3, [r3, #1472]
 1510 0104 002B     		cmp	r3, #0
 1511 0106 03DA     		bge	.L105
 383:TasksInterface.c ****                 {
 384:TasksInterface.c ****                     Page1Params=4;
 1512              		.loc 1 384 0
 1513 0108 0422     		movs	r2, #4
 1514 010a 894B     		ldr	r3, .L125
 1515 010c C3F8C025 		str	r2, [r3, #1472]
 1516              	.L105:
 385:TasksInterface.c ****                 }  
 386:TasksInterface.c ****                 DisplayPage(ScreenNumber,Page1Params,Page2Params);
 1517              		.loc 1 386 0
 1518 0110 874B     		ldr	r3, .L125
 1519 0112 D3F8C805 		ldr	r0, [r3, #1480]
 1520 0116 D3F8C015 		ldr	r1, [r3, #1472]
 1521 011a D3F8C425 		ldr	r2, [r3, #1476]
 1522 011e FFF7FEFF 		bl	DisplayPage
 1523              	.LVL156:
 1524              	.L104:
 387:TasksInterface.c ****             }
 388:TasksInterface.c ****             if (Page1Params==1)
ARM GAS  C:\Users\felha\AppData\Local\Temp\ccuk7kBX.s 			page 49


 1525              		.loc 1 388 0
 1526 0122 834B     		ldr	r3, .L125
 1527 0124 D3F8C035 		ldr	r3, [r3, #1472]
 1528 0128 012B     		cmp	r3, #1
 1529 012a 1DD1     		bne	.L106
 389:TasksInterface.c ****             {
 390:TasksInterface.c ****                 CapSense_ProcessAllWidgets();
 1530              		.loc 1 390 0
 1531 012c FFF7FEFF 		bl	CapSense_ProcessAllWidgets
 1532              	.LVL157:
 391:TasksInterface.c ****                 if(CapSense_IsWidgetActive(CapSense_BUTTON1_WDGT_ID))
 1533              		.loc 1 391 0
 1534 0130 0220     		movs	r0, #2
 1535 0132 FFF7FEFF 		bl	CapSense_IsWidgetActive
 1536              	.LVL158:
 1537 0136 28B9     		cbnz	r0, .L107
 1538 0138 16E0     		b	.L106
 1539              	.L108:
 392:TasksInterface.c ****                 {
 393:TasksInterface.c ****                     while (StopChangeLedIntensity==false)
 394:TasksInterface.c ****                     {
 395:TasksInterface.c ****                         CapSense_ChangeLedIntensity();
 1540              		.loc 1 395 0
 1541 013a FFF7FEFF 		bl	CapSense_ChangeLedIntensity
 1542              	.LVL159:
 396:TasksInterface.c ****                         vTaskDelay(pdMS_TO_TICKS(10));
 1543              		.loc 1 396 0
 1544 013e 0A20     		movs	r0, #10
 1545 0140 FFF7FEFF 		bl	vTaskDelay
 1546              	.LVL160:
 1547              	.L107:
 393:TasksInterface.c ****                     {
 1548              		.loc 1 393 0
 1549 0144 7A4B     		ldr	r3, .L125
 1550 0146 93F8BC35 		ldrb	r3, [r3, #1468]	@ zero_extendqisi2
 1551 014a 13F0FF0F 		tst	r3, #255
 1552 014e F4D0     		beq	.L108
 397:TasksInterface.c ****                     }
 398:TasksInterface.c ****                     StopChangeLedIntensity=false;
 1553              		.loc 1 398 0
 1554 0150 774B     		ldr	r3, .L125
 1555 0152 0022     		movs	r2, #0
 1556 0154 83F8BC25 		strb	r2, [r3, #1468]
 399:TasksInterface.c ****                     DisplayPage(ScreenNumber,Page1Params,Page2Params);
 1557              		.loc 1 399 0
 1558 0158 D3F8C805 		ldr	r0, [r3, #1480]
 1559 015c D3F8C015 		ldr	r1, [r3, #1472]
 1560 0160 D3F8C425 		ldr	r2, [r3, #1476]
 1561 0164 FFF7FEFF 		bl	DisplayPage
 1562              	.LVL161:
 1563              	.L106:
 400:TasksInterface.c ****                 }
 401:TasksInterface.c ****             }
 402:TasksInterface.c ****             if (Page1Params==2)
 1564              		.loc 1 402 0
 1565 0168 714B     		ldr	r3, .L125
 1566 016a D3F8C035 		ldr	r3, [r3, #1472]
ARM GAS  C:\Users\felha\AppData\Local\Temp\ccuk7kBX.s 			page 50


 1567 016e 022B     		cmp	r3, #2
 1568 0170 1FD1     		bne	.L109
 403:TasksInterface.c ****             {
 404:TasksInterface.c ****                 CapSense_ProcessAllWidgets();
 1569              		.loc 1 404 0
 1570 0172 FFF7FEFF 		bl	CapSense_ProcessAllWidgets
 1571              	.LVL162:
 405:TasksInterface.c ****                 if(CapSense_IsWidgetActive(CapSense_BUTTON1_WDGT_ID))
 1572              		.loc 1 405 0
 1573 0176 0220     		movs	r0, #2
 1574 0178 FFF7FEFF 		bl	CapSense_IsWidgetActive
 1575              	.LVL163:
 1576 017c C8B1     		cbz	r0, .L109
 406:TasksInterface.c ****                 {
 407:TasksInterface.c ****                     updateMotionAlarm();
 1577              		.loc 1 407 0
 1578 017e FFF7FEFF 		bl	updateMotionAlarm
 1579              	.LVL164:
 408:TasksInterface.c ****                     while (StopDisableAlarm==false)
 1580              		.loc 1 408 0
 1581 0182 04E0     		b	.L110
 1582              	.L111:
 409:TasksInterface.c ****                     {
 410:TasksInterface.c ****                         CapSense_EnableDisableMotionAlarm();
 1583              		.loc 1 410 0
 1584 0184 FFF7FEFF 		bl	CapSense_EnableDisableMotionAlarm
 1585              	.LVL165:
 411:TasksInterface.c ****                         vTaskDelay(pdMS_TO_TICKS(200));
 1586              		.loc 1 411 0
 1587 0188 C820     		movs	r0, #200
 1588 018a FFF7FEFF 		bl	vTaskDelay
 1589              	.LVL166:
 1590              	.L110:
 408:TasksInterface.c ****                     while (StopDisableAlarm==false)
 1591              		.loc 1 408 0
 1592 018e 684B     		ldr	r3, .L125
 1593 0190 93F8BF35 		ldrb	r3, [r3, #1471]	@ zero_extendqisi2
 1594 0194 13F0FF0F 		tst	r3, #255
 1595 0198 F4D0     		beq	.L111
 412:TasksInterface.c ****                     }
 413:TasksInterface.c ****                     StopDisableAlarm=false;
 1596              		.loc 1 413 0
 1597 019a 654B     		ldr	r3, .L125
 1598 019c 0022     		movs	r2, #0
 1599 019e 83F8BF25 		strb	r2, [r3, #1471]
 414:TasksInterface.c ****                     DisplayPage(ScreenNumber,Page1Params,Page2Params);
 1600              		.loc 1 414 0
 1601 01a2 D3F8C805 		ldr	r0, [r3, #1480]
 1602 01a6 D3F8C015 		ldr	r1, [r3, #1472]
 1603 01aa D3F8C425 		ldr	r2, [r3, #1476]
 1604 01ae FFF7FEFF 		bl	DisplayPage
 1605              	.LVL167:
 1606              	.L109:
 415:TasksInterface.c ****                 }
 416:TasksInterface.c ****             }
 417:TasksInterface.c ****             if (Page1Params==3)
 1607              		.loc 1 417 0
ARM GAS  C:\Users\felha\AppData\Local\Temp\ccuk7kBX.s 			page 51


 1608 01b2 5F4B     		ldr	r3, .L125
 1609 01b4 D3F8C035 		ldr	r3, [r3, #1472]
 1610 01b8 032B     		cmp	r3, #3
 1611 01ba 1BD1     		bne	.L112
 418:TasksInterface.c ****             {
 419:TasksInterface.c ****                 CapSense_ProcessAllWidgets();
 1612              		.loc 1 419 0
 1613 01bc FFF7FEFF 		bl	CapSense_ProcessAllWidgets
 1614              	.LVL168:
 420:TasksInterface.c ****                 if(CapSense_IsWidgetActive(CapSense_BUTTON1_WDGT_ID))
 1615              		.loc 1 420 0
 1616 01c0 0220     		movs	r0, #2
 1617 01c2 FFF7FEFF 		bl	CapSense_IsWidgetActive
 1618              	.LVL169:
 1619 01c6 A8B1     		cbz	r0, .L112
 421:TasksInterface.c ****                 {
 422:TasksInterface.c ****                     DrawRedGraph=true; DrawInfraredGraph=false;
 1620              		.loc 1 422 0
 1621 01c8 594C     		ldr	r4, .L125
 1622 01ca 0123     		movs	r3, #1
 1623 01cc 84F8CC35 		strb	r3, [r4, #1484]
 1624 01d0 0023     		movs	r3, #0
 1625 01d2 84F8CD35 		strb	r3, [r4, #1485]
 423:TasksInterface.c ****                     DrawBool(3);
 1626              		.loc 1 423 0
 1627 01d6 0320     		movs	r0, #3
 1628 01d8 FFF7FEFF 		bl	DrawBool
 1629              	.LVL170:
 424:TasksInterface.c ****                     vTaskDelay(pdMS_TO_TICKS(500));
 1630              		.loc 1 424 0
 1631 01dc 4FF4FA70 		mov	r0, #500
 1632 01e0 FFF7FEFF 		bl	vTaskDelay
 1633              	.LVL171:
 425:TasksInterface.c ****                     DisplayPage(ScreenNumber,Page1Params,Page2Params);
 1634              		.loc 1 425 0
 1635 01e4 D4F8C805 		ldr	r0, [r4, #1480]
 1636 01e8 D4F8C015 		ldr	r1, [r4, #1472]
 1637 01ec D4F8C425 		ldr	r2, [r4, #1476]
 1638 01f0 FFF7FEFF 		bl	DisplayPage
 1639              	.LVL172:
 1640              	.L112:
 426:TasksInterface.c ****                 }
 427:TasksInterface.c ****             }
 428:TasksInterface.c ****             if (Page1Params==4)
 1641              		.loc 1 428 0
 1642 01f4 4E4B     		ldr	r3, .L125
 1643 01f6 D3F8C035 		ldr	r3, [r3, #1472]
 1644 01fa 042B     		cmp	r3, #4
 1645 01fc 1BD1     		bne	.L101
 429:TasksInterface.c ****             {
 430:TasksInterface.c ****                 CapSense_ProcessAllWidgets();
 1646              		.loc 1 430 0
 1647 01fe FFF7FEFF 		bl	CapSense_ProcessAllWidgets
 1648              	.LVL173:
 431:TasksInterface.c ****                 if(CapSense_IsWidgetActive(CapSense_BUTTON1_WDGT_ID))
 1649              		.loc 1 431 0
 1650 0202 0220     		movs	r0, #2
ARM GAS  C:\Users\felha\AppData\Local\Temp\ccuk7kBX.s 			page 52


 1651 0204 FFF7FEFF 		bl	CapSense_IsWidgetActive
 1652              	.LVL174:
 1653 0208 A8B1     		cbz	r0, .L101
 432:TasksInterface.c ****                 {
 433:TasksInterface.c ****                     DrawInfraredGraph=true; DrawRedGraph=false;
 1654              		.loc 1 433 0
 1655 020a 494C     		ldr	r4, .L125
 1656 020c 0123     		movs	r3, #1
 1657 020e 84F8CD35 		strb	r3, [r4, #1485]
 1658 0212 0023     		movs	r3, #0
 1659 0214 84F8CC35 		strb	r3, [r4, #1484]
 434:TasksInterface.c ****                     DrawBool(4);
 1660              		.loc 1 434 0
 1661 0218 0420     		movs	r0, #4
 1662 021a FFF7FEFF 		bl	DrawBool
 1663              	.LVL175:
 435:TasksInterface.c ****                     vTaskDelay(pdMS_TO_TICKS(500));
 1664              		.loc 1 435 0
 1665 021e 4FF4FA70 		mov	r0, #500
 1666 0222 FFF7FEFF 		bl	vTaskDelay
 1667              	.LVL176:
 436:TasksInterface.c ****                     DisplayPage(ScreenNumber,Page1Params,Page2Params);
 1668              		.loc 1 436 0
 1669 0226 D4F8C805 		ldr	r0, [r4, #1480]
 1670 022a D4F8C015 		ldr	r1, [r4, #1472]
 1671 022e D4F8C425 		ldr	r2, [r4, #1476]
 1672 0232 FFF7FEFF 		bl	DisplayPage
 1673              	.LVL177:
 1674              	.L101:
 437:TasksInterface.c ****                 }
 438:TasksInterface.c ****             }
 439:TasksInterface.c ****         }
 440:TasksInterface.c ****         if (ScreenNumber==2)
 1675              		.loc 1 440 0
 1676 0236 3E4B     		ldr	r3, .L125
 1677 0238 D3F8C835 		ldr	r3, [r3, #1480]
 1678 023c 022B     		cmp	r3, #2
 1679 023e 40F09280 		bne	.L113
 441:TasksInterface.c ****         { 
 442:TasksInterface.c ****             CapSense_ProcessAllWidgets();
 1680              		.loc 1 442 0
 1681 0242 FFF7FEFF 		bl	CapSense_ProcessAllWidgets
 1682              	.LVL178:
 443:TasksInterface.c ****             SliderPosII=CapSense_GetCentroidPos(CapSense_LINEARSLIDER0_WDGT_ID);
 1683              		.loc 1 443 0
 1684 0246 0020     		movs	r0, #0
 1685 0248 FFF7FEFF 		bl	CapSense_GetCentroidPos
 1686              	.LVL179:
 1687 024c 0190     		str	r0, [sp, #4]
 444:TasksInterface.c ****             if (SliderPosII>50 && SliderPosII<65535)
 1688              		.loc 1 444 0
 1689 024e 019B     		ldr	r3, [sp, #4]
 1690 0250 322B     		cmp	r3, #50
 1691 0252 1BDD     		ble	.L114
 1692              		.loc 1 444 0 is_stmt 0 discriminator 1
 1693 0254 019A     		ldr	r2, [sp, #4]
 1694 0256 4FF6FE73 		movw	r3, #65534
ARM GAS  C:\Users\felha\AppData\Local\Temp\ccuk7kBX.s 			page 53


 1695 025a 9A42     		cmp	r2, r3
 1696 025c 16DC     		bgt	.L114
 445:TasksInterface.c ****             {
 446:TasksInterface.c ****                 Page2Params++;
 1697              		.loc 1 446 0 is_stmt 1
 1698 025e 344B     		ldr	r3, .L125
 1699 0260 D3F8C425 		ldr	r2, [r3, #1476]
 1700 0264 0132     		adds	r2, r2, #1
 1701 0266 C3F8C425 		str	r2, [r3, #1476]
 447:TasksInterface.c ****                 if (Page2Params>2)
 1702              		.loc 1 447 0
 1703 026a D3F8C435 		ldr	r3, [r3, #1476]
 1704 026e 022B     		cmp	r3, #2
 1705 0270 03DD     		ble	.L115
 448:TasksInterface.c ****                 {
 449:TasksInterface.c ****                     Page2Params=0;
 1706              		.loc 1 449 0
 1707 0272 0022     		movs	r2, #0
 1708 0274 2E4B     		ldr	r3, .L125
 1709 0276 C3F8C425 		str	r2, [r3, #1476]
 1710              	.L115:
 450:TasksInterface.c ****                 }
 451:TasksInterface.c ****                 DisplayPage(ScreenNumber,Page1Params,Page2Params);
 1711              		.loc 1 451 0
 1712 027a 2D4B     		ldr	r3, .L125
 1713 027c D3F8C805 		ldr	r0, [r3, #1480]
 1714 0280 D3F8C015 		ldr	r1, [r3, #1472]
 1715 0284 D3F8C425 		ldr	r2, [r3, #1476]
 1716 0288 FFF7FEFF 		bl	DisplayPage
 1717              	.LVL180:
 1718              	.L114:
 452:TasksInterface.c ****             }
 453:TasksInterface.c ****             if (SliderPosII<50)
 1719              		.loc 1 453 0
 1720 028c 019B     		ldr	r3, [sp, #4]
 1721 028e 312B     		cmp	r3, #49
 1722 0290 16DC     		bgt	.L116
 454:TasksInterface.c ****             {
 455:TasksInterface.c ****                 Page2Params--;
 1723              		.loc 1 455 0
 1724 0292 274B     		ldr	r3, .L125
 1725 0294 D3F8C425 		ldr	r2, [r3, #1476]
 1726 0298 013A     		subs	r2, r2, #1
 1727 029a C3F8C425 		str	r2, [r3, #1476]
 456:TasksInterface.c **** 
 457:TasksInterface.c ****                 if (Page2Params<0)
 1728              		.loc 1 457 0
 1729 029e D3F8C435 		ldr	r3, [r3, #1476]
 1730 02a2 002B     		cmp	r3, #0
 1731 02a4 03DA     		bge	.L117
 458:TasksInterface.c ****                 {
 459:TasksInterface.c ****                     Page2Params=2;
 1732              		.loc 1 459 0
 1733 02a6 0222     		movs	r2, #2
 1734 02a8 214B     		ldr	r3, .L125
 1735 02aa C3F8C425 		str	r2, [r3, #1476]
 1736              	.L117:
ARM GAS  C:\Users\felha\AppData\Local\Temp\ccuk7kBX.s 			page 54


 460:TasksInterface.c ****                 }
 461:TasksInterface.c ****                 DisplayPage(ScreenNumber,Page1Params,Page2Params);                
 1737              		.loc 1 461 0
 1738 02ae 204B     		ldr	r3, .L125
 1739 02b0 D3F8C805 		ldr	r0, [r3, #1480]
 1740 02b4 D3F8C015 		ldr	r1, [r3, #1472]
 1741 02b8 D3F8C425 		ldr	r2, [r3, #1476]
 1742 02bc FFF7FEFF 		bl	DisplayPage
 1743              	.LVL181:
 1744              	.L116:
 462:TasksInterface.c ****             }
 463:TasksInterface.c ****             if (Page2Params==1)
 1745              		.loc 1 463 0
 1746 02c0 1B4B     		ldr	r3, .L125
 1747 02c2 D3F8C435 		ldr	r3, [r3, #1476]
 1748 02c6 012B     		cmp	r3, #1
 1749 02c8 21D1     		bne	.L118
 464:TasksInterface.c ****             {
 465:TasksInterface.c ****                 CapSense_ProcessAllWidgets();
 1750              		.loc 1 465 0
 1751 02ca FFF7FEFF 		bl	CapSense_ProcessAllWidgets
 1752              	.LVL182:
 466:TasksInterface.c ****                 if(CapSense_IsWidgetActive(CapSense_BUTTON1_WDGT_ID))
 1753              		.loc 1 466 0
 1754 02ce 0220     		movs	r0, #2
 1755 02d0 FFF7FEFF 		bl	CapSense_IsWidgetActive
 1756              	.LVL183:
 1757 02d4 D8B1     		cbz	r0, .L118
 467:TasksInterface.c ****                 {
 468:TasksInterface.c ****                     updateLowHeartRateLimit(LowHeartRateI);
 1758              		.loc 1 468 0
 1759 02d6 174B     		ldr	r3, .L125+4
 1760 02d8 5868     		ldr	r0, [r3, #4]
 1761 02da FFF7FEFF 		bl	updateLowHeartRateLimit
 1762              	.LVL184:
 469:TasksInterface.c ****                     while (StopChangeLowHeartRate==false)
 1763              		.loc 1 469 0
 1764 02de 04E0     		b	.L119
 1765              	.L120:
 470:TasksInterface.c ****                     {
 471:TasksInterface.c ****                         CapSense_ChangeLowHeartRateLimit();
 1766              		.loc 1 471 0
 1767 02e0 FFF7FEFF 		bl	CapSense_ChangeLowHeartRateLimit
 1768              	.LVL185:
 472:TasksInterface.c ****                         vTaskDelay(pdMS_TO_TICKS(200));
 1769              		.loc 1 472 0
 1770 02e4 C820     		movs	r0, #200
 1771 02e6 FFF7FEFF 		bl	vTaskDelay
 1772              	.LVL186:
 1773              	.L119:
 469:TasksInterface.c ****                     while (StopChangeLowHeartRate==false)
 1774              		.loc 1 469 0
 1775 02ea 114B     		ldr	r3, .L125
 1776 02ec 93F8BD35 		ldrb	r3, [r3, #1469]	@ zero_extendqisi2
 1777 02f0 13F0FF0F 		tst	r3, #255
 1778 02f4 F4D0     		beq	.L120
 473:TasksInterface.c ****                     }
ARM GAS  C:\Users\felha\AppData\Local\Temp\ccuk7kBX.s 			page 55


 474:TasksInterface.c ****                     StopChangeLowHeartRate=false;
 1779              		.loc 1 474 0
 1780 02f6 0E4B     		ldr	r3, .L125
 1781 02f8 0022     		movs	r2, #0
 1782 02fa 83F8BD25 		strb	r2, [r3, #1469]
 475:TasksInterface.c ****                     DisplayPage(ScreenNumber,Page1Params,Page2Params);
 1783              		.loc 1 475 0
 1784 02fe D3F8C805 		ldr	r0, [r3, #1480]
 1785 0302 D3F8C015 		ldr	r1, [r3, #1472]
 1786 0306 D3F8C425 		ldr	r2, [r3, #1476]
 1787 030a FFF7FEFF 		bl	DisplayPage
 1788              	.LVL187:
 1789              	.L118:
 476:TasksInterface.c ****                 }
 477:TasksInterface.c ****             }
 478:TasksInterface.c ****             if (Page2Params==2)
 1790              		.loc 1 478 0
 1791 030e 084B     		ldr	r3, .L125
 1792 0310 D3F8C435 		ldr	r3, [r3, #1476]
 1793 0314 022B     		cmp	r3, #2
 1794 0316 26D1     		bne	.L113
 479:TasksInterface.c ****             {
 480:TasksInterface.c ****                 CapSense_ProcessAllWidgets();
 1795              		.loc 1 480 0
 1796 0318 FFF7FEFF 		bl	CapSense_ProcessAllWidgets
 1797              	.LVL188:
 481:TasksInterface.c ****                 if(CapSense_IsWidgetActive(CapSense_BUTTON1_WDGT_ID))
 1798              		.loc 1 481 0
 1799 031c 0220     		movs	r0, #2
 1800 031e FFF7FEFF 		bl	CapSense_IsWidgetActive
 1801              	.LVL189:
 1802 0322 00B3     		cbz	r0, .L113
 482:TasksInterface.c ****                 {
 483:TasksInterface.c ****                     updateHighHeartRateLimit(HighHeartRateI);
 1803              		.loc 1 483 0
 1804 0324 034B     		ldr	r3, .L125+4
 1805 0326 1869     		ldr	r0, [r3, #16]
 1806 0328 FFF7FEFF 		bl	updateHighHeartRateLimit
 1807              	.LVL190:
 484:TasksInterface.c ****                     while (StopChangeHighHeartRate==false)
 1808              		.loc 1 484 0
 1809 032c 09E0     		b	.L121
 1810              	.L126:
 1811 032e 00BF     		.align	2
 1812              	.L125:
 1813 0330 F8100000 		.word	.LANCHOR1
 1814 0334 00000000 		.word	.LANCHOR2
 1815              	.L122:
 485:TasksInterface.c ****                     {
 486:TasksInterface.c ****                         CapSense_ChangeHighHeartRateLimit();
 1816              		.loc 1 486 0
 1817 0338 FFF7FEFF 		bl	CapSense_ChangeHighHeartRateLimit
 1818              	.LVL191:
 487:TasksInterface.c ****                         vTaskDelay(pdMS_TO_TICKS(200));
 1819              		.loc 1 487 0
 1820 033c C820     		movs	r0, #200
 1821 033e FFF7FEFF 		bl	vTaskDelay
ARM GAS  C:\Users\felha\AppData\Local\Temp\ccuk7kBX.s 			page 56


 1822              	.LVL192:
 1823              	.L121:
 484:TasksInterface.c ****                     while (StopChangeHighHeartRate==false)
 1824              		.loc 1 484 0
 1825 0342 0D4B     		ldr	r3, .L127
 1826 0344 93F8BE35 		ldrb	r3, [r3, #1470]	@ zero_extendqisi2
 1827 0348 13F0FF0F 		tst	r3, #255
 1828 034c F4D0     		beq	.L122
 488:TasksInterface.c ****                     }
 489:TasksInterface.c ****                     StopChangeHighHeartRate=false;
 1829              		.loc 1 489 0
 1830 034e 0A4B     		ldr	r3, .L127
 1831 0350 0022     		movs	r2, #0
 1832 0352 83F8BE25 		strb	r2, [r3, #1470]
 490:TasksInterface.c ****                     DisplayPage(ScreenNumber,Page1Params,Page2Params);
 1833              		.loc 1 490 0
 1834 0356 D3F8C805 		ldr	r0, [r3, #1480]
 1835 035a D3F8C015 		ldr	r1, [r3, #1472]
 1836 035e D3F8C425 		ldr	r2, [r3, #1476]
 1837 0362 FFF7FEFF 		bl	DisplayPage
 1838              	.LVL193:
 1839              	.L113:
 491:TasksInterface.c ****                 }
 492:TasksInterface.c ****             }
 493:TasksInterface.c ****             
 494:TasksInterface.c ****         }
 495:TasksInterface.c ****         CapSense_UpdateAllBaselines();
 1840              		.loc 1 495 0
 1841 0366 FFF7FEFF 		bl	CapSense_UpdateAllBaselines
 1842              	.LVL194:
 496:TasksInterface.c ****         CapSense_ScanAllWidgets();
 1843              		.loc 1 496 0
 1844 036a FFF7FEFF 		bl	CapSense_ScanAllWidgets
 1845              	.LVL195:
 497:TasksInterface.c ****         vTaskDelay(pdMS_TO_TICKS(200));
 1846              		.loc 1 497 0
 1847 036e C820     		movs	r0, #200
 1848 0370 FFF7FEFF 		bl	vTaskDelay
 1849              	.LVL196:
 1850              	.LBE17:
 498:TasksInterface.c ****     }
 1851              		.loc 1 498 0
 1852 0374 46E6     		b	.L123
 1853              	.L128:
 1854 0376 00BF     		.align	2
 1855              	.L127:
 1856 0378 F8100000 		.word	.LANCHOR1
 1857              		.cfi_endproc
 1858              	.LFE664:
 1859              		.size	CapSense_ChangeMenu, .-CapSense_ChangeMenu
 1860              		.global	ScreenNumber
 1861              		.global	Page2Params
 1862              		.global	Page1Params
 1863              		.global	RythmeCardiaque
 1864              		.global	Saturation
 1865              		.comm	vectorInfra,3000,4
 1866              		.comm	vectorRed,3000,4
ARM GAS  C:\Users\felha\AppData\Local\Temp\ccuk7kBX.s 			page 57


 1867              		.global	StopDisableAlarm
 1868              		.global	SliderPosV
 1869              		.global	MotionAlarmEnable
 1870              		.global	StopChangeHighHeartRate
 1871              		.global	SliderPosIV
 1872              		.global	HighHeartRateF
 1873              		.global	HighHeartRateI
 1874              		.global	StopChangeLowHeartRate
 1875              		.global	SliderPosIII
 1876              		.global	LowHeartRateF
 1877              		.global	LowHeartRateI
 1878              		.global	StopChangeLedIntensity
 1879              		.global	SliderPosI
 1880              		.global	DrawInfraredGraph
 1881              		.global	DrawRedGraph
 1882              		.global	imageBufferCache
 1883              		.data
 1884              		.align	2
 1885              		.set	.LANCHOR2,. + 0
 1886              		.type	SliderPosIII, %object
 1887              		.size	SliderPosIII, 4
 1888              	SliderPosIII:
 1889 0000 32000000 		.word	50
 1890              		.type	LowHeartRateI, %object
 1891              		.size	LowHeartRateI, 4
 1892              	LowHeartRateI:
 1893 0004 3C000000 		.word	60
 1894              		.type	LowHeartRateF, %object
 1895              		.size	LowHeartRateF, 4
 1896              	LowHeartRateF:
 1897 0008 3C000000 		.word	60
 1898              		.type	SliderPosIV, %object
 1899              		.size	SliderPosIV, 4
 1900              	SliderPosIV:
 1901 000c 32000000 		.word	50
 1902              		.type	HighHeartRateI, %object
 1903              		.size	HighHeartRateI, 4
 1904              	HighHeartRateI:
 1905 0010 46000000 		.word	70
 1906              		.type	HighHeartRateF, %object
 1907              		.size	HighHeartRateF, 4
 1908              	HighHeartRateF:
 1909 0014 46000000 		.word	70
 1910              		.type	MotionAlarmEnable, %object
 1911              		.size	MotionAlarmEnable, 1
 1912              	MotionAlarmEnable:
 1913 0018 01       		.byte	1
 1914 0019 000000   		.space	3
 1915              		.type	SliderPosV, %object
 1916              		.size	SliderPosV, 4
 1917              	SliderPosV:
 1918 001c 32000000 		.word	50
 1919              		.type	RythmeCardiaque, %object
 1920              		.size	RythmeCardiaque, 4
 1921              	RythmeCardiaque:
 1922 0020 41000000 		.word	65
 1923              		.section	.rodata.str1.4,"aMS",%progbits,1
ARM GAS  C:\Users\felha\AppData\Local\Temp\ccuk7kBX.s 			page 58


 1924              		.align	2
 1925              	.LC0:
 1926 0000 52656420 		.ascii	"Red graph can be drawn\000"
 1926      67726170 
 1926      68206361 
 1926      6E206265 
 1926      20647261 
 1927 0017 00       		.space	1
 1928              	.LC1:
 1929 0018 496E6672 		.ascii	"Infrared graph can be drawn\000"
 1929      61726564 
 1929      20677261 
 1929      70682063 
 1929      616E2062 
 1930              	.LC2:
 1931 0034 256400   		.ascii	"%d\000"
 1932 0037 00       		.space	1
 1933              	.LC3:
 1934 0038 4F787967 		.ascii	"Oxygen saturation:\000"
 1934      656E2073 
 1934      61747572 
 1934      6174696F 
 1934      6E3A00
 1935 004b 00       		.space	1
 1936              	.LC4:
 1937 004c 2500     		.ascii	"%\000"
 1938 004e 0000     		.space	2
 1939              	.LC5:
 1940 0050 48656172 		.ascii	"Heart rate:\000"
 1940      74207261 
 1940      74653A00 
 1941              	.LC6:
 1942 005c 62706D00 		.ascii	"bpm\000"
 1943              	.LC7:
 1944 0060 52656420 		.ascii	"Red curve:\000"
 1944      63757276 
 1944      653A00
 1945 006b 00       		.space	1
 1946              	.LC8:
 1947 006c 496E6672 		.ascii	"Infrared curve:\000"
 1947      61726564 
 1947      20637572 
 1947      76653A00 
 1948              	.LC9:
 1949 007c 4C6F7720 		.ascii	"Low heart rate limit\000"
 1949      68656172 
 1949      74207261 
 1949      7465206C 
 1949      696D6974 
 1950 0091 000000   		.space	3
 1951              	.LC10:
 1952 0094 48696768 		.ascii	"High heart rate limit\000"
 1952      20686561 
 1952      72742072 
 1952      61746520 
 1952      6C696D69 
 1953 00aa 0000     		.space	2
ARM GAS  C:\Users\felha\AppData\Local\Temp\ccuk7kBX.s 			page 59


 1954              	.LC11:
 1955 00ac 55736520 		.ascii	"Use the CapSense buttons to change pages\000"
 1955      74686520 
 1955      43617053 
 1955      656E7365 
 1955      20627574 
 1956 00d5 000000   		.space	3
 1957              	.LC12:
 1958 00d8 55736520 		.ascii	"Use the CapSense slider to change parameters\000"
 1958      74686520 
 1958      43617053 
 1958      656E7365 
 1958      20736C69 
 1959 0105 000000   		.space	3
 1960              	.LC13:
 1961 0108 55736520 		.ascii	"Use the CapSense buttons to select a parameter\000"
 1961      74686520 
 1961      43617053 
 1961      656E7365 
 1961      20627574 
 1962 0137 00       		.space	1
 1963              	.LC14:
 1964 0138 50617261 		.ascii	"Parameters page 1\000"
 1964      6D657465 
 1964      72732070 
 1964      61676520 
 1964      3100
 1965 014a 0000     		.space	2
 1966              	.LC15:
 1967 014c 31294368 		.ascii	"1)Change LED intensity\000"
 1967      616E6765 
 1967      204C4544 
 1967      20696E74 
 1967      656E7369 
 1968 0163 00       		.space	1
 1969              	.LC16:
 1970 0164 3229456E 		.ascii	"2)Enable/Disable motion sensor alarm\000"
 1970      61626C65 
 1970      2F446973 
 1970      61626C65 
 1970      206D6F74 
 1971 0189 000000   		.space	3
 1972              	.LC17:
 1973 018c 33294472 		.ascii	"3)Draw red curve\000"
 1973      61772072 
 1973      65642063 
 1973      75727665 
 1973      00
 1974 019d 000000   		.space	3
 1975              	.LC18:
 1976 01a0 34294472 		.ascii	"4)Draw infrared curve\000"
 1976      61772069 
 1976      6E667261 
 1976      72656420 
 1976      63757276 
 1977 01b6 0000     		.space	2
 1978              	.LC19:
ARM GAS  C:\Users\felha\AppData\Local\Temp\ccuk7kBX.s 			page 60


 1979 01b8 50617261 		.ascii	"Parameters page 2\000"
 1979      6D657465 
 1979      72732070 
 1979      61676520 
 1979      3200
 1980 01ca 0000     		.space	2
 1981              	.LC20:
 1982 01cc 31295365 		.ascii	"1)Set low heart rate limit\000"
 1982      74206C6F 
 1982      77206865 
 1982      61727420 
 1982      72617465 
 1983 01e7 00       		.space	1
 1984              	.LC21:
 1985 01e8 32295365 		.ascii	"2)Set high heart rate limit\000"
 1985      74206869 
 1985      67682068 
 1985      65617274 
 1985      20726174 
 1986              	.LC22:
 1987 0204 416C6172 		.ascii	"Alarm enabled\000"
 1987      6D20656E 
 1987      61626C65 
 1987      6400
 1988 0212 0000     		.space	2
 1989              	.LC23:
 1990 0214 416C6172 		.ascii	"Alarm disabled\000"
 1990      6D206469 
 1990      7361626C 
 1990      656400
 1991              		.bss
 1992              		.align	2
 1993              		.set	.LANCHOR0,. + 0
 1994              		.set	.LANCHOR1,. + 4344
 1995              		.type	imageBufferCache, %object
 1996              		.size	imageBufferCache, 5808
 1997              	imageBufferCache:
 1998 0000 00000000 		.space	5808
 1998      00000000 
 1998      00000000 
 1998      00000000 
 1998      00000000 
 1999              		.type	SliderPosI, %object
 2000              		.size	SliderPosI, 4
 2001              	SliderPosI:
 2002 16b0 00000000 		.space	4
 2003              		.type	StopChangeLedIntensity, %object
 2004              		.size	StopChangeLedIntensity, 1
 2005              	StopChangeLedIntensity:
 2006 16b4 00       		.space	1
 2007              		.type	StopChangeLowHeartRate, %object
 2008              		.size	StopChangeLowHeartRate, 1
 2009              	StopChangeLowHeartRate:
 2010 16b5 00       		.space	1
 2011              		.type	StopChangeHighHeartRate, %object
 2012              		.size	StopChangeHighHeartRate, 1
 2013              	StopChangeHighHeartRate:
ARM GAS  C:\Users\felha\AppData\Local\Temp\ccuk7kBX.s 			page 61


 2014 16b6 00       		.space	1
 2015              		.type	StopDisableAlarm, %object
 2016              		.size	StopDisableAlarm, 1
 2017              	StopDisableAlarm:
 2018 16b7 00       		.space	1
 2019              		.type	Page1Params, %object
 2020              		.size	Page1Params, 4
 2021              	Page1Params:
 2022 16b8 00000000 		.space	4
 2023              		.type	Page2Params, %object
 2024              		.size	Page2Params, 4
 2025              	Page2Params:
 2026 16bc 00000000 		.space	4
 2027              		.type	ScreenNumber, %object
 2028              		.size	ScreenNumber, 4
 2029              	ScreenNumber:
 2030 16c0 00000000 		.space	4
 2031              		.type	DrawRedGraph, %object
 2032              		.size	DrawRedGraph, 1
 2033              	DrawRedGraph:
 2034 16c4 00       		.space	1
 2035              		.type	DrawInfraredGraph, %object
 2036              		.size	DrawInfraredGraph, 1
 2037              	DrawInfraredGraph:
 2038 16c5 00       		.space	1
 2039 16c6 0000     		.space	2
 2040              		.type	Saturation, %object
 2041              		.size	Saturation, 4
 2042              	Saturation:
 2043 16c8 00000000 		.space	4
 2044              		.text
 2045              	.Letext0:
 2046              		.file 3 "c:\\program files (x86)\\cypress\\psoc creator\\4.4\\psoc creator\\import\\gnu\\arm\\5.4.
 2047              		.file 4 "c:\\program files (x86)\\cypress\\psoc creator\\4.4\\psoc creator\\import\\gnu\\arm\\5.4.
 2048              		.file 5 "Generated_Source\\PSoC6\\pdl\\devices/psoc6/include/ip/cyip_gpio.h"
 2049              		.file 6 "Generated_Source\\PSoC6\\pdl\\devices/psoc6/include/psoc6_01_config.h"
 2050              		.file 7 "Generated_Source\\PSoC6\\pdl\\drivers/peripheral/device/cy_device.h"
 2051              		.file 8 "Generated_Source\\PSoC6\\pdl\\drivers/peripheral/syslib/cy_syslib.h"
 2052              		.file 9 "Generated_Source\\PSoC6\\pdl\\drivers/peripheral/scb/cy_scb_i2c.h"
 2053              		.file 10 "Generated_Source\\PSoC6\\pdl\\drivers/peripheral/scb/cy_scb_spi.h"
 2054              		.file 11 "Generated_Source\\PSoC6\\pdl\\drivers/peripheral/tcpwm/cy_tcpwm_counter.h"
 2055              		.file 12 "Generated_Source\\PSoC6\\pdl\\rtos/FreeRTOS/10.0.1/Source/portable/GCC/CM4F/portmacro.h"
 2056              		.file 13 "Generated_Source\\PSoC6\\pdl\\middleware/emWin/code/include/GUI_Type.h"
 2057              		.file 14 ".\\eInk Library/pervasive_eink_hardware_driver.h"
 2058              		.file 15 ".\\eInk Library/cy_eink_library.h"
 2059              		.file 16 ".\\CMSIS\\Core\\Include/core_cm4.h"
 2060              		.file 17 "Generated_Source\\PSoC6/CY_EINK_SPIM.h"
 2061              		.file 18 "Generated_Source\\PSoC6/CY_EINK_Timer.h"
 2062              		.file 19 "Generated_Source\\PSoC6/I2C_MAX.h"
 2063              		.file 20 "Generated_Source\\PSoC6/I2C_1.h"
 2064              		.file 21 "Generated_Source\\PSoC6\\pdl\\middleware/emWin/code/include/GUI.h"
 2065              		.file 22 "LCDConf.h"
 2066              		.file 23 "c:\\program files (x86)\\cypress\\psoc creator\\4.4\\psoc creator\\import\\gnu\\arm\\5.4
 2067              		.file 24 "c:\\program files (x86)\\cypress\\psoc creator\\4.4\\psoc creator\\import\\gnu\\arm\\5.4
 2068              		.file 25 "Max30102_task.h"
 2069              		.file 26 "Generated_Source\\PSoC6/CapSense_Control.h"
 2070              		.file 27 "Generated_Source\\PSoC6/CapSense_Structure.h"
ARM GAS  C:\Users\felha\AppData\Local\Temp\ccuk7kBX.s 			page 62


 2071              		.file 28 "Generated_Source\\PSoC6/CapSense_Filter.h"
 2072              		.file 29 "Generated_Source\\PSoC6/CapSense_Sensing.h"
 2073              		.file 30 "Generated_Source\\PSoC6\\pdl\\rtos/FreeRTOS/10.0.1/Source/include/task.h"
 2074              		.section	.debug_info,"",%progbits
 2075              	.Ldebug_info0:
 2076 0000 4A220000 		.4byte	0x224a
 2077 0004 0400     		.2byte	0x4
 2078 0006 00000000 		.4byte	.Ldebug_abbrev0
 2079 000a 04       		.byte	0x4
 2080 000b 01       		.uleb128 0x1
 2081 000c A7030000 		.4byte	.LASF352
 2082 0010 0C       		.byte	0xc
 2083 0011 CD0C0000 		.4byte	.LASF353
 2084 0015 24120000 		.4byte	.LASF354
 2085 0019 18000000 		.4byte	.Ldebug_ranges0+0x18
 2086 001d 00000000 		.4byte	0
 2087 0021 00000000 		.4byte	.Ldebug_line0
 2088 0025 02       		.uleb128 0x2
 2089 0026 02       		.byte	0x2
 2090 0027 05       		.byte	0x5
 2091 0028 830E0000 		.4byte	.LASF0
 2092 002c 02       		.uleb128 0x2
 2093 002d 01       		.byte	0x1
 2094 002e 06       		.byte	0x6
 2095 002f AF120000 		.4byte	.LASF1
 2096 0033 03       		.uleb128 0x3
 2097 0034 03100000 		.4byte	.LASF3
 2098 0038 03       		.byte	0x3
 2099 0039 1D       		.byte	0x1d
 2100 003a 3E000000 		.4byte	0x3e
 2101 003e 02       		.uleb128 0x2
 2102 003f 01       		.byte	0x1
 2103 0040 08       		.byte	0x8
 2104 0041 2C110000 		.4byte	.LASF2
 2105 0045 03       		.uleb128 0x3
 2106 0046 500B0000 		.4byte	.LASF4
 2107 004a 03       		.byte	0x3
 2108 004b 29       		.byte	0x29
 2109 004c 25000000 		.4byte	0x25
 2110 0050 03       		.uleb128 0x3
 2111 0051 99080000 		.4byte	.LASF5
 2112 0055 03       		.byte	0x3
 2113 0056 2B       		.byte	0x2b
 2114 0057 5B000000 		.4byte	0x5b
 2115 005b 02       		.uleb128 0x2
 2116 005c 02       		.byte	0x2
 2117 005d 07       		.byte	0x7
 2118 005e 5C0D0000 		.4byte	.LASF6
 2119 0062 03       		.uleb128 0x3
 2120 0063 40020000 		.4byte	.LASF7
 2121 0067 03       		.byte	0x3
 2122 0068 3F       		.byte	0x3f
 2123 0069 6D000000 		.4byte	0x6d
 2124 006d 02       		.uleb128 0x2
 2125 006e 04       		.byte	0x4
 2126 006f 05       		.byte	0x5
 2127 0070 B60E0000 		.4byte	.LASF8
ARM GAS  C:\Users\felha\AppData\Local\Temp\ccuk7kBX.s 			page 63


 2128 0074 03       		.uleb128 0x3
 2129 0075 3A110000 		.4byte	.LASF9
 2130 0079 03       		.byte	0x3
 2131 007a 41       		.byte	0x41
 2132 007b 7F000000 		.4byte	0x7f
 2133 007f 02       		.uleb128 0x2
 2134 0080 04       		.byte	0x4
 2135 0081 07       		.byte	0x7
 2136 0082 AB100000 		.4byte	.LASF10
 2137 0086 02       		.uleb128 0x2
 2138 0087 08       		.byte	0x8
 2139 0088 05       		.byte	0x5
 2140 0089 790A0000 		.4byte	.LASF11
 2141 008d 02       		.uleb128 0x2
 2142 008e 08       		.byte	0x8
 2143 008f 07       		.byte	0x7
 2144 0090 03060000 		.4byte	.LASF12
 2145 0094 04       		.uleb128 0x4
 2146 0095 04       		.byte	0x4
 2147 0096 05       		.byte	0x5
 2148 0097 696E7400 		.ascii	"int\000"
 2149 009b 02       		.uleb128 0x2
 2150 009c 04       		.byte	0x4
 2151 009d 07       		.byte	0x7
 2152 009e BA010000 		.4byte	.LASF13
 2153 00a2 03       		.uleb128 0x3
 2154 00a3 D7090000 		.4byte	.LASF14
 2155 00a7 04       		.byte	0x4
 2156 00a8 18       		.byte	0x18
 2157 00a9 33000000 		.4byte	0x33
 2158 00ad 03       		.uleb128 0x3
 2159 00ae E8050000 		.4byte	.LASF15
 2160 00b2 04       		.byte	0x4
 2161 00b3 20       		.byte	0x20
 2162 00b4 45000000 		.4byte	0x45
 2163 00b8 03       		.uleb128 0x3
 2164 00b9 830D0000 		.4byte	.LASF16
 2165 00bd 04       		.byte	0x4
 2166 00be 24       		.byte	0x24
 2167 00bf 50000000 		.4byte	0x50
 2168 00c3 03       		.uleb128 0x3
 2169 00c4 E2100000 		.4byte	.LASF17
 2170 00c8 04       		.byte	0x4
 2171 00c9 2C       		.byte	0x2c
 2172 00ca 62000000 		.4byte	0x62
 2173 00ce 03       		.uleb128 0x3
 2174 00cf 15050000 		.4byte	.LASF18
 2175 00d3 04       		.byte	0x4
 2176 00d4 30       		.byte	0x30
 2177 00d5 74000000 		.4byte	0x74
 2178 00d9 02       		.uleb128 0x2
 2179 00da 04       		.byte	0x4
 2180 00db 07       		.byte	0x7
 2181 00dc 1E0E0000 		.4byte	.LASF19
 2182 00e0 05       		.uleb128 0x5
 2183 00e1 CE000000 		.4byte	0xce
 2184 00e5 06       		.uleb128 0x6
ARM GAS  C:\Users\felha\AppData\Local\Temp\ccuk7kBX.s 			page 64


 2185 00e6 E0000000 		.4byte	0xe0
 2186 00ea 07       		.uleb128 0x7
 2187 00eb E5000000 		.4byte	0xe5
 2188 00ef FA000000 		.4byte	0xfa
 2189 00f3 08       		.uleb128 0x8
 2190 00f4 D9000000 		.4byte	0xd9
 2191 00f8 0F       		.byte	0xf
 2192 00f9 00       		.byte	0
 2193 00fa 09       		.uleb128 0x9
 2194 00fb 80       		.byte	0x80
 2195 00fc 05       		.byte	0x5
 2196 00fd 22       		.byte	0x22
 2197 00fe CE010000 		.4byte	0x1ce
 2198 0102 0A       		.uleb128 0xa
 2199 0103 4F555400 		.ascii	"OUT\000"
 2200 0107 05       		.byte	0x5
 2201 0108 23       		.byte	0x23
 2202 0109 E0000000 		.4byte	0xe0
 2203 010d 00       		.byte	0
 2204 010e 0B       		.uleb128 0xb
 2205 010f CA050000 		.4byte	.LASF20
 2206 0113 05       		.byte	0x5
 2207 0114 24       		.byte	0x24
 2208 0115 E0000000 		.4byte	0xe0
 2209 0119 04       		.byte	0x4
 2210 011a 0B       		.uleb128 0xb
 2211 011b 8E050000 		.4byte	.LASF21
 2212 011f 05       		.byte	0x5
 2213 0120 25       		.byte	0x25
 2214 0121 E0000000 		.4byte	0xe0
 2215 0125 08       		.byte	0x8
 2216 0126 0B       		.uleb128 0xb
 2217 0127 E60F0000 		.4byte	.LASF22
 2218 012b 05       		.byte	0x5
 2219 012c 26       		.byte	0x26
 2220 012d E0000000 		.4byte	0xe0
 2221 0131 0C       		.byte	0xc
 2222 0132 0A       		.uleb128 0xa
 2223 0133 494E00   		.ascii	"IN\000"
 2224 0136 05       		.byte	0x5
 2225 0137 27       		.byte	0x27
 2226 0138 E5000000 		.4byte	0xe5
 2227 013c 10       		.byte	0x10
 2228 013d 0B       		.uleb128 0xb
 2229 013e 6C0F0000 		.4byte	.LASF23
 2230 0142 05       		.byte	0x5
 2231 0143 28       		.byte	0x28
 2232 0144 E0000000 		.4byte	0xe0
 2233 0148 14       		.byte	0x14
 2234 0149 0B       		.uleb128 0xb
 2235 014a A4080000 		.4byte	.LASF24
 2236 014e 05       		.byte	0x5
 2237 014f 29       		.byte	0x29
 2238 0150 E0000000 		.4byte	0xe0
 2239 0154 18       		.byte	0x18
 2240 0155 0B       		.uleb128 0xb
 2241 0156 6C100000 		.4byte	.LASF25
ARM GAS  C:\Users\felha\AppData\Local\Temp\ccuk7kBX.s 			page 65


 2242 015a 05       		.byte	0x5
 2243 015b 2A       		.byte	0x2a
 2244 015c E5000000 		.4byte	0xe5
 2245 0160 1C       		.byte	0x1c
 2246 0161 0B       		.uleb128 0xb
 2247 0162 FE020000 		.4byte	.LASF26
 2248 0166 05       		.byte	0x5
 2249 0167 2B       		.byte	0x2b
 2250 0168 E0000000 		.4byte	0xe0
 2251 016c 20       		.byte	0x20
 2252 016d 0B       		.uleb128 0xb
 2253 016e 6E110000 		.4byte	.LASF27
 2254 0172 05       		.byte	0x5
 2255 0173 2C       		.byte	0x2c
 2256 0174 E0000000 		.4byte	0xe0
 2257 0178 24       		.byte	0x24
 2258 0179 0A       		.uleb128 0xa
 2259 017a 43464700 		.ascii	"CFG\000"
 2260 017e 05       		.byte	0x5
 2261 017f 2D       		.byte	0x2d
 2262 0180 E0000000 		.4byte	0xe0
 2263 0184 28       		.byte	0x28
 2264 0185 0B       		.uleb128 0xb
 2265 0186 BE040000 		.4byte	.LASF28
 2266 018a 05       		.byte	0x5
 2267 018b 2E       		.byte	0x2e
 2268 018c E0000000 		.4byte	0xe0
 2269 0190 2C       		.byte	0x2c
 2270 0191 0B       		.uleb128 0xb
 2271 0192 FC060000 		.4byte	.LASF29
 2272 0196 05       		.byte	0x5
 2273 0197 2F       		.byte	0x2f
 2274 0198 E0000000 		.4byte	0xe0
 2275 019c 30       		.byte	0x30
 2276 019d 0B       		.uleb128 0xb
 2277 019e F7100000 		.4byte	.LASF30
 2278 01a2 05       		.byte	0x5
 2279 01a3 30       		.byte	0x30
 2280 01a4 E0000000 		.4byte	0xe0
 2281 01a8 34       		.byte	0x34
 2282 01a9 0B       		.uleb128 0xb
 2283 01aa 14000000 		.4byte	.LASF31
 2284 01ae 05       		.byte	0x5
 2285 01af 31       		.byte	0x31
 2286 01b0 E5000000 		.4byte	0xe5
 2287 01b4 38       		.byte	0x38
 2288 01b5 0B       		.uleb128 0xb
 2289 01b6 B30F0000 		.4byte	.LASF32
 2290 01ba 05       		.byte	0x5
 2291 01bb 32       		.byte	0x32
 2292 01bc E0000000 		.4byte	0xe0
 2293 01c0 3C       		.byte	0x3c
 2294 01c1 0B       		.uleb128 0xb
 2295 01c2 D2050000 		.4byte	.LASF33
 2296 01c6 05       		.byte	0x5
 2297 01c7 33       		.byte	0x33
 2298 01c8 D3010000 		.4byte	0x1d3
ARM GAS  C:\Users\felha\AppData\Local\Temp\ccuk7kBX.s 			page 66


 2299 01cc 40       		.byte	0x40
 2300 01cd 00       		.byte	0
 2301 01ce 05       		.uleb128 0x5
 2302 01cf EA000000 		.4byte	0xea
 2303 01d3 06       		.uleb128 0x6
 2304 01d4 CE010000 		.4byte	0x1ce
 2305 01d8 03       		.uleb128 0x3
 2306 01d9 4D0F0000 		.4byte	.LASF34
 2307 01dd 05       		.byte	0x5
 2308 01de 34       		.byte	0x34
 2309 01df FA000000 		.4byte	0xfa
 2310 01e3 0C       		.uleb128 0xc
 2311 01e4 2440     		.2byte	0x4024
 2312 01e6 05       		.byte	0x5
 2313 01e7 39       		.byte	0x39
 2314 01e8 6E020000 		.4byte	0x26e
 2315 01ec 0A       		.uleb128 0xa
 2316 01ed 50525400 		.ascii	"PRT\000"
 2317 01f1 05       		.byte	0x5
 2318 01f2 3A       		.byte	0x3a
 2319 01f3 6E020000 		.4byte	0x26e
 2320 01f7 00       		.byte	0
 2321 01f8 0D       		.uleb128 0xd
 2322 01f9 1D000000 		.4byte	.LASF35
 2323 01fd 05       		.byte	0x5
 2324 01fe 3B       		.byte	0x3b
 2325 01ff E5000000 		.4byte	0xe5
 2326 0203 0040     		.2byte	0x4000
 2327 0205 0D       		.uleb128 0xd
 2328 0206 29000000 		.4byte	.LASF36
 2329 020a 05       		.byte	0x5
 2330 020b 3C       		.byte	0x3c
 2331 020c E5000000 		.4byte	0xe5
 2332 0210 0440     		.2byte	0x4004
 2333 0212 0D       		.uleb128 0xd
 2334 0213 35000000 		.4byte	.LASF37
 2335 0217 05       		.byte	0x5
 2336 0218 3D       		.byte	0x3d
 2337 0219 E5000000 		.4byte	0xe5
 2338 021d 0840     		.2byte	0x4008
 2339 021f 0D       		.uleb128 0xd
 2340 0220 1B0A0000 		.4byte	.LASF38
 2341 0224 05       		.byte	0x5
 2342 0225 3E       		.byte	0x3e
 2343 0226 E5000000 		.4byte	0xe5
 2344 022a 0C40     		.2byte	0x400c
 2345 022c 0D       		.uleb128 0xd
 2346 022d 50130000 		.4byte	.LASF39
 2347 0231 05       		.byte	0x5
 2348 0232 3F       		.byte	0x3f
 2349 0233 E5000000 		.4byte	0xe5
 2350 0237 1040     		.2byte	0x4010
 2351 0239 0D       		.uleb128 0xd
 2352 023a FC070000 		.4byte	.LASF40
 2353 023e 05       		.byte	0x5
 2354 023f 40       		.byte	0x40
 2355 0240 E0000000 		.4byte	0xe0
ARM GAS  C:\Users\felha\AppData\Local\Temp\ccuk7kBX.s 			page 67


 2356 0244 1440     		.2byte	0x4014
 2357 0246 0D       		.uleb128 0xd
 2358 0247 A1120000 		.4byte	.LASF41
 2359 024b 05       		.byte	0x5
 2360 024c 41       		.byte	0x41
 2361 024d E0000000 		.4byte	0xe0
 2362 0251 1840     		.2byte	0x4018
 2363 0253 0D       		.uleb128 0xd
 2364 0254 AA010000 		.4byte	.LASF42
 2365 0258 05       		.byte	0x5
 2366 0259 42       		.byte	0x42
 2367 025a E5000000 		.4byte	0xe5
 2368 025e 1C40     		.2byte	0x401c
 2369 0260 0D       		.uleb128 0xd
 2370 0261 950D0000 		.4byte	.LASF43
 2371 0265 05       		.byte	0x5
 2372 0266 43       		.byte	0x43
 2373 0267 E0000000 		.4byte	0xe0
 2374 026b 2040     		.2byte	0x4020
 2375 026d 00       		.byte	0
 2376 026e 07       		.uleb128 0x7
 2377 026f D8010000 		.4byte	0x1d8
 2378 0273 7E020000 		.4byte	0x27e
 2379 0277 08       		.uleb128 0x8
 2380 0278 D9000000 		.4byte	0xd9
 2381 027c 7F       		.byte	0x7f
 2382 027d 00       		.byte	0
 2383 027e 03       		.uleb128 0x3
 2384 027f 4C050000 		.4byte	.LASF44
 2385 0283 05       		.byte	0x5
 2386 0284 44       		.byte	0x44
 2387 0285 E3010000 		.4byte	0x1e3
 2388 0289 0E       		.uleb128 0xe
 2389 028a 7A080000 		.4byte	.LASF45
 2390 028e 06       		.byte	0x6
 2391 028f 3106     		.2byte	0x631
 2392 0291 D8010000 		.4byte	0x1d8
 2393 0295 0E       		.uleb128 0xe
 2394 0296 45110000 		.4byte	.LASF46
 2395 029a 06       		.byte	0x6
 2396 029b 3206     		.2byte	0x632
 2397 029d 7E020000 		.4byte	0x27e
 2398 02a1 02       		.uleb128 0x2
 2399 02a2 08       		.byte	0x8
 2400 02a3 04       		.byte	0x4
 2401 02a4 6F0D0000 		.4byte	.LASF47
 2402 02a8 09       		.uleb128 0x9
 2403 02a9 B8       		.byte	0xb8
 2404 02aa 07       		.byte	0x7
 2405 02ab 34       		.byte	0x34
 2406 02ac B9060000 		.4byte	0x6b9
 2407 02b0 0B       		.uleb128 0xb
 2408 02b1 4A020000 		.4byte	.LASF48
 2409 02b5 07       		.byte	0x7
 2410 02b6 37       		.byte	0x37
 2411 02b7 CE000000 		.4byte	0xce
 2412 02bb 00       		.byte	0
ARM GAS  C:\Users\felha\AppData\Local\Temp\ccuk7kBX.s 			page 68


 2413 02bc 0B       		.uleb128 0xb
 2414 02bd F5080000 		.4byte	.LASF49
 2415 02c1 07       		.byte	0x7
 2416 02c2 38       		.byte	0x38
 2417 02c3 CE000000 		.4byte	0xce
 2418 02c7 04       		.byte	0x4
 2419 02c8 0B       		.uleb128 0xb
 2420 02c9 44010000 		.4byte	.LASF50
 2421 02cd 07       		.byte	0x7
 2422 02ce 39       		.byte	0x39
 2423 02cf CE000000 		.4byte	0xce
 2424 02d3 08       		.byte	0x8
 2425 02d4 0B       		.uleb128 0xb
 2426 02d5 86060000 		.4byte	.LASF51
 2427 02d9 07       		.byte	0x7
 2428 02da 3A       		.byte	0x3a
 2429 02db CE000000 		.4byte	0xce
 2430 02df 0C       		.byte	0xc
 2431 02e0 0B       		.uleb128 0xb
 2432 02e1 8C0D0000 		.4byte	.LASF52
 2433 02e5 07       		.byte	0x7
 2434 02e6 3B       		.byte	0x3b
 2435 02e7 CE000000 		.4byte	0xce
 2436 02eb 10       		.byte	0x10
 2437 02ec 0B       		.uleb128 0xb
 2438 02ed 970B0000 		.4byte	.LASF53
 2439 02f1 07       		.byte	0x7
 2440 02f2 3C       		.byte	0x3c
 2441 02f3 CE000000 		.4byte	0xce
 2442 02f7 14       		.byte	0x14
 2443 02f8 0B       		.uleb128 0xb
 2444 02f9 05080000 		.4byte	.LASF54
 2445 02fd 07       		.byte	0x7
 2446 02fe 3D       		.byte	0x3d
 2447 02ff CE000000 		.4byte	0xce
 2448 0303 18       		.byte	0x18
 2449 0304 0B       		.uleb128 0xb
 2450 0305 99130000 		.4byte	.LASF55
 2451 0309 07       		.byte	0x7
 2452 030a 3E       		.byte	0x3e
 2453 030b CE000000 		.4byte	0xce
 2454 030f 1C       		.byte	0x1c
 2455 0310 0B       		.uleb128 0xb
 2456 0311 15070000 		.4byte	.LASF56
 2457 0315 07       		.byte	0x7
 2458 0316 3F       		.byte	0x3f
 2459 0317 CE000000 		.4byte	0xce
 2460 031b 20       		.byte	0x20
 2461 031c 0B       		.uleb128 0xb
 2462 031d AD0A0000 		.4byte	.LASF57
 2463 0321 07       		.byte	0x7
 2464 0322 40       		.byte	0x40
 2465 0323 CE000000 		.4byte	0xce
 2466 0327 24       		.byte	0x24
 2467 0328 0B       		.uleb128 0xb
 2468 0329 BF0E0000 		.4byte	.LASF58
 2469 032d 07       		.byte	0x7
ARM GAS  C:\Users\felha\AppData\Local\Temp\ccuk7kBX.s 			page 69


 2470 032e 43       		.byte	0x43
 2471 032f A2000000 		.4byte	0xa2
 2472 0333 28       		.byte	0x28
 2473 0334 0B       		.uleb128 0xb
 2474 0335 96050000 		.4byte	.LASF59
 2475 0339 07       		.byte	0x7
 2476 033a 44       		.byte	0x44
 2477 033b A2000000 		.4byte	0xa2
 2478 033f 29       		.byte	0x29
 2479 0340 0B       		.uleb128 0xb
 2480 0341 42080000 		.4byte	.LASF60
 2481 0345 07       		.byte	0x7
 2482 0346 45       		.byte	0x45
 2483 0347 A2000000 		.4byte	0xa2
 2484 034b 2A       		.byte	0x2a
 2485 034c 0B       		.uleb128 0xb
 2486 034d 0B0F0000 		.4byte	.LASF61
 2487 0351 07       		.byte	0x7
 2488 0352 46       		.byte	0x46
 2489 0353 A2000000 		.4byte	0xa2
 2490 0357 2B       		.byte	0x2b
 2491 0358 0B       		.uleb128 0xb
 2492 0359 F90E0000 		.4byte	.LASF62
 2493 035d 07       		.byte	0x7
 2494 035e 47       		.byte	0x47
 2495 035f A2000000 		.4byte	0xa2
 2496 0363 2C       		.byte	0x2c
 2497 0364 0B       		.uleb128 0xb
 2498 0365 9E100000 		.4byte	.LASF63
 2499 0369 07       		.byte	0x7
 2500 036a 48       		.byte	0x48
 2501 036b A2000000 		.4byte	0xa2
 2502 036f 2D       		.byte	0x2d
 2503 0370 0B       		.uleb128 0xb
 2504 0371 29140000 		.4byte	.LASF64
 2505 0375 07       		.byte	0x7
 2506 0376 49       		.byte	0x49
 2507 0377 A2000000 		.4byte	0xa2
 2508 037b 2E       		.byte	0x2e
 2509 037c 0B       		.uleb128 0xb
 2510 037d 6B130000 		.4byte	.LASF65
 2511 0381 07       		.byte	0x7
 2512 0382 4A       		.byte	0x4a
 2513 0383 A2000000 		.4byte	0xa2
 2514 0387 2F       		.byte	0x2f
 2515 0388 0B       		.uleb128 0xb
 2516 0389 5A040000 		.4byte	.LASF66
 2517 038d 07       		.byte	0x7
 2518 038e 4B       		.byte	0x4b
 2519 038f A2000000 		.4byte	0xa2
 2520 0393 30       		.byte	0x30
 2521 0394 0B       		.uleb128 0xb
 2522 0395 2F0C0000 		.4byte	.LASF67
 2523 0399 07       		.byte	0x7
 2524 039a 4E       		.byte	0x4e
 2525 039b A2000000 		.4byte	0xa2
 2526 039f 31       		.byte	0x31
ARM GAS  C:\Users\felha\AppData\Local\Temp\ccuk7kBX.s 			page 70


 2527 03a0 0B       		.uleb128 0xb
 2528 03a1 D9120000 		.4byte	.LASF68
 2529 03a5 07       		.byte	0x7
 2530 03a6 4F       		.byte	0x4f
 2531 03a7 A2000000 		.4byte	0xa2
 2532 03ab 32       		.byte	0x32
 2533 03ac 0B       		.uleb128 0xb
 2534 03ad E20B0000 		.4byte	.LASF69
 2535 03b1 07       		.byte	0x7
 2536 03b2 50       		.byte	0x50
 2537 03b3 A2000000 		.4byte	0xa2
 2538 03b7 33       		.byte	0x33
 2539 03b8 0B       		.uleb128 0xb
 2540 03b9 CF080000 		.4byte	.LASF70
 2541 03bd 07       		.byte	0x7
 2542 03be 51       		.byte	0x51
 2543 03bf A2000000 		.4byte	0xa2
 2544 03c3 34       		.byte	0x34
 2545 03c4 0B       		.uleb128 0xb
 2546 03c5 5B060000 		.4byte	.LASF71
 2547 03c9 07       		.byte	0x7
 2548 03ca 52       		.byte	0x52
 2549 03cb AD000000 		.4byte	0xad
 2550 03cf 36       		.byte	0x36
 2551 03d0 0B       		.uleb128 0xb
 2552 03d1 6C020000 		.4byte	.LASF72
 2553 03d5 07       		.byte	0x7
 2554 03d6 53       		.byte	0x53
 2555 03d7 AD000000 		.4byte	0xad
 2556 03db 38       		.byte	0x38
 2557 03dc 0B       		.uleb128 0xb
 2558 03dd C80B0000 		.4byte	.LASF73
 2559 03e1 07       		.byte	0x7
 2560 03e2 54       		.byte	0x54
 2561 03e3 AD000000 		.4byte	0xad
 2562 03e7 3A       		.byte	0x3a
 2563 03e8 0B       		.uleb128 0xb
 2564 03e9 BC130000 		.4byte	.LASF74
 2565 03ed 07       		.byte	0x7
 2566 03ee 55       		.byte	0x55
 2567 03ef A2000000 		.4byte	0xa2
 2568 03f3 3C       		.byte	0x3c
 2569 03f4 0B       		.uleb128 0xb
 2570 03f5 34030000 		.4byte	.LASF75
 2571 03f9 07       		.byte	0x7
 2572 03fa 56       		.byte	0x56
 2573 03fb A2000000 		.4byte	0xa2
 2574 03ff 3D       		.byte	0x3d
 2575 0400 0B       		.uleb128 0xb
 2576 0401 D60D0000 		.4byte	.LASF76
 2577 0405 07       		.byte	0x7
 2578 0406 57       		.byte	0x57
 2579 0407 A2000000 		.4byte	0xa2
 2580 040b 3E       		.byte	0x3e
 2581 040c 0B       		.uleb128 0xb
 2582 040d C9000000 		.4byte	.LASF77
 2583 0411 07       		.byte	0x7
ARM GAS  C:\Users\felha\AppData\Local\Temp\ccuk7kBX.s 			page 71


 2584 0412 58       		.byte	0x58
 2585 0413 A2000000 		.4byte	0xa2
 2586 0417 3F       		.byte	0x3f
 2587 0418 0B       		.uleb128 0xb
 2588 0419 00020000 		.4byte	.LASF78
 2589 041d 07       		.byte	0x7
 2590 041e 59       		.byte	0x59
 2591 041f A2000000 		.4byte	0xa2
 2592 0423 40       		.byte	0x40
 2593 0424 0B       		.uleb128 0xb
 2594 0425 3A100000 		.4byte	.LASF79
 2595 0429 07       		.byte	0x7
 2596 042a 5A       		.byte	0x5a
 2597 042b A2000000 		.4byte	0xa2
 2598 042f 41       		.byte	0x41
 2599 0430 0B       		.uleb128 0xb
 2600 0431 B2050000 		.4byte	.LASF80
 2601 0435 07       		.byte	0x7
 2602 0436 5B       		.byte	0x5b
 2603 0437 A2000000 		.4byte	0xa2
 2604 043b 42       		.byte	0x42
 2605 043c 0B       		.uleb128 0xb
 2606 043d 62080000 		.4byte	.LASF81
 2607 0441 07       		.byte	0x7
 2608 0442 5C       		.byte	0x5c
 2609 0443 A2000000 		.4byte	0xa2
 2610 0447 43       		.byte	0x43
 2611 0448 0B       		.uleb128 0xb
 2612 0449 2A090000 		.4byte	.LASF82
 2613 044d 07       		.byte	0x7
 2614 044e 5D       		.byte	0x5d
 2615 044f A2000000 		.4byte	0xa2
 2616 0453 44       		.byte	0x44
 2617 0454 0B       		.uleb128 0xb
 2618 0455 01120000 		.4byte	.LASF83
 2619 0459 07       		.byte	0x7
 2620 045a 5E       		.byte	0x5e
 2621 045b CE000000 		.4byte	0xce
 2622 045f 48       		.byte	0x48
 2623 0460 0B       		.uleb128 0xb
 2624 0461 07030000 		.4byte	.LASF84
 2625 0465 07       		.byte	0x7
 2626 0466 5F       		.byte	0x5f
 2627 0467 CE000000 		.4byte	0xce
 2628 046b 4C       		.byte	0x4c
 2629 046c 0B       		.uleb128 0xb
 2630 046d 13120000 		.4byte	.LASF85
 2631 0471 07       		.byte	0x7
 2632 0472 60       		.byte	0x60
 2633 0473 A2000000 		.4byte	0xa2
 2634 0477 50       		.byte	0x50
 2635 0478 0B       		.uleb128 0xb
 2636 0479 1A110000 		.4byte	.LASF86
 2637 047d 07       		.byte	0x7
 2638 047e 61       		.byte	0x61
 2639 047f A2000000 		.4byte	0xa2
 2640 0483 51       		.byte	0x51
ARM GAS  C:\Users\felha\AppData\Local\Temp\ccuk7kBX.s 			page 72


 2641 0484 0B       		.uleb128 0xb
 2642 0485 F20A0000 		.4byte	.LASF87
 2643 0489 07       		.byte	0x7
 2644 048a 62       		.byte	0x62
 2645 048b A2000000 		.4byte	0xa2
 2646 048f 52       		.byte	0x52
 2647 0490 0B       		.uleb128 0xb
 2648 0491 FC0C0000 		.4byte	.LASF88
 2649 0495 07       		.byte	0x7
 2650 0496 63       		.byte	0x63
 2651 0497 A2000000 		.4byte	0xa2
 2652 049b 53       		.byte	0x53
 2653 049c 0B       		.uleb128 0xb
 2654 049d A7110000 		.4byte	.LASF89
 2655 04a1 07       		.byte	0x7
 2656 04a2 64       		.byte	0x64
 2657 04a3 A2000000 		.4byte	0xa2
 2658 04a7 54       		.byte	0x54
 2659 04a8 0B       		.uleb128 0xb
 2660 04a9 C3110000 		.4byte	.LASF90
 2661 04ad 07       		.byte	0x7
 2662 04ae 65       		.byte	0x65
 2663 04af A2000000 		.4byte	0xa2
 2664 04b3 55       		.byte	0x55
 2665 04b4 0B       		.uleb128 0xb
 2666 04b5 00000000 		.4byte	.LASF91
 2667 04b9 07       		.byte	0x7
 2668 04ba 66       		.byte	0x66
 2669 04bb A2000000 		.4byte	0xa2
 2670 04bf 56       		.byte	0x56
 2671 04c0 0B       		.uleb128 0xb
 2672 04c1 0A0E0000 		.4byte	.LASF92
 2673 04c5 07       		.byte	0x7
 2674 04c6 67       		.byte	0x67
 2675 04c7 A2000000 		.4byte	0xa2
 2676 04cb 57       		.byte	0x57
 2677 04cc 0B       		.uleb128 0xb
 2678 04cd 1D070000 		.4byte	.LASF93
 2679 04d1 07       		.byte	0x7
 2680 04d2 68       		.byte	0x68
 2681 04d3 A2000000 		.4byte	0xa2
 2682 04d7 58       		.byte	0x58
 2683 04d8 0B       		.uleb128 0xb
 2684 04d9 F8130000 		.4byte	.LASF94
 2685 04dd 07       		.byte	0x7
 2686 04de 69       		.byte	0x69
 2687 04df A2000000 		.4byte	0xa2
 2688 04e3 59       		.byte	0x59
 2689 04e4 0B       		.uleb128 0xb
 2690 04e5 CE120000 		.4byte	.LASF95
 2691 04e9 07       		.byte	0x7
 2692 04ea 6E       		.byte	0x6e
 2693 04eb B8000000 		.4byte	0xb8
 2694 04ef 5A       		.byte	0x5a
 2695 04f0 0B       		.uleb128 0xb
 2696 04f1 71010000 		.4byte	.LASF96
 2697 04f5 07       		.byte	0x7
ARM GAS  C:\Users\felha\AppData\Local\Temp\ccuk7kBX.s 			page 73


 2698 04f6 6F       		.byte	0x6f
 2699 04f7 B8000000 		.4byte	0xb8
 2700 04fb 5C       		.byte	0x5c
 2701 04fc 0B       		.uleb128 0xb
 2702 04fd 900A0000 		.4byte	.LASF97
 2703 0501 07       		.byte	0x7
 2704 0502 70       		.byte	0x70
 2705 0503 A2000000 		.4byte	0xa2
 2706 0507 5E       		.byte	0x5e
 2707 0508 0B       		.uleb128 0xb
 2708 0509 03130000 		.4byte	.LASF98
 2709 050d 07       		.byte	0x7
 2710 050e 71       		.byte	0x71
 2711 050f A2000000 		.4byte	0xa2
 2712 0513 5F       		.byte	0x5f
 2713 0514 0B       		.uleb128 0xb
 2714 0515 88080000 		.4byte	.LASF99
 2715 0519 07       		.byte	0x7
 2716 051a 72       		.byte	0x72
 2717 051b A2000000 		.4byte	0xa2
 2718 051f 60       		.byte	0x60
 2719 0520 0B       		.uleb128 0xb
 2720 0521 C6090000 		.4byte	.LASF100
 2721 0525 07       		.byte	0x7
 2722 0526 73       		.byte	0x73
 2723 0527 CE000000 		.4byte	0xce
 2724 052b 64       		.byte	0x64
 2725 052c 0B       		.uleb128 0xb
 2726 052d 3D140000 		.4byte	.LASF101
 2727 0531 07       		.byte	0x7
 2728 0532 76       		.byte	0x76
 2729 0533 B8000000 		.4byte	0xb8
 2730 0537 68       		.byte	0x68
 2731 0538 0B       		.uleb128 0xb
 2732 0539 AA0D0000 		.4byte	.LASF102
 2733 053d 07       		.byte	0x7
 2734 053e 77       		.byte	0x77
 2735 053f B8000000 		.4byte	0xb8
 2736 0543 6A       		.byte	0x6a
 2737 0544 0B       		.uleb128 0xb
 2738 0545 B90B0000 		.4byte	.LASF103
 2739 0549 07       		.byte	0x7
 2740 054a 78       		.byte	0x78
 2741 054b B8000000 		.4byte	0xb8
 2742 054f 6C       		.byte	0x6c
 2743 0550 0B       		.uleb128 0xb
 2744 0551 DB020000 		.4byte	.LASF104
 2745 0555 07       		.byte	0x7
 2746 0556 79       		.byte	0x79
 2747 0557 B8000000 		.4byte	0xb8
 2748 055b 6E       		.byte	0x6e
 2749 055c 0B       		.uleb128 0xb
 2750 055d 070A0000 		.4byte	.LASF105
 2751 0561 07       		.byte	0x7
 2752 0562 7B       		.byte	0x7b
 2753 0563 A2000000 		.4byte	0xa2
 2754 0567 70       		.byte	0x70
ARM GAS  C:\Users\felha\AppData\Local\Temp\ccuk7kBX.s 			page 74


 2755 0568 0B       		.uleb128 0xb
 2756 0569 93040000 		.4byte	.LASF106
 2757 056d 07       		.byte	0x7
 2758 056e 7C       		.byte	0x7c
 2759 056f A2000000 		.4byte	0xa2
 2760 0573 71       		.byte	0x71
 2761 0574 0B       		.uleb128 0xb
 2762 0575 E8020000 		.4byte	.LASF107
 2763 0579 07       		.byte	0x7
 2764 057a 7D       		.byte	0x7d
 2765 057b A2000000 		.4byte	0xa2
 2766 057f 72       		.byte	0x72
 2767 0580 0B       		.uleb128 0xb
 2768 0581 0D020000 		.4byte	.LASF108
 2769 0585 07       		.byte	0x7
 2770 0586 7E       		.byte	0x7e
 2771 0587 A2000000 		.4byte	0xa2
 2772 058b 73       		.byte	0x73
 2773 058c 0B       		.uleb128 0xb
 2774 058d 650E0000 		.4byte	.LASF109
 2775 0591 07       		.byte	0x7
 2776 0592 80       		.byte	0x80
 2777 0593 B8000000 		.4byte	0xb8
 2778 0597 74       		.byte	0x74
 2779 0598 0B       		.uleb128 0xb
 2780 0599 0E0D0000 		.4byte	.LASF110
 2781 059d 07       		.byte	0x7
 2782 059e 81       		.byte	0x81
 2783 059f B8000000 		.4byte	0xb8
 2784 05a3 76       		.byte	0x76
 2785 05a4 0B       		.uleb128 0xb
 2786 05a5 2D0A0000 		.4byte	.LASF111
 2787 05a9 07       		.byte	0x7
 2788 05aa 82       		.byte	0x82
 2789 05ab B8000000 		.4byte	0xb8
 2790 05af 78       		.byte	0x78
 2791 05b0 0B       		.uleb128 0xb
 2792 05b1 1A060000 		.4byte	.LASF112
 2793 05b5 07       		.byte	0x7
 2794 05b6 83       		.byte	0x83
 2795 05b7 B8000000 		.4byte	0xb8
 2796 05bb 7A       		.byte	0x7a
 2797 05bc 0B       		.uleb128 0xb
 2798 05bd 25100000 		.4byte	.LASF113
 2799 05c1 07       		.byte	0x7
 2800 05c2 86       		.byte	0x86
 2801 05c3 A2000000 		.4byte	0xa2
 2802 05c7 7C       		.byte	0x7c
 2803 05c8 0B       		.uleb128 0xb
 2804 05c9 89120000 		.4byte	.LASF114
 2805 05cd 07       		.byte	0x7
 2806 05ce 87       		.byte	0x87
 2807 05cf A2000000 		.4byte	0xa2
 2808 05d3 7D       		.byte	0x7d
 2809 05d4 0B       		.uleb128 0xb
 2810 05d5 F0050000 		.4byte	.LASF115
 2811 05d9 07       		.byte	0x7
ARM GAS  C:\Users\felha\AppData\Local\Temp\ccuk7kBX.s 			page 75


 2812 05da 88       		.byte	0x88
 2813 05db A2000000 		.4byte	0xa2
 2814 05df 7E       		.byte	0x7e
 2815 05e0 0B       		.uleb128 0xb
 2816 05e1 59050000 		.4byte	.LASF116
 2817 05e5 07       		.byte	0x7
 2818 05e6 89       		.byte	0x89
 2819 05e7 A2000000 		.4byte	0xa2
 2820 05eb 7F       		.byte	0x7f
 2821 05ec 0B       		.uleb128 0xb
 2822 05ed 2F060000 		.4byte	.LASF117
 2823 05f1 07       		.byte	0x7
 2824 05f2 8A       		.byte	0x8a
 2825 05f3 A2000000 		.4byte	0xa2
 2826 05f7 80       		.byte	0x80
 2827 05f8 0B       		.uleb128 0xb
 2828 05f9 B2000000 		.4byte	.LASF118
 2829 05fd 07       		.byte	0x7
 2830 05fe 8D       		.byte	0x8d
 2831 05ff CE000000 		.4byte	0xce
 2832 0603 84       		.byte	0x84
 2833 0604 0B       		.uleb128 0xb
 2834 0605 55100000 		.4byte	.LASF119
 2835 0609 07       		.byte	0x7
 2836 060a 8E       		.byte	0x8e
 2837 060b CE000000 		.4byte	0xce
 2838 060f 88       		.byte	0x88
 2839 0610 0B       		.uleb128 0xb
 2840 0611 2B130000 		.4byte	.LASF120
 2841 0615 07       		.byte	0x7
 2842 0616 8F       		.byte	0x8f
 2843 0617 CE000000 		.4byte	0xce
 2844 061b 8C       		.byte	0x8c
 2845 061c 0B       		.uleb128 0xb
 2846 061d FF100000 		.4byte	.LASF121
 2847 0621 07       		.byte	0x7
 2848 0622 90       		.byte	0x90
 2849 0623 CE000000 		.4byte	0xce
 2850 0627 90       		.byte	0x90
 2851 0628 0B       		.uleb128 0xb
 2852 0629 EE0F0000 		.4byte	.LASF122
 2853 062d 07       		.byte	0x7
 2854 062e 91       		.byte	0x91
 2855 062f CE000000 		.4byte	0xce
 2856 0633 94       		.byte	0x94
 2857 0634 0B       		.uleb128 0xb
 2858 0635 A8040000 		.4byte	.LASF123
 2859 0639 07       		.byte	0x7
 2860 063a 92       		.byte	0x92
 2861 063b CE000000 		.4byte	0xce
 2862 063f 98       		.byte	0x98
 2863 0640 0B       		.uleb128 0xb
 2864 0641 88100000 		.4byte	.LASF124
 2865 0645 07       		.byte	0x7
 2866 0646 93       		.byte	0x93
 2867 0647 CE000000 		.4byte	0xce
 2868 064b 9C       		.byte	0x9c
ARM GAS  C:\Users\felha\AppData\Local\Temp\ccuk7kBX.s 			page 76


 2869 064c 0B       		.uleb128 0xb
 2870 064d 4C080000 		.4byte	.LASF125
 2871 0651 07       		.byte	0x7
 2872 0652 94       		.byte	0x94
 2873 0653 CE000000 		.4byte	0xce
 2874 0657 A0       		.byte	0xa0
 2875 0658 0B       		.uleb128 0xb
 2876 0659 5C010000 		.4byte	.LASF126
 2877 065d 07       		.byte	0x7
 2878 065e 95       		.byte	0x95
 2879 065f B8000000 		.4byte	0xb8
 2880 0663 A4       		.byte	0xa4
 2881 0664 0B       		.uleb128 0xb
 2882 0665 3F0E0000 		.4byte	.LASF127
 2883 0669 07       		.byte	0x7
 2884 066a 96       		.byte	0x96
 2885 066b B8000000 		.4byte	0xb8
 2886 066f A6       		.byte	0xa6
 2887 0670 0B       		.uleb128 0xb
 2888 0671 BD100000 		.4byte	.LASF128
 2889 0675 07       		.byte	0x7
 2890 0676 97       		.byte	0x97
 2891 0677 B8000000 		.4byte	0xb8
 2892 067b A8       		.byte	0xa8
 2893 067c 0B       		.uleb128 0xb
 2894 067d 570A0000 		.4byte	.LASF129
 2895 0681 07       		.byte	0x7
 2896 0682 98       		.byte	0x98
 2897 0683 B8000000 		.4byte	0xb8
 2898 0687 AA       		.byte	0xaa
 2899 0688 0B       		.uleb128 0xb
 2900 0689 15030000 		.4byte	.LASF130
 2901 068d 07       		.byte	0x7
 2902 068e 99       		.byte	0x99
 2903 068f B8000000 		.4byte	0xb8
 2904 0693 AC       		.byte	0xac
 2905 0694 0B       		.uleb128 0xb
 2906 0695 8E0C0000 		.4byte	.LASF131
 2907 0699 07       		.byte	0x7
 2908 069a 9A       		.byte	0x9a
 2909 069b B8000000 		.4byte	0xb8
 2910 069f AE       		.byte	0xae
 2911 06a0 0B       		.uleb128 0xb
 2912 06a1 3F030000 		.4byte	.LASF132
 2913 06a5 07       		.byte	0x7
 2914 06a6 9D       		.byte	0x9d
 2915 06a7 B8000000 		.4byte	0xb8
 2916 06ab B0       		.byte	0xb0
 2917 06ac 0B       		.uleb128 0xb
 2918 06ad 4F110000 		.4byte	.LASF133
 2919 06b1 07       		.byte	0x7
 2920 06b2 9E       		.byte	0x9e
 2921 06b3 CE000000 		.4byte	0xce
 2922 06b7 B4       		.byte	0xb4
 2923 06b8 00       		.byte	0
 2924 06b9 03       		.uleb128 0x3
 2925 06ba 40130000 		.4byte	.LASF134
ARM GAS  C:\Users\felha\AppData\Local\Temp\ccuk7kBX.s 			page 77


 2926 06be 07       		.byte	0x7
 2927 06bf 9F       		.byte	0x9f
 2928 06c0 A8020000 		.4byte	0x2a8
 2929 06c4 0E       		.uleb128 0xe
 2930 06c5 710F0000 		.4byte	.LASF135
 2931 06c9 08       		.byte	0x8
 2932 06ca F601     		.2byte	0x1f6
 2933 06cc D0060000 		.4byte	0x6d0
 2934 06d0 02       		.uleb128 0x2
 2935 06d1 01       		.byte	0x1
 2936 06d2 08       		.byte	0x8
 2937 06d3 00090000 		.4byte	.LASF136
 2938 06d7 02       		.uleb128 0x2
 2939 06d8 04       		.byte	0x4
 2940 06d9 04       		.byte	0x4
 2941 06da C9100000 		.4byte	.LASF137
 2942 06de 02       		.uleb128 0x2
 2943 06df 08       		.byte	0x8
 2944 06e0 04       		.byte	0x4
 2945 06e1 92130000 		.4byte	.LASF138
 2946 06e5 0E       		.uleb128 0xe
 2947 06e6 8C130000 		.4byte	.LASF139
 2948 06ea 08       		.byte	0x8
 2949 06eb EA03     		.2byte	0x3ea
 2950 06ed A2000000 		.4byte	0xa2
 2951 06f1 0F       		.uleb128 0xf
 2952 06f2 04       		.byte	0x4
 2953 06f3 02       		.uleb128 0x2
 2954 06f4 01       		.byte	0x1
 2955 06f5 02       		.byte	0x2
 2956 06f6 B3070000 		.4byte	.LASF140
 2957 06fa 10       		.uleb128 0x10
 2958 06fb 01       		.byte	0x1
 2959 06fc 3E000000 		.4byte	0x3e
 2960 0700 09       		.byte	0x9
 2961 0701 2402     		.2byte	0x224
 2962 0703 14070000 		.4byte	0x714
 2963 0707 11       		.uleb128 0x11
 2964 0708 92020000 		.4byte	.LASF141
 2965 070c 00       		.byte	0
 2966 070d 11       		.uleb128 0x11
 2967 070e 4D030000 		.4byte	.LASF142
 2968 0712 01       		.byte	0x1
 2969 0713 00       		.byte	0
 2970 0714 0E       		.uleb128 0xe
 2971 0715 C3020000 		.4byte	.LASF143
 2972 0719 09       		.byte	0x9
 2973 071a 2702     		.2byte	0x227
 2974 071c FA060000 		.4byte	0x6fa
 2975 0720 0E       		.uleb128 0xe
 2976 0721 C7010000 		.4byte	.LASF144
 2977 0725 09       		.byte	0x9
 2978 0726 3902     		.2byte	0x239
 2979 0728 2C070000 		.4byte	0x72c
 2980 072c 12       		.uleb128 0x12
 2981 072d 04       		.byte	0x4
 2982 072e 32070000 		.4byte	0x732
ARM GAS  C:\Users\felha\AppData\Local\Temp\ccuk7kBX.s 			page 78


 2983 0732 13       		.uleb128 0x13
 2984 0733 3D070000 		.4byte	0x73d
 2985 0737 14       		.uleb128 0x14
 2986 0738 CE000000 		.4byte	0xce
 2987 073c 00       		.byte	0
 2988 073d 0E       		.uleb128 0xe
 2989 073e 62030000 		.4byte	.LASF145
 2990 0742 09       		.byte	0x9
 2991 0743 4402     		.2byte	0x244
 2992 0745 49070000 		.4byte	0x749
 2993 0749 12       		.uleb128 0x12
 2994 074a 04       		.byte	0x4
 2995 074b 4F070000 		.4byte	0x74f
 2996 074f 15       		.uleb128 0x15
 2997 0750 14070000 		.4byte	0x714
 2998 0754 5E070000 		.4byte	0x75e
 2999 0758 14       		.uleb128 0x14
 3000 0759 CE000000 		.4byte	0xce
 3001 075d 00       		.byte	0
 3002 075e 16       		.uleb128 0x16
 3003 075f 66040000 		.4byte	.LASF169
 3004 0763 4C       		.byte	0x4c
 3005 0764 09       		.byte	0x9
 3006 0765 C302     		.2byte	0x2c3
 3007 0767 7D080000 		.4byte	0x87d
 3008 076b 17       		.uleb128 0x17
 3009 076c E7070000 		.4byte	.LASF146
 3010 0770 09       		.byte	0x9
 3011 0771 C602     		.2byte	0x2c6
 3012 0773 F3060000 		.4byte	0x6f3
 3013 0777 00       		.byte	0
 3014 0778 17       		.uleb128 0x17
 3015 0779 2D0B0000 		.4byte	.LASF147
 3016 077d 09       		.byte	0x9
 3017 077e C702     		.2byte	0x2c7
 3018 0780 F3060000 		.4byte	0x6f3
 3019 0784 01       		.byte	0x1
 3020 0785 17       		.uleb128 0x17
 3021 0786 D7110000 		.4byte	.LASF148
 3022 078a 09       		.byte	0x9
 3023 078b C902     		.2byte	0x2c9
 3024 078d E0000000 		.4byte	0xe0
 3025 0791 04       		.byte	0x4
 3026 0792 17       		.uleb128 0x17
 3027 0793 D5000000 		.4byte	.LASF149
 3028 0797 09       		.byte	0x9
 3029 0798 CB02     		.2byte	0x2cb
 3030 079a E0000000 		.4byte	0xe0
 3031 079e 08       		.byte	0x8
 3032 079f 17       		.uleb128 0x17
 3033 07a0 B10C0000 		.4byte	.LASF150
 3034 07a4 09       		.byte	0x9
 3035 07a5 CC02     		.2byte	0x2cc
 3036 07a7 F3060000 		.4byte	0x6f3
 3037 07ab 0C       		.byte	0xc
 3038 07ac 17       		.uleb128 0x17
 3039 07ad A10B0000 		.4byte	.LASF151
ARM GAS  C:\Users\felha\AppData\Local\Temp\ccuk7kBX.s 			page 79


 3040 07b1 09       		.byte	0x9
 3041 07b2 CD02     		.2byte	0x2cd
 3042 07b4 F3060000 		.4byte	0x6f3
 3043 07b8 0D       		.byte	0xd
 3044 07b9 17       		.uleb128 0x17
 3045 07ba BC0D0000 		.4byte	.LASF152
 3046 07be 09       		.byte	0x9
 3047 07bf CF02     		.2byte	0x2cf
 3048 07c1 7D080000 		.4byte	0x87d
 3049 07c5 10       		.byte	0x10
 3050 07c6 17       		.uleb128 0x17
 3051 07c7 3B090000 		.4byte	.LASF153
 3052 07cb 09       		.byte	0x9
 3053 07cc D002     		.2byte	0x2d0
 3054 07ce CE000000 		.4byte	0xce
 3055 07d2 14       		.byte	0x14
 3056 07d3 17       		.uleb128 0x17
 3057 07d4 E5010000 		.4byte	.LASF154
 3058 07d8 09       		.byte	0x9
 3059 07d9 D102     		.2byte	0x2d1
 3060 07db E0000000 		.4byte	0xe0
 3061 07df 18       		.byte	0x18
 3062 07e0 17       		.uleb128 0x17
 3063 07e1 C0080000 		.4byte	.LASF155
 3064 07e5 09       		.byte	0x9
 3065 07e6 D202     		.2byte	0x2d2
 3066 07e8 E0000000 		.4byte	0xe0
 3067 07ec 1C       		.byte	0x1c
 3068 07ed 17       		.uleb128 0x17
 3069 07ee 87010000 		.4byte	.LASF156
 3070 07f2 09       		.byte	0x9
 3071 07f3 D402     		.2byte	0x2d4
 3072 07f5 E0000000 		.4byte	0xe0
 3073 07f9 20       		.byte	0x20
 3074 07fa 17       		.uleb128 0x17
 3075 07fb AB060000 		.4byte	.LASF157
 3076 07ff 09       		.byte	0x9
 3077 0800 D502     		.2byte	0x2d5
 3078 0802 83080000 		.4byte	0x883
 3079 0806 24       		.byte	0x24
 3080 0807 17       		.uleb128 0x17
 3081 0808 D4040000 		.4byte	.LASF158
 3082 080c 09       		.byte	0x9
 3083 080d D702     		.2byte	0x2d7
 3084 080f 7D080000 		.4byte	0x87d
 3085 0813 28       		.byte	0x28
 3086 0814 17       		.uleb128 0x17
 3087 0815 8E060000 		.4byte	.LASF159
 3088 0819 09       		.byte	0x9
 3089 081a D802     		.2byte	0x2d8
 3090 081c CE000000 		.4byte	0xce
 3091 0820 2C       		.byte	0x2c
 3092 0821 17       		.uleb128 0x17
 3093 0822 F1040000 		.4byte	.LASF160
 3094 0826 09       		.byte	0x9
 3095 0827 D902     		.2byte	0x2d9
 3096 0829 E0000000 		.4byte	0xe0
ARM GAS  C:\Users\felha\AppData\Local\Temp\ccuk7kBX.s 			page 80


 3097 082d 30       		.byte	0x30
 3098 082e 17       		.uleb128 0x17
 3099 082f F6090000 		.4byte	.LASF161
 3100 0833 09       		.byte	0x9
 3101 0834 DA02     		.2byte	0x2da
 3102 0836 E0000000 		.4byte	0xe0
 3103 083a 34       		.byte	0x34
 3104 083b 17       		.uleb128 0x17
 3105 083c 54020000 		.4byte	.LASF162
 3106 0840 09       		.byte	0x9
 3107 0841 DC02     		.2byte	0x2dc
 3108 0843 7D080000 		.4byte	0x87d
 3109 0847 38       		.byte	0x38
 3110 0848 17       		.uleb128 0x17
 3111 0849 210D0000 		.4byte	.LASF163
 3112 084d 09       		.byte	0x9
 3113 084e DD02     		.2byte	0x2dd
 3114 0850 CE000000 		.4byte	0xce
 3115 0854 3C       		.byte	0x3c
 3116 0855 17       		.uleb128 0x17
 3117 0856 6D0C0000 		.4byte	.LASF164
 3118 085a 09       		.byte	0x9
 3119 085b DE02     		.2byte	0x2de
 3120 085d E0000000 		.4byte	0xe0
 3121 0861 40       		.byte	0x40
 3122 0862 17       		.uleb128 0x17
 3123 0863 73070000 		.4byte	.LASF165
 3124 0867 09       		.byte	0x9
 3125 0868 E402     		.2byte	0x2e4
 3126 086a 20070000 		.4byte	0x720
 3127 086e 44       		.byte	0x44
 3128 086f 17       		.uleb128 0x17
 3129 0870 8B020000 		.4byte	.LASF166
 3130 0874 09       		.byte	0x9
 3131 0875 EB02     		.2byte	0x2eb
 3132 0877 3D070000 		.4byte	0x73d
 3133 087b 48       		.byte	0x48
 3134 087c 00       		.byte	0
 3135 087d 12       		.uleb128 0x12
 3136 087e 04       		.byte	0x4
 3137 087f A2000000 		.4byte	0xa2
 3138 0883 05       		.uleb128 0x5
 3139 0884 F3060000 		.4byte	0x6f3
 3140 0888 0E       		.uleb128 0xe
 3141 0889 D2130000 		.4byte	.LASF167
 3142 088d 09       		.byte	0x9
 3143 088e EE02     		.2byte	0x2ee
 3144 0890 5E070000 		.4byte	0x75e
 3145 0894 0E       		.uleb128 0xe
 3146 0895 41000000 		.4byte	.LASF168
 3147 0899 0A       		.byte	0xa
 3148 089a F201     		.2byte	0x1f2
 3149 089c 2C070000 		.4byte	0x72c
 3150 08a0 16       		.uleb128 0x16
 3151 08a1 90110000 		.4byte	.LASF170
 3152 08a5 24       		.byte	0x24
 3153 08a6 0A       		.byte	0xa
ARM GAS  C:\Users\felha\AppData\Local\Temp\ccuk7kBX.s 			page 81


 3154 08a7 7402     		.2byte	0x274
 3155 08a9 23090000 		.4byte	0x923
 3156 08ad 17       		.uleb128 0x17
 3157 08ae DF090000 		.4byte	.LASF171
 3158 08b2 0A       		.byte	0xa
 3159 08b3 7702     		.2byte	0x277
 3160 08b5 E0000000 		.4byte	0xe0
 3161 08b9 00       		.byte	0
 3162 08ba 17       		.uleb128 0x17
 3163 08bb 0F070000 		.4byte	.LASF172
 3164 08bf 0A       		.byte	0xa
 3165 08c0 7902     		.2byte	0x279
 3166 08c2 F1060000 		.4byte	0x6f1
 3167 08c6 04       		.byte	0x4
 3168 08c7 17       		.uleb128 0x17
 3169 08c8 4D140000 		.4byte	.LASF173
 3170 08cc 0A       		.byte	0xa
 3171 08cd 7A02     		.2byte	0x27a
 3172 08cf CE000000 		.4byte	0xce
 3173 08d3 08       		.byte	0x8
 3174 08d4 17       		.uleb128 0x17
 3175 08d5 98090000 		.4byte	.LASF174
 3176 08d9 0A       		.byte	0xa
 3177 08da 7B02     		.2byte	0x27b
 3178 08dc E0000000 		.4byte	0xe0
 3179 08e0 0C       		.byte	0xc
 3180 08e1 17       		.uleb128 0x17
 3181 08e2 DE0C0000 		.4byte	.LASF175
 3182 08e6 0A       		.byte	0xa
 3183 08e7 7D02     		.2byte	0x27d
 3184 08e9 F1060000 		.4byte	0x6f1
 3185 08ed 10       		.byte	0x10
 3186 08ee 17       		.uleb128 0x17
 3187 08ef 250C0000 		.4byte	.LASF176
 3188 08f3 0A       		.byte	0xa
 3189 08f4 7E02     		.2byte	0x27e
 3190 08f6 CE000000 		.4byte	0xce
 3191 08fa 14       		.byte	0x14
 3192 08fb 17       		.uleb128 0x17
 3193 08fc 24020000 		.4byte	.LASF177
 3194 0900 0A       		.byte	0xa
 3195 0901 7F02     		.2byte	0x27f
 3196 0903 E0000000 		.4byte	0xe0
 3197 0907 18       		.byte	0x18
 3198 0908 17       		.uleb128 0x17
 3199 0909 73070000 		.4byte	.LASF165
 3200 090d 0A       		.byte	0xa
 3201 090e 8502     		.2byte	0x285
 3202 0910 94080000 		.4byte	0x894
 3203 0914 1C       		.byte	0x1c
 3204 0915 17       		.uleb128 0x17
 3205 0916 77130000 		.4byte	.LASF178
 3206 091a 0A       		.byte	0xa
 3207 091b 8802     		.2byte	0x288
 3208 091d CE000000 		.4byte	0xce
 3209 0921 20       		.byte	0x20
 3210 0922 00       		.byte	0
ARM GAS  C:\Users\felha\AppData\Local\Temp\ccuk7kBX.s 			page 82


 3211 0923 0E       		.uleb128 0xe
 3212 0924 370B0000 		.4byte	.LASF179
 3213 0928 0A       		.byte	0xa
 3214 0929 8B02     		.2byte	0x28b
 3215 092b A0080000 		.4byte	0x8a0
 3216 092f 18       		.uleb128 0x18
 3217 0930 E7120000 		.4byte	.LASF180
 3218 0934 4C       		.byte	0x4c
 3219 0935 0B       		.byte	0xb
 3220 0936 2F       		.byte	0x2f
 3221 0937 200A0000 		.4byte	0xa20
 3222 093b 0B       		.uleb128 0xb
 3223 093c BB120000 		.4byte	.LASF181
 3224 0940 0B       		.byte	0xb
 3225 0941 31       		.byte	0x31
 3226 0942 CE000000 		.4byte	0xce
 3227 0946 00       		.byte	0
 3228 0947 0B       		.uleb128 0xb
 3229 0948 4C090000 		.4byte	.LASF182
 3230 094c 0B       		.byte	0xb
 3231 094d 33       		.byte	0x33
 3232 094e CE000000 		.4byte	0xce
 3233 0952 04       		.byte	0x4
 3234 0953 0B       		.uleb128 0xb
 3235 0954 A20D0000 		.4byte	.LASF183
 3236 0958 0B       		.byte	0xb
 3237 0959 34       		.byte	0x34
 3238 095a CE000000 		.4byte	0xce
 3239 095e 08       		.byte	0x8
 3240 095f 0B       		.uleb128 0xb
 3241 0960 3E0F0000 		.4byte	.LASF184
 3242 0964 0B       		.byte	0xb
 3243 0965 35       		.byte	0x35
 3244 0966 CE000000 		.4byte	0xce
 3245 096a 0C       		.byte	0xc
 3246 096b 0B       		.uleb128 0xb
 3247 096c 540E0000 		.4byte	.LASF185
 3248 0970 0B       		.byte	0xb
 3249 0971 37       		.byte	0x37
 3250 0972 CE000000 		.4byte	0xce
 3251 0976 10       		.byte	0x10
 3252 0977 0B       		.uleb128 0xb
 3253 0978 7E030000 		.4byte	.LASF186
 3254 097c 0B       		.byte	0xb
 3255 097d 38       		.byte	0x38
 3256 097e CE000000 		.4byte	0xce
 3257 0982 14       		.byte	0x14
 3258 0983 0B       		.uleb128 0xb
 3259 0984 87030000 		.4byte	.LASF187
 3260 0988 0B       		.byte	0xb
 3261 0989 39       		.byte	0x39
 3262 098a CE000000 		.4byte	0xce
 3263 098e 18       		.byte	0x18
 3264 098f 0B       		.uleb128 0xb
 3265 0990 9E0E0000 		.4byte	.LASF188
 3266 0994 0B       		.byte	0xb
 3267 0995 3A       		.byte	0x3a
ARM GAS  C:\Users\felha\AppData\Local\Temp\ccuk7kBX.s 			page 83


 3268 0996 F3060000 		.4byte	0x6f3
 3269 099a 1C       		.byte	0x1c
 3270 099b 0B       		.uleb128 0xb
 3271 099c 8D0E0000 		.4byte	.LASF189
 3272 09a0 0B       		.byte	0xb
 3273 09a1 3C       		.byte	0x3c
 3274 09a2 CE000000 		.4byte	0xce
 3275 09a6 20       		.byte	0x20
 3276 09a7 0B       		.uleb128 0xb
 3277 09a8 E5060000 		.4byte	.LASF190
 3278 09ac 0B       		.byte	0xb
 3279 09ad 3D       		.byte	0x3d
 3280 09ae CE000000 		.4byte	0xce
 3281 09b2 24       		.byte	0x24
 3282 09b3 0B       		.uleb128 0xb
 3283 09b4 EA100000 		.4byte	.LASF191
 3284 09b8 0B       		.byte	0xb
 3285 09b9 3F       		.byte	0x3f
 3286 09ba CE000000 		.4byte	0xce
 3287 09be 28       		.byte	0x28
 3288 09bf 0B       		.uleb128 0xb
 3289 09c0 EE0B0000 		.4byte	.LASF192
 3290 09c4 0B       		.byte	0xb
 3291 09c5 40       		.byte	0x40
 3292 09c6 CE000000 		.4byte	0xce
 3293 09ca 2C       		.byte	0x2c
 3294 09cb 0B       		.uleb128 0xb
 3295 09cc DC050000 		.4byte	.LASF193
 3296 09d0 0B       		.byte	0xb
 3297 09d1 42       		.byte	0x42
 3298 09d2 CE000000 		.4byte	0xce
 3299 09d6 30       		.byte	0x30
 3300 09d7 0B       		.uleb128 0xb
 3301 09d8 D6060000 		.4byte	.LASF194
 3302 09dc 0B       		.byte	0xb
 3303 09dd 43       		.byte	0x43
 3304 09de CE000000 		.4byte	0xce
 3305 09e2 34       		.byte	0x34
 3306 09e3 0B       		.uleb128 0xb
 3307 09e4 35020000 		.4byte	.LASF195
 3308 09e8 0B       		.byte	0xb
 3309 09e9 45       		.byte	0x45
 3310 09ea CE000000 		.4byte	0xce
 3311 09ee 38       		.byte	0x38
 3312 09ef 0B       		.uleb128 0xb
 3313 09f0 88000000 		.4byte	.LASF196
 3314 09f4 0B       		.byte	0xb
 3315 09f5 46       		.byte	0x46
 3316 09f6 CE000000 		.4byte	0xce
 3317 09fa 3C       		.byte	0x3c
 3318 09fb 0B       		.uleb128 0xb
 3319 09fc A1020000 		.4byte	.LASF197
 3320 0a00 0B       		.byte	0xb
 3321 0a01 48       		.byte	0x48
 3322 0a02 CE000000 		.4byte	0xce
 3323 0a06 40       		.byte	0x40
 3324 0a07 0B       		.uleb128 0xb
ARM GAS  C:\Users\felha\AppData\Local\Temp\ccuk7kBX.s 			page 84


 3325 0a08 EA0E0000 		.4byte	.LASF198
 3326 0a0c 0B       		.byte	0xb
 3327 0a0d 49       		.byte	0x49
 3328 0a0e CE000000 		.4byte	0xce
 3329 0a12 44       		.byte	0x44
 3330 0a13 0B       		.uleb128 0xb
 3331 0a14 63110000 		.4byte	.LASF199
 3332 0a18 0B       		.byte	0xb
 3333 0a19 4B       		.byte	0x4b
 3334 0a1a CE000000 		.4byte	0xce
 3335 0a1e 48       		.byte	0x48
 3336 0a1f 00       		.byte	0
 3337 0a20 03       		.uleb128 0x3
 3338 0a21 E40D0000 		.4byte	.LASF200
 3339 0a25 0B       		.byte	0xb
 3340 0a26 4C       		.byte	0x4c
 3341 0a27 2F090000 		.4byte	0x92f
 3342 0a2b 12       		.uleb128 0x12
 3343 0a2c 04       		.byte	0x4
 3344 0a2d 89020000 		.4byte	0x289
 3345 0a31 12       		.uleb128 0x12
 3346 0a32 04       		.byte	0x4
 3347 0a33 370A0000 		.4byte	0xa37
 3348 0a37 19       		.uleb128 0x19
 3349 0a38 03       		.uleb128 0x3
 3350 0a39 F10C0000 		.4byte	.LASF201
 3351 0a3d 0C       		.byte	0xc
 3352 0a3e 3F       		.byte	0x3f
 3353 0a3f CE000000 		.4byte	0xce
 3354 0a43 12       		.uleb128 0x12
 3355 0a44 04       		.byte	0x4
 3356 0a45 490A0000 		.4byte	0xa49
 3357 0a49 06       		.uleb128 0x6
 3358 0a4a D0060000 		.4byte	0x6d0
 3359 0a4e 12       		.uleb128 0x12
 3360 0a4f 04       		.byte	0x4
 3361 0a50 540A0000 		.4byte	0xa54
 3362 0a54 06       		.uleb128 0x6
 3363 0a55 3E000000 		.4byte	0x3e
 3364 0a59 09       		.uleb128 0x9
 3365 0a5a 04       		.byte	0x4
 3366 0a5b 0D       		.byte	0xd
 3367 0a5c B6       		.byte	0xb6
 3368 0a5d 780A0000 		.4byte	0xa78
 3369 0a61 0A       		.uleb128 0xa
 3370 0a62 633000   		.ascii	"c0\000"
 3371 0a65 0D       		.byte	0xd
 3372 0a66 B7       		.byte	0xb7
 3373 0a67 25000000 		.4byte	0x25
 3374 0a6b 00       		.byte	0
 3375 0a6c 0A       		.uleb128 0xa
 3376 0a6d 633100   		.ascii	"c1\000"
 3377 0a70 0D       		.byte	0xd
 3378 0a71 B8       		.byte	0xb8
 3379 0a72 25000000 		.4byte	0x25
 3380 0a76 02       		.byte	0x2
 3381 0a77 00       		.byte	0
ARM GAS  C:\Users\felha\AppData\Local\Temp\ccuk7kBX.s 			page 85


 3382 0a78 03       		.uleb128 0x3
 3383 0a79 CF100000 		.4byte	.LASF202
 3384 0a7d 0D       		.byte	0xd
 3385 0a7e B9       		.byte	0xb9
 3386 0a7f 590A0000 		.4byte	0xa59
 3387 0a83 09       		.uleb128 0x9
 3388 0a84 08       		.byte	0x8
 3389 0a85 0D       		.byte	0xd
 3390 0a86 BB       		.byte	0xbb
 3391 0a87 B00A0000 		.4byte	0xab0
 3392 0a8b 0B       		.uleb128 0xb
 3393 0a8c E0080000 		.4byte	.LASF203
 3394 0a90 0D       		.byte	0xd
 3395 0a91 BC       		.byte	0xbc
 3396 0a92 5B000000 		.4byte	0x5b
 3397 0a96 00       		.byte	0
 3398 0a97 0B       		.uleb128 0xb
 3399 0a98 190F0000 		.4byte	.LASF204
 3400 0a9c 0D       		.byte	0xd
 3401 0a9d BD       		.byte	0xbd
 3402 0a9e 5B000000 		.4byte	0x5b
 3403 0aa2 02       		.byte	0x2
 3404 0aa3 0B       		.uleb128 0xb
 3405 0aa4 A4010000 		.4byte	.LASF205
 3406 0aa8 0D       		.byte	0xd
 3407 0aa9 BE       		.byte	0xbe
 3408 0aaa B00A0000 		.4byte	0xab0
 3409 0aae 04       		.byte	0x4
 3410 0aaf 00       		.byte	0
 3411 0ab0 12       		.uleb128 0x12
 3412 0ab1 04       		.byte	0x4
 3413 0ab2 B60A0000 		.4byte	0xab6
 3414 0ab6 06       		.uleb128 0x6
 3415 0ab7 780A0000 		.4byte	0xa78
 3416 0abb 03       		.uleb128 0x3
 3417 0abc 02050000 		.4byte	.LASF206
 3418 0ac0 0D       		.byte	0xd
 3419 0ac1 BF       		.byte	0xbf
 3420 0ac2 830A0000 		.4byte	0xa83
 3421 0ac6 09       		.uleb128 0x9
 3422 0ac7 08       		.byte	0x8
 3423 0ac8 0D       		.byte	0xd
 3424 0ac9 C1       		.byte	0xc1
 3425 0aca FF0A0000 		.4byte	0xaff
 3426 0ace 0B       		.uleb128 0xb
 3427 0acf 1E130000 		.4byte	.LASF207
 3428 0ad3 0D       		.byte	0xd
 3429 0ad4 C2       		.byte	0xc2
 3430 0ad5 3E000000 		.4byte	0x3e
 3431 0ad9 00       		.byte	0
 3432 0ada 0B       		.uleb128 0xb
 3433 0adb 14110000 		.4byte	.LASF208
 3434 0adf 0D       		.byte	0xd
 3435 0ae0 C3       		.byte	0xc3
 3436 0ae1 3E000000 		.4byte	0x3e
 3437 0ae5 01       		.byte	0x1
 3438 0ae6 0B       		.uleb128 0xb
ARM GAS  C:\Users\felha\AppData\Local\Temp\ccuk7kBX.s 			page 86


 3439 0ae7 E50A0000 		.4byte	.LASF209
 3440 0aeb 0D       		.byte	0xd
 3441 0aec C4       		.byte	0xc4
 3442 0aed 3E000000 		.4byte	0x3e
 3443 0af1 02       		.byte	0x2
 3444 0af2 0B       		.uleb128 0xb
 3445 0af3 5C030000 		.4byte	.LASF210
 3446 0af7 0D       		.byte	0xd
 3447 0af8 C5       		.byte	0xc5
 3448 0af9 4E0A0000 		.4byte	0xa4e
 3449 0afd 04       		.byte	0x4
 3450 0afe 00       		.byte	0
 3451 0aff 03       		.uleb128 0x3
 3452 0b00 A2130000 		.4byte	.LASF211
 3453 0b04 0D       		.byte	0xd
 3454 0b05 C6       		.byte	0xc6
 3455 0b06 C60A0000 		.4byte	0xac6
 3456 0b0a 09       		.uleb128 0x9
 3457 0b0b 0C       		.byte	0xc
 3458 0b0c 0D       		.byte	0xd
 3459 0b0d C8       		.byte	0xc8
 3460 0b0e 5B0B0000 		.4byte	0xb5b
 3461 0b12 0B       		.uleb128 0xb
 3462 0b13 1E130000 		.4byte	.LASF207
 3463 0b17 0D       		.byte	0xd
 3464 0b18 C9       		.byte	0xc9
 3465 0b19 3E000000 		.4byte	0x3e
 3466 0b1d 00       		.byte	0
 3467 0b1e 0B       		.uleb128 0xb
 3468 0b1f 440C0000 		.4byte	.LASF212
 3469 0b23 0D       		.byte	0xd
 3470 0b24 CA       		.byte	0xca
 3471 0b25 3E000000 		.4byte	0x3e
 3472 0b29 01       		.byte	0x1
 3473 0b2a 0B       		.uleb128 0xb
 3474 0b2b F1090000 		.4byte	.LASF213
 3475 0b2f 0D       		.byte	0xd
 3476 0b30 CB       		.byte	0xcb
 3477 0b31 2C000000 		.4byte	0x2c
 3478 0b35 02       		.byte	0x2
 3479 0b36 0B       		.uleb128 0xb
 3480 0b37 18010000 		.4byte	.LASF214
 3481 0b3b 0D       		.byte	0xd
 3482 0b3c CC       		.byte	0xcc
 3483 0b3d 2C000000 		.4byte	0x2c
 3484 0b41 03       		.byte	0x3
 3485 0b42 0B       		.uleb128 0xb
 3486 0b43 14110000 		.4byte	.LASF208
 3487 0b47 0D       		.byte	0xd
 3488 0b48 CD       		.byte	0xcd
 3489 0b49 3E000000 		.4byte	0x3e
 3490 0b4d 04       		.byte	0x4
 3491 0b4e 0B       		.uleb128 0xb
 3492 0b4f 5C030000 		.4byte	.LASF210
 3493 0b53 0D       		.byte	0xd
 3494 0b54 CE       		.byte	0xce
 3495 0b55 4E0A0000 		.4byte	0xa4e
ARM GAS  C:\Users\felha\AppData\Local\Temp\ccuk7kBX.s 			page 87


 3496 0b59 08       		.byte	0x8
 3497 0b5a 00       		.byte	0
 3498 0b5b 03       		.uleb128 0x3
 3499 0b5c 68060000 		.4byte	.LASF215
 3500 0b60 0D       		.byte	0xd
 3501 0b61 CF       		.byte	0xcf
 3502 0b62 0A0B0000 		.4byte	0xb0a
 3503 0b66 18       		.uleb128 0x18
 3504 0b67 6D050000 		.4byte	.LASF216
 3505 0b6b 0C       		.byte	0xc
 3506 0b6c 0D       		.byte	0xd
 3507 0b6d D1       		.byte	0xd1
 3508 0b6e A30B0000 		.4byte	0xba3
 3509 0b72 0B       		.uleb128 0xb
 3510 0b73 82000000 		.4byte	.LASF217
 3511 0b77 0D       		.byte	0xd
 3512 0b78 D2       		.byte	0xd2
 3513 0b79 5B000000 		.4byte	0x5b
 3514 0b7d 00       		.byte	0
 3515 0b7e 0B       		.uleb128 0xb
 3516 0b7f DD0B0000 		.4byte	.LASF218
 3517 0b83 0D       		.byte	0xd
 3518 0b84 D3       		.byte	0xd3
 3519 0b85 5B000000 		.4byte	0x5b
 3520 0b89 02       		.byte	0x2
 3521 0b8a 0B       		.uleb128 0xb
 3522 0b8b E6090000 		.4byte	.LASF219
 3523 0b8f 0D       		.byte	0xd
 3524 0b90 D4       		.byte	0xd4
 3525 0b91 A30B0000 		.4byte	0xba3
 3526 0b95 04       		.byte	0x4
 3527 0b96 0B       		.uleb128 0xb
 3528 0b97 0C140000 		.4byte	.LASF220
 3529 0b9b 0D       		.byte	0xd
 3530 0b9c D5       		.byte	0xd5
 3531 0b9d AE0B0000 		.4byte	0xbae
 3532 0ba1 08       		.byte	0x8
 3533 0ba2 00       		.byte	0
 3534 0ba3 12       		.uleb128 0x12
 3535 0ba4 04       		.byte	0x4
 3536 0ba5 A90B0000 		.4byte	0xba9
 3537 0ba9 06       		.uleb128 0x6
 3538 0baa FF0A0000 		.4byte	0xaff
 3539 0bae 12       		.uleb128 0x12
 3540 0baf 04       		.byte	0x4
 3541 0bb0 B40B0000 		.4byte	0xbb4
 3542 0bb4 06       		.uleb128 0x6
 3543 0bb5 660B0000 		.4byte	0xb66
 3544 0bb9 03       		.uleb128 0x3
 3545 0bba 6D050000 		.4byte	.LASF216
 3546 0bbe 0D       		.byte	0xd
 3547 0bbf D6       		.byte	0xd6
 3548 0bc0 660B0000 		.4byte	0xb66
 3549 0bc4 18       		.uleb128 0x18
 3550 0bc5 06010000 		.4byte	.LASF221
 3551 0bc9 0C       		.byte	0xc
 3552 0bca 0D       		.byte	0xd
ARM GAS  C:\Users\felha\AppData\Local\Temp\ccuk7kBX.s 			page 88


 3553 0bcb D8       		.byte	0xd8
 3554 0bcc 010C0000 		.4byte	0xc01
 3555 0bd0 0B       		.uleb128 0xb
 3556 0bd1 82000000 		.4byte	.LASF217
 3557 0bd5 0D       		.byte	0xd
 3558 0bd6 D9       		.byte	0xd9
 3559 0bd7 5B000000 		.4byte	0x5b
 3560 0bdb 00       		.byte	0
 3561 0bdc 0B       		.uleb128 0xb
 3562 0bdd DD0B0000 		.4byte	.LASF218
 3563 0be1 0D       		.byte	0xd
 3564 0be2 DA       		.byte	0xda
 3565 0be3 5B000000 		.4byte	0x5b
 3566 0be7 02       		.byte	0x2
 3567 0be8 0B       		.uleb128 0xb
 3568 0be9 E6090000 		.4byte	.LASF219
 3569 0bed 0D       		.byte	0xd
 3570 0bee DB       		.byte	0xdb
 3571 0bef 010C0000 		.4byte	0xc01
 3572 0bf3 04       		.byte	0x4
 3573 0bf4 0B       		.uleb128 0xb
 3574 0bf5 0C140000 		.4byte	.LASF220
 3575 0bf9 0D       		.byte	0xd
 3576 0bfa DC       		.byte	0xdc
 3577 0bfb 0C0C0000 		.4byte	0xc0c
 3578 0bff 08       		.byte	0x8
 3579 0c00 00       		.byte	0
 3580 0c01 12       		.uleb128 0x12
 3581 0c02 04       		.byte	0x4
 3582 0c03 070C0000 		.4byte	0xc07
 3583 0c07 06       		.uleb128 0x6
 3584 0c08 5B0B0000 		.4byte	0xb5b
 3585 0c0c 12       		.uleb128 0x12
 3586 0c0d 04       		.byte	0x4
 3587 0c0e 120C0000 		.4byte	0xc12
 3588 0c12 06       		.uleb128 0x6
 3589 0c13 C40B0000 		.4byte	0xbc4
 3590 0c17 03       		.uleb128 0x3
 3591 0c18 06010000 		.4byte	.LASF221
 3592 0c1c 0D       		.byte	0xd
 3593 0c1d DD       		.byte	0xdd
 3594 0c1e C40B0000 		.4byte	0xbc4
 3595 0c22 09       		.uleb128 0x9
 3596 0c23 14       		.byte	0x14
 3597 0c24 0D       		.byte	0xd
 3598 0c25 DF       		.byte	0xdf
 3599 0c26 8B0C0000 		.4byte	0xc8b
 3600 0c2a 0B       		.uleb128 0xb
 3601 0c2b 5C030000 		.4byte	.LASF210
 3602 0c2f 0D       		.byte	0xd
 3603 0c30 E0       		.byte	0xe0
 3604 0c31 4E0A0000 		.4byte	0xa4e
 3605 0c35 00       		.byte	0
 3606 0c36 0B       		.uleb128 0xb
 3607 0c37 A0060000 		.4byte	.LASF222
 3608 0c3b 0D       		.byte	0xd
 3609 0c3c E1       		.byte	0xe1
ARM GAS  C:\Users\felha\AppData\Local\Temp\ccuk7kBX.s 			page 89


 3610 0c3d 4E0A0000 		.4byte	0xa4e
 3611 0c41 04       		.byte	0x4
 3612 0c42 0B       		.uleb128 0xb
 3613 0c43 330D0000 		.4byte	.LASF223
 3614 0c47 0D       		.byte	0xd
 3615 0c48 E2       		.byte	0xe2
 3616 0c49 8B0C0000 		.4byte	0xc8b
 3617 0c4d 08       		.byte	0x8
 3618 0c4e 0B       		.uleb128 0xb
 3619 0c4f E0080000 		.4byte	.LASF203
 3620 0c53 0D       		.byte	0xd
 3621 0c54 E3       		.byte	0xe3
 3622 0c55 5B000000 		.4byte	0x5b
 3623 0c59 0C       		.byte	0xc
 3624 0c5a 0B       		.uleb128 0xb
 3625 0c5b 190F0000 		.4byte	.LASF204
 3626 0c5f 0D       		.byte	0xd
 3627 0c60 E4       		.byte	0xe4
 3628 0c61 5B000000 		.4byte	0x5b
 3629 0c65 0E       		.byte	0xe
 3630 0c66 0B       		.uleb128 0xb
 3631 0c67 1E130000 		.4byte	.LASF207
 3632 0c6b 0D       		.byte	0xd
 3633 0c6c E5       		.byte	0xe5
 3634 0c6d 3E000000 		.4byte	0x3e
 3635 0c71 10       		.byte	0x10
 3636 0c72 0B       		.uleb128 0xb
 3637 0c73 14110000 		.4byte	.LASF208
 3638 0c77 0D       		.byte	0xd
 3639 0c78 E6       		.byte	0xe6
 3640 0c79 3E000000 		.4byte	0x3e
 3641 0c7d 11       		.byte	0x11
 3642 0c7e 0B       		.uleb128 0xb
 3643 0c7f E50A0000 		.4byte	.LASF209
 3644 0c83 0D       		.byte	0xd
 3645 0c84 E7       		.byte	0xe7
 3646 0c85 3E000000 		.4byte	0x3e
 3647 0c89 12       		.byte	0x12
 3648 0c8a 00       		.byte	0
 3649 0c8b 12       		.uleb128 0x12
 3650 0c8c 04       		.byte	0x4
 3651 0c8d 910C0000 		.4byte	0xc91
 3652 0c91 06       		.uleb128 0x6
 3653 0c92 BB0A0000 		.4byte	0xabb
 3654 0c96 03       		.uleb128 0x3
 3655 0c97 A4050000 		.4byte	.LASF224
 3656 0c9b 0D       		.byte	0xd
 3657 0c9c E8       		.byte	0xe8
 3658 0c9d 220C0000 		.4byte	0xc22
 3659 0ca1 09       		.uleb128 0x9
 3660 0ca2 06       		.byte	0x6
 3661 0ca3 0D       		.byte	0xd
 3662 0ca4 F1       		.byte	0xf1
 3663 0ca5 DA0C0000 		.4byte	0xcda
 3664 0ca9 0B       		.uleb128 0xb
 3665 0caa 88050000 		.4byte	.LASF225
 3666 0cae 0D       		.byte	0xd
ARM GAS  C:\Users\felha\AppData\Local\Temp\ccuk7kBX.s 			page 90


 3667 0caf F2       		.byte	0xf2
 3668 0cb0 5B000000 		.4byte	0x5b
 3669 0cb4 00       		.byte	0
 3670 0cb5 0B       		.uleb128 0xb
 3671 0cb6 BB060000 		.4byte	.LASF226
 3672 0cba 0D       		.byte	0xd
 3673 0cbb F3       		.byte	0xf3
 3674 0cbc 3E000000 		.4byte	0x3e
 3675 0cc0 02       		.byte	0x2
 3676 0cc1 0B       		.uleb128 0xb
 3677 0cc2 020E0000 		.4byte	.LASF227
 3678 0cc6 0D       		.byte	0xd
 3679 0cc7 F4       		.byte	0xf4
 3680 0cc8 3E000000 		.4byte	0x3e
 3681 0ccc 03       		.byte	0x3
 3682 0ccd 0B       		.uleb128 0xb
 3683 0cce 4A0C0000 		.4byte	.LASF228
 3684 0cd2 0D       		.byte	0xd
 3685 0cd3 F5       		.byte	0xf5
 3686 0cd4 3E000000 		.4byte	0x3e
 3687 0cd8 04       		.byte	0x4
 3688 0cd9 00       		.byte	0
 3689 0cda 03       		.uleb128 0x3
 3690 0cdb 1E050000 		.4byte	.LASF229
 3691 0cdf 0D       		.byte	0xd
 3692 0ce0 F6       		.byte	0xf6
 3693 0ce1 A10C0000 		.4byte	0xca1
 3694 0ce5 0E       		.uleb128 0xe
 3695 0ce6 4A0D0000 		.4byte	.LASF230
 3696 0cea 0D       		.byte	0xd
 3697 0ceb 1301     		.2byte	0x113
 3698 0ced F10C0000 		.4byte	0xcf1
 3699 0cf1 15       		.uleb128 0x15
 3700 0cf2 94000000 		.4byte	0x94
 3701 0cf6 050D0000 		.4byte	0xd05
 3702 0cfa 14       		.uleb128 0x14
 3703 0cfb 430A0000 		.4byte	0xa43
 3704 0cff 14       		.uleb128 0x14
 3705 0d00 94000000 		.4byte	0x94
 3706 0d04 00       		.byte	0
 3707 0d05 0E       		.uleb128 0xe
 3708 0d06 78100000 		.4byte	.LASF231
 3709 0d0a 0D       		.byte	0xd
 3710 0d0b 1401     		.2byte	0x114
 3711 0d0d F10C0000 		.4byte	0xcf1
 3712 0d11 0E       		.uleb128 0xe
 3713 0d12 8A0B0000 		.4byte	.LASF232
 3714 0d16 0D       		.byte	0xd
 3715 0d17 1501     		.2byte	0x115
 3716 0d19 1D0D0000 		.4byte	0xd1d
 3717 0d1d 13       		.uleb128 0x13
 3718 0d1e 2D0D0000 		.4byte	0xd2d
 3719 0d22 14       		.uleb128 0x14
 3720 0d23 430A0000 		.4byte	0xa43
 3721 0d27 14       		.uleb128 0x14
 3722 0d28 94000000 		.4byte	0x94
 3723 0d2c 00       		.byte	0
ARM GAS  C:\Users\felha\AppData\Local\Temp\ccuk7kBX.s 			page 91


 3724 0d2d 1A       		.uleb128 0x1a
 3725 0d2e 0C       		.byte	0xc
 3726 0d2f 0D       		.byte	0xd
 3727 0d30 1701     		.2byte	0x117
 3728 0d32 5E0D0000 		.4byte	0xd5e
 3729 0d36 17       		.uleb128 0x17
 3730 0d37 0E080000 		.4byte	.LASF233
 3731 0d3b 0D       		.byte	0xd
 3732 0d3c 1801     		.2byte	0x118
 3733 0d3e 5E0D0000 		.4byte	0xd5e
 3734 0d42 00       		.byte	0
 3735 0d43 17       		.uleb128 0x17
 3736 0d44 180C0000 		.4byte	.LASF234
 3737 0d48 0D       		.byte	0xd
 3738 0d49 1901     		.2byte	0x119
 3739 0d4b 640D0000 		.4byte	0xd64
 3740 0d4f 04       		.byte	0x4
 3741 0d50 17       		.uleb128 0x17
 3742 0d51 1A100000 		.4byte	.LASF235
 3743 0d55 0D       		.byte	0xd
 3744 0d56 1A01     		.2byte	0x11a
 3745 0d58 6A0D0000 		.4byte	0xd6a
 3746 0d5c 08       		.byte	0x8
 3747 0d5d 00       		.byte	0
 3748 0d5e 12       		.uleb128 0x12
 3749 0d5f 04       		.byte	0x4
 3750 0d60 E50C0000 		.4byte	0xce5
 3751 0d64 12       		.uleb128 0x12
 3752 0d65 04       		.byte	0x4
 3753 0d66 050D0000 		.4byte	0xd05
 3754 0d6a 12       		.uleb128 0x12
 3755 0d6b 04       		.byte	0x4
 3756 0d6c 110D0000 		.4byte	0xd11
 3757 0d70 0E       		.uleb128 0xe
 3758 0d71 5F000000 		.4byte	.LASF236
 3759 0d75 0D       		.byte	0xd
 3760 0d76 1B01     		.2byte	0x11b
 3761 0d78 2D0D0000 		.4byte	0xd2d
 3762 0d7c 0E       		.uleb128 0xe
 3763 0d7d 5B090000 		.4byte	.LASF237
 3764 0d81 0D       		.byte	0xd
 3765 0d82 2401     		.2byte	0x124
 3766 0d84 880D0000 		.4byte	0xd88
 3767 0d88 16       		.uleb128 0x16
 3768 0d89 5B090000 		.4byte	.LASF237
 3769 0d8d 24       		.byte	0x24
 3770 0d8e 0D       		.byte	0xd
 3771 0d8f B101     		.2byte	0x1b1
 3772 0d91 4A0E0000 		.4byte	0xe4a
 3773 0d95 17       		.uleb128 0x17
 3774 0d96 68070000 		.4byte	.LASF238
 3775 0d9a 0D       		.byte	0xd
 3776 0d9b B201     		.2byte	0x1b2
 3777 0d9d 550F0000 		.4byte	0xf55
 3778 0da1 00       		.byte	0
 3779 0da2 17       		.uleb128 0x17
 3780 0da3 4D010000 		.4byte	.LASF239
ARM GAS  C:\Users\felha\AppData\Local\Temp\ccuk7kBX.s 			page 92


 3781 0da7 0D       		.byte	0xd
 3782 0da8 B301     		.2byte	0x1b3
 3783 0daa 5B0F0000 		.4byte	0xf5b
 3784 0dae 04       		.byte	0x4
 3785 0daf 17       		.uleb128 0x17
 3786 0db0 9F0A0000 		.4byte	.LASF240
 3787 0db4 0D       		.byte	0xd
 3788 0db5 B401     		.2byte	0x1b4
 3789 0db7 610F0000 		.4byte	0xf61
 3790 0dbb 08       		.byte	0x8
 3791 0dbc 17       		.uleb128 0x17
 3792 0dbd F1070000 		.4byte	.LASF241
 3793 0dc1 0D       		.byte	0xd
 3794 0dc2 B501     		.2byte	0x1b5
 3795 0dc4 670F0000 		.4byte	0xf67
 3796 0dc8 0C       		.byte	0xc
 3797 0dc9 17       		.uleb128 0x17
 3798 0dca C8070000 		.4byte	.LASF242
 3799 0dce 0D       		.byte	0xd
 3800 0dcf B601     		.2byte	0x1b6
 3801 0dd1 6D0F0000 		.4byte	0xf6d
 3802 0dd5 10       		.byte	0x10
 3803 0dd6 17       		.uleb128 0x17
 3804 0dd7 230B0000 		.4byte	.LASF243
 3805 0ddb 0D       		.byte	0xd
 3806 0ddc B701     		.2byte	0x1b7
 3807 0dde 730F0000 		.4byte	0xf73
 3808 0de2 14       		.byte	0x14
 3809 0de3 17       		.uleb128 0x17
 3810 0de4 440C0000 		.4byte	.LASF212
 3811 0de8 0D       		.byte	0xd
 3812 0de9 B801     		.2byte	0x1b8
 3813 0deb 3E000000 		.4byte	0x3e
 3814 0def 18       		.byte	0x18
 3815 0df0 17       		.uleb128 0x17
 3816 0df1 270A0000 		.4byte	.LASF244
 3817 0df5 0D       		.byte	0xd
 3818 0df6 B901     		.2byte	0x1b9
 3819 0df8 3E000000 		.4byte	0x3e
 3820 0dfc 19       		.byte	0x19
 3821 0dfd 17       		.uleb128 0x17
 3822 0dfe C3070000 		.4byte	.LASF245
 3823 0e02 0D       		.byte	0xd
 3824 0e03 BA01     		.2byte	0x1ba
 3825 0e05 3E000000 		.4byte	0x3e
 3826 0e09 1A       		.byte	0x1a
 3827 0e0a 17       		.uleb128 0x17
 3828 0e0b 19130000 		.4byte	.LASF246
 3829 0e0f 0D       		.byte	0xd
 3830 0e10 BB01     		.2byte	0x1bb
 3831 0e12 3E000000 		.4byte	0x3e
 3832 0e16 1B       		.byte	0x1b
 3833 0e17 1B       		.uleb128 0x1b
 3834 0e18 7000     		.ascii	"p\000"
 3835 0e1a 0D       		.byte	0xd
 3836 0e1b C101     		.2byte	0x1c1
 3837 0e1d FA0E0000 		.4byte	0xefa
ARM GAS  C:\Users\felha\AppData\Local\Temp\ccuk7kBX.s 			page 93


 3838 0e21 1C       		.byte	0x1c
 3839 0e22 17       		.uleb128 0x17
 3840 0e23 BB060000 		.4byte	.LASF226
 3841 0e27 0D       		.byte	0xd
 3842 0e28 C201     		.2byte	0x1c2
 3843 0e2a 3E000000 		.4byte	0x3e
 3844 0e2e 20       		.byte	0x20
 3845 0e2f 17       		.uleb128 0x17
 3846 0e30 020E0000 		.4byte	.LASF227
 3847 0e34 0D       		.byte	0xd
 3848 0e35 C301     		.2byte	0x1c3
 3849 0e37 3E000000 		.4byte	0x3e
 3850 0e3b 21       		.byte	0x21
 3851 0e3c 17       		.uleb128 0x17
 3852 0e3d 4A0C0000 		.4byte	.LASF228
 3853 0e41 0D       		.byte	0xd
 3854 0e42 C401     		.2byte	0x1c4
 3855 0e44 3E000000 		.4byte	0x3e
 3856 0e48 22       		.byte	0x22
 3857 0e49 00       		.byte	0
 3858 0e4a 0E       		.uleb128 0xe
 3859 0e4b 6D080000 		.4byte	.LASF247
 3860 0e4f 0D       		.byte	0xd
 3861 0e50 2601     		.2byte	0x126
 3862 0e52 560E0000 		.4byte	0xe56
 3863 0e56 13       		.uleb128 0x13
 3864 0e57 610E0000 		.4byte	0xe61
 3865 0e5b 14       		.uleb128 0x14
 3866 0e5c 5B000000 		.4byte	0x5b
 3867 0e60 00       		.byte	0
 3868 0e61 0E       		.uleb128 0xe
 3869 0e62 D40A0000 		.4byte	.LASF248
 3870 0e66 0D       		.byte	0xd
 3871 0e67 2701     		.2byte	0x127
 3872 0e69 6D0E0000 		.4byte	0xe6d
 3873 0e6d 15       		.uleb128 0x15
 3874 0e6e 94000000 		.4byte	0x94
 3875 0e72 810E0000 		.4byte	0xe81
 3876 0e76 14       		.uleb128 0x14
 3877 0e77 5B000000 		.4byte	0x5b
 3878 0e7b 14       		.uleb128 0x14
 3879 0e7c 810E0000 		.4byte	0xe81
 3880 0e80 00       		.byte	0
 3881 0e81 12       		.uleb128 0x12
 3882 0e82 04       		.byte	0x4
 3883 0e83 94000000 		.4byte	0x94
 3884 0e87 0E       		.uleb128 0xe
 3885 0e88 49070000 		.4byte	.LASF249
 3886 0e8c 0D       		.byte	0xd
 3887 0e8d 2801     		.2byte	0x128
 3888 0e8f 930E0000 		.4byte	0xe93
 3889 0e93 13       		.uleb128 0x13
 3890 0e94 A30E0000 		.4byte	0xea3
 3891 0e98 14       		.uleb128 0x14
 3892 0e99 A30E0000 		.4byte	0xea3
 3893 0e9d 14       		.uleb128 0x14
 3894 0e9e AE0E0000 		.4byte	0xeae
ARM GAS  C:\Users\felha\AppData\Local\Temp\ccuk7kBX.s 			page 94


 3895 0ea2 00       		.byte	0
 3896 0ea3 12       		.uleb128 0x12
 3897 0ea4 04       		.byte	0x4
 3898 0ea5 A90E0000 		.4byte	0xea9
 3899 0ea9 06       		.uleb128 0x6
 3900 0eaa 7C0D0000 		.4byte	0xd7c
 3901 0eae 12       		.uleb128 0x12
 3902 0eaf 04       		.byte	0x4
 3903 0eb0 DA0C0000 		.4byte	0xcda
 3904 0eb4 0E       		.uleb128 0xe
 3905 0eb5 AF130000 		.4byte	.LASF250
 3906 0eb9 0D       		.byte	0xd
 3907 0eba 2901     		.2byte	0x129
 3908 0ebc C00E0000 		.4byte	0xec0
 3909 0ec0 15       		.uleb128 0x15
 3910 0ec1 D0060000 		.4byte	0x6d0
 3911 0ec5 D40E0000 		.4byte	0xed4
 3912 0ec9 14       		.uleb128 0x14
 3913 0eca A30E0000 		.4byte	0xea3
 3914 0ece 14       		.uleb128 0x14
 3915 0ecf 5B000000 		.4byte	0x5b
 3916 0ed3 00       		.byte	0
 3917 0ed4 0E       		.uleb128 0xe
 3918 0ed5 7E0C0000 		.4byte	.LASF251
 3919 0ed9 0D       		.byte	0xd
 3920 0eda 2A01     		.2byte	0x12a
 3921 0edc E00E0000 		.4byte	0xee0
 3922 0ee0 15       		.uleb128 0x15
 3923 0ee1 94000000 		.4byte	0x94
 3924 0ee5 F40E0000 		.4byte	0xef4
 3925 0ee9 14       		.uleb128 0x14
 3926 0eea 5B000000 		.4byte	0x5b
 3927 0eee 14       		.uleb128 0x14
 3928 0eef F40E0000 		.4byte	0xef4
 3929 0ef3 00       		.byte	0
 3930 0ef4 12       		.uleb128 0x12
 3931 0ef5 04       		.byte	0x4
 3932 0ef6 5B0B0000 		.4byte	0xb5b
 3933 0efa 1C       		.uleb128 0x1c
 3934 0efb 04       		.byte	0x4
 3935 0efc 0D       		.byte	0xd
 3936 0efd BC01     		.2byte	0x1bc
 3937 0eff 340F0000 		.4byte	0xf34
 3938 0f03 1D       		.uleb128 0x1d
 3939 0f04 62020000 		.4byte	.LASF252
 3940 0f08 0D       		.byte	0xd
 3941 0f09 BD01     		.2byte	0x1bd
 3942 0f0b 310A0000 		.4byte	0xa31
 3943 0f0f 1D       		.uleb128 0x1d
 3944 0f10 050F0000 		.4byte	.LASF253
 3945 0f14 0D       		.byte	0xd
 3946 0f15 BE01     		.2byte	0x1be
 3947 0f17 340F0000 		.4byte	0xf34
 3948 0f1b 1D       		.uleb128 0x1d
 3949 0f1c B00E0000 		.4byte	.LASF254
 3950 0f20 0D       		.byte	0xd
 3951 0f21 BF01     		.2byte	0x1bf
ARM GAS  C:\Users\felha\AppData\Local\Temp\ccuk7kBX.s 			page 95


 3952 0f23 3F0F0000 		.4byte	0xf3f
 3953 0f27 1D       		.uleb128 0x1d
 3954 0f28 34140000 		.4byte	.LASF255
 3955 0f2c 0D       		.byte	0xd
 3956 0f2d C001     		.2byte	0x1c0
 3957 0f2f 4A0F0000 		.4byte	0xf4a
 3958 0f33 00       		.byte	0
 3959 0f34 12       		.uleb128 0x12
 3960 0f35 04       		.byte	0x4
 3961 0f36 3A0F0000 		.4byte	0xf3a
 3962 0f3a 06       		.uleb128 0x6
 3963 0f3b 960C0000 		.4byte	0xc96
 3964 0f3f 12       		.uleb128 0x12
 3965 0f40 04       		.byte	0x4
 3966 0f41 450F0000 		.4byte	0xf45
 3967 0f45 06       		.uleb128 0x6
 3968 0f46 B90B0000 		.4byte	0xbb9
 3969 0f4a 12       		.uleb128 0x12
 3970 0f4b 04       		.byte	0x4
 3971 0f4c 500F0000 		.4byte	0xf50
 3972 0f50 06       		.uleb128 0x6
 3973 0f51 170C0000 		.4byte	0xc17
 3974 0f55 12       		.uleb128 0x12
 3975 0f56 04       		.byte	0x4
 3976 0f57 4A0E0000 		.4byte	0xe4a
 3977 0f5b 12       		.uleb128 0x12
 3978 0f5c 04       		.byte	0x4
 3979 0f5d 610E0000 		.4byte	0xe61
 3980 0f61 12       		.uleb128 0x12
 3981 0f62 04       		.byte	0x4
 3982 0f63 870E0000 		.4byte	0xe87
 3983 0f67 12       		.uleb128 0x12
 3984 0f68 04       		.byte	0x4
 3985 0f69 B40E0000 		.4byte	0xeb4
 3986 0f6d 12       		.uleb128 0x12
 3987 0f6e 04       		.byte	0x4
 3988 0f6f D40E0000 		.4byte	0xed4
 3989 0f73 12       		.uleb128 0x12
 3990 0f74 04       		.byte	0x4
 3991 0f75 790F0000 		.4byte	0xf79
 3992 0f79 06       		.uleb128 0x6
 3993 0f7a 700D0000 		.4byte	0xd70
 3994 0f7e 03       		.uleb128 0x3
 3995 0f7f 9C0C0000 		.4byte	.LASF256
 3996 0f83 0E       		.byte	0xe
 3997 0f84 35       		.byte	0x35
 3998 0f85 3E000000 		.4byte	0x3e
 3999 0f89 03       		.uleb128 0x3
 4000 0f8a 5B130000 		.4byte	.LASF257
 4001 0f8e 0F       		.byte	0xf
 4002 0f8f 69       		.byte	0x69
 4003 0f90 7E0F0000 		.4byte	0xf7e
 4004 0f94 1E       		.uleb128 0x1e
 4005 0f95 01       		.byte	0x1
 4006 0f96 3E000000 		.4byte	0x3e
 4007 0f9a 0F       		.byte	0xf
 4008 0f9b 6E       		.byte	0x6e
ARM GAS  C:\Users\felha\AppData\Local\Temp\ccuk7kBX.s 			page 96


 4009 0f9c B30F0000 		.4byte	0xfb3
 4010 0fa0 11       		.uleb128 0x11
 4011 0fa1 BD0C0000 		.4byte	.LASF258
 4012 0fa5 00       		.byte	0
 4013 0fa6 11       		.uleb128 0x11
 4014 0fa7 77020000 		.4byte	.LASF259
 4015 0fab 01       		.byte	0x1
 4016 0fac 11       		.uleb128 0x11
 4017 0fad 650A0000 		.4byte	.LASF260
 4018 0fb1 02       		.byte	0x2
 4019 0fb2 00       		.byte	0
 4020 0fb3 03       		.uleb128 0x3
 4021 0fb4 23030000 		.4byte	.LASF261
 4022 0fb8 0F       		.byte	0xf
 4023 0fb9 72       		.byte	0x72
 4024 0fba 940F0000 		.4byte	0xf94
 4025 0fbe 1F       		.uleb128 0x1f
 4026 0fbf 43060000 		.4byte	.LASF355
 4027 0fc3 02       		.byte	0x2
 4028 0fc4 2503     		.2byte	0x325
 4029 0fc6 03       		.byte	0x3
 4030 0fc7 F00F0000 		.4byte	0xff0
 4031 0fcb 20       		.uleb128 0x20
 4032 0fcc AD000000 		.4byte	.LASF262
 4033 0fd0 02       		.byte	0x2
 4034 0fd1 2503     		.2byte	0x325
 4035 0fd3 2B0A0000 		.4byte	0xa2b
 4036 0fd7 20       		.uleb128 0x20
 4037 0fd8 9A120000 		.4byte	.LASF263
 4038 0fdc 02       		.byte	0x2
 4039 0fdd 2503     		.2byte	0x325
 4040 0fdf CE000000 		.4byte	0xce
 4041 0fe3 20       		.uleb128 0x20
 4042 0fe4 F6060000 		.4byte	.LASF264
 4043 0fe8 02       		.byte	0x2
 4044 0fe9 2503     		.2byte	0x325
 4045 0feb CE000000 		.4byte	0xce
 4046 0fef 00       		.byte	0
 4047 0ff0 21       		.uleb128 0x21
 4048 0ff1 5E0F0000 		.4byte	.LASF267
 4049 0ff5 01       		.byte	0x1
 4050 0ff6 14       		.byte	0x14
 4051 0ff7 00000000 		.4byte	.LFB650
 4052 0ffb 2C000000 		.4byte	.LFE650-.LFB650
 4053 0fff 01       		.uleb128 0x1
 4054 1000 9C       		.byte	0x9c
 4055 1001 7F100000 		.4byte	0x107f
 4056 1005 22       		.uleb128 0x22
 4057 1006 0D100000 		.4byte	.LASF265
 4058 100a 01       		.byte	0x1
 4059 100b 14       		.byte	0x14
 4060 100c B30F0000 		.4byte	0xfb3
 4061 1010 00000000 		.4byte	.LLST0
 4062 1014 22       		.uleb128 0x22
 4063 1015 F5010000 		.4byte	.LASF266
 4064 1019 01       		.byte	0x1
 4065 101a 14       		.byte	0x14
ARM GAS  C:\Users\felha\AppData\Local\Temp\ccuk7kBX.s 			page 97


 4066 101b F3060000 		.4byte	0x6f3
 4067 101f 21000000 		.4byte	.LLST1
 4068 1023 23       		.uleb128 0x23
 4069 1024 79060000 		.4byte	.LASF271
 4070 1028 01       		.byte	0x1
 4071 1029 16       		.byte	0x16
 4072 102a 7F100000 		.4byte	0x107f
 4073 102e 42000000 		.4byte	.LLST2
 4074 1032 24       		.uleb128 0x24
 4075 1033 0A000000 		.4byte	.LVL1
 4076 1037 4F210000 		.4byte	0x214f
 4077 103b 25       		.uleb128 0x25
 4078 103c 1A000000 		.4byte	.LVL4
 4079 1040 5A210000 		.4byte	0x215a
 4080 1044 61100000 		.4byte	0x1061
 4081 1048 26       		.uleb128 0x26
 4082 1049 01       		.uleb128 0x1
 4083 104a 50       		.byte	0x50
 4084 104b 02       		.uleb128 0x2
 4085 104c 74       		.byte	0x74
 4086 104d 00       		.sleb128 0
 4087 104e 26       		.uleb128 0x26
 4088 104f 01       		.uleb128 0x1
 4089 1050 51       		.byte	0x51
 4090 1051 02       		.uleb128 0x2
 4091 1052 75       		.byte	0x75
 4092 1053 00       		.sleb128 0
 4093 1054 26       		.uleb128 0x26
 4094 1055 01       		.uleb128 0x1
 4095 1056 52       		.byte	0x52
 4096 1057 02       		.uleb128 0x2
 4097 1058 76       		.byte	0x76
 4098 1059 00       		.sleb128 0
 4099 105a 26       		.uleb128 0x26
 4100 105b 01       		.uleb128 0x1
 4101 105c 53       		.byte	0x53
 4102 105d 02       		.uleb128 0x2
 4103 105e 77       		.byte	0x77
 4104 105f 00       		.sleb128 0
 4105 1060 00       		.byte	0
 4106 1061 27       		.uleb128 0x27
 4107 1062 26000000 		.4byte	.LVL5
 4108 1066 65210000 		.4byte	0x2165
 4109 106a 26       		.uleb128 0x26
 4110 106b 01       		.uleb128 0x1
 4111 106c 50       		.byte	0x50
 4112 106d 02       		.uleb128 0x2
 4113 106e 74       		.byte	0x74
 4114 106f 00       		.sleb128 0
 4115 1070 26       		.uleb128 0x26
 4116 1071 01       		.uleb128 0x1
 4117 1072 51       		.byte	0x51
 4118 1073 02       		.uleb128 0x2
 4119 1074 75       		.byte	0x75
 4120 1075 00       		.sleb128 0
 4121 1076 26       		.uleb128 0x26
 4122 1077 01       		.uleb128 0x1
ARM GAS  C:\Users\felha\AppData\Local\Temp\ccuk7kBX.s 			page 98


 4123 1078 52       		.byte	0x52
 4124 1079 03       		.uleb128 0x3
 4125 107a 0A       		.byte	0xa
 4126 107b B016     		.2byte	0x16b0
 4127 107d 00       		.byte	0
 4128 107e 00       		.byte	0
 4129 107f 12       		.uleb128 0x12
 4130 1080 04       		.byte	0x4
 4131 1081 890F0000 		.4byte	0xf89
 4132 1085 21       		.uleb128 0x21
 4133 1086 12140000 		.4byte	.LASF268
 4134 108a 01       		.byte	0x1
 4135 108b 1D       		.byte	0x1d
 4136 108c 00000000 		.4byte	.LFB651
 4137 1090 1E000000 		.4byte	.LFE651-.LFB651
 4138 1094 01       		.uleb128 0x1
 4139 1095 9C       		.byte	0x9c
 4140 1096 E2100000 		.4byte	0x10e2
 4141 109a 25       		.uleb128 0x25
 4142 109b 08000000 		.4byte	.LVL7
 4143 109f 6E210000 		.4byte	0x216e
 4144 10a3 AD100000 		.4byte	0x10ad
 4145 10a7 26       		.uleb128 0x26
 4146 10a8 01       		.uleb128 0x1
 4147 10a9 50       		.byte	0x50
 4148 10aa 01       		.uleb128 0x1
 4149 10ab 30       		.byte	0x30
 4150 10ac 00       		.byte	0
 4151 10ad 25       		.uleb128 0x25
 4152 10ae 10000000 		.4byte	.LVL8
 4153 10b2 7A210000 		.4byte	0x217a
 4154 10b6 C4100000 		.4byte	0x10c4
 4155 10ba 26       		.uleb128 0x26
 4156 10bb 01       		.uleb128 0x1
 4157 10bc 50       		.byte	0x50
 4158 10bd 05       		.uleb128 0x5
 4159 10be 0C       		.byte	0xc
 4160 10bf FFFFFF00 		.4byte	0xffffff
 4161 10c3 00       		.byte	0
 4162 10c4 24       		.uleb128 0x24
 4163 10c5 14000000 		.4byte	.LVL9
 4164 10c9 86210000 		.4byte	0x2186
 4165 10cd 27       		.uleb128 0x27
 4166 10ce 1C000000 		.4byte	.LVL10
 4167 10d2 F00F0000 		.4byte	0xff0
 4168 10d6 26       		.uleb128 0x26
 4169 10d7 01       		.uleb128 0x1
 4170 10d8 50       		.byte	0x50
 4171 10d9 01       		.uleb128 0x1
 4172 10da 31       		.byte	0x31
 4173 10db 26       		.uleb128 0x26
 4174 10dc 01       		.uleb128 0x1
 4175 10dd 51       		.byte	0x51
 4176 10de 01       		.uleb128 0x1
 4177 10df 31       		.byte	0x31
 4178 10e0 00       		.byte	0
 4179 10e1 00       		.byte	0
ARM GAS  C:\Users\felha\AppData\Local\Temp\ccuk7kBX.s 			page 99


 4180 10e2 28       		.uleb128 0x28
 4181 10e3 51060000 		.4byte	.LASF269
 4182 10e7 01       		.byte	0x1
 4183 10e8 28       		.byte	0x28
 4184 10e9 00000000 		.4byte	.LFB652
 4185 10ed A2000000 		.4byte	.LFE652-.LFB652
 4186 10f1 01       		.uleb128 0x1
 4187 10f2 9C       		.byte	0x9c
 4188 10f3 12120000 		.4byte	0x1212
 4189 10f7 22       		.uleb128 0x22
 4190 10f8 EF110000 		.4byte	.LASF270
 4191 10fc 01       		.byte	0x1
 4192 10fd 28       		.byte	0x28
 4193 10fe 12120000 		.4byte	0x1212
 4194 1102 6B000000 		.4byte	.LLST3
 4195 1106 29       		.uleb128 0x29
 4196 1107 7800     		.ascii	"x\000"
 4197 1109 01       		.byte	0x1
 4198 110a 2B       		.byte	0x2b
 4199 110b 94000000 		.4byte	0x94
 4200 110f 97000000 		.4byte	.LLST4
 4201 1113 29       		.uleb128 0x29
 4202 1114 6D617800 		.ascii	"max\000"
 4203 1118 01       		.byte	0x1
 4204 1119 2B       		.byte	0x2b
 4205 111a C3000000 		.4byte	0xc3
 4206 111e B6000000 		.4byte	.LLST5
 4207 1122 2A       		.uleb128 0x2a
 4208 1123 AE080000 		.4byte	.LASF272
 4209 1127 01       		.byte	0x1
 4210 1128 2C       		.byte	0x2c
 4211 1129 1D120000 		.4byte	0x121d
 4212 112d 03       		.uleb128 0x3
 4213 112e 91       		.byte	0x91
 4214 112f 8878     		.sleb128 -1016
 4215 1131 2B       		.uleb128 0x2b
 4216 1132 00000000 		.4byte	.Ldebug_ranges0+0
 4217 1136 48110000 		.4byte	0x1148
 4218 113a 29       		.uleb128 0x29
 4219 113b 6900     		.ascii	"i\000"
 4220 113d 01       		.byte	0x1
 4221 113e 2D       		.byte	0x2d
 4222 113f 94000000 		.4byte	0x94
 4223 1143 E0000000 		.4byte	.LLST6
 4224 1147 00       		.byte	0
 4225 1148 2C       		.uleb128 0x2c
 4226 1149 2E000000 		.4byte	.LBB8
 4227 114d 22000000 		.4byte	.LBE8-.LBB8
 4228 1151 63110000 		.4byte	0x1163
 4229 1155 29       		.uleb128 0x29
 4230 1156 6900     		.ascii	"i\000"
 4231 1158 01       		.byte	0x1
 4232 1159 34       		.byte	0x34
 4233 115a 94000000 		.4byte	0x94
 4234 115e FF000000 		.4byte	.LLST7
 4235 1162 00       		.byte	0
 4236 1163 2C       		.uleb128 0x2c
ARM GAS  C:\Users\felha\AppData\Local\Temp\ccuk7kBX.s 			page 100


 4237 1164 50000000 		.4byte	.LBB9
 4238 1168 44000000 		.4byte	.LBE9-.LBB9
 4239 116c F4110000 		.4byte	0x11f4
 4240 1170 2D       		.uleb128 0x2d
 4241 1171 6900     		.ascii	"i\000"
 4242 1173 01       		.byte	0x1
 4243 1174 38       		.byte	0x38
 4244 1175 94000000 		.4byte	0x94
 4245 1179 01       		.uleb128 0x1
 4246 117a 54       		.byte	0x54
 4247 117b 2E       		.uleb128 0x2e
 4248 117c 50000000 		.4byte	.LBB10
 4249 1180 3E000000 		.4byte	.LBE10-.LBB10
 4250 1184 29       		.uleb128 0x29
 4251 1185 793000   		.ascii	"y0\000"
 4252 1188 01       		.byte	0x1
 4253 1189 3A       		.byte	0x3a
 4254 118a 94000000 		.4byte	0x94
 4255 118e 12010000 		.4byte	.LLST8
 4256 1192 2C       		.uleb128 0x2c
 4257 1193 6E000000 		.4byte	.LBB11
 4258 1197 1E000000 		.4byte	.LBE11-.LBB11
 4259 119b D3110000 		.4byte	0x11d3
 4260 119f 29       		.uleb128 0x29
 4261 11a0 793100   		.ascii	"y1\000"
 4262 11a3 01       		.byte	0x1
 4263 11a4 3E       		.byte	0x3e
 4264 11a5 94000000 		.4byte	0x94
 4265 11a9 3B010000 		.4byte	.LLST9
 4266 11ad 24       		.uleb128 0x24
 4267 11ae 7C000000 		.4byte	.LVL28
 4268 11b2 92210000 		.4byte	0x2192
 4269 11b6 27       		.uleb128 0x27
 4270 11b7 8C000000 		.4byte	.LVL31
 4271 11bb 9E210000 		.4byte	0x219e
 4272 11bf 26       		.uleb128 0x26
 4273 11c0 01       		.uleb128 0x1
 4274 11c1 50       		.byte	0x50
 4275 11c2 02       		.uleb128 0x2
 4276 11c3 75       		.byte	0x75
 4277 11c4 00       		.sleb128 0
 4278 11c5 26       		.uleb128 0x26
 4279 11c6 01       		.uleb128 0x1
 4280 11c7 51       		.byte	0x51
 4281 11c8 02       		.uleb128 0x2
 4282 11c9 76       		.byte	0x76
 4283 11ca 00       		.sleb128 0
 4284 11cb 26       		.uleb128 0x26
 4285 11cc 01       		.uleb128 0x1
 4286 11cd 52       		.byte	0x52
 4287 11ce 02       		.uleb128 0x2
 4288 11cf 75       		.byte	0x75
 4289 11d0 01       		.sleb128 1
 4290 11d1 00       		.byte	0
 4291 11d2 00       		.byte	0
 4292 11d3 24       		.uleb128 0x24
 4293 11d4 5C000000 		.4byte	.LVL22
ARM GAS  C:\Users\felha\AppData\Local\Temp\ccuk7kBX.s 			page 101


 4294 11d8 92210000 		.4byte	0x2192
 4295 11dc 27       		.uleb128 0x27
 4296 11dd 6A000000 		.4byte	.LVL26
 4297 11e1 AA210000 		.4byte	0x21aa
 4298 11e5 26       		.uleb128 0x26
 4299 11e6 01       		.uleb128 0x1
 4300 11e7 50       		.byte	0x50
 4301 11e8 02       		.uleb128 0x2
 4302 11e9 75       		.byte	0x75
 4303 11ea 00       		.sleb128 0
 4304 11eb 26       		.uleb128 0x26
 4305 11ec 01       		.uleb128 0x1
 4306 11ed 51       		.byte	0x51
 4307 11ee 02       		.uleb128 0x2
 4308 11ef 76       		.byte	0x76
 4309 11f0 00       		.sleb128 0
 4310 11f1 00       		.byte	0
 4311 11f2 00       		.byte	0
 4312 11f3 00       		.byte	0
 4313 11f4 24       		.uleb128 0x24
 4314 11f5 0C000000 		.4byte	.LVL12
 4315 11f9 86210000 		.4byte	0x2186
 4316 11fd 27       		.uleb128 0x27
 4317 11fe 9C000000 		.4byte	.LVL34
 4318 1202 F00F0000 		.4byte	0xff0
 4319 1206 26       		.uleb128 0x26
 4320 1207 01       		.uleb128 0x1
 4321 1208 50       		.byte	0x50
 4322 1209 01       		.uleb128 0x1
 4323 120a 31       		.byte	0x31
 4324 120b 26       		.uleb128 0x26
 4325 120c 01       		.uleb128 0x1
 4326 120d 51       		.byte	0x51
 4327 120e 01       		.uleb128 0x1
 4328 120f 31       		.byte	0x31
 4329 1210 00       		.byte	0
 4330 1211 00       		.byte	0
 4331 1212 12       		.uleb128 0x12
 4332 1213 04       		.byte	0x4
 4333 1214 18120000 		.4byte	0x1218
 4334 1218 05       		.uleb128 0x5
 4335 1219 C3000000 		.4byte	0xc3
 4336 121d 07       		.uleb128 0x7
 4337 121e C3000000 		.4byte	0xc3
 4338 1222 2D120000 		.4byte	0x122d
 4339 1226 08       		.uleb128 0x8
 4340 1227 D9000000 		.4byte	0xd9
 4341 122b F9       		.byte	0xf9
 4342 122c 00       		.byte	0
 4343 122d 21       		.uleb128 0x21
 4344 122e 870A0000 		.4byte	.LASF273
 4345 1232 01       		.byte	0x1
 4346 1233 45       		.byte	0x45
 4347 1234 00000000 		.4byte	.LFB653
 4348 1238 48000000 		.4byte	.LFE653-.LFB653
 4349 123c 01       		.uleb128 0x1
 4350 123d 9C       		.byte	0x9c
ARM GAS  C:\Users\felha\AppData\Local\Temp\ccuk7kBX.s 			page 102


 4351 123e D1120000 		.4byte	0x12d1
 4352 1242 22       		.uleb128 0x22
 4353 1243 EA080000 		.4byte	.LASF274
 4354 1247 01       		.byte	0x1
 4355 1248 45       		.byte	0x45
 4356 1249 94000000 		.4byte	0x94
 4357 124d 59010000 		.4byte	.LLST10
 4358 1251 24       		.uleb128 0x24
 4359 1252 08000000 		.4byte	.LVL36
 4360 1256 86210000 		.4byte	0x2186
 4361 125a 25       		.uleb128 0x25
 4362 125b 0E000000 		.4byte	.LVL37
 4363 125f B6210000 		.4byte	0x21b6
 4364 1263 6D120000 		.4byte	0x126d
 4365 1267 26       		.uleb128 0x26
 4366 1268 01       		.uleb128 0x1
 4367 1269 50       		.byte	0x50
 4368 126a 01       		.uleb128 0x1
 4369 126b 36       		.byte	0x36
 4370 126c 00       		.byte	0
 4371 126d 24       		.uleb128 0x24
 4372 126e 14000000 		.4byte	.LVL38
 4373 1272 C2210000 		.4byte	0x21c2
 4374 1276 25       		.uleb128 0x25
 4375 1277 22000000 		.4byte	.LVL39
 4376 127b CE210000 		.4byte	0x21ce
 4377 127f 99120000 		.4byte	0x1299
 4378 1283 26       		.uleb128 0x26
 4379 1284 01       		.uleb128 0x1
 4380 1285 50       		.byte	0x50
 4381 1286 05       		.uleb128 0x5
 4382 1287 03       		.byte	0x3
 4383 1288 00000000 		.4byte	.LC0
 4384 128c 26       		.uleb128 0x26
 4385 128d 01       		.uleb128 0x1
 4386 128e 51       		.byte	0x51
 4387 128f 02       		.uleb128 0x2
 4388 1290 08       		.byte	0x8
 4389 1291 4B       		.byte	0x4b
 4390 1292 26       		.uleb128 0x26
 4391 1293 01       		.uleb128 0x1
 4392 1294 52       		.byte	0x52
 4393 1295 02       		.uleb128 0x2
 4394 1296 08       		.byte	0x8
 4395 1297 50       		.byte	0x50
 4396 1298 00       		.byte	0
 4397 1299 25       		.uleb128 0x25
 4398 129a 30000000 		.4byte	.LVL40
 4399 129e CE210000 		.4byte	0x21ce
 4400 12a2 BC120000 		.4byte	0x12bc
 4401 12a6 26       		.uleb128 0x26
 4402 12a7 01       		.uleb128 0x1
 4403 12a8 50       		.byte	0x50
 4404 12a9 05       		.uleb128 0x5
 4405 12aa 03       		.byte	0x3
 4406 12ab 18000000 		.4byte	.LC1
 4407 12af 26       		.uleb128 0x26
ARM GAS  C:\Users\felha\AppData\Local\Temp\ccuk7kBX.s 			page 103


 4408 12b0 01       		.uleb128 0x1
 4409 12b1 51       		.byte	0x51
 4410 12b2 02       		.uleb128 0x2
 4411 12b3 08       		.byte	0x8
 4412 12b4 4B       		.byte	0x4b
 4413 12b5 26       		.uleb128 0x26
 4414 12b6 01       		.uleb128 0x1
 4415 12b7 52       		.byte	0x52
 4416 12b8 02       		.uleb128 0x2
 4417 12b9 08       		.byte	0x8
 4418 12ba 50       		.byte	0x50
 4419 12bb 00       		.byte	0
 4420 12bc 27       		.uleb128 0x27
 4421 12bd 38000000 		.4byte	.LVL41
 4422 12c1 F00F0000 		.4byte	0xff0
 4423 12c5 26       		.uleb128 0x26
 4424 12c6 01       		.uleb128 0x1
 4425 12c7 50       		.byte	0x50
 4426 12c8 01       		.uleb128 0x1
 4427 12c9 31       		.byte	0x31
 4428 12ca 26       		.uleb128 0x26
 4429 12cb 01       		.uleb128 0x1
 4430 12cc 51       		.byte	0x51
 4431 12cd 01       		.uleb128 0x1
 4432 12ce 31       		.byte	0x31
 4433 12cf 00       		.byte	0
 4434 12d0 00       		.byte	0
 4435 12d1 21       		.uleb128 0x21
 4436 12d2 19090000 		.4byte	.LASF275
 4437 12d6 01       		.byte	0x1
 4438 12d7 52       		.byte	0x52
 4439 12d8 00000000 		.4byte	.LFB654
 4440 12dc C0000000 		.4byte	.LFE654-.LFB654
 4441 12e0 01       		.uleb128 0x1
 4442 12e1 9C       		.byte	0x9c
 4443 12e2 E8140000 		.4byte	0x14e8
 4444 12e6 22       		.uleb128 0x22
 4445 12e7 CB130000 		.4byte	.LASF276
 4446 12eb 01       		.byte	0x1
 4447 12ec 52       		.byte	0x52
 4448 12ed 94000000 		.4byte	0x94
 4449 12f1 85010000 		.4byte	.LLST11
 4450 12f5 22       		.uleb128 0x22
 4451 12f6 760B0000 		.4byte	.LASF277
 4452 12fa 01       		.byte	0x1
 4453 12fb 52       		.byte	0x52
 4454 12fc 94000000 		.4byte	0x94
 4455 1300 B1010000 		.4byte	.LLST12
 4456 1304 22       		.uleb128 0x22
 4457 1305 85110000 		.4byte	.LASF278
 4458 1309 01       		.byte	0x1
 4459 130a 52       		.byte	0x52
 4460 130b 94000000 		.4byte	0x94
 4461 130f DD010000 		.4byte	.LLST13
 4462 1313 2A       		.uleb128 0x2a
 4463 1314 7D040000 		.4byte	.LASF279
 4464 1318 01       		.byte	0x1
ARM GAS  C:\Users\felha\AppData\Local\Temp\ccuk7kBX.s 			page 104


 4465 1319 54       		.byte	0x54
 4466 131a E8140000 		.4byte	0x14e8
 4467 131e 02       		.uleb128 0x2
 4468 131f 91       		.byte	0x91
 4469 1320 68       		.sleb128 -24
 4470 1321 2A       		.uleb128 0x2a
 4471 1322 88040000 		.4byte	.LASF280
 4472 1326 01       		.byte	0x1
 4473 1327 54       		.byte	0x54
 4474 1328 E8140000 		.4byte	0x14e8
 4475 132c 02       		.uleb128 0x2
 4476 132d 91       		.byte	0x91
 4477 132e 60       		.sleb128 -32
 4478 132f 25       		.uleb128 0x25
 4479 1330 14000000 		.4byte	.LVL47
 4480 1334 DA210000 		.4byte	0x21da
 4481 1338 50130000 		.4byte	0x1350
 4482 133c 26       		.uleb128 0x26
 4483 133d 01       		.uleb128 0x1
 4484 133e 50       		.byte	0x50
 4485 133f 02       		.uleb128 0x2
 4486 1340 91       		.byte	0x91
 4487 1341 68       		.sleb128 -24
 4488 1342 26       		.uleb128 0x26
 4489 1343 01       		.uleb128 0x1
 4490 1344 51       		.byte	0x51
 4491 1345 02       		.uleb128 0x2
 4492 1346 75       		.byte	0x75
 4493 1347 00       		.sleb128 0
 4494 1348 26       		.uleb128 0x26
 4495 1349 01       		.uleb128 0x1
 4496 134a 52       		.byte	0x52
 4497 134b 03       		.uleb128 0x3
 4498 134c F3       		.byte	0xf3
 4499 134d 01       		.uleb128 0x1
 4500 134e 50       		.byte	0x50
 4501 134f 00       		.byte	0
 4502 1350 25       		.uleb128 0x25
 4503 1351 1E000000 		.4byte	.LVL48
 4504 1355 DA210000 		.4byte	0x21da
 4505 1359 70130000 		.4byte	0x1370
 4506 135d 26       		.uleb128 0x26
 4507 135e 01       		.uleb128 0x1
 4508 135f 50       		.byte	0x50
 4509 1360 02       		.uleb128 0x2
 4510 1361 7D       		.byte	0x7d
 4511 1362 00       		.sleb128 0
 4512 1363 26       		.uleb128 0x26
 4513 1364 01       		.uleb128 0x1
 4514 1365 51       		.byte	0x51
 4515 1366 02       		.uleb128 0x2
 4516 1367 75       		.byte	0x75
 4517 1368 00       		.sleb128 0
 4518 1369 26       		.uleb128 0x26
 4519 136a 01       		.uleb128 0x1
 4520 136b 52       		.byte	0x52
 4521 136c 02       		.uleb128 0x2
ARM GAS  C:\Users\felha\AppData\Local\Temp\ccuk7kBX.s 			page 105


 4522 136d 76       		.byte	0x76
 4523 136e 00       		.sleb128 0
 4524 136f 00       		.byte	0
 4525 1370 25       		.uleb128 0x25
 4526 1371 24000000 		.4byte	.LVL49
 4527 1375 B6210000 		.4byte	0x21b6
 4528 1379 83130000 		.4byte	0x1383
 4529 137d 26       		.uleb128 0x26
 4530 137e 01       		.uleb128 0x1
 4531 137f 50       		.byte	0x50
 4532 1380 01       		.uleb128 0x1
 4533 1381 38       		.byte	0x38
 4534 1382 00       		.byte	0
 4535 1383 25       		.uleb128 0x25
 4536 1384 30000000 		.4byte	.LVL50
 4537 1388 E5210000 		.4byte	0x21e5
 4538 138c A8130000 		.4byte	0x13a8
 4539 1390 26       		.uleb128 0x26
 4540 1391 01       		.uleb128 0x1
 4541 1392 50       		.byte	0x50
 4542 1393 01       		.uleb128 0x1
 4543 1394 3A       		.byte	0x3a
 4544 1395 26       		.uleb128 0x26
 4545 1396 01       		.uleb128 0x1
 4546 1397 51       		.byte	0x51
 4547 1398 02       		.uleb128 0x2
 4548 1399 08       		.byte	0x8
 4549 139a 9B       		.byte	0x9b
 4550 139b 26       		.uleb128 0x26
 4551 139c 01       		.uleb128 0x1
 4552 139d 52       		.byte	0x52
 4553 139e 02       		.uleb128 0x2
 4554 139f 08       		.byte	0x8
 4555 13a0 FF       		.byte	0xff
 4556 13a1 26       		.uleb128 0x26
 4557 13a2 01       		.uleb128 0x1
 4558 13a3 53       		.byte	0x53
 4559 13a4 02       		.uleb128 0x2
 4560 13a5 08       		.byte	0x8
 4561 13a6 AF       		.byte	0xaf
 4562 13a7 00       		.byte	0
 4563 13a8 25       		.uleb128 0x25
 4564 13a9 36000000 		.4byte	.LVL51
 4565 13ad B6210000 		.4byte	0x21b6
 4566 13b1 BB130000 		.4byte	0x13bb
 4567 13b5 26       		.uleb128 0x26
 4568 13b6 01       		.uleb128 0x1
 4569 13b7 50       		.byte	0x50
 4570 13b8 01       		.uleb128 0x1
 4571 13b9 36       		.byte	0x36
 4572 13ba 00       		.byte	0
 4573 13bb 24       		.uleb128 0x24
 4574 13bc 3C000000 		.4byte	.LVL52
 4575 13c0 C2210000 		.4byte	0x21c2
 4576 13c4 25       		.uleb128 0x25
 4577 13c5 46000000 		.4byte	.LVL53
 4578 13c9 CE210000 		.4byte	0x21ce
ARM GAS  C:\Users\felha\AppData\Local\Temp\ccuk7kBX.s 			page 106


 4579 13cd E6130000 		.4byte	0x13e6
 4580 13d1 26       		.uleb128 0x26
 4581 13d2 01       		.uleb128 0x1
 4582 13d3 50       		.byte	0x50
 4583 13d4 05       		.uleb128 0x5
 4584 13d5 03       		.byte	0x3
 4585 13d6 38000000 		.4byte	.LC3
 4586 13da 26       		.uleb128 0x26
 4587 13db 01       		.uleb128 0x1
 4588 13dc 51       		.byte	0x51
 4589 13dd 01       		.uleb128 0x1
 4590 13de 44       		.byte	0x44
 4591 13df 26       		.uleb128 0x26
 4592 13e0 01       		.uleb128 0x1
 4593 13e1 52       		.byte	0x52
 4594 13e2 02       		.uleb128 0x2
 4595 13e3 08       		.byte	0x8
 4596 13e4 A0       		.byte	0xa0
 4597 13e5 00       		.byte	0
 4598 13e6 25       		.uleb128 0x25
 4599 13e7 50000000 		.4byte	.LVL54
 4600 13eb CE210000 		.4byte	0x21ce
 4601 13ef 06140000 		.4byte	0x1406
 4602 13f3 26       		.uleb128 0x26
 4603 13f4 01       		.uleb128 0x1
 4604 13f5 50       		.byte	0x50
 4605 13f6 02       		.uleb128 0x2
 4606 13f7 91       		.byte	0x91
 4607 13f8 68       		.sleb128 -24
 4608 13f9 26       		.uleb128 0x26
 4609 13fa 01       		.uleb128 0x1
 4610 13fb 51       		.byte	0x51
 4611 13fc 02       		.uleb128 0x2
 4612 13fd 08       		.byte	0x8
 4613 13fe 73       		.byte	0x73
 4614 13ff 26       		.uleb128 0x26
 4615 1400 01       		.uleb128 0x1
 4616 1401 52       		.byte	0x52
 4617 1402 02       		.uleb128 0x2
 4618 1403 08       		.byte	0x8
 4619 1404 A0       		.byte	0xa0
 4620 1405 00       		.byte	0
 4621 1406 25       		.uleb128 0x25
 4622 1407 5A000000 		.4byte	.LVL55
 4623 140b CE210000 		.4byte	0x21ce
 4624 140f 29140000 		.4byte	0x1429
 4625 1413 26       		.uleb128 0x26
 4626 1414 01       		.uleb128 0x1
 4627 1415 50       		.byte	0x50
 4628 1416 05       		.uleb128 0x5
 4629 1417 03       		.byte	0x3
 4630 1418 4C000000 		.4byte	.LC4
 4631 141c 26       		.uleb128 0x26
 4632 141d 01       		.uleb128 0x1
 4633 141e 51       		.byte	0x51
 4634 141f 02       		.uleb128 0x2
 4635 1420 08       		.byte	0x8
ARM GAS  C:\Users\felha\AppData\Local\Temp\ccuk7kBX.s 			page 107


 4636 1421 82       		.byte	0x82
 4637 1422 26       		.uleb128 0x26
 4638 1423 01       		.uleb128 0x1
 4639 1424 52       		.byte	0x52
 4640 1425 02       		.uleb128 0x2
 4641 1426 08       		.byte	0x8
 4642 1427 A0       		.byte	0xa0
 4643 1428 00       		.byte	0
 4644 1429 25       		.uleb128 0x25
 4645 142a 64000000 		.4byte	.LVL56
 4646 142e CE210000 		.4byte	0x21ce
 4647 1432 4C140000 		.4byte	0x144c
 4648 1436 26       		.uleb128 0x26
 4649 1437 01       		.uleb128 0x1
 4650 1438 50       		.byte	0x50
 4651 1439 05       		.uleb128 0x5
 4652 143a 03       		.byte	0x3
 4653 143b 50000000 		.4byte	.LC5
 4654 143f 26       		.uleb128 0x26
 4655 1440 01       		.uleb128 0x1
 4656 1441 51       		.byte	0x51
 4657 1442 02       		.uleb128 0x2
 4658 1443 08       		.byte	0x8
 4659 1444 96       		.byte	0x96
 4660 1445 26       		.uleb128 0x26
 4661 1446 01       		.uleb128 0x1
 4662 1447 52       		.byte	0x52
 4663 1448 02       		.uleb128 0x2
 4664 1449 08       		.byte	0x8
 4665 144a A0       		.byte	0xa0
 4666 144b 00       		.byte	0
 4667 144c 25       		.uleb128 0x25
 4668 144d 6E000000 		.4byte	.LVL57
 4669 1451 CE210000 		.4byte	0x21ce
 4670 1455 6C140000 		.4byte	0x146c
 4671 1459 26       		.uleb128 0x26
 4672 145a 01       		.uleb128 0x1
 4673 145b 50       		.byte	0x50
 4674 145c 02       		.uleb128 0x2
 4675 145d 7D       		.byte	0x7d
 4676 145e 00       		.sleb128 0
 4677 145f 26       		.uleb128 0x26
 4678 1460 01       		.uleb128 0x1
 4679 1461 51       		.byte	0x51
 4680 1462 02       		.uleb128 0x2
 4681 1463 08       		.byte	0x8
 4682 1464 D2       		.byte	0xd2
 4683 1465 26       		.uleb128 0x26
 4684 1466 01       		.uleb128 0x1
 4685 1467 52       		.byte	0x52
 4686 1468 02       		.uleb128 0x2
 4687 1469 08       		.byte	0x8
 4688 146a A0       		.byte	0xa0
 4689 146b 00       		.byte	0
 4690 146c 25       		.uleb128 0x25
 4691 146d 78000000 		.4byte	.LVL58
 4692 1471 CE210000 		.4byte	0x21ce
ARM GAS  C:\Users\felha\AppData\Local\Temp\ccuk7kBX.s 			page 108


 4693 1475 8F140000 		.4byte	0x148f
 4694 1479 26       		.uleb128 0x26
 4695 147a 01       		.uleb128 0x1
 4696 147b 50       		.byte	0x50
 4697 147c 05       		.uleb128 0x5
 4698 147d 03       		.byte	0x3
 4699 147e 5C000000 		.4byte	.LC6
 4700 1482 26       		.uleb128 0x26
 4701 1483 01       		.uleb128 0x1
 4702 1484 51       		.byte	0x51
 4703 1485 02       		.uleb128 0x2
 4704 1486 08       		.byte	0x8
 4705 1487 E6       		.byte	0xe6
 4706 1488 26       		.uleb128 0x26
 4707 1489 01       		.uleb128 0x1
 4708 148a 52       		.byte	0x52
 4709 148b 02       		.uleb128 0x2
 4710 148c 08       		.byte	0x8
 4711 148d A0       		.byte	0xa0
 4712 148e 00       		.byte	0
 4713 148f 25       		.uleb128 0x25
 4714 1490 86000000 		.4byte	.LVL59
 4715 1494 CE210000 		.4byte	0x21ce
 4716 1498 B1140000 		.4byte	0x14b1
 4717 149c 26       		.uleb128 0x26
 4718 149d 01       		.uleb128 0x1
 4719 149e 50       		.byte	0x50
 4720 149f 05       		.uleb128 0x5
 4721 14a0 03       		.byte	0x3
 4722 14a1 60000000 		.4byte	.LC7
 4723 14a5 26       		.uleb128 0x26
 4724 14a6 01       		.uleb128 0x1
 4725 14a7 51       		.byte	0x51
 4726 14a8 02       		.uleb128 0x2
 4727 14a9 08       		.byte	0x8
 4728 14aa 6E       		.byte	0x6e
 4729 14ab 26       		.uleb128 0x26
 4730 14ac 01       		.uleb128 0x1
 4731 14ad 52       		.byte	0x52
 4732 14ae 01       		.uleb128 0x1
 4733 14af 30       		.byte	0x30
 4734 14b0 00       		.byte	0
 4735 14b1 25       		.uleb128 0x25
 4736 14b2 94000000 		.4byte	.LVL60
 4737 14b6 CE210000 		.4byte	0x21ce
 4738 14ba D3140000 		.4byte	0x14d3
 4739 14be 26       		.uleb128 0x26
 4740 14bf 01       		.uleb128 0x1
 4741 14c0 50       		.byte	0x50
 4742 14c1 05       		.uleb128 0x5
 4743 14c2 03       		.byte	0x3
 4744 14c3 6C000000 		.4byte	.LC8
 4745 14c7 26       		.uleb128 0x26
 4746 14c8 01       		.uleb128 0x1
 4747 14c9 51       		.byte	0x51
 4748 14ca 02       		.uleb128 0x2
 4749 14cb 08       		.byte	0x8
ARM GAS  C:\Users\felha\AppData\Local\Temp\ccuk7kBX.s 			page 109


 4750 14cc 69       		.byte	0x69
 4751 14cd 26       		.uleb128 0x26
 4752 14ce 01       		.uleb128 0x1
 4753 14cf 52       		.byte	0x52
 4754 14d0 01       		.uleb128 0x1
 4755 14d1 30       		.byte	0x30
 4756 14d2 00       		.byte	0
 4757 14d3 27       		.uleb128 0x27
 4758 14d4 9C000000 		.4byte	.LVL61
 4759 14d8 F00F0000 		.4byte	0xff0
 4760 14dc 26       		.uleb128 0x26
 4761 14dd 01       		.uleb128 0x1
 4762 14de 50       		.byte	0x50
 4763 14df 01       		.uleb128 0x1
 4764 14e0 31       		.byte	0x31
 4765 14e1 26       		.uleb128 0x26
 4766 14e2 01       		.uleb128 0x1
 4767 14e3 51       		.byte	0x51
 4768 14e4 01       		.uleb128 0x1
 4769 14e5 31       		.byte	0x31
 4770 14e6 00       		.byte	0
 4771 14e7 00       		.byte	0
 4772 14e8 07       		.uleb128 0x7
 4773 14e9 D0060000 		.4byte	0x6d0
 4774 14ed F8140000 		.4byte	0x14f8
 4775 14f1 08       		.uleb128 0x8
 4776 14f2 D9000000 		.4byte	0xd9
 4777 14f6 05       		.byte	0x5
 4778 14f7 00       		.byte	0
 4779 14f8 21       		.uleb128 0x21
 4780 14f9 1D080000 		.4byte	.LASF281
 4781 14fd 01       		.byte	0x1
 4782 14fe 64       		.byte	0x64
 4783 14ff 00000000 		.4byte	.LFB655
 4784 1503 5C000000 		.4byte	.LFE655-.LFB655
 4785 1507 01       		.uleb128 0x1
 4786 1508 9C       		.byte	0x9c
 4787 1509 E5150000 		.4byte	0x15e5
 4788 150d 22       		.uleb128 0x22
 4789 150e 3A0C0000 		.4byte	.LASF282
 4790 1512 01       		.byte	0x1
 4791 1513 64       		.byte	0x64
 4792 1514 94000000 		.4byte	0x94
 4793 1518 09020000 		.4byte	.LLST14
 4794 151c 2A       		.uleb128 0x2a
 4795 151d E40C0000 		.4byte	.LASF283
 4796 1521 01       		.byte	0x1
 4797 1522 67       		.byte	0x67
 4798 1523 E8140000 		.4byte	0x14e8
 4799 1527 02       		.uleb128 0x2
 4800 1528 91       		.byte	0x91
 4801 1529 70       		.sleb128 -16
 4802 152a 24       		.uleb128 0x24
 4803 152b 0A000000 		.4byte	.LVL64
 4804 152f 86210000 		.4byte	0x2186
 4805 1533 25       		.uleb128 0x25
 4806 1534 14000000 		.4byte	.LVL65
ARM GAS  C:\Users\felha\AppData\Local\Temp\ccuk7kBX.s 			page 110


 4807 1538 DA210000 		.4byte	0x21da
 4808 153c 56150000 		.4byte	0x1556
 4809 1540 26       		.uleb128 0x26
 4810 1541 01       		.uleb128 0x1
 4811 1542 50       		.byte	0x50
 4812 1543 02       		.uleb128 0x2
 4813 1544 7D       		.byte	0x7d
 4814 1545 00       		.sleb128 0
 4815 1546 26       		.uleb128 0x26
 4816 1547 01       		.uleb128 0x1
 4817 1548 51       		.byte	0x51
 4818 1549 05       		.uleb128 0x5
 4819 154a 03       		.byte	0x3
 4820 154b 34000000 		.4byte	.LC2
 4821 154f 26       		.uleb128 0x26
 4822 1550 01       		.uleb128 0x1
 4823 1551 52       		.byte	0x52
 4824 1552 02       		.uleb128 0x2
 4825 1553 74       		.byte	0x74
 4826 1554 00       		.sleb128 0
 4827 1555 00       		.byte	0
 4828 1556 25       		.uleb128 0x25
 4829 1557 1A000000 		.4byte	.LVL66
 4830 155b B6210000 		.4byte	0x21b6
 4831 155f 69150000 		.4byte	0x1569
 4832 1563 26       		.uleb128 0x26
 4833 1564 01       		.uleb128 0x1
 4834 1565 50       		.byte	0x50
 4835 1566 01       		.uleb128 0x1
 4836 1567 42       		.byte	0x42
 4837 1568 00       		.byte	0
 4838 1569 24       		.uleb128 0x24
 4839 156a 20000000 		.4byte	.LVL67
 4840 156e C2210000 		.4byte	0x21c2
 4841 1572 25       		.uleb128 0x25
 4842 1573 2A000000 		.4byte	.LVL68
 4843 1577 CE210000 		.4byte	0x21ce
 4844 157b 92150000 		.4byte	0x1592
 4845 157f 26       		.uleb128 0x26
 4846 1580 01       		.uleb128 0x1
 4847 1581 50       		.byte	0x50
 4848 1582 02       		.uleb128 0x2
 4849 1583 7D       		.byte	0x7d
 4850 1584 00       		.sleb128 0
 4851 1585 26       		.uleb128 0x26
 4852 1586 01       		.uleb128 0x1
 4853 1587 51       		.byte	0x51
 4854 1588 02       		.uleb128 0x2
 4855 1589 08       		.byte	0x8
 4856 158a 73       		.byte	0x73
 4857 158b 26       		.uleb128 0x26
 4858 158c 01       		.uleb128 0x1
 4859 158d 52       		.byte	0x52
 4860 158e 02       		.uleb128 0x2
 4861 158f 08       		.byte	0x8
 4862 1590 5A       		.byte	0x5a
 4863 1591 00       		.byte	0
ARM GAS  C:\Users\felha\AppData\Local\Temp\ccuk7kBX.s 			page 111


 4864 1592 25       		.uleb128 0x25
 4865 1593 30000000 		.4byte	.LVL69
 4866 1597 B6210000 		.4byte	0x21b6
 4867 159b A5150000 		.4byte	0x15a5
 4868 159f 26       		.uleb128 0x26
 4869 15a0 01       		.uleb128 0x1
 4870 15a1 50       		.byte	0x50
 4871 15a2 01       		.uleb128 0x1
 4872 15a3 37       		.byte	0x37
 4873 15a4 00       		.byte	0
 4874 15a5 24       		.uleb128 0x24
 4875 15a6 36000000 		.4byte	.LVL70
 4876 15aa C2210000 		.4byte	0x21c2
 4877 15ae 25       		.uleb128 0x25
 4878 15af 40000000 		.4byte	.LVL71
 4879 15b3 CE210000 		.4byte	0x21ce
 4880 15b7 D0150000 		.4byte	0x15d0
 4881 15bb 26       		.uleb128 0x26
 4882 15bc 01       		.uleb128 0x1
 4883 15bd 50       		.byte	0x50
 4884 15be 05       		.uleb128 0x5
 4885 15bf 03       		.byte	0x3
 4886 15c0 7C000000 		.4byte	.LC9
 4887 15c4 26       		.uleb128 0x26
 4888 15c5 01       		.uleb128 0x1
 4889 15c6 51       		.byte	0x51
 4890 15c7 02       		.uleb128 0x2
 4891 15c8 08       		.byte	0x8
 4892 15c9 50       		.byte	0x50
 4893 15ca 26       		.uleb128 0x26
 4894 15cb 01       		.uleb128 0x1
 4895 15cc 52       		.byte	0x52
 4896 15cd 01       		.uleb128 0x1
 4897 15ce 44       		.byte	0x44
 4898 15cf 00       		.byte	0
 4899 15d0 27       		.uleb128 0x27
 4900 15d1 48000000 		.4byte	.LVL72
 4901 15d5 F00F0000 		.4byte	0xff0
 4902 15d9 26       		.uleb128 0x26
 4903 15da 01       		.uleb128 0x1
 4904 15db 50       		.byte	0x50
 4905 15dc 01       		.uleb128 0x1
 4906 15dd 31       		.byte	0x31
 4907 15de 26       		.uleb128 0x26
 4908 15df 01       		.uleb128 0x1
 4909 15e0 51       		.byte	0x51
 4910 15e1 01       		.uleb128 0x1
 4911 15e2 31       		.byte	0x31
 4912 15e3 00       		.byte	0
 4913 15e4 00       		.byte	0
 4914 15e5 21       		.uleb128 0x21
 4915 15e6 9A0F0000 		.4byte	.LASF284
 4916 15ea 01       		.byte	0x1
 4917 15eb 71       		.byte	0x71
 4918 15ec 00000000 		.4byte	.LFB656
 4919 15f0 5C000000 		.4byte	.LFE656-.LFB656
 4920 15f4 01       		.uleb128 0x1
ARM GAS  C:\Users\felha\AppData\Local\Temp\ccuk7kBX.s 			page 112


 4921 15f5 9C       		.byte	0x9c
 4922 15f6 D2160000 		.4byte	0x16d2
 4923 15fa 22       		.uleb128 0x22
 4924 15fb 3A0C0000 		.4byte	.LASF282
 4925 15ff 01       		.byte	0x1
 4926 1600 71       		.byte	0x71
 4927 1601 94000000 		.4byte	0x94
 4928 1605 35020000 		.4byte	.LLST15
 4929 1609 2A       		.uleb128 0x2a
 4930 160a 77110000 		.4byte	.LASF285
 4931 160e 01       		.byte	0x1
 4932 160f 74       		.byte	0x74
 4933 1610 E8140000 		.4byte	0x14e8
 4934 1614 02       		.uleb128 0x2
 4935 1615 91       		.byte	0x91
 4936 1616 70       		.sleb128 -16
 4937 1617 24       		.uleb128 0x24
 4938 1618 0A000000 		.4byte	.LVL75
 4939 161c 86210000 		.4byte	0x2186
 4940 1620 25       		.uleb128 0x25
 4941 1621 14000000 		.4byte	.LVL76
 4942 1625 DA210000 		.4byte	0x21da
 4943 1629 43160000 		.4byte	0x1643
 4944 162d 26       		.uleb128 0x26
 4945 162e 01       		.uleb128 0x1
 4946 162f 50       		.byte	0x50
 4947 1630 02       		.uleb128 0x2
 4948 1631 7D       		.byte	0x7d
 4949 1632 00       		.sleb128 0
 4950 1633 26       		.uleb128 0x26
 4951 1634 01       		.uleb128 0x1
 4952 1635 51       		.byte	0x51
 4953 1636 05       		.uleb128 0x5
 4954 1637 03       		.byte	0x3
 4955 1638 34000000 		.4byte	.LC2
 4956 163c 26       		.uleb128 0x26
 4957 163d 01       		.uleb128 0x1
 4958 163e 52       		.byte	0x52
 4959 163f 02       		.uleb128 0x2
 4960 1640 74       		.byte	0x74
 4961 1641 00       		.sleb128 0
 4962 1642 00       		.byte	0
 4963 1643 25       		.uleb128 0x25
 4964 1644 1A000000 		.4byte	.LVL77
 4965 1648 B6210000 		.4byte	0x21b6
 4966 164c 56160000 		.4byte	0x1656
 4967 1650 26       		.uleb128 0x26
 4968 1651 01       		.uleb128 0x1
 4969 1652 50       		.byte	0x50
 4970 1653 01       		.uleb128 0x1
 4971 1654 42       		.byte	0x42
 4972 1655 00       		.byte	0
 4973 1656 24       		.uleb128 0x24
 4974 1657 20000000 		.4byte	.LVL78
 4975 165b C2210000 		.4byte	0x21c2
 4976 165f 25       		.uleb128 0x25
 4977 1660 2A000000 		.4byte	.LVL79
ARM GAS  C:\Users\felha\AppData\Local\Temp\ccuk7kBX.s 			page 113


 4978 1664 CE210000 		.4byte	0x21ce
 4979 1668 7F160000 		.4byte	0x167f
 4980 166c 26       		.uleb128 0x26
 4981 166d 01       		.uleb128 0x1
 4982 166e 50       		.byte	0x50
 4983 166f 02       		.uleb128 0x2
 4984 1670 7D       		.byte	0x7d
 4985 1671 00       		.sleb128 0
 4986 1672 26       		.uleb128 0x26
 4987 1673 01       		.uleb128 0x1
 4988 1674 51       		.byte	0x51
 4989 1675 02       		.uleb128 0x2
 4990 1676 08       		.byte	0x8
 4991 1677 73       		.byte	0x73
 4992 1678 26       		.uleb128 0x26
 4993 1679 01       		.uleb128 0x1
 4994 167a 52       		.byte	0x52
 4995 167b 02       		.uleb128 0x2
 4996 167c 08       		.byte	0x8
 4997 167d 5A       		.byte	0x5a
 4998 167e 00       		.byte	0
 4999 167f 25       		.uleb128 0x25
 5000 1680 30000000 		.4byte	.LVL80
 5001 1684 B6210000 		.4byte	0x21b6
 5002 1688 92160000 		.4byte	0x1692
 5003 168c 26       		.uleb128 0x26
 5004 168d 01       		.uleb128 0x1
 5005 168e 50       		.byte	0x50
 5006 168f 01       		.uleb128 0x1
 5007 1690 37       		.byte	0x37
 5008 1691 00       		.byte	0
 5009 1692 24       		.uleb128 0x24
 5010 1693 36000000 		.4byte	.LVL81
 5011 1697 C2210000 		.4byte	0x21c2
 5012 169b 25       		.uleb128 0x25
 5013 169c 40000000 		.4byte	.LVL82
 5014 16a0 CE210000 		.4byte	0x21ce
 5015 16a4 BD160000 		.4byte	0x16bd
 5016 16a8 26       		.uleb128 0x26
 5017 16a9 01       		.uleb128 0x1
 5018 16aa 50       		.byte	0x50
 5019 16ab 05       		.uleb128 0x5
 5020 16ac 03       		.byte	0x3
 5021 16ad 94000000 		.4byte	.LC10
 5022 16b1 26       		.uleb128 0x26
 5023 16b2 01       		.uleb128 0x1
 5024 16b3 51       		.byte	0x51
 5025 16b4 02       		.uleb128 0x2
 5026 16b5 08       		.byte	0x8
 5027 16b6 50       		.byte	0x50
 5028 16b7 26       		.uleb128 0x26
 5029 16b8 01       		.uleb128 0x1
 5030 16b9 52       		.byte	0x52
 5031 16ba 01       		.uleb128 0x1
 5032 16bb 44       		.byte	0x44
 5033 16bc 00       		.byte	0
 5034 16bd 27       		.uleb128 0x27
ARM GAS  C:\Users\felha\AppData\Local\Temp\ccuk7kBX.s 			page 114


 5035 16be 48000000 		.4byte	.LVL83
 5036 16c2 F00F0000 		.4byte	0xff0
 5037 16c6 26       		.uleb128 0x26
 5038 16c7 01       		.uleb128 0x1
 5039 16c8 50       		.byte	0x50
 5040 16c9 01       		.uleb128 0x1
 5041 16ca 31       		.byte	0x31
 5042 16cb 26       		.uleb128 0x26
 5043 16cc 01       		.uleb128 0x1
 5044 16cd 51       		.byte	0x51
 5045 16ce 01       		.uleb128 0x1
 5046 16cf 31       		.byte	0x31
 5047 16d0 00       		.byte	0
 5048 16d1 00       		.byte	0
 5049 16d2 21       		.uleb128 0x21
 5050 16d3 B7110000 		.4byte	.LASF286
 5051 16d7 01       		.byte	0x1
 5052 16d8 7E       		.byte	0x7e
 5053 16d9 00000000 		.4byte	.LFB657
 5054 16dd 20010000 		.4byte	.LFE657-.LFB657
 5055 16e1 01       		.uleb128 0x1
 5056 16e2 9C       		.byte	0x9c
 5057 16e3 77190000 		.4byte	0x1977
 5058 16e7 22       		.uleb128 0x22
 5059 16e8 4A100000 		.4byte	.LASF287
 5060 16ec 01       		.byte	0x1
 5061 16ed 7E       		.byte	0x7e
 5062 16ee 94000000 		.4byte	0x94
 5063 16f2 61020000 		.4byte	.LLST16
 5064 16f6 22       		.uleb128 0x22
 5065 16f7 3A0D0000 		.4byte	.LASF288
 5066 16fb 01       		.byte	0x1
 5067 16fc 7E       		.byte	0x7e
 5068 16fd 94000000 		.4byte	0x94
 5069 1701 8D020000 		.4byte	.LLST17
 5070 1705 22       		.uleb128 0x22
 5071 1706 420D0000 		.4byte	.LASF289
 5072 170a 01       		.byte	0x1
 5073 170b 7E       		.byte	0x7e
 5074 170c 94000000 		.4byte	0x94
 5075 1710 B9020000 		.4byte	.LLST18
 5076 1714 24       		.uleb128 0x24
 5077 1715 0C000000 		.4byte	.LVL86
 5078 1719 86210000 		.4byte	0x2186
 5079 171d 25       		.uleb128 0x25
 5080 171e 12000000 		.4byte	.LVL87
 5081 1722 B6210000 		.4byte	0x21b6
 5082 1726 30170000 		.4byte	0x1730
 5083 172a 26       		.uleb128 0x26
 5084 172b 01       		.uleb128 0x1
 5085 172c 50       		.byte	0x50
 5086 172d 01       		.uleb128 0x1
 5087 172e 37       		.byte	0x37
 5088 172f 00       		.byte	0
 5089 1730 24       		.uleb128 0x24
 5090 1731 18000000 		.4byte	.LVL88
 5091 1735 C2210000 		.4byte	0x21c2
ARM GAS  C:\Users\felha\AppData\Local\Temp\ccuk7kBX.s 			page 115


 5092 1739 25       		.uleb128 0x25
 5093 173a 24000000 		.4byte	.LVL89
 5094 173e CE210000 		.4byte	0x21ce
 5095 1742 5A170000 		.4byte	0x175a
 5096 1746 26       		.uleb128 0x26
 5097 1747 01       		.uleb128 0x1
 5098 1748 50       		.byte	0x50
 5099 1749 05       		.uleb128 0x5
 5100 174a 03       		.byte	0x3
 5101 174b AC000000 		.4byte	.LC11
 5102 174f 26       		.uleb128 0x26
 5103 1750 01       		.uleb128 0x1
 5104 1751 51       		.byte	0x51
 5105 1752 01       		.uleb128 0x1
 5106 1753 44       		.byte	0x44
 5107 1754 26       		.uleb128 0x26
 5108 1755 01       		.uleb128 0x1
 5109 1756 52       		.byte	0x52
 5110 1757 01       		.uleb128 0x1
 5111 1758 44       		.byte	0x44
 5112 1759 00       		.byte	0
 5113 175a 25       		.uleb128 0x25
 5114 175b 2E000000 		.4byte	.LVL90
 5115 175f CE210000 		.4byte	0x21ce
 5116 1763 7C170000 		.4byte	0x177c
 5117 1767 26       		.uleb128 0x26
 5118 1768 01       		.uleb128 0x1
 5119 1769 50       		.byte	0x50
 5120 176a 05       		.uleb128 0x5
 5121 176b 03       		.byte	0x3
 5122 176c D8000000 		.4byte	.LC12
 5123 1770 26       		.uleb128 0x26
 5124 1771 01       		.uleb128 0x1
 5125 1772 51       		.byte	0x51
 5126 1773 01       		.uleb128 0x1
 5127 1774 44       		.byte	0x44
 5128 1775 26       		.uleb128 0x26
 5129 1776 01       		.uleb128 0x1
 5130 1777 52       		.byte	0x52
 5131 1778 02       		.uleb128 0x2
 5132 1779 08       		.byte	0x8
 5133 177a 32       		.byte	0x32
 5134 177b 00       		.byte	0
 5135 177c 25       		.uleb128 0x25
 5136 177d 38000000 		.4byte	.LVL91
 5137 1781 CE210000 		.4byte	0x21ce
 5138 1785 9E170000 		.4byte	0x179e
 5139 1789 26       		.uleb128 0x26
 5140 178a 01       		.uleb128 0x1
 5141 178b 50       		.byte	0x50
 5142 178c 05       		.uleb128 0x5
 5143 178d 03       		.byte	0x3
 5144 178e 08010000 		.4byte	.LC13
 5145 1792 26       		.uleb128 0x26
 5146 1793 01       		.uleb128 0x1
 5147 1794 51       		.byte	0x51
 5148 1795 01       		.uleb128 0x1
ARM GAS  C:\Users\felha\AppData\Local\Temp\ccuk7kBX.s 			page 116


 5149 1796 44       		.byte	0x44
 5150 1797 26       		.uleb128 0x26
 5151 1798 01       		.uleb128 0x1
 5152 1799 52       		.byte	0x52
 5153 179a 02       		.uleb128 0x2
 5154 179b 08       		.byte	0x8
 5155 179c 50       		.byte	0x50
 5156 179d 00       		.byte	0
 5157 179e 25       		.uleb128 0x25
 5158 179f 46000000 		.4byte	.LVL92
 5159 17a3 CE210000 		.4byte	0x21ce
 5160 17a7 C0170000 		.4byte	0x17c0
 5161 17ab 26       		.uleb128 0x26
 5162 17ac 01       		.uleb128 0x1
 5163 17ad 50       		.byte	0x50
 5164 17ae 05       		.uleb128 0x5
 5165 17af 03       		.byte	0x3
 5166 17b0 38010000 		.4byte	.LC14
 5167 17b4 26       		.uleb128 0x26
 5168 17b5 01       		.uleb128 0x1
 5169 17b6 51       		.byte	0x51
 5170 17b7 02       		.uleb128 0x2
 5171 17b8 08       		.byte	0x8
 5172 17b9 50       		.byte	0x50
 5173 17ba 26       		.uleb128 0x26
 5174 17bb 01       		.uleb128 0x1
 5175 17bc 52       		.byte	0x52
 5176 17bd 01       		.uleb128 0x1
 5177 17be 30       		.byte	0x30
 5178 17bf 00       		.byte	0
 5179 17c0 25       		.uleb128 0x25
 5180 17c1 50000000 		.4byte	.LVL93
 5181 17c5 CE210000 		.4byte	0x21ce
 5182 17c9 E2170000 		.4byte	0x17e2
 5183 17cd 26       		.uleb128 0x26
 5184 17ce 01       		.uleb128 0x1
 5185 17cf 50       		.byte	0x50
 5186 17d0 05       		.uleb128 0x5
 5187 17d1 03       		.byte	0x3
 5188 17d2 4C010000 		.4byte	.LC15
 5189 17d6 26       		.uleb128 0x26
 5190 17d7 01       		.uleb128 0x1
 5191 17d8 51       		.byte	0x51
 5192 17d9 01       		.uleb128 0x1
 5193 17da 4E       		.byte	0x4e
 5194 17db 26       		.uleb128 0x26
 5195 17dc 01       		.uleb128 0x1
 5196 17dd 52       		.byte	0x52
 5197 17de 02       		.uleb128 0x2
 5198 17df 08       		.byte	0x8
 5199 17e0 32       		.byte	0x32
 5200 17e1 00       		.byte	0
 5201 17e2 25       		.uleb128 0x25
 5202 17e3 5A000000 		.4byte	.LVL94
 5203 17e7 CE210000 		.4byte	0x21ce
 5204 17eb 04180000 		.4byte	0x1804
 5205 17ef 26       		.uleb128 0x26
ARM GAS  C:\Users\felha\AppData\Local\Temp\ccuk7kBX.s 			page 117


 5206 17f0 01       		.uleb128 0x1
 5207 17f1 50       		.byte	0x50
 5208 17f2 05       		.uleb128 0x5
 5209 17f3 03       		.byte	0x3
 5210 17f4 64010000 		.4byte	.LC16
 5211 17f8 26       		.uleb128 0x26
 5212 17f9 01       		.uleb128 0x1
 5213 17fa 51       		.byte	0x51
 5214 17fb 01       		.uleb128 0x1
 5215 17fc 4E       		.byte	0x4e
 5216 17fd 26       		.uleb128 0x26
 5217 17fe 01       		.uleb128 0x1
 5218 17ff 52       		.byte	0x52
 5219 1800 02       		.uleb128 0x2
 5220 1801 08       		.byte	0x8
 5221 1802 50       		.byte	0x50
 5222 1803 00       		.byte	0
 5223 1804 25       		.uleb128 0x25
 5224 1805 64000000 		.4byte	.LVL95
 5225 1809 CE210000 		.4byte	0x21ce
 5226 180d 26180000 		.4byte	0x1826
 5227 1811 26       		.uleb128 0x26
 5228 1812 01       		.uleb128 0x1
 5229 1813 50       		.byte	0x50
 5230 1814 05       		.uleb128 0x5
 5231 1815 03       		.byte	0x3
 5232 1816 8C010000 		.4byte	.LC17
 5233 181a 26       		.uleb128 0x26
 5234 181b 01       		.uleb128 0x1
 5235 181c 51       		.byte	0x51
 5236 181d 01       		.uleb128 0x1
 5237 181e 4E       		.byte	0x4e
 5238 181f 26       		.uleb128 0x26
 5239 1820 01       		.uleb128 0x1
 5240 1821 52       		.byte	0x52
 5241 1822 02       		.uleb128 0x2
 5242 1823 08       		.byte	0x8
 5243 1824 6E       		.byte	0x6e
 5244 1825 00       		.byte	0
 5245 1826 25       		.uleb128 0x25
 5246 1827 6E000000 		.4byte	.LVL96
 5247 182b CE210000 		.4byte	0x21ce
 5248 182f 48180000 		.4byte	0x1848
 5249 1833 26       		.uleb128 0x26
 5250 1834 01       		.uleb128 0x1
 5251 1835 50       		.byte	0x50
 5252 1836 05       		.uleb128 0x5
 5253 1837 03       		.byte	0x3
 5254 1838 A0010000 		.4byte	.LC18
 5255 183c 26       		.uleb128 0x26
 5256 183d 01       		.uleb128 0x1
 5257 183e 51       		.byte	0x51
 5258 183f 01       		.uleb128 0x1
 5259 1840 4E       		.byte	0x4e
 5260 1841 26       		.uleb128 0x26
 5261 1842 01       		.uleb128 0x1
 5262 1843 52       		.byte	0x52
ARM GAS  C:\Users\felha\AppData\Local\Temp\ccuk7kBX.s 			page 118


 5263 1844 02       		.uleb128 0x2
 5264 1845 08       		.byte	0x8
 5265 1846 8C       		.byte	0x8c
 5266 1847 00       		.byte	0
 5267 1848 25       		.uleb128 0x25
 5268 1849 7C000000 		.4byte	.LVL97
 5269 184d F1210000 		.4byte	0x21f1
 5270 1851 66180000 		.4byte	0x1866
 5271 1855 26       		.uleb128 0x26
 5272 1856 01       		.uleb128 0x1
 5273 1857 50       		.byte	0x50
 5274 1858 01       		.uleb128 0x1
 5275 1859 3F       		.byte	0x3f
 5276 185a 26       		.uleb128 0x26
 5277 185b 01       		.uleb128 0x1
 5278 185c 51       		.byte	0x51
 5279 185d 02       		.uleb128 0x2
 5280 185e 08       		.byte	0x8
 5281 185f 37       		.byte	0x37
 5282 1860 26       		.uleb128 0x26
 5283 1861 01       		.uleb128 0x1
 5284 1862 52       		.byte	0x52
 5285 1863 01       		.uleb128 0x1
 5286 1864 35       		.byte	0x35
 5287 1865 00       		.byte	0
 5288 1866 25       		.uleb128 0x25
 5289 1867 8A000000 		.4byte	.LVL98
 5290 186b F1210000 		.4byte	0x21f1
 5291 186f 84180000 		.4byte	0x1884
 5292 1873 26       		.uleb128 0x26
 5293 1874 01       		.uleb128 0x1
 5294 1875 50       		.byte	0x50
 5295 1876 01       		.uleb128 0x1
 5296 1877 3F       		.byte	0x3f
 5297 1878 26       		.uleb128 0x26
 5298 1879 01       		.uleb128 0x1
 5299 187a 51       		.byte	0x51
 5300 187b 02       		.uleb128 0x2
 5301 187c 08       		.byte	0x8
 5302 187d 55       		.byte	0x55
 5303 187e 26       		.uleb128 0x26
 5304 187f 01       		.uleb128 0x1
 5305 1880 52       		.byte	0x52
 5306 1881 01       		.uleb128 0x1
 5307 1882 35       		.byte	0x35
 5308 1883 00       		.byte	0
 5309 1884 25       		.uleb128 0x25
 5310 1885 98000000 		.4byte	.LVL99
 5311 1889 F1210000 		.4byte	0x21f1
 5312 188d A2180000 		.4byte	0x18a2
 5313 1891 26       		.uleb128 0x26
 5314 1892 01       		.uleb128 0x1
 5315 1893 50       		.byte	0x50
 5316 1894 01       		.uleb128 0x1
 5317 1895 3F       		.byte	0x3f
 5318 1896 26       		.uleb128 0x26
 5319 1897 01       		.uleb128 0x1
ARM GAS  C:\Users\felha\AppData\Local\Temp\ccuk7kBX.s 			page 119


 5320 1898 51       		.byte	0x51
 5321 1899 02       		.uleb128 0x2
 5322 189a 08       		.byte	0x8
 5323 189b 73       		.byte	0x73
 5324 189c 26       		.uleb128 0x26
 5325 189d 01       		.uleb128 0x1
 5326 189e 52       		.byte	0x52
 5327 189f 01       		.uleb128 0x1
 5328 18a0 35       		.byte	0x35
 5329 18a1 00       		.byte	0
 5330 18a2 25       		.uleb128 0x25
 5331 18a3 A6000000 		.4byte	.LVL100
 5332 18a7 F1210000 		.4byte	0x21f1
 5333 18ab C0180000 		.4byte	0x18c0
 5334 18af 26       		.uleb128 0x26
 5335 18b0 01       		.uleb128 0x1
 5336 18b1 50       		.byte	0x50
 5337 18b2 01       		.uleb128 0x1
 5338 18b3 3F       		.byte	0x3f
 5339 18b4 26       		.uleb128 0x26
 5340 18b5 01       		.uleb128 0x1
 5341 18b6 51       		.byte	0x51
 5342 18b7 02       		.uleb128 0x2
 5343 18b8 08       		.byte	0x8
 5344 18b9 91       		.byte	0x91
 5345 18ba 26       		.uleb128 0x26
 5346 18bb 01       		.uleb128 0x1
 5347 18bc 52       		.byte	0x52
 5348 18bd 01       		.uleb128 0x1
 5349 18be 35       		.byte	0x35
 5350 18bf 00       		.byte	0
 5351 18c0 25       		.uleb128 0x25
 5352 18c1 B4000000 		.4byte	.LVL101
 5353 18c5 CE210000 		.4byte	0x21ce
 5354 18c9 E2180000 		.4byte	0x18e2
 5355 18cd 26       		.uleb128 0x26
 5356 18ce 01       		.uleb128 0x1
 5357 18cf 50       		.byte	0x50
 5358 18d0 05       		.uleb128 0x5
 5359 18d1 03       		.byte	0x3
 5360 18d2 B8010000 		.4byte	.LC19
 5361 18d6 26       		.uleb128 0x26
 5362 18d7 01       		.uleb128 0x1
 5363 18d8 51       		.byte	0x51
 5364 18d9 02       		.uleb128 0x2
 5365 18da 08       		.byte	0x8
 5366 18db 50       		.byte	0x50
 5367 18dc 26       		.uleb128 0x26
 5368 18dd 01       		.uleb128 0x1
 5369 18de 52       		.byte	0x52
 5370 18df 01       		.uleb128 0x1
 5371 18e0 30       		.byte	0x30
 5372 18e1 00       		.byte	0
 5373 18e2 25       		.uleb128 0x25
 5374 18e3 BE000000 		.4byte	.LVL102
 5375 18e7 CE210000 		.4byte	0x21ce
 5376 18eb 04190000 		.4byte	0x1904
ARM GAS  C:\Users\felha\AppData\Local\Temp\ccuk7kBX.s 			page 120


 5377 18ef 26       		.uleb128 0x26
 5378 18f0 01       		.uleb128 0x1
 5379 18f1 50       		.byte	0x50
 5380 18f2 05       		.uleb128 0x5
 5381 18f3 03       		.byte	0x3
 5382 18f4 CC010000 		.4byte	.LC20
 5383 18f8 26       		.uleb128 0x26
 5384 18f9 01       		.uleb128 0x1
 5385 18fa 51       		.byte	0x51
 5386 18fb 01       		.uleb128 0x1
 5387 18fc 4E       		.byte	0x4e
 5388 18fd 26       		.uleb128 0x26
 5389 18fe 01       		.uleb128 0x1
 5390 18ff 52       		.byte	0x52
 5391 1900 02       		.uleb128 0x2
 5392 1901 08       		.byte	0x8
 5393 1902 32       		.byte	0x32
 5394 1903 00       		.byte	0
 5395 1904 25       		.uleb128 0x25
 5396 1905 C8000000 		.4byte	.LVL103
 5397 1909 CE210000 		.4byte	0x21ce
 5398 190d 26190000 		.4byte	0x1926
 5399 1911 26       		.uleb128 0x26
 5400 1912 01       		.uleb128 0x1
 5401 1913 50       		.byte	0x50
 5402 1914 05       		.uleb128 0x5
 5403 1915 03       		.byte	0x3
 5404 1916 E8010000 		.4byte	.LC21
 5405 191a 26       		.uleb128 0x26
 5406 191b 01       		.uleb128 0x1
 5407 191c 51       		.byte	0x51
 5408 191d 01       		.uleb128 0x1
 5409 191e 4E       		.byte	0x4e
 5410 191f 26       		.uleb128 0x26
 5411 1920 01       		.uleb128 0x1
 5412 1921 52       		.byte	0x52
 5413 1922 02       		.uleb128 0x2
 5414 1923 08       		.byte	0x8
 5415 1924 50       		.byte	0x50
 5416 1925 00       		.byte	0
 5417 1926 25       		.uleb128 0x25
 5418 1927 D6000000 		.4byte	.LVL104
 5419 192b F1210000 		.4byte	0x21f1
 5420 192f 44190000 		.4byte	0x1944
 5421 1933 26       		.uleb128 0x26
 5422 1934 01       		.uleb128 0x1
 5423 1935 50       		.byte	0x50
 5424 1936 01       		.uleb128 0x1
 5425 1937 3F       		.byte	0x3f
 5426 1938 26       		.uleb128 0x26
 5427 1939 01       		.uleb128 0x1
 5428 193a 51       		.byte	0x51
 5429 193b 02       		.uleb128 0x2
 5430 193c 08       		.byte	0x8
 5431 193d 37       		.byte	0x37
 5432 193e 26       		.uleb128 0x26
 5433 193f 01       		.uleb128 0x1
ARM GAS  C:\Users\felha\AppData\Local\Temp\ccuk7kBX.s 			page 121


 5434 1940 52       		.byte	0x52
 5435 1941 01       		.uleb128 0x1
 5436 1942 35       		.byte	0x35
 5437 1943 00       		.byte	0
 5438 1944 25       		.uleb128 0x25
 5439 1945 E4000000 		.4byte	.LVL105
 5440 1949 F1210000 		.4byte	0x21f1
 5441 194d 62190000 		.4byte	0x1962
 5442 1951 26       		.uleb128 0x26
 5443 1952 01       		.uleb128 0x1
 5444 1953 50       		.byte	0x50
 5445 1954 01       		.uleb128 0x1
 5446 1955 3F       		.byte	0x3f
 5447 1956 26       		.uleb128 0x26
 5448 1957 01       		.uleb128 0x1
 5449 1958 51       		.byte	0x51
 5450 1959 02       		.uleb128 0x2
 5451 195a 08       		.byte	0x8
 5452 195b 55       		.byte	0x55
 5453 195c 26       		.uleb128 0x26
 5454 195d 01       		.uleb128 0x1
 5455 195e 52       		.byte	0x52
 5456 195f 01       		.uleb128 0x1
 5457 1960 35       		.byte	0x35
 5458 1961 00       		.byte	0
 5459 1962 27       		.uleb128 0x27
 5460 1963 EC000000 		.4byte	.LVL106
 5461 1967 F00F0000 		.4byte	0xff0
 5462 196b 26       		.uleb128 0x26
 5463 196c 01       		.uleb128 0x1
 5464 196d 50       		.byte	0x50
 5465 196e 01       		.uleb128 0x1
 5466 196f 31       		.byte	0x31
 5467 1970 26       		.uleb128 0x26
 5468 1971 01       		.uleb128 0x1
 5469 1972 51       		.byte	0x51
 5470 1973 01       		.uleb128 0x1
 5471 1974 31       		.byte	0x31
 5472 1975 00       		.byte	0
 5473 1976 00       		.byte	0
 5474 1977 2F       		.uleb128 0x2f
 5475 1978 5A0B0000 		.4byte	.LASF291
 5476 197c 01       		.byte	0x1
 5477 197d B3       		.byte	0xb3
 5478 197e 00000000 		.4byte	.LFB658
 5479 1982 60000000 		.4byte	.LFE658-.LFB658
 5480 1986 01       		.uleb128 0x1
 5481 1987 9C       		.byte	0x9c
 5482 1988 151A0000 		.4byte	0x1a15
 5483 198c 2C       		.uleb128 0x2c
 5484 198d 1E000000 		.4byte	.LBB12
 5485 1991 1A000000 		.4byte	.LBE12-.LBB12
 5486 1995 D7190000 		.4byte	0x19d7
 5487 1999 23       		.uleb128 0x23
 5488 199a 2D020000 		.4byte	.LASF290
 5489 199e 01       		.byte	0x1
 5490 199f B9       		.byte	0xb9
ARM GAS  C:\Users\felha\AppData\Local\Temp\ccuk7kBX.s 			page 122


 5491 19a0 A2000000 		.4byte	0xa2
 5492 19a4 E5020000 		.4byte	.LLST19
 5493 19a8 25       		.uleb128 0x25
 5494 19a9 30000000 		.4byte	.LVL111
 5495 19ad FD210000 		.4byte	0x21fd
 5496 19b1 C1190000 		.4byte	0x19c1
 5497 19b5 26       		.uleb128 0x26
 5498 19b6 01       		.uleb128 0x1
 5499 19b7 50       		.byte	0x50
 5500 19b8 01       		.uleb128 0x1
 5501 19b9 3C       		.byte	0x3c
 5502 19ba 26       		.uleb128 0x26
 5503 19bb 01       		.uleb128 0x1
 5504 19bc 51       		.byte	0x51
 5505 19bd 02       		.uleb128 0x2
 5506 19be 74       		.byte	0x74
 5507 19bf 00       		.sleb128 0
 5508 19c0 00       		.byte	0
 5509 19c1 27       		.uleb128 0x27
 5510 19c2 38000000 		.4byte	.LVL112
 5511 19c6 FD210000 		.4byte	0x21fd
 5512 19ca 26       		.uleb128 0x26
 5513 19cb 01       		.uleb128 0x1
 5514 19cc 50       		.byte	0x50
 5515 19cd 01       		.uleb128 0x1
 5516 19ce 3D       		.byte	0x3d
 5517 19cf 26       		.uleb128 0x26
 5518 19d0 01       		.uleb128 0x1
 5519 19d1 51       		.byte	0x51
 5520 19d2 02       		.uleb128 0x2
 5521 19d3 74       		.byte	0x74
 5522 19d4 00       		.sleb128 0
 5523 19d5 00       		.byte	0
 5524 19d6 00       		.byte	0
 5525 19d7 24       		.uleb128 0x24
 5526 19d8 06000000 		.4byte	.LVL108
 5527 19dc 08220000 		.4byte	0x2208
 5528 19e0 25       		.uleb128 0x25
 5529 19e1 0C000000 		.4byte	.LVL109
 5530 19e5 13220000 		.4byte	0x2213
 5531 19e9 F3190000 		.4byte	0x19f3
 5532 19ed 26       		.uleb128 0x26
 5533 19ee 01       		.uleb128 0x1
 5534 19ef 50       		.byte	0x50
 5535 19f0 01       		.uleb128 0x1
 5536 19f1 30       		.byte	0x30
 5537 19f2 00       		.byte	0
 5538 19f3 24       		.uleb128 0x24
 5539 19f4 44000000 		.4byte	.LVL113
 5540 19f8 1F220000 		.4byte	0x221f
 5541 19fc 24       		.uleb128 0x24
 5542 19fd 48000000 		.4byte	.LVL114
 5543 1a01 2A220000 		.4byte	0x222a
 5544 1a05 27       		.uleb128 0x27
 5545 1a06 4E000000 		.4byte	.LVL115
 5546 1a0a 35220000 		.4byte	0x2235
 5547 1a0e 26       		.uleb128 0x26
ARM GAS  C:\Users\felha\AppData\Local\Temp\ccuk7kBX.s 			page 123


 5548 1a0f 01       		.uleb128 0x1
 5549 1a10 50       		.byte	0x50
 5550 1a11 01       		.uleb128 0x1
 5551 1a12 31       		.byte	0x31
 5552 1a13 00       		.byte	0
 5553 1a14 00       		.byte	0
 5554 1a15 2F       		.uleb128 0x2f
 5555 1a16 020B0000 		.4byte	.LASF292
 5556 1a1a 01       		.byte	0x1
 5557 1a1b C7       		.byte	0xc7
 5558 1a1c 00000000 		.4byte	.LFB659
 5559 1a20 AC000000 		.4byte	.LFE659-.LFB659
 5560 1a24 01       		.uleb128 0x1
 5561 1a25 9C       		.byte	0x9c
 5562 1a26 7A1A0000 		.4byte	0x1a7a
 5563 1a2a 24       		.uleb128 0x24
 5564 1a2b 06000000 		.4byte	.LVL116
 5565 1a2f 08220000 		.4byte	0x2208
 5566 1a33 25       		.uleb128 0x25
 5567 1a34 0C000000 		.4byte	.LVL117
 5568 1a38 13220000 		.4byte	0x2213
 5569 1a3c 461A0000 		.4byte	0x1a46
 5570 1a40 26       		.uleb128 0x26
 5571 1a41 01       		.uleb128 0x1
 5572 1a42 50       		.byte	0x50
 5573 1a43 01       		.uleb128 0x1
 5574 1a44 30       		.byte	0x30
 5575 1a45 00       		.byte	0
 5576 1a46 24       		.uleb128 0x24
 5577 1a47 74000000 		.4byte	.LVL118
 5578 1a4b 1F220000 		.4byte	0x221f
 5579 1a4f 24       		.uleb128 0x24
 5580 1a50 78000000 		.4byte	.LVL119
 5581 1a54 2A220000 		.4byte	0x222a
 5582 1a58 24       		.uleb128 0x24
 5583 1a59 86000000 		.4byte	.LVL120
 5584 1a5d F8140000 		.4byte	0x14f8
 5585 1a61 24       		.uleb128 0x24
 5586 1a62 90000000 		.4byte	.LVL121
 5587 1a66 08220000 		.4byte	0x2208
 5588 1a6a 27       		.uleb128 0x27
 5589 1a6b 96000000 		.4byte	.LVL122
 5590 1a6f 35220000 		.4byte	0x2235
 5591 1a73 26       		.uleb128 0x26
 5592 1a74 01       		.uleb128 0x1
 5593 1a75 50       		.byte	0x50
 5594 1a76 01       		.uleb128 0x1
 5595 1a77 31       		.byte	0x31
 5596 1a78 00       		.byte	0
 5597 1a79 00       		.byte	0
 5598 1a7a 2F       		.uleb128 0x2f
 5599 1a7b 780F0000 		.4byte	.LASF293
 5600 1a7f 01       		.byte	0x1
 5601 1a80 EB       		.byte	0xeb
 5602 1a81 00000000 		.4byte	.LFB660
 5603 1a85 AC000000 		.4byte	.LFE660-.LFB660
 5604 1a89 01       		.uleb128 0x1
ARM GAS  C:\Users\felha\AppData\Local\Temp\ccuk7kBX.s 			page 124


 5605 1a8a 9C       		.byte	0x9c
 5606 1a8b DF1A0000 		.4byte	0x1adf
 5607 1a8f 24       		.uleb128 0x24
 5608 1a90 06000000 		.4byte	.LVL123
 5609 1a94 08220000 		.4byte	0x2208
 5610 1a98 25       		.uleb128 0x25
 5611 1a99 0C000000 		.4byte	.LVL124
 5612 1a9d 13220000 		.4byte	0x2213
 5613 1aa1 AB1A0000 		.4byte	0x1aab
 5614 1aa5 26       		.uleb128 0x26
 5615 1aa6 01       		.uleb128 0x1
 5616 1aa7 50       		.byte	0x50
 5617 1aa8 01       		.uleb128 0x1
 5618 1aa9 30       		.byte	0x30
 5619 1aaa 00       		.byte	0
 5620 1aab 24       		.uleb128 0x24
 5621 1aac 74000000 		.4byte	.LVL125
 5622 1ab0 1F220000 		.4byte	0x221f
 5623 1ab4 24       		.uleb128 0x24
 5624 1ab5 78000000 		.4byte	.LVL126
 5625 1ab9 2A220000 		.4byte	0x222a
 5626 1abd 24       		.uleb128 0x24
 5627 1abe 86000000 		.4byte	.LVL127
 5628 1ac2 E5150000 		.4byte	0x15e5
 5629 1ac6 24       		.uleb128 0x24
 5630 1ac7 90000000 		.4byte	.LVL128
 5631 1acb 08220000 		.4byte	0x2208
 5632 1acf 27       		.uleb128 0x27
 5633 1ad0 96000000 		.4byte	.LVL129
 5634 1ad4 35220000 		.4byte	0x2235
 5635 1ad8 26       		.uleb128 0x26
 5636 1ad9 01       		.uleb128 0x1
 5637 1ada 50       		.byte	0x50
 5638 1adb 01       		.uleb128 0x1
 5639 1adc 31       		.byte	0x31
 5640 1add 00       		.byte	0
 5641 1ade 00       		.byte	0
 5642 1adf 30       		.uleb128 0x30
 5643 1ae0 64090000 		.4byte	.LASF294
 5644 1ae4 01       		.byte	0x1
 5645 1ae5 0F01     		.2byte	0x10f
 5646 1ae7 00000000 		.4byte	.LFB661
 5647 1aeb 54000000 		.4byte	.LFE661-.LFB661
 5648 1aef 01       		.uleb128 0x1
 5649 1af0 9C       		.byte	0x9c
 5650 1af1 751B0000 		.4byte	0x1b75
 5651 1af5 24       		.uleb128 0x24
 5652 1af6 06000000 		.4byte	.LVL130
 5653 1afa 86210000 		.4byte	0x2186
 5654 1afe 25       		.uleb128 0x25
 5655 1aff 0C000000 		.4byte	.LVL131
 5656 1b03 B6210000 		.4byte	0x21b6
 5657 1b07 111B0000 		.4byte	0x1b11
 5658 1b0b 26       		.uleb128 0x26
 5659 1b0c 01       		.uleb128 0x1
 5660 1b0d 50       		.byte	0x50
 5661 1b0e 01       		.uleb128 0x1
ARM GAS  C:\Users\felha\AppData\Local\Temp\ccuk7kBX.s 			page 125


 5662 1b0f 37       		.byte	0x37
 5663 1b10 00       		.byte	0
 5664 1b11 24       		.uleb128 0x24
 5665 1b12 12000000 		.4byte	.LVL132
 5666 1b16 C2210000 		.4byte	0x21c2
 5667 1b1a 25       		.uleb128 0x25
 5668 1b1b 26000000 		.4byte	.LVL133
 5669 1b1f CE210000 		.4byte	0x21ce
 5670 1b23 3D1B0000 		.4byte	0x1b3d
 5671 1b27 26       		.uleb128 0x26
 5672 1b28 01       		.uleb128 0x1
 5673 1b29 50       		.byte	0x50
 5674 1b2a 05       		.uleb128 0x5
 5675 1b2b 03       		.byte	0x3
 5676 1b2c 04020000 		.4byte	.LC22
 5677 1b30 26       		.uleb128 0x26
 5678 1b31 01       		.uleb128 0x1
 5679 1b32 51       		.byte	0x51
 5680 1b33 02       		.uleb128 0x2
 5681 1b34 08       		.byte	0x8
 5682 1b35 50       		.byte	0x50
 5683 1b36 26       		.uleb128 0x26
 5684 1b37 01       		.uleb128 0x1
 5685 1b38 52       		.byte	0x52
 5686 1b39 02       		.uleb128 0x2
 5687 1b3a 08       		.byte	0x8
 5688 1b3b 50       		.byte	0x50
 5689 1b3c 00       		.byte	0
 5690 1b3d 25       		.uleb128 0x25
 5691 1b3e 3A000000 		.4byte	.LVL134
 5692 1b42 CE210000 		.4byte	0x21ce
 5693 1b46 601B0000 		.4byte	0x1b60
 5694 1b4a 26       		.uleb128 0x26
 5695 1b4b 01       		.uleb128 0x1
 5696 1b4c 50       		.byte	0x50
 5697 1b4d 05       		.uleb128 0x5
 5698 1b4e 03       		.byte	0x3
 5699 1b4f 14020000 		.4byte	.LC23
 5700 1b53 26       		.uleb128 0x26
 5701 1b54 01       		.uleb128 0x1
 5702 1b55 51       		.byte	0x51
 5703 1b56 02       		.uleb128 0x2
 5704 1b57 08       		.byte	0x8
 5705 1b58 50       		.byte	0x50
 5706 1b59 26       		.uleb128 0x26
 5707 1b5a 01       		.uleb128 0x1
 5708 1b5b 52       		.byte	0x52
 5709 1b5c 02       		.uleb128 0x2
 5710 1b5d 08       		.byte	0x8
 5711 1b5e 50       		.byte	0x50
 5712 1b5f 00       		.byte	0
 5713 1b60 27       		.uleb128 0x27
 5714 1b61 42000000 		.4byte	.LVL135
 5715 1b65 F00F0000 		.4byte	0xff0
 5716 1b69 26       		.uleb128 0x26
 5717 1b6a 01       		.uleb128 0x1
 5718 1b6b 50       		.byte	0x50
ARM GAS  C:\Users\felha\AppData\Local\Temp\ccuk7kBX.s 			page 126


 5719 1b6c 01       		.uleb128 0x1
 5720 1b6d 31       		.byte	0x31
 5721 1b6e 26       		.uleb128 0x26
 5722 1b6f 01       		.uleb128 0x1
 5723 1b70 51       		.byte	0x51
 5724 1b71 01       		.uleb128 0x1
 5725 1b72 31       		.byte	0x31
 5726 1b73 00       		.byte	0
 5727 1b74 00       		.byte	0
 5728 1b75 30       		.uleb128 0x30
 5729 1b76 76090000 		.4byte	.LASF295
 5730 1b7a 01       		.byte	0x1
 5731 1b7b 1E01     		.2byte	0x11e
 5732 1b7d 00000000 		.4byte	.LFB662
 5733 1b81 6C000000 		.4byte	.LFE662-.LFB662
 5734 1b85 01       		.uleb128 0x1
 5735 1b86 9C       		.byte	0x9c
 5736 1b87 E41B0000 		.4byte	0x1be4
 5737 1b8b 24       		.uleb128 0x24
 5738 1b8c 06000000 		.4byte	.LVL136
 5739 1b90 08220000 		.4byte	0x2208
 5740 1b94 25       		.uleb128 0x25
 5741 1b95 0C000000 		.4byte	.LVL137
 5742 1b99 13220000 		.4byte	0x2213
 5743 1b9d A71B0000 		.4byte	0x1ba7
 5744 1ba1 26       		.uleb128 0x26
 5745 1ba2 01       		.uleb128 0x1
 5746 1ba3 50       		.byte	0x50
 5747 1ba4 01       		.uleb128 0x1
 5748 1ba5 30       		.byte	0x30
 5749 1ba6 00       		.byte	0
 5750 1ba7 24       		.uleb128 0x24
 5751 1ba8 2C000000 		.4byte	.LVL138
 5752 1bac DF1A0000 		.4byte	0x1adf
 5753 1bb0 24       		.uleb128 0x24
 5754 1bb1 3E000000 		.4byte	.LVL139
 5755 1bb5 DF1A0000 		.4byte	0x1adf
 5756 1bb9 24       		.uleb128 0x24
 5757 1bba 48000000 		.4byte	.LVL140
 5758 1bbe 1F220000 		.4byte	0x221f
 5759 1bc2 24       		.uleb128 0x24
 5760 1bc3 4C000000 		.4byte	.LVL141
 5761 1bc7 2A220000 		.4byte	0x222a
 5762 1bcb 24       		.uleb128 0x24
 5763 1bcc 50000000 		.4byte	.LVL142
 5764 1bd0 08220000 		.4byte	0x2208
 5765 1bd4 27       		.uleb128 0x27
 5766 1bd5 56000000 		.4byte	.LVL143
 5767 1bd9 35220000 		.4byte	0x2235
 5768 1bdd 26       		.uleb128 0x26
 5769 1bde 01       		.uleb128 0x1
 5770 1bdf 50       		.byte	0x50
 5771 1be0 01       		.uleb128 0x1
 5772 1be1 31       		.byte	0x31
 5773 1be2 00       		.byte	0
 5774 1be3 00       		.byte	0
 5775 1be4 31       		.uleb128 0x31
ARM GAS  C:\Users\felha\AppData\Local\Temp\ccuk7kBX.s 			page 127


 5776 1be5 F7000000 		.4byte	.LASF296
 5777 1be9 01       		.byte	0x1
 5778 1bea 3A01     		.2byte	0x13a
 5779 1bec 00000000 		.4byte	.LFB663
 5780 1bf0 34000000 		.4byte	.LFE663-.LFB663
 5781 1bf4 01       		.uleb128 0x1
 5782 1bf5 9C       		.byte	0x9c
 5783 1bf6 6B1C0000 		.4byte	0x1c6b
 5784 1bfa 32       		.uleb128 0x32
 5785 1bfb BE0F0000 		.4byte	0xfbe
 5786 1bff 16000000 		.4byte	.LBB13
 5787 1c03 08000000 		.4byte	.LBE13-.LBB13
 5788 1c07 01       		.byte	0x1
 5789 1c08 4001     		.2byte	0x140
 5790 1c0a 2A1C0000 		.4byte	0x1c2a
 5791 1c0e 33       		.uleb128 0x33
 5792 1c0f E30F0000 		.4byte	0xfe3
 5793 1c13 F8020000 		.4byte	.LLST20
 5794 1c17 33       		.uleb128 0x33
 5795 1c18 D70F0000 		.4byte	0xfd7
 5796 1c1c 0C030000 		.4byte	.LLST21
 5797 1c20 33       		.uleb128 0x33
 5798 1c21 CB0F0000 		.4byte	0xfcb
 5799 1c25 20030000 		.4byte	.LLST22
 5800 1c29 00       		.byte	0
 5801 1c2a 32       		.uleb128 0x32
 5802 1c2b BE0F0000 		.4byte	0xfbe
 5803 1c2f 1E000000 		.4byte	.LBB15
 5804 1c33 06000000 		.4byte	.LBE15-.LBB15
 5805 1c37 01       		.byte	0x1
 5806 1c38 4401     		.2byte	0x144
 5807 1c3a 5A1C0000 		.4byte	0x1c5a
 5808 1c3e 33       		.uleb128 0x33
 5809 1c3f E30F0000 		.4byte	0xfe3
 5810 1c43 38030000 		.4byte	.LLST23
 5811 1c47 33       		.uleb128 0x33
 5812 1c48 D70F0000 		.4byte	0xfd7
 5813 1c4c 38030000 		.4byte	.LLST23
 5814 1c50 33       		.uleb128 0x33
 5815 1c51 CB0F0000 		.4byte	0xfcb
 5816 1c55 4C030000 		.4byte	.LLST25
 5817 1c59 00       		.byte	0
 5818 1c5a 27       		.uleb128 0x27
 5819 1c5b 2A000000 		.4byte	.LVL147
 5820 1c5f 41220000 		.4byte	0x2241
 5821 1c63 26       		.uleb128 0x26
 5822 1c64 01       		.uleb128 0x1
 5823 1c65 50       		.byte	0x50
 5824 1c66 02       		.uleb128 0x2
 5825 1c67 08       		.byte	0x8
 5826 1c68 C8       		.byte	0xc8
 5827 1c69 00       		.byte	0
 5828 1c6a 00       		.byte	0
 5829 1c6b 31       		.uleb128 0x31
 5830 1c6c 05090000 		.4byte	.LASF297
 5831 1c70 01       		.byte	0x1
 5832 1c71 5201     		.2byte	0x152
ARM GAS  C:\Users\felha\AppData\Local\Temp\ccuk7kBX.s 			page 128


 5833 1c73 00000000 		.4byte	.LFB664
 5834 1c77 7C030000 		.4byte	.LFE664-.LFB664
 5835 1c7b 01       		.uleb128 0x1
 5836 1c7c 9C       		.byte	0x9c
 5837 1c7d 161F0000 		.4byte	0x1f16
 5838 1c81 2E       		.uleb128 0x2e
 5839 1c82 04000000 		.4byte	.LBB17
 5840 1c86 70030000 		.4byte	.LBE17-.LBB17
 5841 1c8a 34       		.uleb128 0x34
 5842 1c8b AD0B0000 		.4byte	.LASF298
 5843 1c8f 01       		.byte	0x1
 5844 1c90 5601     		.2byte	0x156
 5845 1c92 161F0000 		.4byte	0x1f16
 5846 1c96 02       		.uleb128 0x2
 5847 1c97 91       		.byte	0x91
 5848 1c98 74       		.sleb128 -12
 5849 1c99 24       		.uleb128 0x24
 5850 1c9a 0C000000 		.4byte	.LVL148
 5851 1c9e 08220000 		.4byte	0x2208
 5852 1ca2 25       		.uleb128 0x25
 5853 1ca3 12000000 		.4byte	.LVL149
 5854 1ca7 35220000 		.4byte	0x2235
 5855 1cab B51C0000 		.4byte	0x1cb5
 5856 1caf 26       		.uleb128 0x26
 5857 1cb0 01       		.uleb128 0x1
 5858 1cb1 50       		.byte	0x50
 5859 1cb2 01       		.uleb128 0x1
 5860 1cb3 31       		.byte	0x31
 5861 1cb4 00       		.byte	0
 5862 1cb5 24       		.uleb128 0x24
 5863 1cb6 52000000 		.4byte	.LVL150
 5864 1cba D2160000 		.4byte	0x16d2
 5865 1cbe 25       		.uleb128 0x25
 5866 1cbf 58000000 		.4byte	.LVL151
 5867 1cc3 35220000 		.4byte	0x2235
 5868 1cc7 D11C0000 		.4byte	0x1cd1
 5869 1ccb 26       		.uleb128 0x26
 5870 1ccc 01       		.uleb128 0x1
 5871 1ccd 50       		.byte	0x50
 5872 1cce 01       		.uleb128 0x1
 5873 1ccf 32       		.byte	0x32
 5874 1cd0 00       		.byte	0
 5875 1cd1 24       		.uleb128 0x24
 5876 1cd2 98000000 		.4byte	.LVL152
 5877 1cd6 D2160000 		.4byte	0x16d2
 5878 1cda 24       		.uleb128 0x24
 5879 1cdb A8000000 		.4byte	.LVL153
 5880 1cdf 08220000 		.4byte	0x2208
 5881 1ce3 25       		.uleb128 0x25
 5882 1ce4 AE000000 		.4byte	.LVL154
 5883 1ce8 13220000 		.4byte	0x2213
 5884 1cec F61C0000 		.4byte	0x1cf6
 5885 1cf0 26       		.uleb128 0x26
 5886 1cf1 01       		.uleb128 0x1
 5887 1cf2 50       		.byte	0x50
 5888 1cf3 01       		.uleb128 0x1
 5889 1cf4 30       		.byte	0x30
ARM GAS  C:\Users\felha\AppData\Local\Temp\ccuk7kBX.s 			page 129


 5890 1cf5 00       		.byte	0
 5891 1cf6 24       		.uleb128 0x24
 5892 1cf7 EE000000 		.4byte	.LVL155
 5893 1cfb D2160000 		.4byte	0x16d2
 5894 1cff 24       		.uleb128 0x24
 5895 1d00 22010000 		.4byte	.LVL156
 5896 1d04 D2160000 		.4byte	0x16d2
 5897 1d08 24       		.uleb128 0x24
 5898 1d09 30010000 		.4byte	.LVL157
 5899 1d0d 08220000 		.4byte	0x2208
 5900 1d11 25       		.uleb128 0x25
 5901 1d12 36010000 		.4byte	.LVL158
 5902 1d16 35220000 		.4byte	0x2235
 5903 1d1a 241D0000 		.4byte	0x1d24
 5904 1d1e 26       		.uleb128 0x26
 5905 1d1f 01       		.uleb128 0x1
 5906 1d20 50       		.byte	0x50
 5907 1d21 01       		.uleb128 0x1
 5908 1d22 32       		.byte	0x32
 5909 1d23 00       		.byte	0
 5910 1d24 24       		.uleb128 0x24
 5911 1d25 3E010000 		.4byte	.LVL159
 5912 1d29 77190000 		.4byte	0x1977
 5913 1d2d 25       		.uleb128 0x25
 5914 1d2e 44010000 		.4byte	.LVL160
 5915 1d32 41220000 		.4byte	0x2241
 5916 1d36 401D0000 		.4byte	0x1d40
 5917 1d3a 26       		.uleb128 0x26
 5918 1d3b 01       		.uleb128 0x1
 5919 1d3c 50       		.byte	0x50
 5920 1d3d 01       		.uleb128 0x1
 5921 1d3e 3A       		.byte	0x3a
 5922 1d3f 00       		.byte	0
 5923 1d40 24       		.uleb128 0x24
 5924 1d41 68010000 		.4byte	.LVL161
 5925 1d45 D2160000 		.4byte	0x16d2
 5926 1d49 24       		.uleb128 0x24
 5927 1d4a 76010000 		.4byte	.LVL162
 5928 1d4e 08220000 		.4byte	0x2208
 5929 1d52 25       		.uleb128 0x25
 5930 1d53 7C010000 		.4byte	.LVL163
 5931 1d57 35220000 		.4byte	0x2235
 5932 1d5b 651D0000 		.4byte	0x1d65
 5933 1d5f 26       		.uleb128 0x26
 5934 1d60 01       		.uleb128 0x1
 5935 1d61 50       		.byte	0x50
 5936 1d62 01       		.uleb128 0x1
 5937 1d63 32       		.byte	0x32
 5938 1d64 00       		.byte	0
 5939 1d65 24       		.uleb128 0x24
 5940 1d66 82010000 		.4byte	.LVL164
 5941 1d6a DF1A0000 		.4byte	0x1adf
 5942 1d6e 24       		.uleb128 0x24
 5943 1d6f 88010000 		.4byte	.LVL165
 5944 1d73 751B0000 		.4byte	0x1b75
 5945 1d77 25       		.uleb128 0x25
 5946 1d78 8E010000 		.4byte	.LVL166
ARM GAS  C:\Users\felha\AppData\Local\Temp\ccuk7kBX.s 			page 130


 5947 1d7c 41220000 		.4byte	0x2241
 5948 1d80 8B1D0000 		.4byte	0x1d8b
 5949 1d84 26       		.uleb128 0x26
 5950 1d85 01       		.uleb128 0x1
 5951 1d86 50       		.byte	0x50
 5952 1d87 02       		.uleb128 0x2
 5953 1d88 08       		.byte	0x8
 5954 1d89 C8       		.byte	0xc8
 5955 1d8a 00       		.byte	0
 5956 1d8b 24       		.uleb128 0x24
 5957 1d8c B2010000 		.4byte	.LVL167
 5958 1d90 D2160000 		.4byte	0x16d2
 5959 1d94 24       		.uleb128 0x24
 5960 1d95 C0010000 		.4byte	.LVL168
 5961 1d99 08220000 		.4byte	0x2208
 5962 1d9d 25       		.uleb128 0x25
 5963 1d9e C6010000 		.4byte	.LVL169
 5964 1da2 35220000 		.4byte	0x2235
 5965 1da6 B01D0000 		.4byte	0x1db0
 5966 1daa 26       		.uleb128 0x26
 5967 1dab 01       		.uleb128 0x1
 5968 1dac 50       		.byte	0x50
 5969 1dad 01       		.uleb128 0x1
 5970 1dae 32       		.byte	0x32
 5971 1daf 00       		.byte	0
 5972 1db0 25       		.uleb128 0x25
 5973 1db1 DC010000 		.4byte	.LVL170
 5974 1db5 2D120000 		.4byte	0x122d
 5975 1db9 C31D0000 		.4byte	0x1dc3
 5976 1dbd 26       		.uleb128 0x26
 5977 1dbe 01       		.uleb128 0x1
 5978 1dbf 50       		.byte	0x50
 5979 1dc0 01       		.uleb128 0x1
 5980 1dc1 33       		.byte	0x33
 5981 1dc2 00       		.byte	0
 5982 1dc3 25       		.uleb128 0x25
 5983 1dc4 E4010000 		.4byte	.LVL171
 5984 1dc8 41220000 		.4byte	0x2241
 5985 1dcc D81D0000 		.4byte	0x1dd8
 5986 1dd0 26       		.uleb128 0x26
 5987 1dd1 01       		.uleb128 0x1
 5988 1dd2 50       		.byte	0x50
 5989 1dd3 03       		.uleb128 0x3
 5990 1dd4 0A       		.byte	0xa
 5991 1dd5 F401     		.2byte	0x1f4
 5992 1dd7 00       		.byte	0
 5993 1dd8 24       		.uleb128 0x24
 5994 1dd9 F4010000 		.4byte	.LVL172
 5995 1ddd D2160000 		.4byte	0x16d2
 5996 1de1 24       		.uleb128 0x24
 5997 1de2 02020000 		.4byte	.LVL173
 5998 1de6 08220000 		.4byte	0x2208
 5999 1dea 25       		.uleb128 0x25
 6000 1deb 08020000 		.4byte	.LVL174
 6001 1def 35220000 		.4byte	0x2235
 6002 1df3 FD1D0000 		.4byte	0x1dfd
 6003 1df7 26       		.uleb128 0x26
ARM GAS  C:\Users\felha\AppData\Local\Temp\ccuk7kBX.s 			page 131


 6004 1df8 01       		.uleb128 0x1
 6005 1df9 50       		.byte	0x50
 6006 1dfa 01       		.uleb128 0x1
 6007 1dfb 32       		.byte	0x32
 6008 1dfc 00       		.byte	0
 6009 1dfd 25       		.uleb128 0x25
 6010 1dfe 1E020000 		.4byte	.LVL175
 6011 1e02 2D120000 		.4byte	0x122d
 6012 1e06 101E0000 		.4byte	0x1e10
 6013 1e0a 26       		.uleb128 0x26
 6014 1e0b 01       		.uleb128 0x1
 6015 1e0c 50       		.byte	0x50
 6016 1e0d 01       		.uleb128 0x1
 6017 1e0e 34       		.byte	0x34
 6018 1e0f 00       		.byte	0
 6019 1e10 25       		.uleb128 0x25
 6020 1e11 26020000 		.4byte	.LVL176
 6021 1e15 41220000 		.4byte	0x2241
 6022 1e19 251E0000 		.4byte	0x1e25
 6023 1e1d 26       		.uleb128 0x26
 6024 1e1e 01       		.uleb128 0x1
 6025 1e1f 50       		.byte	0x50
 6026 1e20 03       		.uleb128 0x3
 6027 1e21 0A       		.byte	0xa
 6028 1e22 F401     		.2byte	0x1f4
 6029 1e24 00       		.byte	0
 6030 1e25 24       		.uleb128 0x24
 6031 1e26 36020000 		.4byte	.LVL177
 6032 1e2a D2160000 		.4byte	0x16d2
 6033 1e2e 24       		.uleb128 0x24
 6034 1e2f 46020000 		.4byte	.LVL178
 6035 1e33 08220000 		.4byte	0x2208
 6036 1e37 25       		.uleb128 0x25
 6037 1e38 4C020000 		.4byte	.LVL179
 6038 1e3c 13220000 		.4byte	0x2213
 6039 1e40 4A1E0000 		.4byte	0x1e4a
 6040 1e44 26       		.uleb128 0x26
 6041 1e45 01       		.uleb128 0x1
 6042 1e46 50       		.byte	0x50
 6043 1e47 01       		.uleb128 0x1
 6044 1e48 30       		.byte	0x30
 6045 1e49 00       		.byte	0
 6046 1e4a 24       		.uleb128 0x24
 6047 1e4b 8C020000 		.4byte	.LVL180
 6048 1e4f D2160000 		.4byte	0x16d2
 6049 1e53 24       		.uleb128 0x24
 6050 1e54 C0020000 		.4byte	.LVL181
 6051 1e58 D2160000 		.4byte	0x16d2
 6052 1e5c 24       		.uleb128 0x24
 6053 1e5d CE020000 		.4byte	.LVL182
 6054 1e61 08220000 		.4byte	0x2208
 6055 1e65 25       		.uleb128 0x25
 6056 1e66 D4020000 		.4byte	.LVL183
 6057 1e6a 35220000 		.4byte	0x2235
 6058 1e6e 781E0000 		.4byte	0x1e78
 6059 1e72 26       		.uleb128 0x26
 6060 1e73 01       		.uleb128 0x1
ARM GAS  C:\Users\felha\AppData\Local\Temp\ccuk7kBX.s 			page 132


 6061 1e74 50       		.byte	0x50
 6062 1e75 01       		.uleb128 0x1
 6063 1e76 32       		.byte	0x32
 6064 1e77 00       		.byte	0
 6065 1e78 24       		.uleb128 0x24
 6066 1e79 DE020000 		.4byte	.LVL184
 6067 1e7d F8140000 		.4byte	0x14f8
 6068 1e81 24       		.uleb128 0x24
 6069 1e82 E4020000 		.4byte	.LVL185
 6070 1e86 151A0000 		.4byte	0x1a15
 6071 1e8a 25       		.uleb128 0x25
 6072 1e8b EA020000 		.4byte	.LVL186
 6073 1e8f 41220000 		.4byte	0x2241
 6074 1e93 9E1E0000 		.4byte	0x1e9e
 6075 1e97 26       		.uleb128 0x26
 6076 1e98 01       		.uleb128 0x1
 6077 1e99 50       		.byte	0x50
 6078 1e9a 02       		.uleb128 0x2
 6079 1e9b 08       		.byte	0x8
 6080 1e9c C8       		.byte	0xc8
 6081 1e9d 00       		.byte	0
 6082 1e9e 24       		.uleb128 0x24
 6083 1e9f 0E030000 		.4byte	.LVL187
 6084 1ea3 D2160000 		.4byte	0x16d2
 6085 1ea7 24       		.uleb128 0x24
 6086 1ea8 1C030000 		.4byte	.LVL188
 6087 1eac 08220000 		.4byte	0x2208
 6088 1eb0 25       		.uleb128 0x25
 6089 1eb1 22030000 		.4byte	.LVL189
 6090 1eb5 35220000 		.4byte	0x2235
 6091 1eb9 C31E0000 		.4byte	0x1ec3
 6092 1ebd 26       		.uleb128 0x26
 6093 1ebe 01       		.uleb128 0x1
 6094 1ebf 50       		.byte	0x50
 6095 1ec0 01       		.uleb128 0x1
 6096 1ec1 32       		.byte	0x32
 6097 1ec2 00       		.byte	0
 6098 1ec3 24       		.uleb128 0x24
 6099 1ec4 2C030000 		.4byte	.LVL190
 6100 1ec8 E5150000 		.4byte	0x15e5
 6101 1ecc 24       		.uleb128 0x24
 6102 1ecd 3C030000 		.4byte	.LVL191
 6103 1ed1 7A1A0000 		.4byte	0x1a7a
 6104 1ed5 25       		.uleb128 0x25
 6105 1ed6 42030000 		.4byte	.LVL192
 6106 1eda 41220000 		.4byte	0x2241
 6107 1ede E91E0000 		.4byte	0x1ee9
 6108 1ee2 26       		.uleb128 0x26
 6109 1ee3 01       		.uleb128 0x1
 6110 1ee4 50       		.byte	0x50
 6111 1ee5 02       		.uleb128 0x2
 6112 1ee6 08       		.byte	0x8
 6113 1ee7 C8       		.byte	0xc8
 6114 1ee8 00       		.byte	0
 6115 1ee9 24       		.uleb128 0x24
 6116 1eea 66030000 		.4byte	.LVL193
 6117 1eee D2160000 		.4byte	0x16d2
ARM GAS  C:\Users\felha\AppData\Local\Temp\ccuk7kBX.s 			page 133


 6118 1ef2 24       		.uleb128 0x24
 6119 1ef3 6A030000 		.4byte	.LVL194
 6120 1ef7 1F220000 		.4byte	0x221f
 6121 1efb 24       		.uleb128 0x24
 6122 1efc 6E030000 		.4byte	.LVL195
 6123 1f00 2A220000 		.4byte	0x222a
 6124 1f04 27       		.uleb128 0x27
 6125 1f05 74030000 		.4byte	.LVL196
 6126 1f09 41220000 		.4byte	0x2241
 6127 1f0d 26       		.uleb128 0x26
 6128 1f0e 01       		.uleb128 0x1
 6129 1f0f 50       		.byte	0x50
 6130 1f10 02       		.uleb128 0x2
 6131 1f11 08       		.byte	0x8
 6132 1f12 C8       		.byte	0xc8
 6133 1f13 00       		.byte	0
 6134 1f14 00       		.byte	0
 6135 1f15 00       		.byte	0
 6136 1f16 05       		.uleb128 0x5
 6137 1f17 94000000 		.4byte	0x94
 6138 1f1b 35       		.uleb128 0x35
 6139 1f1c DD0E0000 		.4byte	.LASF299
 6140 1f20 10       		.byte	0x10
 6141 1f21 0108     		.2byte	0x801
 6142 1f23 18120000 		.4byte	0x1218
 6143 1f27 36       		.uleb128 0x36
 6144 1f28 96000000 		.4byte	.LASF300
 6145 1f2c 07       		.byte	0x7
 6146 1f2d A7       		.byte	0xa7
 6147 1f2e 321F0000 		.4byte	0x1f32
 6148 1f32 12       		.uleb128 0x12
 6149 1f33 04       		.byte	0x4
 6150 1f34 381F0000 		.4byte	0x1f38
 6151 1f38 06       		.uleb128 0x6
 6152 1f39 B9060000 		.4byte	0x6b9
 6153 1f3d 36       		.uleb128 0x36
 6154 1f3e E2000000 		.4byte	.LASF301
 6155 1f42 11       		.byte	0x11
 6156 1f43 5E       		.byte	0x5e
 6157 1f44 23090000 		.4byte	0x923
 6158 1f48 36       		.uleb128 0x36
 6159 1f49 420A0000 		.4byte	.LASF302
 6160 1f4d 12       		.byte	0x12
 6161 1f4e 1F       		.byte	0x1f
 6162 1f4f 531F0000 		.4byte	0x1f53
 6163 1f53 06       		.uleb128 0x6
 6164 1f54 200A0000 		.4byte	0xa20
 6165 1f58 36       		.uleb128 0x36
 6166 1f59 D60F0000 		.4byte	.LASF303
 6167 1f5d 13       		.byte	0x13
 6168 1f5e 7F       		.byte	0x7f
 6169 1f5f 88080000 		.4byte	0x888
 6170 1f63 36       		.uleb128 0x36
 6171 1f64 0A0C0000 		.4byte	.LASF304
 6172 1f68 14       		.byte	0x14
 6173 1f69 7F       		.byte	0x7f
 6174 1f6a 88080000 		.4byte	0x888
ARM GAS  C:\Users\felha\AppData\Local\Temp\ccuk7kBX.s 			page 134


 6175 1f6e 35       		.uleb128 0x35
 6176 1f6f A0000000 		.4byte	.LASF305
 6177 1f73 15       		.byte	0x15
 6178 1f74 0208     		.2byte	0x802
 6179 1f76 A90E0000 		.4byte	0xea9
 6180 1f7a 35       		.uleb128 0x35
 6181 1f7b 7B050000 		.4byte	.LASF306
 6182 1f7f 15       		.byte	0x15
 6183 1f80 0308     		.2byte	0x803
 6184 1f82 A90E0000 		.4byte	0xea9
 6185 1f86 35       		.uleb128 0x35
 6186 1f87 7F130000 		.4byte	.LASF307
 6187 1f8b 15       		.byte	0x15
 6188 1f8c 0B08     		.2byte	0x80b
 6189 1f8e A90E0000 		.4byte	0xea9
 6190 1f92 07       		.uleb128 0x7
 6191 1f93 E5060000 		.4byte	0x6e5
 6192 1f97 A31F0000 		.4byte	0x1fa3
 6193 1f9b 37       		.uleb128 0x37
 6194 1f9c D9000000 		.4byte	0xd9
 6195 1fa0 AF16     		.2byte	0x16af
 6196 1fa2 00       		.byte	0
 6197 1fa3 38       		.uleb128 0x38
 6198 1fa4 93010000 		.4byte	.LASF308
 6199 1fa8 01       		.byte	0x1
 6200 1fa9 13       		.byte	0x13
 6201 1faa 921F0000 		.4byte	0x1f92
 6202 1fae 05       		.uleb128 0x5
 6203 1faf 03       		.byte	0x3
 6204 1fb0 00000000 		.4byte	imageBufferCache
 6205 1fb4 38       		.uleb128 0x38
 6206 1fb5 EB130000 		.4byte	.LASF309
 6207 1fb9 01       		.byte	0x1
 6208 1fba 26       		.byte	0x26
 6209 1fbb 83080000 		.4byte	0x883
 6210 1fbf 05       		.uleb128 0x5
 6211 1fc0 03       		.byte	0x3
 6212 1fc1 00000000 		.4byte	DrawRedGraph
 6213 1fc5 38       		.uleb128 0x38
 6214 1fc6 C4060000 		.4byte	.LASF310
 6215 1fca 01       		.byte	0x1
 6216 1fcb 27       		.byte	0x27
 6217 1fcc 83080000 		.4byte	0x883
 6218 1fd0 05       		.uleb128 0x5
 6219 1fd1 03       		.byte	0x3
 6220 1fd2 00000000 		.4byte	DrawInfraredGraph
 6221 1fd6 38       		.uleb128 0x38
 6222 1fd7 1E140000 		.4byte	.LASF311
 6223 1fdb 01       		.byte	0x1
 6224 1fdc B2       		.byte	0xb2
 6225 1fdd E0000000 		.4byte	0xe0
 6226 1fe1 05       		.uleb128 0x5
 6227 1fe2 03       		.byte	0x3
 6228 1fe3 00000000 		.4byte	SliderPosI
 6229 1fe7 38       		.uleb128 0x38
 6230 1fe8 90030000 		.4byte	.LASF312
 6231 1fec 01       		.byte	0x1
ARM GAS  C:\Users\felha\AppData\Local\Temp\ccuk7kBX.s 			page 135


 6232 1fed B2       		.byte	0xb2
 6233 1fee 83080000 		.4byte	0x883
 6234 1ff2 05       		.uleb128 0x5
 6235 1ff3 03       		.byte	0x3
 6236 1ff4 00000000 		.4byte	StopChangeLedIntensity
 6237 1ff8 38       		.uleb128 0x38
 6238 1ff9 C60A0000 		.4byte	.LASF313
 6239 1ffd 01       		.byte	0x1
 6240 1ffe C6       		.byte	0xc6
 6241 1fff 161F0000 		.4byte	0x1f16
 6242 2003 05       		.uleb128 0x5
 6243 2004 03       		.byte	0x3
 6244 2005 00000000 		.4byte	LowHeartRateI
 6245 2009 38       		.uleb128 0x38
 6246 200a B80A0000 		.4byte	.LASF314
 6247 200e 01       		.byte	0x1
 6248 200f C6       		.byte	0xc6
 6249 2010 161F0000 		.4byte	0x1f16
 6250 2014 05       		.uleb128 0x5
 6251 2015 03       		.byte	0x3
 6252 2016 00000000 		.4byte	LowHeartRateF
 6253 201a 38       		.uleb128 0x38
 6254 201b 87070000 		.4byte	.LASF315
 6255 201f 01       		.byte	0x1
 6256 2020 C6       		.byte	0xc6
 6257 2021 E0000000 		.4byte	0xe0
 6258 2025 05       		.uleb128 0x5
 6259 2026 03       		.byte	0x3
 6260 2027 00000000 		.4byte	SliderPosIII
 6261 202b 38       		.uleb128 0x38
 6262 202c A1090000 		.4byte	.LASF316
 6263 2030 01       		.byte	0x1
 6264 2031 C6       		.byte	0xc6
 6265 2032 83080000 		.4byte	0x883
 6266 2036 05       		.uleb128 0x5
 6267 2037 03       		.byte	0x3
 6268 2038 00000000 		.4byte	StopChangeLowHeartRate
 6269 203c 38       		.uleb128 0x38
 6270 203d E2040000 		.4byte	.LASF317
 6271 2041 01       		.byte	0x1
 6272 2042 EA       		.byte	0xea
 6273 2043 161F0000 		.4byte	0x1f16
 6274 2047 05       		.uleb128 0x5
 6275 2048 03       		.byte	0x3
 6276 2049 00000000 		.4byte	HighHeartRateI
 6277 204d 38       		.uleb128 0x38
 6278 204e C5040000 		.4byte	.LASF318
 6279 2052 01       		.byte	0x1
 6280 2053 EA       		.byte	0xea
 6281 2054 161F0000 		.4byte	0x1f16
 6282 2058 05       		.uleb128 0x5
 6283 2059 03       		.byte	0x3
 6284 205a 00000000 		.4byte	HighHeartRateF
 6285 205e 38       		.uleb128 0x38
 6286 205f FE0B0000 		.4byte	.LASF319
 6287 2063 01       		.byte	0x1
 6288 2064 EA       		.byte	0xea
ARM GAS  C:\Users\felha\AppData\Local\Temp\ccuk7kBX.s 			page 136


 6289 2065 E0000000 		.4byte	0xe0
 6290 2069 05       		.uleb128 0x5
 6291 206a 03       		.byte	0x3
 6292 206b 00000000 		.4byte	SliderPosIV
 6293 206f 38       		.uleb128 0x38
 6294 2070 31070000 		.4byte	.LASF320
 6295 2074 01       		.byte	0x1
 6296 2075 EA       		.byte	0xea
 6297 2076 83080000 		.4byte	0x883
 6298 207a 05       		.uleb128 0x5
 6299 207b 03       		.byte	0x3
 6300 207c 00000000 		.4byte	StopChangeHighHeartRate
 6301 2080 39       		.uleb128 0x39
 6302 2081 70000000 		.4byte	.LASF321
 6303 2085 01       		.byte	0x1
 6304 2086 0E01     		.2byte	0x10e
 6305 2088 83080000 		.4byte	0x883
 6306 208c 05       		.uleb128 0x5
 6307 208d 03       		.byte	0x3
 6308 208e 00000000 		.4byte	MotionAlarmEnable
 6309 2092 39       		.uleb128 0x39
 6310 2093 57140000 		.4byte	.LASF322
 6311 2097 01       		.byte	0x1
 6312 2098 1D01     		.2byte	0x11d
 6313 209a E0000000 		.4byte	0xe0
 6314 209e 05       		.uleb128 0x5
 6315 209f 03       		.byte	0x3
 6316 20a0 00000000 		.4byte	SliderPosV
 6317 20a4 39       		.uleb128 0x39
 6318 20a5 CC0E0000 		.4byte	.LASF323
 6319 20a9 01       		.byte	0x1
 6320 20aa 1D01     		.2byte	0x11d
 6321 20ac 83080000 		.4byte	0x883
 6322 20b0 05       		.uleb128 0x5
 6323 20b1 03       		.byte	0x3
 6324 20b2 00000000 		.4byte	StopDisableAlarm
 6325 20b6 07       		.uleb128 0x7
 6326 20b7 18120000 		.4byte	0x1218
 6327 20bb C7200000 		.4byte	0x20c7
 6328 20bf 37       		.uleb128 0x37
 6329 20c0 D9000000 		.4byte	0xd9
 6330 20c4 ED02     		.2byte	0x2ed
 6331 20c6 00       		.byte	0
 6332 20c7 39       		.uleb128 0x39
 6333 20c8 B9070000 		.4byte	.LASF324
 6334 20cc 01       		.byte	0x1
 6335 20cd 3701     		.2byte	0x137
 6336 20cf D9200000 		.4byte	0x20d9
 6337 20d3 05       		.uleb128 0x5
 6338 20d4 03       		.byte	0x3
 6339 20d5 00000000 		.4byte	vectorRed
 6340 20d9 05       		.uleb128 0x5
 6341 20da B6200000 		.4byte	0x20b6
 6342 20de 39       		.uleb128 0x39
 6343 20df E3110000 		.4byte	.LASF325
 6344 20e3 01       		.byte	0x1
 6345 20e4 3701     		.2byte	0x137
ARM GAS  C:\Users\felha\AppData\Local\Temp\ccuk7kBX.s 			page 137


 6346 20e6 F0200000 		.4byte	0x20f0
 6347 20ea 05       		.uleb128 0x5
 6348 20eb 03       		.byte	0x3
 6349 20ec 00000000 		.4byte	vectorInfra
 6350 20f0 05       		.uleb128 0x5
 6351 20f1 B6200000 		.4byte	0x20b6
 6352 20f5 39       		.uleb128 0x39
 6353 20f6 04070000 		.4byte	.LASF326
 6354 20fa 01       		.byte	0x1
 6355 20fb 3701     		.2byte	0x137
 6356 20fd 161F0000 		.4byte	0x1f16
 6357 2101 05       		.uleb128 0x5
 6358 2102 03       		.byte	0x3
 6359 2103 00000000 		.4byte	Saturation
 6360 2107 39       		.uleb128 0x39
 6361 2108 94070000 		.4byte	.LASF327
 6362 210c 01       		.byte	0x1
 6363 210d 3701     		.2byte	0x137
 6364 210f 161F0000 		.4byte	0x1f16
 6365 2113 05       		.uleb128 0x5
 6366 2114 03       		.byte	0x3
 6367 2115 00000000 		.4byte	RythmeCardiaque
 6368 2119 39       		.uleb128 0x39
 6369 211a 770E0000 		.4byte	.LASF328
 6370 211e 01       		.byte	0x1
 6371 211f 4F01     		.2byte	0x14f
 6372 2121 161F0000 		.4byte	0x1f16
 6373 2125 05       		.uleb128 0x5
 6374 2126 03       		.byte	0x3
 6375 2127 00000000 		.4byte	Page1Params
 6376 212b 39       		.uleb128 0x39
 6377 212c BE050000 		.4byte	.LASF329
 6378 2130 01       		.byte	0x1
 6379 2131 5001     		.2byte	0x150
 6380 2133 161F0000 		.4byte	0x1f16
 6381 2137 05       		.uleb128 0x5
 6382 2138 03       		.byte	0x3
 6383 2139 00000000 		.4byte	Page2Params
 6384 213d 39       		.uleb128 0x39
 6385 213e 7A010000 		.4byte	.LASF330
 6386 2142 01       		.byte	0x1
 6387 2143 5101     		.2byte	0x151
 6388 2145 161F0000 		.4byte	0x1f16
 6389 2149 05       		.uleb128 0x5
 6390 214a 03       		.byte	0x3
 6391 214b 00000000 		.4byte	ScreenNumber
 6392 214f 3A       		.uleb128 0x3a
 6393 2150 C10F0000 		.4byte	.LASF331
 6394 2154 C10F0000 		.4byte	.LASF331
 6395 2158 16       		.byte	0x16
 6396 2159 34       		.byte	0x34
 6397 215a 3A       		.uleb128 0x3a
 6398 215b 2B050000 		.4byte	.LASF332
 6399 215f 2B050000 		.4byte	.LASF332
 6400 2163 0F       		.byte	0xf
 6401 2164 7E       		.byte	0x7e
 6402 2165 3B       		.uleb128 0x3b
ARM GAS  C:\Users\felha\AppData\Local\Temp\ccuk7kBX.s 			page 138


 6403 2166 24130000 		.4byte	.LASF356
 6404 216a 24130000 		.4byte	.LASF356
 6405 216e 3C       		.uleb128 0x3c
 6406 216f C90D0000 		.4byte	.LASF333
 6407 2173 C90D0000 		.4byte	.LASF333
 6408 2177 15       		.byte	0x15
 6409 2178 C101     		.2byte	0x1c1
 6410 217a 3C       		.uleb128 0x3c
 6411 217b A4070000 		.4byte	.LASF334
 6412 217f A4070000 		.4byte	.LASF334
 6413 2183 15       		.byte	0x15
 6414 2184 C001     		.2byte	0x1c0
 6415 2186 3C       		.uleb128 0x3c
 6416 2187 62140000 		.4byte	.LASF335
 6417 218b 62140000 		.4byte	.LASF335
 6418 218f 15       		.byte	0x15
 6419 2190 F601     		.2byte	0x1f6
 6420 2192 3C       		.uleb128 0x3c
 6421 2193 DD110000 		.4byte	.LASF336
 6422 2197 DD110000 		.4byte	.LASF336
 6423 219b 17       		.byte	0x17
 6424 219c 4B01     		.2byte	0x14b
 6425 219e 3C       		.uleb128 0x3c
 6426 219f 35080000 		.4byte	.LASF337
 6427 21a3 35080000 		.4byte	.LASF337
 6428 21a7 15       		.byte	0x15
 6429 21a8 0902     		.2byte	0x209
 6430 21aa 3C       		.uleb128 0x3c
 6431 21ab B8090000 		.4byte	.LASF338
 6432 21af B8090000 		.4byte	.LASF338
 6433 21b3 15       		.byte	0x15
 6434 21b4 0E02     		.2byte	0x20e
 6435 21b6 3C       		.uleb128 0x3c
 6436 21b7 1D010000 		.4byte	.LASF339
 6437 21bb 1D010000 		.4byte	.LASF339
 6438 21bf 15       		.byte	0x15
 6439 21c0 C501     		.2byte	0x1c5
 6440 21c2 3C       		.uleb128 0x3c
 6441 21c3 C2120000 		.4byte	.LASF340
 6442 21c7 C2120000 		.4byte	.LASF340
 6443 21cb 15       		.byte	0x15
 6444 21cc 2B03     		.2byte	0x32b
 6445 21ce 3C       		.uleb128 0x3c
 6446 21cf D6070000 		.4byte	.LASF341
 6447 21d3 D6070000 		.4byte	.LASF341
 6448 21d7 15       		.byte	0x15
 6449 21d8 0503     		.2byte	0x305
 6450 21da 3A       		.uleb128 0x3a
 6451 21db 7B0D0000 		.4byte	.LASF342
 6452 21df 7B0D0000 		.4byte	.LASF342
 6453 21e3 18       		.byte	0x18
 6454 21e4 E7       		.byte	0xe7
 6455 21e5 3C       		.uleb128 0x3c
 6456 21e6 7D0B0000 		.4byte	.LASF343
 6457 21ea 7D0B0000 		.4byte	.LASF343
 6458 21ee 15       		.byte	0x15
 6459 21ef 1202     		.2byte	0x212
ARM GAS  C:\Users\felha\AppData\Local\Temp\ccuk7kBX.s 			page 139


 6460 21f1 3C       		.uleb128 0x3c
 6461 21f2 3D050000 		.4byte	.LASF344
 6462 21f6 3D050000 		.4byte	.LASF344
 6463 21fa 15       		.byte	0x15
 6464 21fb 0002     		.2byte	0x200
 6465 21fd 3A       		.uleb128 0x3a
 6466 21fe 59070000 		.4byte	.LASF345
 6467 2202 59070000 		.4byte	.LASF345
 6468 2206 19       		.byte	0x19
 6469 2207 26       		.byte	0x26
 6470 2208 3A       		.uleb128 0x3a
 6471 2209 520C0000 		.4byte	.LASF346
 6472 220d 520C0000 		.4byte	.LASF346
 6473 2211 1A       		.byte	0x1a
 6474 2212 3E       		.byte	0x3e
 6475 2213 3C       		.uleb128 0x3c
 6476 2214 270E0000 		.4byte	.LASF347
 6477 2218 270E0000 		.4byte	.LASF347
 6478 221c 1B       		.byte	0x1b
 6479 221d A504     		.2byte	0x4a5
 6480 221f 3A       		.uleb128 0x3a
 6481 2220 220F0000 		.4byte	.LASF348
 6482 2224 220F0000 		.4byte	.LASF348
 6483 2228 1C       		.byte	0x1c
 6484 2229 3D       		.byte	0x3d
 6485 222a 3A       		.uleb128 0x3a
 6486 222b AB020000 		.4byte	.LASF349
 6487 222f AB020000 		.4byte	.LASF349
 6488 2233 1D       		.byte	0x1d
 6489 2234 55       		.byte	0x55
 6490 2235 3C       		.uleb128 0x3c
 6491 2236 2C010000 		.4byte	.LASF350
 6492 223a 2C010000 		.4byte	.LASF350
 6493 223e 1B       		.byte	0x1b
 6494 223f 9904     		.2byte	0x499
 6495 2241 3C       		.uleb128 0x3c
 6496 2242 7C070000 		.4byte	.LASF351
 6497 2246 7C070000 		.4byte	.LASF351
 6498 224a 1E       		.byte	0x1e
 6499 224b ED02     		.2byte	0x2ed
 6500 224d 00       		.byte	0
 6501              		.section	.debug_abbrev,"",%progbits
 6502              	.Ldebug_abbrev0:
 6503 0000 01       		.uleb128 0x1
 6504 0001 11       		.uleb128 0x11
 6505 0002 01       		.byte	0x1
 6506 0003 25       		.uleb128 0x25
 6507 0004 0E       		.uleb128 0xe
 6508 0005 13       		.uleb128 0x13
 6509 0006 0B       		.uleb128 0xb
 6510 0007 03       		.uleb128 0x3
 6511 0008 0E       		.uleb128 0xe
 6512 0009 1B       		.uleb128 0x1b
 6513 000a 0E       		.uleb128 0xe
 6514 000b 55       		.uleb128 0x55
 6515 000c 17       		.uleb128 0x17
 6516 000d 11       		.uleb128 0x11
ARM GAS  C:\Users\felha\AppData\Local\Temp\ccuk7kBX.s 			page 140


 6517 000e 01       		.uleb128 0x1
 6518 000f 10       		.uleb128 0x10
 6519 0010 17       		.uleb128 0x17
 6520 0011 00       		.byte	0
 6521 0012 00       		.byte	0
 6522 0013 02       		.uleb128 0x2
 6523 0014 24       		.uleb128 0x24
 6524 0015 00       		.byte	0
 6525 0016 0B       		.uleb128 0xb
 6526 0017 0B       		.uleb128 0xb
 6527 0018 3E       		.uleb128 0x3e
 6528 0019 0B       		.uleb128 0xb
 6529 001a 03       		.uleb128 0x3
 6530 001b 0E       		.uleb128 0xe
 6531 001c 00       		.byte	0
 6532 001d 00       		.byte	0
 6533 001e 03       		.uleb128 0x3
 6534 001f 16       		.uleb128 0x16
 6535 0020 00       		.byte	0
 6536 0021 03       		.uleb128 0x3
 6537 0022 0E       		.uleb128 0xe
 6538 0023 3A       		.uleb128 0x3a
 6539 0024 0B       		.uleb128 0xb
 6540 0025 3B       		.uleb128 0x3b
 6541 0026 0B       		.uleb128 0xb
 6542 0027 49       		.uleb128 0x49
 6543 0028 13       		.uleb128 0x13
 6544 0029 00       		.byte	0
 6545 002a 00       		.byte	0
 6546 002b 04       		.uleb128 0x4
 6547 002c 24       		.uleb128 0x24
 6548 002d 00       		.byte	0
 6549 002e 0B       		.uleb128 0xb
 6550 002f 0B       		.uleb128 0xb
 6551 0030 3E       		.uleb128 0x3e
 6552 0031 0B       		.uleb128 0xb
 6553 0032 03       		.uleb128 0x3
 6554 0033 08       		.uleb128 0x8
 6555 0034 00       		.byte	0
 6556 0035 00       		.byte	0
 6557 0036 05       		.uleb128 0x5
 6558 0037 35       		.uleb128 0x35
 6559 0038 00       		.byte	0
 6560 0039 49       		.uleb128 0x49
 6561 003a 13       		.uleb128 0x13
 6562 003b 00       		.byte	0
 6563 003c 00       		.byte	0
 6564 003d 06       		.uleb128 0x6
 6565 003e 26       		.uleb128 0x26
 6566 003f 00       		.byte	0
 6567 0040 49       		.uleb128 0x49
 6568 0041 13       		.uleb128 0x13
 6569 0042 00       		.byte	0
 6570 0043 00       		.byte	0
 6571 0044 07       		.uleb128 0x7
 6572 0045 01       		.uleb128 0x1
 6573 0046 01       		.byte	0x1
ARM GAS  C:\Users\felha\AppData\Local\Temp\ccuk7kBX.s 			page 141


 6574 0047 49       		.uleb128 0x49
 6575 0048 13       		.uleb128 0x13
 6576 0049 01       		.uleb128 0x1
 6577 004a 13       		.uleb128 0x13
 6578 004b 00       		.byte	0
 6579 004c 00       		.byte	0
 6580 004d 08       		.uleb128 0x8
 6581 004e 21       		.uleb128 0x21
 6582 004f 00       		.byte	0
 6583 0050 49       		.uleb128 0x49
 6584 0051 13       		.uleb128 0x13
 6585 0052 2F       		.uleb128 0x2f
 6586 0053 0B       		.uleb128 0xb
 6587 0054 00       		.byte	0
 6588 0055 00       		.byte	0
 6589 0056 09       		.uleb128 0x9
 6590 0057 13       		.uleb128 0x13
 6591 0058 01       		.byte	0x1
 6592 0059 0B       		.uleb128 0xb
 6593 005a 0B       		.uleb128 0xb
 6594 005b 3A       		.uleb128 0x3a
 6595 005c 0B       		.uleb128 0xb
 6596 005d 3B       		.uleb128 0x3b
 6597 005e 0B       		.uleb128 0xb
 6598 005f 01       		.uleb128 0x1
 6599 0060 13       		.uleb128 0x13
 6600 0061 00       		.byte	0
 6601 0062 00       		.byte	0
 6602 0063 0A       		.uleb128 0xa
 6603 0064 0D       		.uleb128 0xd
 6604 0065 00       		.byte	0
 6605 0066 03       		.uleb128 0x3
 6606 0067 08       		.uleb128 0x8
 6607 0068 3A       		.uleb128 0x3a
 6608 0069 0B       		.uleb128 0xb
 6609 006a 3B       		.uleb128 0x3b
 6610 006b 0B       		.uleb128 0xb
 6611 006c 49       		.uleb128 0x49
 6612 006d 13       		.uleb128 0x13
 6613 006e 38       		.uleb128 0x38
 6614 006f 0B       		.uleb128 0xb
 6615 0070 00       		.byte	0
 6616 0071 00       		.byte	0
 6617 0072 0B       		.uleb128 0xb
 6618 0073 0D       		.uleb128 0xd
 6619 0074 00       		.byte	0
 6620 0075 03       		.uleb128 0x3
 6621 0076 0E       		.uleb128 0xe
 6622 0077 3A       		.uleb128 0x3a
 6623 0078 0B       		.uleb128 0xb
 6624 0079 3B       		.uleb128 0x3b
 6625 007a 0B       		.uleb128 0xb
 6626 007b 49       		.uleb128 0x49
 6627 007c 13       		.uleb128 0x13
 6628 007d 38       		.uleb128 0x38
 6629 007e 0B       		.uleb128 0xb
 6630 007f 00       		.byte	0
ARM GAS  C:\Users\felha\AppData\Local\Temp\ccuk7kBX.s 			page 142


 6631 0080 00       		.byte	0
 6632 0081 0C       		.uleb128 0xc
 6633 0082 13       		.uleb128 0x13
 6634 0083 01       		.byte	0x1
 6635 0084 0B       		.uleb128 0xb
 6636 0085 05       		.uleb128 0x5
 6637 0086 3A       		.uleb128 0x3a
 6638 0087 0B       		.uleb128 0xb
 6639 0088 3B       		.uleb128 0x3b
 6640 0089 0B       		.uleb128 0xb
 6641 008a 01       		.uleb128 0x1
 6642 008b 13       		.uleb128 0x13
 6643 008c 00       		.byte	0
 6644 008d 00       		.byte	0
 6645 008e 0D       		.uleb128 0xd
 6646 008f 0D       		.uleb128 0xd
 6647 0090 00       		.byte	0
 6648 0091 03       		.uleb128 0x3
 6649 0092 0E       		.uleb128 0xe
 6650 0093 3A       		.uleb128 0x3a
 6651 0094 0B       		.uleb128 0xb
 6652 0095 3B       		.uleb128 0x3b
 6653 0096 0B       		.uleb128 0xb
 6654 0097 49       		.uleb128 0x49
 6655 0098 13       		.uleb128 0x13
 6656 0099 38       		.uleb128 0x38
 6657 009a 05       		.uleb128 0x5
 6658 009b 00       		.byte	0
 6659 009c 00       		.byte	0
 6660 009d 0E       		.uleb128 0xe
 6661 009e 16       		.uleb128 0x16
 6662 009f 00       		.byte	0
 6663 00a0 03       		.uleb128 0x3
 6664 00a1 0E       		.uleb128 0xe
 6665 00a2 3A       		.uleb128 0x3a
 6666 00a3 0B       		.uleb128 0xb
 6667 00a4 3B       		.uleb128 0x3b
 6668 00a5 05       		.uleb128 0x5
 6669 00a6 49       		.uleb128 0x49
 6670 00a7 13       		.uleb128 0x13
 6671 00a8 00       		.byte	0
 6672 00a9 00       		.byte	0
 6673 00aa 0F       		.uleb128 0xf
 6674 00ab 0F       		.uleb128 0xf
 6675 00ac 00       		.byte	0
 6676 00ad 0B       		.uleb128 0xb
 6677 00ae 0B       		.uleb128 0xb
 6678 00af 00       		.byte	0
 6679 00b0 00       		.byte	0
 6680 00b1 10       		.uleb128 0x10
 6681 00b2 04       		.uleb128 0x4
 6682 00b3 01       		.byte	0x1
 6683 00b4 0B       		.uleb128 0xb
 6684 00b5 0B       		.uleb128 0xb
 6685 00b6 49       		.uleb128 0x49
 6686 00b7 13       		.uleb128 0x13
 6687 00b8 3A       		.uleb128 0x3a
ARM GAS  C:\Users\felha\AppData\Local\Temp\ccuk7kBX.s 			page 143


 6688 00b9 0B       		.uleb128 0xb
 6689 00ba 3B       		.uleb128 0x3b
 6690 00bb 05       		.uleb128 0x5
 6691 00bc 01       		.uleb128 0x1
 6692 00bd 13       		.uleb128 0x13
 6693 00be 00       		.byte	0
 6694 00bf 00       		.byte	0
 6695 00c0 11       		.uleb128 0x11
 6696 00c1 28       		.uleb128 0x28
 6697 00c2 00       		.byte	0
 6698 00c3 03       		.uleb128 0x3
 6699 00c4 0E       		.uleb128 0xe
 6700 00c5 1C       		.uleb128 0x1c
 6701 00c6 0B       		.uleb128 0xb
 6702 00c7 00       		.byte	0
 6703 00c8 00       		.byte	0
 6704 00c9 12       		.uleb128 0x12
 6705 00ca 0F       		.uleb128 0xf
 6706 00cb 00       		.byte	0
 6707 00cc 0B       		.uleb128 0xb
 6708 00cd 0B       		.uleb128 0xb
 6709 00ce 49       		.uleb128 0x49
 6710 00cf 13       		.uleb128 0x13
 6711 00d0 00       		.byte	0
 6712 00d1 00       		.byte	0
 6713 00d2 13       		.uleb128 0x13
 6714 00d3 15       		.uleb128 0x15
 6715 00d4 01       		.byte	0x1
 6716 00d5 27       		.uleb128 0x27
 6717 00d6 19       		.uleb128 0x19
 6718 00d7 01       		.uleb128 0x1
 6719 00d8 13       		.uleb128 0x13
 6720 00d9 00       		.byte	0
 6721 00da 00       		.byte	0
 6722 00db 14       		.uleb128 0x14
 6723 00dc 05       		.uleb128 0x5
 6724 00dd 00       		.byte	0
 6725 00de 49       		.uleb128 0x49
 6726 00df 13       		.uleb128 0x13
 6727 00e0 00       		.byte	0
 6728 00e1 00       		.byte	0
 6729 00e2 15       		.uleb128 0x15
 6730 00e3 15       		.uleb128 0x15
 6731 00e4 01       		.byte	0x1
 6732 00e5 27       		.uleb128 0x27
 6733 00e6 19       		.uleb128 0x19
 6734 00e7 49       		.uleb128 0x49
 6735 00e8 13       		.uleb128 0x13
 6736 00e9 01       		.uleb128 0x1
 6737 00ea 13       		.uleb128 0x13
 6738 00eb 00       		.byte	0
 6739 00ec 00       		.byte	0
 6740 00ed 16       		.uleb128 0x16
 6741 00ee 13       		.uleb128 0x13
 6742 00ef 01       		.byte	0x1
 6743 00f0 03       		.uleb128 0x3
 6744 00f1 0E       		.uleb128 0xe
ARM GAS  C:\Users\felha\AppData\Local\Temp\ccuk7kBX.s 			page 144


 6745 00f2 0B       		.uleb128 0xb
 6746 00f3 0B       		.uleb128 0xb
 6747 00f4 3A       		.uleb128 0x3a
 6748 00f5 0B       		.uleb128 0xb
 6749 00f6 3B       		.uleb128 0x3b
 6750 00f7 05       		.uleb128 0x5
 6751 00f8 01       		.uleb128 0x1
 6752 00f9 13       		.uleb128 0x13
 6753 00fa 00       		.byte	0
 6754 00fb 00       		.byte	0
 6755 00fc 17       		.uleb128 0x17
 6756 00fd 0D       		.uleb128 0xd
 6757 00fe 00       		.byte	0
 6758 00ff 03       		.uleb128 0x3
 6759 0100 0E       		.uleb128 0xe
 6760 0101 3A       		.uleb128 0x3a
 6761 0102 0B       		.uleb128 0xb
 6762 0103 3B       		.uleb128 0x3b
 6763 0104 05       		.uleb128 0x5
 6764 0105 49       		.uleb128 0x49
 6765 0106 13       		.uleb128 0x13
 6766 0107 38       		.uleb128 0x38
 6767 0108 0B       		.uleb128 0xb
 6768 0109 00       		.byte	0
 6769 010a 00       		.byte	0
 6770 010b 18       		.uleb128 0x18
 6771 010c 13       		.uleb128 0x13
 6772 010d 01       		.byte	0x1
 6773 010e 03       		.uleb128 0x3
 6774 010f 0E       		.uleb128 0xe
 6775 0110 0B       		.uleb128 0xb
 6776 0111 0B       		.uleb128 0xb
 6777 0112 3A       		.uleb128 0x3a
 6778 0113 0B       		.uleb128 0xb
 6779 0114 3B       		.uleb128 0x3b
 6780 0115 0B       		.uleb128 0xb
 6781 0116 01       		.uleb128 0x1
 6782 0117 13       		.uleb128 0x13
 6783 0118 00       		.byte	0
 6784 0119 00       		.byte	0
 6785 011a 19       		.uleb128 0x19
 6786 011b 26       		.uleb128 0x26
 6787 011c 00       		.byte	0
 6788 011d 00       		.byte	0
 6789 011e 00       		.byte	0
 6790 011f 1A       		.uleb128 0x1a
 6791 0120 13       		.uleb128 0x13
 6792 0121 01       		.byte	0x1
 6793 0122 0B       		.uleb128 0xb
 6794 0123 0B       		.uleb128 0xb
 6795 0124 3A       		.uleb128 0x3a
 6796 0125 0B       		.uleb128 0xb
 6797 0126 3B       		.uleb128 0x3b
 6798 0127 05       		.uleb128 0x5
 6799 0128 01       		.uleb128 0x1
 6800 0129 13       		.uleb128 0x13
 6801 012a 00       		.byte	0
ARM GAS  C:\Users\felha\AppData\Local\Temp\ccuk7kBX.s 			page 145


 6802 012b 00       		.byte	0
 6803 012c 1B       		.uleb128 0x1b
 6804 012d 0D       		.uleb128 0xd
 6805 012e 00       		.byte	0
 6806 012f 03       		.uleb128 0x3
 6807 0130 08       		.uleb128 0x8
 6808 0131 3A       		.uleb128 0x3a
 6809 0132 0B       		.uleb128 0xb
 6810 0133 3B       		.uleb128 0x3b
 6811 0134 05       		.uleb128 0x5
 6812 0135 49       		.uleb128 0x49
 6813 0136 13       		.uleb128 0x13
 6814 0137 38       		.uleb128 0x38
 6815 0138 0B       		.uleb128 0xb
 6816 0139 00       		.byte	0
 6817 013a 00       		.byte	0
 6818 013b 1C       		.uleb128 0x1c
 6819 013c 17       		.uleb128 0x17
 6820 013d 01       		.byte	0x1
 6821 013e 0B       		.uleb128 0xb
 6822 013f 0B       		.uleb128 0xb
 6823 0140 3A       		.uleb128 0x3a
 6824 0141 0B       		.uleb128 0xb
 6825 0142 3B       		.uleb128 0x3b
 6826 0143 05       		.uleb128 0x5
 6827 0144 01       		.uleb128 0x1
 6828 0145 13       		.uleb128 0x13
 6829 0146 00       		.byte	0
 6830 0147 00       		.byte	0
 6831 0148 1D       		.uleb128 0x1d
 6832 0149 0D       		.uleb128 0xd
 6833 014a 00       		.byte	0
 6834 014b 03       		.uleb128 0x3
 6835 014c 0E       		.uleb128 0xe
 6836 014d 3A       		.uleb128 0x3a
 6837 014e 0B       		.uleb128 0xb
 6838 014f 3B       		.uleb128 0x3b
 6839 0150 05       		.uleb128 0x5
 6840 0151 49       		.uleb128 0x49
 6841 0152 13       		.uleb128 0x13
 6842 0153 00       		.byte	0
 6843 0154 00       		.byte	0
 6844 0155 1E       		.uleb128 0x1e
 6845 0156 04       		.uleb128 0x4
 6846 0157 01       		.byte	0x1
 6847 0158 0B       		.uleb128 0xb
 6848 0159 0B       		.uleb128 0xb
 6849 015a 49       		.uleb128 0x49
 6850 015b 13       		.uleb128 0x13
 6851 015c 3A       		.uleb128 0x3a
 6852 015d 0B       		.uleb128 0xb
 6853 015e 3B       		.uleb128 0x3b
 6854 015f 0B       		.uleb128 0xb
 6855 0160 01       		.uleb128 0x1
 6856 0161 13       		.uleb128 0x13
 6857 0162 00       		.byte	0
 6858 0163 00       		.byte	0
ARM GAS  C:\Users\felha\AppData\Local\Temp\ccuk7kBX.s 			page 146


 6859 0164 1F       		.uleb128 0x1f
 6860 0165 2E       		.uleb128 0x2e
 6861 0166 01       		.byte	0x1
 6862 0167 03       		.uleb128 0x3
 6863 0168 0E       		.uleb128 0xe
 6864 0169 3A       		.uleb128 0x3a
 6865 016a 0B       		.uleb128 0xb
 6866 016b 3B       		.uleb128 0x3b
 6867 016c 05       		.uleb128 0x5
 6868 016d 27       		.uleb128 0x27
 6869 016e 19       		.uleb128 0x19
 6870 016f 20       		.uleb128 0x20
 6871 0170 0B       		.uleb128 0xb
 6872 0171 01       		.uleb128 0x1
 6873 0172 13       		.uleb128 0x13
 6874 0173 00       		.byte	0
 6875 0174 00       		.byte	0
 6876 0175 20       		.uleb128 0x20
 6877 0176 05       		.uleb128 0x5
 6878 0177 00       		.byte	0
 6879 0178 03       		.uleb128 0x3
 6880 0179 0E       		.uleb128 0xe
 6881 017a 3A       		.uleb128 0x3a
 6882 017b 0B       		.uleb128 0xb
 6883 017c 3B       		.uleb128 0x3b
 6884 017d 05       		.uleb128 0x5
 6885 017e 49       		.uleb128 0x49
 6886 017f 13       		.uleb128 0x13
 6887 0180 00       		.byte	0
 6888 0181 00       		.byte	0
 6889 0182 21       		.uleb128 0x21
 6890 0183 2E       		.uleb128 0x2e
 6891 0184 01       		.byte	0x1
 6892 0185 3F       		.uleb128 0x3f
 6893 0186 19       		.uleb128 0x19
 6894 0187 03       		.uleb128 0x3
 6895 0188 0E       		.uleb128 0xe
 6896 0189 3A       		.uleb128 0x3a
 6897 018a 0B       		.uleb128 0xb
 6898 018b 3B       		.uleb128 0x3b
 6899 018c 0B       		.uleb128 0xb
 6900 018d 27       		.uleb128 0x27
 6901 018e 19       		.uleb128 0x19
 6902 018f 11       		.uleb128 0x11
 6903 0190 01       		.uleb128 0x1
 6904 0191 12       		.uleb128 0x12
 6905 0192 06       		.uleb128 0x6
 6906 0193 40       		.uleb128 0x40
 6907 0194 18       		.uleb128 0x18
 6908 0195 9742     		.uleb128 0x2117
 6909 0197 19       		.uleb128 0x19
 6910 0198 01       		.uleb128 0x1
 6911 0199 13       		.uleb128 0x13
 6912 019a 00       		.byte	0
 6913 019b 00       		.byte	0
 6914 019c 22       		.uleb128 0x22
 6915 019d 05       		.uleb128 0x5
ARM GAS  C:\Users\felha\AppData\Local\Temp\ccuk7kBX.s 			page 147


 6916 019e 00       		.byte	0
 6917 019f 03       		.uleb128 0x3
 6918 01a0 0E       		.uleb128 0xe
 6919 01a1 3A       		.uleb128 0x3a
 6920 01a2 0B       		.uleb128 0xb
 6921 01a3 3B       		.uleb128 0x3b
 6922 01a4 0B       		.uleb128 0xb
 6923 01a5 49       		.uleb128 0x49
 6924 01a6 13       		.uleb128 0x13
 6925 01a7 02       		.uleb128 0x2
 6926 01a8 17       		.uleb128 0x17
 6927 01a9 00       		.byte	0
 6928 01aa 00       		.byte	0
 6929 01ab 23       		.uleb128 0x23
 6930 01ac 34       		.uleb128 0x34
 6931 01ad 00       		.byte	0
 6932 01ae 03       		.uleb128 0x3
 6933 01af 0E       		.uleb128 0xe
 6934 01b0 3A       		.uleb128 0x3a
 6935 01b1 0B       		.uleb128 0xb
 6936 01b2 3B       		.uleb128 0x3b
 6937 01b3 0B       		.uleb128 0xb
 6938 01b4 49       		.uleb128 0x49
 6939 01b5 13       		.uleb128 0x13
 6940 01b6 02       		.uleb128 0x2
 6941 01b7 17       		.uleb128 0x17
 6942 01b8 00       		.byte	0
 6943 01b9 00       		.byte	0
 6944 01ba 24       		.uleb128 0x24
 6945 01bb 898201   		.uleb128 0x4109
 6946 01be 00       		.byte	0
 6947 01bf 11       		.uleb128 0x11
 6948 01c0 01       		.uleb128 0x1
 6949 01c1 31       		.uleb128 0x31
 6950 01c2 13       		.uleb128 0x13
 6951 01c3 00       		.byte	0
 6952 01c4 00       		.byte	0
 6953 01c5 25       		.uleb128 0x25
 6954 01c6 898201   		.uleb128 0x4109
 6955 01c9 01       		.byte	0x1
 6956 01ca 11       		.uleb128 0x11
 6957 01cb 01       		.uleb128 0x1
 6958 01cc 31       		.uleb128 0x31
 6959 01cd 13       		.uleb128 0x13
 6960 01ce 01       		.uleb128 0x1
 6961 01cf 13       		.uleb128 0x13
 6962 01d0 00       		.byte	0
 6963 01d1 00       		.byte	0
 6964 01d2 26       		.uleb128 0x26
 6965 01d3 8A8201   		.uleb128 0x410a
 6966 01d6 00       		.byte	0
 6967 01d7 02       		.uleb128 0x2
 6968 01d8 18       		.uleb128 0x18
 6969 01d9 9142     		.uleb128 0x2111
 6970 01db 18       		.uleb128 0x18
 6971 01dc 00       		.byte	0
 6972 01dd 00       		.byte	0
ARM GAS  C:\Users\felha\AppData\Local\Temp\ccuk7kBX.s 			page 148


 6973 01de 27       		.uleb128 0x27
 6974 01df 898201   		.uleb128 0x4109
 6975 01e2 01       		.byte	0x1
 6976 01e3 11       		.uleb128 0x11
 6977 01e4 01       		.uleb128 0x1
 6978 01e5 31       		.uleb128 0x31
 6979 01e6 13       		.uleb128 0x13
 6980 01e7 00       		.byte	0
 6981 01e8 00       		.byte	0
 6982 01e9 28       		.uleb128 0x28
 6983 01ea 2E       		.uleb128 0x2e
 6984 01eb 01       		.byte	0x1
 6985 01ec 3F       		.uleb128 0x3f
 6986 01ed 19       		.uleb128 0x19
 6987 01ee 03       		.uleb128 0x3
 6988 01ef 0E       		.uleb128 0xe
 6989 01f0 3A       		.uleb128 0x3a
 6990 01f1 0B       		.uleb128 0xb
 6991 01f2 3B       		.uleb128 0x3b
 6992 01f3 0B       		.uleb128 0xb
 6993 01f4 27       		.uleb128 0x27
 6994 01f5 19       		.uleb128 0x19
 6995 01f6 11       		.uleb128 0x11
 6996 01f7 01       		.uleb128 0x1
 6997 01f8 12       		.uleb128 0x12
 6998 01f9 06       		.uleb128 0x6
 6999 01fa 40       		.uleb128 0x40
 7000 01fb 18       		.uleb128 0x18
 7001 01fc 9642     		.uleb128 0x2116
 7002 01fe 19       		.uleb128 0x19
 7003 01ff 01       		.uleb128 0x1
 7004 0200 13       		.uleb128 0x13
 7005 0201 00       		.byte	0
 7006 0202 00       		.byte	0
 7007 0203 29       		.uleb128 0x29
 7008 0204 34       		.uleb128 0x34
 7009 0205 00       		.byte	0
 7010 0206 03       		.uleb128 0x3
 7011 0207 08       		.uleb128 0x8
 7012 0208 3A       		.uleb128 0x3a
 7013 0209 0B       		.uleb128 0xb
 7014 020a 3B       		.uleb128 0x3b
 7015 020b 0B       		.uleb128 0xb
 7016 020c 49       		.uleb128 0x49
 7017 020d 13       		.uleb128 0x13
 7018 020e 02       		.uleb128 0x2
 7019 020f 17       		.uleb128 0x17
 7020 0210 00       		.byte	0
 7021 0211 00       		.byte	0
 7022 0212 2A       		.uleb128 0x2a
 7023 0213 34       		.uleb128 0x34
 7024 0214 00       		.byte	0
 7025 0215 03       		.uleb128 0x3
 7026 0216 0E       		.uleb128 0xe
 7027 0217 3A       		.uleb128 0x3a
 7028 0218 0B       		.uleb128 0xb
 7029 0219 3B       		.uleb128 0x3b
ARM GAS  C:\Users\felha\AppData\Local\Temp\ccuk7kBX.s 			page 149


 7030 021a 0B       		.uleb128 0xb
 7031 021b 49       		.uleb128 0x49
 7032 021c 13       		.uleb128 0x13
 7033 021d 02       		.uleb128 0x2
 7034 021e 18       		.uleb128 0x18
 7035 021f 00       		.byte	0
 7036 0220 00       		.byte	0
 7037 0221 2B       		.uleb128 0x2b
 7038 0222 0B       		.uleb128 0xb
 7039 0223 01       		.byte	0x1
 7040 0224 55       		.uleb128 0x55
 7041 0225 17       		.uleb128 0x17
 7042 0226 01       		.uleb128 0x1
 7043 0227 13       		.uleb128 0x13
 7044 0228 00       		.byte	0
 7045 0229 00       		.byte	0
 7046 022a 2C       		.uleb128 0x2c
 7047 022b 0B       		.uleb128 0xb
 7048 022c 01       		.byte	0x1
 7049 022d 11       		.uleb128 0x11
 7050 022e 01       		.uleb128 0x1
 7051 022f 12       		.uleb128 0x12
 7052 0230 06       		.uleb128 0x6
 7053 0231 01       		.uleb128 0x1
 7054 0232 13       		.uleb128 0x13
 7055 0233 00       		.byte	0
 7056 0234 00       		.byte	0
 7057 0235 2D       		.uleb128 0x2d
 7058 0236 34       		.uleb128 0x34
 7059 0237 00       		.byte	0
 7060 0238 03       		.uleb128 0x3
 7061 0239 08       		.uleb128 0x8
 7062 023a 3A       		.uleb128 0x3a
 7063 023b 0B       		.uleb128 0xb
 7064 023c 3B       		.uleb128 0x3b
 7065 023d 0B       		.uleb128 0xb
 7066 023e 49       		.uleb128 0x49
 7067 023f 13       		.uleb128 0x13
 7068 0240 02       		.uleb128 0x2
 7069 0241 18       		.uleb128 0x18
 7070 0242 00       		.byte	0
 7071 0243 00       		.byte	0
 7072 0244 2E       		.uleb128 0x2e
 7073 0245 0B       		.uleb128 0xb
 7074 0246 01       		.byte	0x1
 7075 0247 11       		.uleb128 0x11
 7076 0248 01       		.uleb128 0x1
 7077 0249 12       		.uleb128 0x12
 7078 024a 06       		.uleb128 0x6
 7079 024b 00       		.byte	0
 7080 024c 00       		.byte	0
 7081 024d 2F       		.uleb128 0x2f
 7082 024e 2E       		.uleb128 0x2e
 7083 024f 01       		.byte	0x1
 7084 0250 3F       		.uleb128 0x3f
 7085 0251 19       		.uleb128 0x19
 7086 0252 03       		.uleb128 0x3
ARM GAS  C:\Users\felha\AppData\Local\Temp\ccuk7kBX.s 			page 150


 7087 0253 0E       		.uleb128 0xe
 7088 0254 3A       		.uleb128 0x3a
 7089 0255 0B       		.uleb128 0xb
 7090 0256 3B       		.uleb128 0x3b
 7091 0257 0B       		.uleb128 0xb
 7092 0258 11       		.uleb128 0x11
 7093 0259 01       		.uleb128 0x1
 7094 025a 12       		.uleb128 0x12
 7095 025b 06       		.uleb128 0x6
 7096 025c 40       		.uleb128 0x40
 7097 025d 18       		.uleb128 0x18
 7098 025e 9742     		.uleb128 0x2117
 7099 0260 19       		.uleb128 0x19
 7100 0261 01       		.uleb128 0x1
 7101 0262 13       		.uleb128 0x13
 7102 0263 00       		.byte	0
 7103 0264 00       		.byte	0
 7104 0265 30       		.uleb128 0x30
 7105 0266 2E       		.uleb128 0x2e
 7106 0267 01       		.byte	0x1
 7107 0268 3F       		.uleb128 0x3f
 7108 0269 19       		.uleb128 0x19
 7109 026a 03       		.uleb128 0x3
 7110 026b 0E       		.uleb128 0xe
 7111 026c 3A       		.uleb128 0x3a
 7112 026d 0B       		.uleb128 0xb
 7113 026e 3B       		.uleb128 0x3b
 7114 026f 05       		.uleb128 0x5
 7115 0270 11       		.uleb128 0x11
 7116 0271 01       		.uleb128 0x1
 7117 0272 12       		.uleb128 0x12
 7118 0273 06       		.uleb128 0x6
 7119 0274 40       		.uleb128 0x40
 7120 0275 18       		.uleb128 0x18
 7121 0276 9742     		.uleb128 0x2117
 7122 0278 19       		.uleb128 0x19
 7123 0279 01       		.uleb128 0x1
 7124 027a 13       		.uleb128 0x13
 7125 027b 00       		.byte	0
 7126 027c 00       		.byte	0
 7127 027d 31       		.uleb128 0x31
 7128 027e 2E       		.uleb128 0x2e
 7129 027f 01       		.byte	0x1
 7130 0280 3F       		.uleb128 0x3f
 7131 0281 19       		.uleb128 0x19
 7132 0282 03       		.uleb128 0x3
 7133 0283 0E       		.uleb128 0xe
 7134 0284 3A       		.uleb128 0x3a
 7135 0285 0B       		.uleb128 0xb
 7136 0286 3B       		.uleb128 0x3b
 7137 0287 05       		.uleb128 0x5
 7138 0288 8701     		.uleb128 0x87
 7139 028a 19       		.uleb128 0x19
 7140 028b 11       		.uleb128 0x11
 7141 028c 01       		.uleb128 0x1
 7142 028d 12       		.uleb128 0x12
 7143 028e 06       		.uleb128 0x6
ARM GAS  C:\Users\felha\AppData\Local\Temp\ccuk7kBX.s 			page 151


 7144 028f 40       		.uleb128 0x40
 7145 0290 18       		.uleb128 0x18
 7146 0291 9742     		.uleb128 0x2117
 7147 0293 19       		.uleb128 0x19
 7148 0294 01       		.uleb128 0x1
 7149 0295 13       		.uleb128 0x13
 7150 0296 00       		.byte	0
 7151 0297 00       		.byte	0
 7152 0298 32       		.uleb128 0x32
 7153 0299 1D       		.uleb128 0x1d
 7154 029a 01       		.byte	0x1
 7155 029b 31       		.uleb128 0x31
 7156 029c 13       		.uleb128 0x13
 7157 029d 11       		.uleb128 0x11
 7158 029e 01       		.uleb128 0x1
 7159 029f 12       		.uleb128 0x12
 7160 02a0 06       		.uleb128 0x6
 7161 02a1 58       		.uleb128 0x58
 7162 02a2 0B       		.uleb128 0xb
 7163 02a3 59       		.uleb128 0x59
 7164 02a4 05       		.uleb128 0x5
 7165 02a5 01       		.uleb128 0x1
 7166 02a6 13       		.uleb128 0x13
 7167 02a7 00       		.byte	0
 7168 02a8 00       		.byte	0
 7169 02a9 33       		.uleb128 0x33
 7170 02aa 05       		.uleb128 0x5
 7171 02ab 00       		.byte	0
 7172 02ac 31       		.uleb128 0x31
 7173 02ad 13       		.uleb128 0x13
 7174 02ae 02       		.uleb128 0x2
 7175 02af 17       		.uleb128 0x17
 7176 02b0 00       		.byte	0
 7177 02b1 00       		.byte	0
 7178 02b2 34       		.uleb128 0x34
 7179 02b3 34       		.uleb128 0x34
 7180 02b4 00       		.byte	0
 7181 02b5 03       		.uleb128 0x3
 7182 02b6 0E       		.uleb128 0xe
 7183 02b7 3A       		.uleb128 0x3a
 7184 02b8 0B       		.uleb128 0xb
 7185 02b9 3B       		.uleb128 0x3b
 7186 02ba 05       		.uleb128 0x5
 7187 02bb 49       		.uleb128 0x49
 7188 02bc 13       		.uleb128 0x13
 7189 02bd 02       		.uleb128 0x2
 7190 02be 18       		.uleb128 0x18
 7191 02bf 00       		.byte	0
 7192 02c0 00       		.byte	0
 7193 02c1 35       		.uleb128 0x35
 7194 02c2 34       		.uleb128 0x34
 7195 02c3 00       		.byte	0
 7196 02c4 03       		.uleb128 0x3
 7197 02c5 0E       		.uleb128 0xe
 7198 02c6 3A       		.uleb128 0x3a
 7199 02c7 0B       		.uleb128 0xb
 7200 02c8 3B       		.uleb128 0x3b
ARM GAS  C:\Users\felha\AppData\Local\Temp\ccuk7kBX.s 			page 152


 7201 02c9 05       		.uleb128 0x5
 7202 02ca 49       		.uleb128 0x49
 7203 02cb 13       		.uleb128 0x13
 7204 02cc 3F       		.uleb128 0x3f
 7205 02cd 19       		.uleb128 0x19
 7206 02ce 3C       		.uleb128 0x3c
 7207 02cf 19       		.uleb128 0x19
 7208 02d0 00       		.byte	0
 7209 02d1 00       		.byte	0
 7210 02d2 36       		.uleb128 0x36
 7211 02d3 34       		.uleb128 0x34
 7212 02d4 00       		.byte	0
 7213 02d5 03       		.uleb128 0x3
 7214 02d6 0E       		.uleb128 0xe
 7215 02d7 3A       		.uleb128 0x3a
 7216 02d8 0B       		.uleb128 0xb
 7217 02d9 3B       		.uleb128 0x3b
 7218 02da 0B       		.uleb128 0xb
 7219 02db 49       		.uleb128 0x49
 7220 02dc 13       		.uleb128 0x13
 7221 02dd 3F       		.uleb128 0x3f
 7222 02de 19       		.uleb128 0x19
 7223 02df 3C       		.uleb128 0x3c
 7224 02e0 19       		.uleb128 0x19
 7225 02e1 00       		.byte	0
 7226 02e2 00       		.byte	0
 7227 02e3 37       		.uleb128 0x37
 7228 02e4 21       		.uleb128 0x21
 7229 02e5 00       		.byte	0
 7230 02e6 49       		.uleb128 0x49
 7231 02e7 13       		.uleb128 0x13
 7232 02e8 2F       		.uleb128 0x2f
 7233 02e9 05       		.uleb128 0x5
 7234 02ea 00       		.byte	0
 7235 02eb 00       		.byte	0
 7236 02ec 38       		.uleb128 0x38
 7237 02ed 34       		.uleb128 0x34
 7238 02ee 00       		.byte	0
 7239 02ef 03       		.uleb128 0x3
 7240 02f0 0E       		.uleb128 0xe
 7241 02f1 3A       		.uleb128 0x3a
 7242 02f2 0B       		.uleb128 0xb
 7243 02f3 3B       		.uleb128 0x3b
 7244 02f4 0B       		.uleb128 0xb
 7245 02f5 49       		.uleb128 0x49
 7246 02f6 13       		.uleb128 0x13
 7247 02f7 3F       		.uleb128 0x3f
 7248 02f8 19       		.uleb128 0x19
 7249 02f9 02       		.uleb128 0x2
 7250 02fa 18       		.uleb128 0x18
 7251 02fb 00       		.byte	0
 7252 02fc 00       		.byte	0
 7253 02fd 39       		.uleb128 0x39
 7254 02fe 34       		.uleb128 0x34
 7255 02ff 00       		.byte	0
 7256 0300 03       		.uleb128 0x3
 7257 0301 0E       		.uleb128 0xe
ARM GAS  C:\Users\felha\AppData\Local\Temp\ccuk7kBX.s 			page 153


 7258 0302 3A       		.uleb128 0x3a
 7259 0303 0B       		.uleb128 0xb
 7260 0304 3B       		.uleb128 0x3b
 7261 0305 05       		.uleb128 0x5
 7262 0306 49       		.uleb128 0x49
 7263 0307 13       		.uleb128 0x13
 7264 0308 3F       		.uleb128 0x3f
 7265 0309 19       		.uleb128 0x19
 7266 030a 02       		.uleb128 0x2
 7267 030b 18       		.uleb128 0x18
 7268 030c 00       		.byte	0
 7269 030d 00       		.byte	0
 7270 030e 3A       		.uleb128 0x3a
 7271 030f 2E       		.uleb128 0x2e
 7272 0310 00       		.byte	0
 7273 0311 3F       		.uleb128 0x3f
 7274 0312 19       		.uleb128 0x19
 7275 0313 3C       		.uleb128 0x3c
 7276 0314 19       		.uleb128 0x19
 7277 0315 6E       		.uleb128 0x6e
 7278 0316 0E       		.uleb128 0xe
 7279 0317 03       		.uleb128 0x3
 7280 0318 0E       		.uleb128 0xe
 7281 0319 3A       		.uleb128 0x3a
 7282 031a 0B       		.uleb128 0xb
 7283 031b 3B       		.uleb128 0x3b
 7284 031c 0B       		.uleb128 0xb
 7285 031d 00       		.byte	0
 7286 031e 00       		.byte	0
 7287 031f 3B       		.uleb128 0x3b
 7288 0320 2E       		.uleb128 0x2e
 7289 0321 00       		.byte	0
 7290 0322 3F       		.uleb128 0x3f
 7291 0323 19       		.uleb128 0x19
 7292 0324 3C       		.uleb128 0x3c
 7293 0325 19       		.uleb128 0x19
 7294 0326 6E       		.uleb128 0x6e
 7295 0327 0E       		.uleb128 0xe
 7296 0328 03       		.uleb128 0x3
 7297 0329 0E       		.uleb128 0xe
 7298 032a 00       		.byte	0
 7299 032b 00       		.byte	0
 7300 032c 3C       		.uleb128 0x3c
 7301 032d 2E       		.uleb128 0x2e
 7302 032e 00       		.byte	0
 7303 032f 3F       		.uleb128 0x3f
 7304 0330 19       		.uleb128 0x19
 7305 0331 3C       		.uleb128 0x3c
 7306 0332 19       		.uleb128 0x19
 7307 0333 6E       		.uleb128 0x6e
 7308 0334 0E       		.uleb128 0xe
 7309 0335 03       		.uleb128 0x3
 7310 0336 0E       		.uleb128 0xe
 7311 0337 3A       		.uleb128 0x3a
 7312 0338 0B       		.uleb128 0xb
 7313 0339 3B       		.uleb128 0x3b
 7314 033a 05       		.uleb128 0x5
ARM GAS  C:\Users\felha\AppData\Local\Temp\ccuk7kBX.s 			page 154


 7315 033b 00       		.byte	0
 7316 033c 00       		.byte	0
 7317 033d 00       		.byte	0
 7318              		.section	.debug_loc,"",%progbits
 7319              	.Ldebug_loc0:
 7320              	.LLST0:
 7321 0000 00000000 		.4byte	.LVL0
 7322 0004 09000000 		.4byte	.LVL1-1
 7323 0008 0100     		.2byte	0x1
 7324 000a 50       		.byte	0x50
 7325 000b 09000000 		.4byte	.LVL1-1
 7326 000f 2C000000 		.4byte	.LFE650
 7327 0013 0400     		.2byte	0x4
 7328 0015 F3       		.byte	0xf3
 7329 0016 01       		.uleb128 0x1
 7330 0017 50       		.byte	0x50
 7331 0018 9F       		.byte	0x9f
 7332 0019 00000000 		.4byte	0
 7333 001d 00000000 		.4byte	0
 7334              	.LLST1:
 7335 0021 00000000 		.4byte	.LVL0
 7336 0025 09000000 		.4byte	.LVL1-1
 7337 0029 0100     		.2byte	0x1
 7338 002b 51       		.byte	0x51
 7339 002c 09000000 		.4byte	.LVL1-1
 7340 0030 2C000000 		.4byte	.LFE650
 7341 0034 0400     		.2byte	0x4
 7342 0036 F3       		.byte	0xf3
 7343 0037 01       		.uleb128 0x1
 7344 0038 51       		.byte	0x51
 7345 0039 9F       		.byte	0x9f
 7346 003a 00000000 		.4byte	0
 7347 003e 00000000 		.4byte	0
 7348              	.LLST2:
 7349 0042 0C000000 		.4byte	.LVL2
 7350 0046 16000000 		.4byte	.LVL3
 7351 004a 0100     		.2byte	0x1
 7352 004c 50       		.byte	0x50
 7353 004d 16000000 		.4byte	.LVL3
 7354 0051 19000000 		.4byte	.LVL4-1
 7355 0055 0100     		.2byte	0x1
 7356 0057 51       		.byte	0x51
 7357 0058 19000000 		.4byte	.LVL4-1
 7358 005c 28000000 		.4byte	.LVL6
 7359 0060 0100     		.2byte	0x1
 7360 0062 55       		.byte	0x55
 7361 0063 00000000 		.4byte	0
 7362 0067 00000000 		.4byte	0
 7363              	.LLST3:
 7364 006b 00000000 		.4byte	.LVL11
 7365 006f 0B000000 		.4byte	.LVL12-1
 7366 0073 0100     		.2byte	0x1
 7367 0075 50       		.byte	0x50
 7368 0076 0B000000 		.4byte	.LVL12-1
 7369 007a 4C000000 		.4byte	.LVL19
 7370 007e 0100     		.2byte	0x1
 7371 0080 54       		.byte	0x54
ARM GAS  C:\Users\felha\AppData\Local\Temp\ccuk7kBX.s 			page 155


 7372 0081 4C000000 		.4byte	.LVL19
 7373 0085 A2000000 		.4byte	.LFE652
 7374 0089 0400     		.2byte	0x4
 7375 008b F3       		.byte	0xf3
 7376 008c 01       		.uleb128 0x1
 7377 008d 50       		.byte	0x50
 7378 008e 9F       		.byte	0x9f
 7379 008f 00000000 		.4byte	0
 7380 0093 00000000 		.4byte	0
 7381              	.LLST4:
 7382 0097 0C000000 		.4byte	.LVL12
 7383 009b 50000000 		.4byte	.LVL20
 7384 009f 0200     		.2byte	0x2
 7385 00a1 30       		.byte	0x30
 7386 00a2 9F       		.byte	0x9f
 7387 00a3 50000000 		.4byte	.LVL20
 7388 00a7 A2000000 		.4byte	.LFE652
 7389 00ab 0100     		.2byte	0x1
 7390 00ad 55       		.byte	0x55
 7391 00ae 00000000 		.4byte	0
 7392 00b2 00000000 		.4byte	0
 7393              	.LLST5:
 7394 00b6 0C000000 		.4byte	.LVL12
 7395 00ba 12000000 		.4byte	.LVL13
 7396 00be 0200     		.2byte	0x2
 7397 00c0 30       		.byte	0x30
 7398 00c1 9F       		.byte	0x9f
 7399 00c2 12000000 		.4byte	.LVL13
 7400 00c6 1A000000 		.4byte	.LVL14
 7401 00ca 0100     		.2byte	0x1
 7402 00cc 50       		.byte	0x50
 7403 00cd 24000000 		.4byte	.LVL15
 7404 00d1 50000000 		.4byte	.LVL20
 7405 00d5 0100     		.2byte	0x1
 7406 00d7 50       		.byte	0x50
 7407 00d8 00000000 		.4byte	0
 7408 00dc 00000000 		.4byte	0
 7409              	.LLST6:
 7410 00e0 0C000000 		.4byte	.LVL12
 7411 00e4 12000000 		.4byte	.LVL13
 7412 00e8 0200     		.2byte	0x2
 7413 00ea 30       		.byte	0x30
 7414 00eb 9F       		.byte	0x9f
 7415 00ec 12000000 		.4byte	.LVL13
 7416 00f0 2E000000 		.4byte	.LVL17
 7417 00f4 0100     		.2byte	0x1
 7418 00f6 53       		.byte	0x53
 7419 00f7 00000000 		.4byte	0
 7420 00fb 00000000 		.4byte	0
 7421              	.LLST7:
 7422 00ff 2E000000 		.4byte	.LVL17
 7423 0103 50000000 		.4byte	.LVL20
 7424 0107 0100     		.2byte	0x1
 7425 0109 51       		.byte	0x51
 7426 010a 00000000 		.4byte	0
 7427 010e 00000000 		.4byte	0
 7428              	.LLST8:
ARM GAS  C:\Users\felha\AppData\Local\Temp\ccuk7kBX.s 			page 156


 7429 0112 62000000 		.4byte	.LVL24
 7430 0116 66000000 		.4byte	.LVL25
 7431 011a 0100     		.2byte	0x1
 7432 011c 50       		.byte	0x50
 7433 011d 66000000 		.4byte	.LVL25
 7434 0121 69000000 		.4byte	.LVL26-1
 7435 0125 0100     		.2byte	0x1
 7436 0127 51       		.byte	0x51
 7437 0128 69000000 		.4byte	.LVL26-1
 7438 012c 90000000 		.4byte	.LVL33
 7439 0130 0100     		.2byte	0x1
 7440 0132 56       		.byte	0x56
 7441 0133 00000000 		.4byte	0
 7442 0137 00000000 		.4byte	0
 7443              	.LLST9:
 7444 013b 80000000 		.4byte	.LVL29
 7445 013f 88000000 		.4byte	.LVL30
 7446 0143 0100     		.2byte	0x1
 7447 0145 50       		.byte	0x50
 7448 0146 88000000 		.4byte	.LVL30
 7449 014a 8B000000 		.4byte	.LVL31-1
 7450 014e 0100     		.2byte	0x1
 7451 0150 53       		.byte	0x53
 7452 0151 00000000 		.4byte	0
 7453 0155 00000000 		.4byte	0
 7454              	.LLST10:
 7455 0159 00000000 		.4byte	.LVL35
 7456 015d 07000000 		.4byte	.LVL36-1
 7457 0161 0100     		.2byte	0x1
 7458 0163 50       		.byte	0x50
 7459 0164 07000000 		.4byte	.LVL36-1
 7460 0168 3A000000 		.4byte	.LVL42
 7461 016c 0100     		.2byte	0x1
 7462 016e 54       		.byte	0x54
 7463 016f 3A000000 		.4byte	.LVL42
 7464 0173 48000000 		.4byte	.LFE653
 7465 0177 0400     		.2byte	0x4
 7466 0179 F3       		.byte	0xf3
 7467 017a 01       		.uleb128 0x1
 7468 017b 50       		.byte	0x50
 7469 017c 9F       		.byte	0x9f
 7470 017d 00000000 		.4byte	0
 7471 0181 00000000 		.4byte	0
 7472              	.LLST11:
 7473 0185 00000000 		.4byte	.LVL43
 7474 0189 10000000 		.4byte	.LVL46
 7475 018d 0100     		.2byte	0x1
 7476 018f 50       		.byte	0x50
 7477 0190 10000000 		.4byte	.LVL46
 7478 0194 13000000 		.4byte	.LVL47-1
 7479 0198 0100     		.2byte	0x1
 7480 019a 52       		.byte	0x52
 7481 019b 13000000 		.4byte	.LVL47-1
 7482 019f C0000000 		.4byte	.LFE654
 7483 01a3 0400     		.2byte	0x4
 7484 01a5 F3       		.byte	0xf3
 7485 01a6 01       		.uleb128 0x1
ARM GAS  C:\Users\felha\AppData\Local\Temp\ccuk7kBX.s 			page 157


 7486 01a7 50       		.byte	0x50
 7487 01a8 9F       		.byte	0x9f
 7488 01a9 00000000 		.4byte	0
 7489 01ad 00000000 		.4byte	0
 7490              	.LLST12:
 7491 01b1 00000000 		.4byte	.LVL43
 7492 01b5 0E000000 		.4byte	.LVL45
 7493 01b9 0100     		.2byte	0x1
 7494 01bb 51       		.byte	0x51
 7495 01bc 0E000000 		.4byte	.LVL45
 7496 01c0 A0000000 		.4byte	.LVL62
 7497 01c4 0100     		.2byte	0x1
 7498 01c6 56       		.byte	0x56
 7499 01c7 A0000000 		.4byte	.LVL62
 7500 01cb C0000000 		.4byte	.LFE654
 7501 01cf 0400     		.2byte	0x4
 7502 01d1 F3       		.byte	0xf3
 7503 01d2 01       		.uleb128 0x1
 7504 01d3 51       		.byte	0x51
 7505 01d4 9F       		.byte	0x9f
 7506 01d5 00000000 		.4byte	0
 7507 01d9 00000000 		.4byte	0
 7508              	.LLST13:
 7509 01dd 00000000 		.4byte	.LVL43
 7510 01e1 0C000000 		.4byte	.LVL44
 7511 01e5 0100     		.2byte	0x1
 7512 01e7 52       		.byte	0x52
 7513 01e8 0C000000 		.4byte	.LVL44
 7514 01ec A0000000 		.4byte	.LVL62
 7515 01f0 0100     		.2byte	0x1
 7516 01f2 54       		.byte	0x54
 7517 01f3 A0000000 		.4byte	.LVL62
 7518 01f7 C0000000 		.4byte	.LFE654
 7519 01fb 0400     		.2byte	0x4
 7520 01fd F3       		.byte	0xf3
 7521 01fe 01       		.uleb128 0x1
 7522 01ff 52       		.byte	0x52
 7523 0200 9F       		.byte	0x9f
 7524 0201 00000000 		.4byte	0
 7525 0205 00000000 		.4byte	0
 7526              	.LLST14:
 7527 0209 00000000 		.4byte	.LVL63
 7528 020d 09000000 		.4byte	.LVL64-1
 7529 0211 0100     		.2byte	0x1
 7530 0213 50       		.byte	0x50
 7531 0214 09000000 		.4byte	.LVL64-1
 7532 0218 4C000000 		.4byte	.LVL73
 7533 021c 0100     		.2byte	0x1
 7534 021e 54       		.byte	0x54
 7535 021f 4C000000 		.4byte	.LVL73
 7536 0223 5C000000 		.4byte	.LFE655
 7537 0227 0400     		.2byte	0x4
 7538 0229 F3       		.byte	0xf3
 7539 022a 01       		.uleb128 0x1
 7540 022b 50       		.byte	0x50
 7541 022c 9F       		.byte	0x9f
 7542 022d 00000000 		.4byte	0
ARM GAS  C:\Users\felha\AppData\Local\Temp\ccuk7kBX.s 			page 158


 7543 0231 00000000 		.4byte	0
 7544              	.LLST15:
 7545 0235 00000000 		.4byte	.LVL74
 7546 0239 09000000 		.4byte	.LVL75-1
 7547 023d 0100     		.2byte	0x1
 7548 023f 50       		.byte	0x50
 7549 0240 09000000 		.4byte	.LVL75-1
 7550 0244 4C000000 		.4byte	.LVL84
 7551 0248 0100     		.2byte	0x1
 7552 024a 54       		.byte	0x54
 7553 024b 4C000000 		.4byte	.LVL84
 7554 024f 5C000000 		.4byte	.LFE656
 7555 0253 0400     		.2byte	0x4
 7556 0255 F3       		.byte	0xf3
 7557 0256 01       		.uleb128 0x1
 7558 0257 50       		.byte	0x50
 7559 0258 9F       		.byte	0x9f
 7560 0259 00000000 		.4byte	0
 7561 025d 00000000 		.4byte	0
 7562              	.LLST16:
 7563 0261 00000000 		.4byte	.LVL85
 7564 0265 0B000000 		.4byte	.LVL86-1
 7565 0269 0100     		.2byte	0x1
 7566 026b 50       		.byte	0x50
 7567 026c 0B000000 		.4byte	.LVL86-1
 7568 0270 EE000000 		.4byte	.LVL107
 7569 0274 0100     		.2byte	0x1
 7570 0276 54       		.byte	0x54
 7571 0277 EE000000 		.4byte	.LVL107
 7572 027b 20010000 		.4byte	.LFE657
 7573 027f 0400     		.2byte	0x4
 7574 0281 F3       		.byte	0xf3
 7575 0282 01       		.uleb128 0x1
 7576 0283 50       		.byte	0x50
 7577 0284 9F       		.byte	0x9f
 7578 0285 00000000 		.4byte	0
 7579 0289 00000000 		.4byte	0
 7580              	.LLST17:
 7581 028d 00000000 		.4byte	.LVL85
 7582 0291 0B000000 		.4byte	.LVL86-1
 7583 0295 0100     		.2byte	0x1
 7584 0297 51       		.byte	0x51
 7585 0298 0B000000 		.4byte	.LVL86-1
 7586 029c EE000000 		.4byte	.LVL107
 7587 02a0 0100     		.2byte	0x1
 7588 02a2 55       		.byte	0x55
 7589 02a3 EE000000 		.4byte	.LVL107
 7590 02a7 20010000 		.4byte	.LFE657
 7591 02ab 0400     		.2byte	0x4
 7592 02ad F3       		.byte	0xf3
 7593 02ae 01       		.uleb128 0x1
 7594 02af 51       		.byte	0x51
 7595 02b0 9F       		.byte	0x9f
 7596 02b1 00000000 		.4byte	0
 7597 02b5 00000000 		.4byte	0
 7598              	.LLST18:
 7599 02b9 00000000 		.4byte	.LVL85
ARM GAS  C:\Users\felha\AppData\Local\Temp\ccuk7kBX.s 			page 159


 7600 02bd 0B000000 		.4byte	.LVL86-1
 7601 02c1 0100     		.2byte	0x1
 7602 02c3 52       		.byte	0x52
 7603 02c4 0B000000 		.4byte	.LVL86-1
 7604 02c8 EE000000 		.4byte	.LVL107
 7605 02cc 0100     		.2byte	0x1
 7606 02ce 56       		.byte	0x56
 7607 02cf EE000000 		.4byte	.LVL107
 7608 02d3 20010000 		.4byte	.LFE657
 7609 02d7 0400     		.2byte	0x4
 7610 02d9 F3       		.byte	0xf3
 7611 02da 01       		.uleb128 0x1
 7612 02db 52       		.byte	0x52
 7613 02dc 9F       		.byte	0x9f
 7614 02dd 00000000 		.4byte	0
 7615 02e1 00000000 		.4byte	0
 7616              	.LLST19:
 7617 02e5 28000000 		.4byte	.LVL110
 7618 02e9 38000000 		.4byte	.LVL112
 7619 02ed 0100     		.2byte	0x1
 7620 02ef 54       		.byte	0x54
 7621 02f0 00000000 		.4byte	0
 7622 02f4 00000000 		.4byte	0
 7623              	.LLST20:
 7624 02f8 16000000 		.4byte	.LVL144
 7625 02fc 1E000000 		.4byte	.LVL145
 7626 0300 0200     		.2byte	0x2
 7627 0302 30       		.byte	0x30
 7628 0303 9F       		.byte	0x9f
 7629 0304 00000000 		.4byte	0
 7630 0308 00000000 		.4byte	0
 7631              	.LLST21:
 7632 030c 16000000 		.4byte	.LVL144
 7633 0310 1E000000 		.4byte	.LVL145
 7634 0314 0200     		.2byte	0x2
 7635 0316 31       		.byte	0x31
 7636 0317 9F       		.byte	0x9f
 7637 0318 00000000 		.4byte	0
 7638 031c 00000000 		.4byte	0
 7639              	.LLST22:
 7640 0320 16000000 		.4byte	.LVL144
 7641 0324 1E000000 		.4byte	.LVL145
 7642 0328 0600     		.2byte	0x6
 7643 032a 0C       		.byte	0xc
 7644 032b 80053240 		.4byte	0x40320580
 7645 032f 9F       		.byte	0x9f
 7646 0330 00000000 		.4byte	0
 7647 0334 00000000 		.4byte	0
 7648              	.LLST23:
 7649 0338 1E000000 		.4byte	.LVL145
 7650 033c 24000000 		.4byte	.LVL146
 7651 0340 0200     		.2byte	0x2
 7652 0342 31       		.byte	0x31
 7653 0343 9F       		.byte	0x9f
 7654 0344 00000000 		.4byte	0
 7655 0348 00000000 		.4byte	0
 7656              	.LLST25:
ARM GAS  C:\Users\felha\AppData\Local\Temp\ccuk7kBX.s 			page 160


 7657 034c 1E000000 		.4byte	.LVL145
 7658 0350 24000000 		.4byte	.LVL146
 7659 0354 0600     		.2byte	0x6
 7660 0356 0C       		.byte	0xc
 7661 0357 80053240 		.4byte	0x40320580
 7662 035b 9F       		.byte	0x9f
 7663 035c 00000000 		.4byte	0
 7664 0360 00000000 		.4byte	0
 7665              		.section	.debug_aranges,"",%progbits
 7666 0000 8C000000 		.4byte	0x8c
 7667 0004 0200     		.2byte	0x2
 7668 0006 00000000 		.4byte	.Ldebug_info0
 7669 000a 04       		.byte	0x4
 7670 000b 00       		.byte	0
 7671 000c 0000     		.2byte	0
 7672 000e 0000     		.2byte	0
 7673 0010 00000000 		.4byte	.LFB650
 7674 0014 2C000000 		.4byte	.LFE650-.LFB650
 7675 0018 00000000 		.4byte	.LFB651
 7676 001c 1E000000 		.4byte	.LFE651-.LFB651
 7677 0020 00000000 		.4byte	.LFB652
 7678 0024 A2000000 		.4byte	.LFE652-.LFB652
 7679 0028 00000000 		.4byte	.LFB653
 7680 002c 48000000 		.4byte	.LFE653-.LFB653
 7681 0030 00000000 		.4byte	.LFB654
 7682 0034 C0000000 		.4byte	.LFE654-.LFB654
 7683 0038 00000000 		.4byte	.LFB655
 7684 003c 5C000000 		.4byte	.LFE655-.LFB655
 7685 0040 00000000 		.4byte	.LFB656
 7686 0044 5C000000 		.4byte	.LFE656-.LFB656
 7687 0048 00000000 		.4byte	.LFB657
 7688 004c 20010000 		.4byte	.LFE657-.LFB657
 7689 0050 00000000 		.4byte	.LFB658
 7690 0054 60000000 		.4byte	.LFE658-.LFB658
 7691 0058 00000000 		.4byte	.LFB659
 7692 005c AC000000 		.4byte	.LFE659-.LFB659
 7693 0060 00000000 		.4byte	.LFB660
 7694 0064 AC000000 		.4byte	.LFE660-.LFB660
 7695 0068 00000000 		.4byte	.LFB661
 7696 006c 54000000 		.4byte	.LFE661-.LFB661
 7697 0070 00000000 		.4byte	.LFB662
 7698 0074 6C000000 		.4byte	.LFE662-.LFB662
 7699 0078 00000000 		.4byte	.LFB663
 7700 007c 34000000 		.4byte	.LFE663-.LFB663
 7701 0080 00000000 		.4byte	.LFB664
 7702 0084 7C030000 		.4byte	.LFE664-.LFB664
 7703 0088 00000000 		.4byte	0
 7704 008c 00000000 		.4byte	0
 7705              		.section	.debug_ranges,"",%progbits
 7706              	.Ldebug_ranges0:
 7707 0000 0C000000 		.4byte	.LBB6
 7708 0004 0E000000 		.4byte	.LBE6
 7709 0008 10000000 		.4byte	.LBB7
 7710 000c 2E000000 		.4byte	.LBE7
 7711 0010 00000000 		.4byte	0
 7712 0014 00000000 		.4byte	0
 7713 0018 00000000 		.4byte	.LFB650
ARM GAS  C:\Users\felha\AppData\Local\Temp\ccuk7kBX.s 			page 161


 7714 001c 2C000000 		.4byte	.LFE650
 7715 0020 00000000 		.4byte	.LFB651
 7716 0024 1E000000 		.4byte	.LFE651
 7717 0028 00000000 		.4byte	.LFB652
 7718 002c A2000000 		.4byte	.LFE652
 7719 0030 00000000 		.4byte	.LFB653
 7720 0034 48000000 		.4byte	.LFE653
 7721 0038 00000000 		.4byte	.LFB654
 7722 003c C0000000 		.4byte	.LFE654
 7723 0040 00000000 		.4byte	.LFB655
 7724 0044 5C000000 		.4byte	.LFE655
 7725 0048 00000000 		.4byte	.LFB656
 7726 004c 5C000000 		.4byte	.LFE656
 7727 0050 00000000 		.4byte	.LFB657
 7728 0054 20010000 		.4byte	.LFE657
 7729 0058 00000000 		.4byte	.LFB658
 7730 005c 60000000 		.4byte	.LFE658
 7731 0060 00000000 		.4byte	.LFB659
 7732 0064 AC000000 		.4byte	.LFE659
 7733 0068 00000000 		.4byte	.LFB660
 7734 006c AC000000 		.4byte	.LFE660
 7735 0070 00000000 		.4byte	.LFB661
 7736 0074 54000000 		.4byte	.LFE661
 7737 0078 00000000 		.4byte	.LFB662
 7738 007c 6C000000 		.4byte	.LFE662
 7739 0080 00000000 		.4byte	.LFB663
 7740 0084 34000000 		.4byte	.LFE663
 7741 0088 00000000 		.4byte	.LFB664
 7742 008c 7C030000 		.4byte	.LFE664
 7743 0090 00000000 		.4byte	0
 7744 0094 00000000 		.4byte	0
 7745              		.section	.debug_line,"",%progbits
 7746              	.Ldebug_line0:
 7747 0000 3A080000 		.section	.debug_str,"MS",%progbits,1
 7747      0200B705 
 7747      00000201 
 7747      FB0E0D00 
 7747      01010101 
 7748              	.LASF91:
 7749 0000 666C6173 		.ascii	"flashCtlMainWs1Freq\000"
 7749      6843746C 
 7749      4D61696E 
 7749      57733146 
 7749      72657100 
 7750              	.LASF31:
 7751 0014 52455345 		.ascii	"RESERVED\000"
 7751      52564544 
 7751      00
 7752              	.LASF35:
 7753 001d 494E5452 		.ascii	"INTR_CAUSE0\000"
 7753      5F434155 
 7753      53453000 
 7754              	.LASF36:
 7755 0029 494E5452 		.ascii	"INTR_CAUSE1\000"
 7755      5F434155 
 7755      53453100 
 7756              	.LASF37:
ARM GAS  C:\Users\felha\AppData\Local\Temp\ccuk7kBX.s 			page 162


 7757 0035 494E5452 		.ascii	"INTR_CAUSE2\000"
 7757      5F434155 
 7757      53453200 
 7758              	.LASF168:
 7759 0041 63795F63 		.ascii	"cy_cb_scb_spi_handle_events_t\000"
 7759      625F7363 
 7759      625F7370 
 7759      695F6861 
 7759      6E646C65 
 7760              	.LASF236:
 7761 005f 74475549 		.ascii	"tGUI_ENC_APIList\000"
 7761      5F454E43 
 7761      5F415049 
 7761      4C697374 
 7761      00
 7762              	.LASF321:
 7763 0070 4D6F7469 		.ascii	"MotionAlarmEnable\000"
 7763      6F6E416C 
 7763      61726D45 
 7763      6E61626C 
 7763      6500
 7764              	.LASF217:
 7765 0082 46697273 		.ascii	"First\000"
 7765      7400
 7766              	.LASF196:
 7767 0088 73746F70 		.ascii	"stopInputMode\000"
 7767      496E7075 
 7767      744D6F64 
 7767      6500
 7768              	.LASF300:
 7769 0096 63795F64 		.ascii	"cy_device\000"
 7769      65766963 
 7769      6500
 7770              	.LASF305:
 7771 00a0 4755495F 		.ascii	"GUI_Font10_1\000"
 7771      466F6E74 
 7771      31305F31 
 7771      00
 7772              	.LASF262:
 7773 00ad 62617365 		.ascii	"base\000"
 7773      00
 7774              	.LASF118:
 7775 00b2 63707573 		.ascii	"cpussCm0ClockCtlOffset\000"
 7775      73436D30 
 7775      436C6F63 
 7775      6B43746C 
 7775      4F666673 
 7776              	.LASF77:
 7777 00c9 70657269 		.ascii	"periClockNr\000"
 7777      436C6F63 
 7777      6B4E7200 
 7778              	.LASF149:
 7779 00d5 6D617374 		.ascii	"masterStatus\000"
 7779      65725374 
 7779      61747573 
 7779      00
 7780              	.LASF301:
ARM GAS  C:\Users\felha\AppData\Local\Temp\ccuk7kBX.s 			page 163


 7781 00e2 43595F45 		.ascii	"CY_EINK_SPIM_context\000"
 7781      494E4B5F 
 7781      5350494D 
 7781      5F636F6E 
 7781      74657874 
 7782              	.LASF296:
 7783 00f7 48656172 		.ascii	"HeartRateAlarm\000"
 7783      74526174 
 7783      65416C61 
 7783      726D00
 7784              	.LASF221:
 7785 0106 4755495F 		.ascii	"GUI_FONT_PROP_EXT\000"
 7785      464F4E54 
 7785      5F50524F 
 7785      505F4558 
 7785      5400
 7786              	.LASF214:
 7787 0118 59506F73 		.ascii	"YPos\000"
 7787      00
 7788              	.LASF339:
 7789 011d 4755495F 		.ascii	"GUI_SetPenSize\000"
 7789      53657450 
 7789      656E5369 
 7789      7A6500
 7790              	.LASF350:
 7791 012c 43617053 		.ascii	"CapSense_IsWidgetActive\000"
 7791      656E7365 
 7791      5F497357 
 7791      69646765 
 7791      74416374 
 7792              	.LASF50:
 7793 0144 70657269 		.ascii	"periBase\000"
 7793      42617365 
 7793      00
 7794              	.LASF239:
 7795 014d 70664765 		.ascii	"pfGetCharDistX\000"
 7795      74436861 
 7795      72446973 
 7795      745800
 7796              	.LASF126:
 7797 015c 63707573 		.ascii	"cpussCm0NmiCtlOffset\000"
 7797      73436D30 
 7797      4E6D6943 
 7797      746C4F66 
 7797      66736574 
 7798              	.LASF96:
 7799 0171 64774368 		.ascii	"dwChSize\000"
 7799      53697A65 
 7799      00
 7800              	.LASF330:
 7801 017a 53637265 		.ascii	"ScreenNumber\000"
 7801      656E4E75 
 7801      6D626572 
 7801      00
 7802              	.LASF156:
 7803 0187 736C6176 		.ascii	"slaveStatus\000"
 7803      65537461 
ARM GAS  C:\Users\felha\AppData\Local\Temp\ccuk7kBX.s 			page 164


 7803      74757300 
 7804              	.LASF308:
 7805 0193 696D6167 		.ascii	"imageBufferCache\000"
 7805      65427566 
 7805      66657243 
 7805      61636865 
 7805      00
 7806              	.LASF205:
 7807 01a4 704C6973 		.ascii	"pList\000"
 7807      7400
 7808              	.LASF42:
 7809 01aa 5644445F 		.ascii	"VDD_INTR_MASKED\000"
 7809      494E5452 
 7809      5F4D4153 
 7809      4B454400 
 7810              	.LASF13:
 7811 01ba 756E7369 		.ascii	"unsigned int\000"
 7811      676E6564 
 7811      20696E74 
 7811      00
 7812              	.LASF144:
 7813 01c7 63795F63 		.ascii	"cy_cb_scb_i2c_handle_events_t\000"
 7813      625F7363 
 7813      625F6932 
 7813      635F6861 
 7813      6E646C65 
 7814              	.LASF154:
 7815 01e5 6D617374 		.ascii	"masterBufferIdx\000"
 7815      65724275 
 7815      66666572 
 7815      49647800 
 7816              	.LASF266:
 7817 01f5 706F7765 		.ascii	"powerCycle\000"
 7817      72437963 
 7817      6C6500
 7818              	.LASF78:
 7819 0200 736D6966 		.ascii	"smifDeviceNr\000"
 7819      44657669 
 7819      63654E72 
 7819      00
 7820              	.LASF108:
 7821 020d 70657269 		.ascii	"periDivCmdPaTypeSelPos\000"
 7821      44697643 
 7821      6D645061 
 7821      54797065 
 7821      53656C50 
 7822              	.LASF177:
 7823 0224 74784275 		.ascii	"txBufIdx\000"
 7823      66496478 
 7823      00
 7824              	.LASF290:
 7825 022d 43757272 		.ascii	"Current\000"
 7825      656E7400 
 7826              	.LASF195:
 7827 0235 73746172 		.ascii	"startInput\000"
 7827      74496E70 
 7827      757400
ARM GAS  C:\Users\felha\AppData\Local\Temp\ccuk7kBX.s 			page 165


 7828              	.LASF7:
 7829 0240 5F5F696E 		.ascii	"__int32_t\000"
 7829      7433325F 
 7829      7400
 7830              	.LASF48:
 7831 024a 63707573 		.ascii	"cpussBase\000"
 7831      73426173 
 7831      6500
 7832              	.LASF162:
 7833 0254 736C6176 		.ascii	"slaveRxBuffer\000"
 7833      65527842 
 7833      75666665 
 7833      7200
 7834              	.LASF252:
 7835 0262 70466F6E 		.ascii	"pFontData\000"
 7835      74446174 
 7835      6100
 7836              	.LASF72:
 7837 026c 63707573 		.ascii	"cpussFmIrq\000"
 7837      73466D49 
 7837      727100
 7838              	.LASF259:
 7839 0277 43595F45 		.ascii	"CY_EINK_FULL_4STAGE\000"
 7839      494E4B5F 
 7839      46554C4C 
 7839      5F345354 
 7839      41474500 
 7840              	.LASF166:
 7841 028b 63624164 		.ascii	"cbAddr\000"
 7841      647200
 7842              	.LASF141:
 7843 0292 43595F53 		.ascii	"CY_SCB_I2C_ACK\000"
 7843      43425F49 
 7843      32435F41 
 7843      434B00
 7844              	.LASF197:
 7845 02a1 73746F70 		.ascii	"stopInput\000"
 7845      496E7075 
 7845      7400
 7846              	.LASF349:
 7847 02ab 43617053 		.ascii	"CapSense_ScanAllWidgets\000"
 7847      656E7365 
 7847      5F536361 
 7847      6E416C6C 
 7847      57696467 
 7848              	.LASF143:
 7849 02c3 63795F65 		.ascii	"cy_en_scb_i2c_command_t\000"
 7849      6E5F7363 
 7849      625F6932 
 7849      635F636F 
 7849      6D6D616E 
 7850              	.LASF104:
 7851 02db 70657269 		.ascii	"periTrGrSize\000"
 7851      54724772 
 7851      53697A65 
 7851      00
 7852              	.LASF107:
ARM GAS  C:\Users\felha\AppData\Local\Temp\ccuk7kBX.s 			page 166


 7853 02e8 70657269 		.ascii	"periDivCmdPaDivSelPos\000"
 7853      44697643 
 7853      6D645061 
 7853      44697653 
 7853      656C506F 
 7854              	.LASF26:
 7855 02fe 494E5452 		.ascii	"INTR_SET\000"
 7855      5F534554 
 7855      00
 7856              	.LASF84:
 7857 0307 63727970 		.ascii	"cryptoMemSize\000"
 7857      746F4D65 
 7857      6D53697A 
 7857      6500
 7858              	.LASF130:
 7859 0315 63707573 		.ascii	"cpussRam1Ctl0\000"
 7859      7352616D 
 7859      3143746C 
 7859      3000
 7860              	.LASF261:
 7861 0323 63795F65 		.ascii	"cy_eink_update_t\000"
 7861      696E6B5F 
 7861      75706461 
 7861      74655F74 
 7861      00
 7862              	.LASF75:
 7863 0334 73727373 		.ascii	"srssNumPll\000"
 7863      4E756D50 
 7863      6C6C00
 7864              	.LASF132:
 7865 033f 69706353 		.ascii	"ipcStructSize\000"
 7865      74727563 
 7865      7453697A 
 7865      6500
 7866              	.LASF142:
 7867 034d 43595F53 		.ascii	"CY_SCB_I2C_NAK\000"
 7867      43425F49 
 7867      32435F4E 
 7867      414B00
 7868              	.LASF210:
 7869 035c 70446174 		.ascii	"pData\000"
 7869      6100
 7870              	.LASF145:
 7871 0362 63795F63 		.ascii	"cy_cb_scb_i2c_handle_addr_t\000"
 7871      625F7363 
 7871      625F6932 
 7871      635F6861 
 7871      6E646C65 
 7872              	.LASF186:
 7873 037e 636F6D70 		.ascii	"compare0\000"
 7873      61726530 
 7873      00
 7874              	.LASF187:
 7875 0387 636F6D70 		.ascii	"compare1\000"
 7875      61726531 
 7875      00
 7876              	.LASF312:
ARM GAS  C:\Users\felha\AppData\Local\Temp\ccuk7kBX.s 			page 167


 7877 0390 53746F70 		.ascii	"StopChangeLedIntensity\000"
 7877      4368616E 
 7877      67654C65 
 7877      64496E74 
 7877      656E7369 
 7878              	.LASF352:
 7879 03a7 474E5520 		.ascii	"GNU C11 5.4.1 20160609 (release) [ARM/embedded-5-br"
 7879      43313120 
 7879      352E342E 
 7879      31203230 
 7879      31363036 
 7880 03da 616E6368 		.ascii	"anch revision 237715] -mcpu=cortex-m4 -mfloat-abi=s"
 7880      20726576 
 7880      6973696F 
 7880      6E203233 
 7880      37373135 
 7881 040d 6F667466 		.ascii	"oftfp -mfpu=fpv4-sp-d16 -mthumb -g -Og -ffunction-s"
 7881      70202D6D 
 7881      6670753D 
 7881      66707634 
 7881      2D73702D 
 7882 0440 65637469 		.ascii	"ections -ffat-lto-objects\000"
 7882      6F6E7320 
 7882      2D666661 
 7882      742D6C74 
 7882      6F2D6F62 
 7883              	.LASF66:
 7884 045a 70726F74 		.ascii	"protVersion\000"
 7884      56657273 
 7884      696F6E00 
 7885              	.LASF169:
 7886 0466 63795F73 		.ascii	"cy_stc_scb_i2c_context\000"
 7886      74635F73 
 7886      63625F69 
 7886      32635F63 
 7886      6F6E7465 
 7887              	.LASF279:
 7888 047d 50617261 		.ascii	"Parametre1\000"
 7888      6D657472 
 7888      653100
 7889              	.LASF280:
 7890 0488 50617261 		.ascii	"Parametre2\000"
 7890      6D657472 
 7890      653200
 7891              	.LASF106:
 7892 0493 70657269 		.ascii	"periDivCmdTypeSelPos\000"
 7892      44697643 
 7892      6D645479 
 7892      70655365 
 7892      6C506F73 
 7893              	.LASF123:
 7894 04a8 63707573 		.ascii	"cpussTrimRamCtlOffset\000"
 7894      73547269 
 7894      6D52616D 
 7894      43746C4F 
 7894      66667365 
 7895              	.LASF28:
ARM GAS  C:\Users\felha\AppData\Local\Temp\ccuk7kBX.s 			page 168


 7896 04be 4346475F 		.ascii	"CFG_IN\000"
 7896      494E00
 7897              	.LASF318:
 7898 04c5 48696768 		.ascii	"HighHeartRateF\000"
 7898      48656172 
 7898      74526174 
 7898      654600
 7899              	.LASF158:
 7900 04d4 736C6176 		.ascii	"slaveTxBuffer\000"
 7900      65547842 
 7900      75666665 
 7900      7200
 7901              	.LASF317:
 7902 04e2 48696768 		.ascii	"HighHeartRateI\000"
 7902      48656172 
 7902      74526174 
 7902      654900
 7903              	.LASF160:
 7904 04f1 736C6176 		.ascii	"slaveTxBufferIdx\000"
 7904      65547842 
 7904      75666665 
 7904      72496478 
 7904      00
 7905              	.LASF206:
 7906 0502 4755495F 		.ascii	"GUI_FONT_TRANSINFO\000"
 7906      464F4E54 
 7906      5F545241 
 7906      4E53494E 
 7906      464F00
 7907              	.LASF18:
 7908 0515 75696E74 		.ascii	"uint32_t\000"
 7908      33325F74 
 7908      00
 7909              	.LASF229:
 7910 051e 4755495F 		.ascii	"GUI_FONTINFO\000"
 7910      464F4E54 
 7910      494E464F 
 7910      00
 7911              	.LASF332:
 7912 052b 43795F45 		.ascii	"Cy_EINK_ShowFrame\000"
 7912      494E4B5F 
 7912      53686F77 
 7912      4672616D 
 7912      6500
 7913              	.LASF344:
 7914 053d 4755495F 		.ascii	"GUI_DrawCircle\000"
 7914      44726177 
 7914      43697263 
 7914      6C6500
 7915              	.LASF44:
 7916 054c 4750494F 		.ascii	"GPIO_V1_Type\000"
 7916      5F56315F 
 7916      54797065 
 7916      00
 7917              	.LASF116:
 7918 0559 6770696F 		.ascii	"gpioPrtCfgOutOffset\000"
 7918      50727443 
ARM GAS  C:\Users\felha\AppData\Local\Temp\ccuk7kBX.s 			page 169


 7918      66674F75 
 7918      744F6666 
 7918      73657400 
 7919              	.LASF216:
 7920 056d 4755495F 		.ascii	"GUI_FONT_PROP\000"
 7920      464F4E54 
 7920      5F50524F 
 7920      5000
 7921              	.LASF306:
 7922 057b 4755495F 		.ascii	"GUI_Font13_1\000"
 7922      466F6E74 
 7922      31335F31 
 7922      00
 7923              	.LASF225:
 7924 0588 466C6167 		.ascii	"Flags\000"
 7924      7300
 7925              	.LASF21:
 7926 058e 4F55545F 		.ascii	"OUT_SET\000"
 7926      53455400 
 7927              	.LASF59:
 7928 0596 63727970 		.ascii	"cryptoVersion\000"
 7928      746F5665 
 7928      7273696F 
 7928      6E00
 7929              	.LASF224:
 7930 05a4 4755495F 		.ascii	"GUI_FONT_MONO\000"
 7930      464F4E54 
 7930      5F4D4F4E 
 7930      4F00
 7931              	.LASF80:
 7932 05b2 65704D6F 		.ascii	"epMonitorNr\000"
 7932      6E69746F 
 7932      724E7200 
 7933              	.LASF329:
 7934 05be 50616765 		.ascii	"Page2Params\000"
 7934      32506172 
 7934      616D7300 
 7935              	.LASF20:
 7936 05ca 4F55545F 		.ascii	"OUT_CLR\000"
 7936      434C5200 
 7937              	.LASF33:
 7938 05d2 52455345 		.ascii	"RESERVED1\000"
 7938      52564544 
 7938      3100
 7939              	.LASF193:
 7940 05dc 72656C6F 		.ascii	"reloadInput\000"
 7940      6164496E 
 7940      70757400 
 7941              	.LASF15:
 7942 05e8 696E7431 		.ascii	"int16_t\000"
 7942      365F7400 
 7943              	.LASF115:
 7944 05f0 6770696F 		.ascii	"gpioPrtCfgInOffset\000"
 7944      50727443 
 7944      6667496E 
 7944      4F666673 
 7944      657400
ARM GAS  C:\Users\felha\AppData\Local\Temp\ccuk7kBX.s 			page 170


 7945              	.LASF12:
 7946 0603 6C6F6E67 		.ascii	"long long unsigned int\000"
 7946      206C6F6E 
 7946      6720756E 
 7946      7369676E 
 7946      65642069 
 7947              	.LASF112:
 7948 061a 70657269 		.ascii	"periDiv24_5CtlOffset\000"
 7948      44697632 
 7948      345F3543 
 7948      746C4F66 
 7948      66736574 
 7949              	.LASF117:
 7950 062f 6770696F 		.ascii	"gpioPrtCfgSioOffset\000"
 7950      50727443 
 7950      66675369 
 7950      6F4F6666 
 7950      73657400 
 7951              	.LASF355:
 7952 0643 43795F47 		.ascii	"Cy_GPIO_Write\000"
 7952      50494F5F 
 7952      57726974 
 7952      6500
 7953              	.LASF269:
 7954 0651 64726177 		.ascii	"drawGraph\000"
 7954      47726170 
 7954      6800
 7955              	.LASF71:
 7956 065b 63707573 		.ascii	"cpussIpc0Irq\000"
 7956      73497063 
 7956      30497271 
 7956      00
 7957              	.LASF215:
 7958 0668 4755495F 		.ascii	"GUI_CHARINFO_EXT\000"
 7958      43484152 
 7958      494E464F 
 7958      5F455854 
 7958      00
 7959              	.LASF271:
 7960 0679 70456D77 		.ascii	"pEmwinBuffer\000"
 7960      696E4275 
 7960      66666572 
 7960      00
 7961              	.LASF51:
 7962 0686 75646242 		.ascii	"udbBase\000"
 7962      61736500 
 7963              	.LASF159:
 7964 068e 736C6176 		.ascii	"slaveTxBufferSize\000"
 7964      65547842 
 7964      75666665 
 7964      7253697A 
 7964      6500
 7965              	.LASF222:
 7966 06a0 70547261 		.ascii	"pTransData\000"
 7966      6E734461 
 7966      746100
 7967              	.LASF157:
ARM GAS  C:\Users\felha\AppData\Local\Temp\ccuk7kBX.s 			page 171


 7968 06ab 736C6176 		.ascii	"slaveRdBufEmpty\000"
 7968      65526442 
 7968      7566456D 
 7968      70747900 
 7969              	.LASF226:
 7970 06bb 42617365 		.ascii	"Baseline\000"
 7970      6C696E65 
 7970      00
 7971              	.LASF310:
 7972 06c4 44726177 		.ascii	"DrawInfraredGraph\000"
 7972      496E6672 
 7972      61726564 
 7972      47726170 
 7972      6800
 7973              	.LASF194:
 7974 06d6 73746172 		.ascii	"startInputMode\000"
 7974      74496E70 
 7974      75744D6F 
 7974      646500
 7975              	.LASF190:
 7976 06e5 63617074 		.ascii	"captureInputMode\000"
 7976      75726549 
 7976      6E707574 
 7976      4D6F6465 
 7976      00
 7977              	.LASF264:
 7978 06f6 76616C75 		.ascii	"value\000"
 7978      6500
 7979              	.LASF29:
 7980 06fc 4346475F 		.ascii	"CFG_OUT\000"
 7980      4F555400 
 7981              	.LASF326:
 7982 0704 53617475 		.ascii	"Saturation\000"
 7982      72617469 
 7982      6F6E00
 7983              	.LASF172:
 7984 070f 72784275 		.ascii	"rxBuf\000"
 7984      6600
 7985              	.LASF56:
 7986 0715 69706342 		.ascii	"ipcBase\000"
 7986      61736500 
 7987              	.LASF93:
 7988 071d 666C6173 		.ascii	"flashCtlMainWs3Freq\000"
 7988      6843746C 
 7988      4D61696E 
 7988      57733346 
 7988      72657100 
 7989              	.LASF320:
 7990 0731 53746F70 		.ascii	"StopChangeHighHeartRate\000"
 7990      4368616E 
 7990      67654869 
 7990      67684865 
 7990      61727452 
 7991              	.LASF249:
 7992 0749 4755495F 		.ascii	"GUI_GETFONTINFO\000"
 7992      47455446 
 7992      4F4E5449 
ARM GAS  C:\Users\felha\AppData\Local\Temp\ccuk7kBX.s 			page 172


 7992      4E464F00 
 7993              	.LASF345:
 7994 0759 77726974 		.ascii	"write_Register\000"
 7994      655F5265 
 7994      67697374 
 7994      657200
 7995              	.LASF238:
 7996 0768 70664469 		.ascii	"pfDispChar\000"
 7996      73704368 
 7996      617200
 7997              	.LASF165:
 7998 0773 63624576 		.ascii	"cbEvents\000"
 7998      656E7473 
 7998      00
 7999              	.LASF351:
 8000 077c 76546173 		.ascii	"vTaskDelay\000"
 8000      6B44656C 
 8000      617900
 8001              	.LASF315:
 8002 0787 536C6964 		.ascii	"SliderPosIII\000"
 8002      6572506F 
 8002      73494949 
 8002      00
 8003              	.LASF327:
 8004 0794 52797468 		.ascii	"RythmeCardiaque\000"
 8004      6D654361 
 8004      72646961 
 8004      71756500 
 8005              	.LASF334:
 8006 07a4 4755495F 		.ascii	"GUI_SetBkColor\000"
 8006      53657442 
 8006      6B436F6C 
 8006      6F7200
 8007              	.LASF140:
 8008 07b3 5F426F6F 		.ascii	"_Bool\000"
 8008      6C00
 8009              	.LASF324:
 8010 07b9 76656374 		.ascii	"vectorRed\000"
 8010      6F725265 
 8010      6400
 8011              	.LASF245:
 8012 07c3 584D6167 		.ascii	"XMag\000"
 8012      00
 8013              	.LASF242:
 8014 07c8 70664765 		.ascii	"pfGetCharInfo\000"
 8014      74436861 
 8014      72496E66 
 8014      6F00
 8015              	.LASF341:
 8016 07d6 4755495F 		.ascii	"GUI_DispStringAt\000"
 8016      44697370 
 8016      53747269 
 8016      6E674174 
 8016      00
 8017              	.LASF146:
 8018 07e7 75736552 		.ascii	"useRxFifo\000"
 8018      78466966 
ARM GAS  C:\Users\felha\AppData\Local\Temp\ccuk7kBX.s 			page 173


 8018      6F00
 8019              	.LASF241:
 8020 07f1 70664973 		.ascii	"pfIsInFont\000"
 8020      496E466F 
 8020      6E7400
 8021              	.LASF40:
 8022 07fc 5644445F 		.ascii	"VDD_INTR\000"
 8022      494E5452 
 8022      00
 8023              	.LASF54:
 8024 0805 6770696F 		.ascii	"gpioBase\000"
 8024      42617365 
 8024      00
 8025              	.LASF233:
 8026 080e 70664765 		.ascii	"pfGetLineDistX\000"
 8026      744C696E 
 8026      65446973 
 8026      745800
 8027              	.LASF281:
 8028 081d 75706461 		.ascii	"updateLowHeartRateLimit\000"
 8028      74654C6F 
 8028      77486561 
 8028      72745261 
 8028      74654C69 
 8029              	.LASF337:
 8030 0835 4755495F 		.ascii	"GUI_DrawLine\000"
 8030      44726177 
 8030      4C696E65 
 8030      00
 8031              	.LASF60:
 8032 0842 64775665 		.ascii	"dwVersion\000"
 8032      7273696F 
 8032      6E00
 8033              	.LASF125:
 8034 084c 63707573 		.ascii	"cpussSysTickCtlOffset\000"
 8034      73537973 
 8034      5469636B 
 8034      43746C4F 
 8034      66667365 
 8035              	.LASF81:
 8036 0862 75646250 		.ascii	"udbPresent\000"
 8036      72657365 
 8036      6E7400
 8037              	.LASF247:
 8038 086d 4755495F 		.ascii	"GUI_DISPCHAR\000"
 8038      44495350 
 8038      43484152 
 8038      00
 8039              	.LASF45:
 8040 087a 4750494F 		.ascii	"GPIO_PRT_Type\000"
 8040      5F505254 
 8040      5F547970 
 8040      6500
 8041              	.LASF99:
 8042 0888 64775374 		.ascii	"dwStatusChIdxPos\000"
 8042      61747573 
 8042      43684964 
ARM GAS  C:\Users\felha\AppData\Local\Temp\ccuk7kBX.s 			page 174


 8042      78506F73 
 8042      00
 8043              	.LASF5:
 8044 0899 5F5F7569 		.ascii	"__uint16_t\000"
 8044      6E743136 
 8044      5F7400
 8045              	.LASF24:
 8046 08a4 494E5452 		.ascii	"INTR_MASK\000"
 8046      5F4D4153 
 8046      4B00
 8047              	.LASF272:
 8048 08ae 76656374 		.ascii	"vector250elements\000"
 8048      6F723235 
 8048      30656C65 
 8048      6D656E74 
 8048      7300
 8049              	.LASF155:
 8050 08c0 6D617374 		.ascii	"masterNumBytes\000"
 8050      65724E75 
 8050      6D427974 
 8050      657300
 8051              	.LASF70:
 8052 08cf 63707573 		.ascii	"cpussFlashPaSize\000"
 8052      73466C61 
 8052      73685061 
 8052      53697A65 
 8052      00
 8053              	.LASF203:
 8054 08e0 46697273 		.ascii	"FirstChar\000"
 8054      74436861 
 8054      7200
 8055              	.LASF274:
 8056 08ea 50616765 		.ascii	"Page1Param\000"
 8056      31506172 
 8056      616D00
 8057              	.LASF49:
 8058 08f5 666C6173 		.ascii	"flashcBase\000"
 8058      68634261 
 8058      736500
 8059              	.LASF136:
 8060 0900 63686172 		.ascii	"char\000"
 8060      00
 8061              	.LASF297:
 8062 0905 43617053 		.ascii	"CapSense_ChangeMenu\000"
 8062      656E7365 
 8062      5F436861 
 8062      6E67654D 
 8062      656E7500 
 8063              	.LASF275:
 8064 0919 75706461 		.ascii	"updateParameters\000"
 8064      74655061 
 8064      72616D65 
 8064      74657273 
 8064      00
 8065              	.LASF82:
 8066 092a 73797350 		.ascii	"sysPmSimoPresent\000"
 8066      6D53696D 
ARM GAS  C:\Users\felha\AppData\Local\Temp\ccuk7kBX.s 			page 175


 8066      6F507265 
 8066      73656E74 
 8066      00
 8067              	.LASF153:
 8068 093b 6D617374 		.ascii	"masterBufferSize\000"
 8068      65724275 
 8068      66666572 
 8068      53697A65 
 8068      00
 8069              	.LASF182:
 8070 094c 636C6F63 		.ascii	"clockPrescaler\000"
 8070      6B507265 
 8070      7363616C 
 8070      657200
 8071              	.LASF237:
 8072 095b 4755495F 		.ascii	"GUI_FONT\000"
 8072      464F4E54 
 8072      00
 8073              	.LASF294:
 8074 0964 75706461 		.ascii	"updateMotionAlarm\000"
 8074      74654D6F 
 8074      74696F6E 
 8074      416C6172 
 8074      6D00
 8075              	.LASF295:
 8076 0976 43617053 		.ascii	"CapSense_EnableDisableMotionAlarm\000"
 8076      656E7365 
 8076      5F456E61 
 8076      626C6544 
 8076      69736162 
 8077              	.LASF174:
 8078 0998 72784275 		.ascii	"rxBufIdx\000"
 8078      66496478 
 8078      00
 8079              	.LASF316:
 8080 09a1 53746F70 		.ascii	"StopChangeLowHeartRate\000"
 8080      4368616E 
 8080      67654C6F 
 8080      77486561 
 8080      72745261 
 8081              	.LASF338:
 8082 09b8 4755495F 		.ascii	"GUI_DrawPoint\000"
 8082      44726177 
 8082      506F696E 
 8082      7400
 8083              	.LASF100:
 8084 09c6 64775374 		.ascii	"dwStatusChIdxMsk\000"
 8084      61747573 
 8084      43684964 
 8084      784D736B 
 8084      00
 8085              	.LASF14:
 8086 09d7 75696E74 		.ascii	"uint8_t\000"
 8086      385F7400 
 8087              	.LASF171:
 8088 09df 73746174 		.ascii	"status\000"
 8088      757300
ARM GAS  C:\Users\felha\AppData\Local\Temp\ccuk7kBX.s 			page 176


 8089              	.LASF219:
 8090 09e6 70614368 		.ascii	"paCharInfo\000"
 8090      6172496E 
 8090      666F00
 8091              	.LASF213:
 8092 09f1 58506F73 		.ascii	"XPos\000"
 8092      00
 8093              	.LASF161:
 8094 09f6 736C6176 		.ascii	"slaveTxBufferCnt\000"
 8094      65547842 
 8094      75666665 
 8094      72436E74 
 8094      00
 8095              	.LASF105:
 8096 0a07 70657269 		.ascii	"periDivCmdDivSelMsk\000"
 8096      44697643 
 8096      6D644469 
 8096      7653656C 
 8096      4D736B00 
 8097              	.LASF38:
 8098 0a1b 494E5452 		.ascii	"INTR_CAUSE3\000"
 8098      5F434155 
 8098      53453300 
 8099              	.LASF244:
 8100 0a27 59446973 		.ascii	"YDist\000"
 8100      7400
 8101              	.LASF111:
 8102 0a2d 70657269 		.ascii	"periDiv16_5CtlOffset\000"
 8102      44697631 
 8102      365F3543 
 8102      746C4F66 
 8102      66736574 
 8103              	.LASF302:
 8104 0a42 43595F45 		.ascii	"CY_EINK_Timer_config\000"
 8104      494E4B5F 
 8104      54696D65 
 8104      725F636F 
 8104      6E666967 
 8105              	.LASF129:
 8106 0a57 63707573 		.ascii	"cpussRam0Ctl0\000"
 8106      7352616D 
 8106      3043746C 
 8106      3000
 8107              	.LASF260:
 8108 0a65 43595F45 		.ascii	"CY_EINK_FULL_2STAGE\000"
 8108      494E4B5F 
 8108      46554C4C 
 8108      5F325354 
 8108      41474500 
 8109              	.LASF11:
 8110 0a79 6C6F6E67 		.ascii	"long long int\000"
 8110      206C6F6E 
 8110      6720696E 
 8110      7400
 8111              	.LASF273:
 8112 0a87 44726177 		.ascii	"DrawBool\000"
 8112      426F6F6C 
ARM GAS  C:\Users\felha\AppData\Local\Temp\ccuk7kBX.s 			page 177


 8112      00
 8113              	.LASF97:
 8114 0a90 64774368 		.ascii	"dwChCtlPrioPos\000"
 8114      43746C50 
 8114      72696F50 
 8114      6F7300
 8115              	.LASF240:
 8116 0a9f 70664765 		.ascii	"pfGetFontInfo\000"
 8116      74466F6E 
 8116      74496E66 
 8116      6F00
 8117              	.LASF57:
 8118 0aad 63727970 		.ascii	"cryptoBase\000"
 8118      746F4261 
 8118      736500
 8119              	.LASF314:
 8120 0ab8 4C6F7748 		.ascii	"LowHeartRateF\000"
 8120      65617274 
 8120      52617465 
 8120      4600
 8121              	.LASF313:
 8122 0ac6 4C6F7748 		.ascii	"LowHeartRateI\000"
 8122      65617274 
 8122      52617465 
 8122      4900
 8123              	.LASF248:
 8124 0ad4 4755495F 		.ascii	"GUI_GETCHARDISTX\000"
 8124      47455443 
 8124      48415244 
 8124      49535458 
 8124      00
 8125              	.LASF209:
 8126 0ae5 42797465 		.ascii	"BytesPerLine\000"
 8126      73506572 
 8126      4C696E65 
 8126      00
 8127              	.LASF87:
 8128 0af2 666C6173 		.ascii	"flashWriteDelay\000"
 8128      68577269 
 8128      74654465 
 8128      6C617900 
 8129              	.LASF292:
 8130 0b02 43617053 		.ascii	"CapSense_ChangeLowHeartRateLimit\000"
 8130      656E7365 
 8130      5F436861 
 8130      6E67654C 
 8130      6F774865 
 8131              	.LASF243:
 8132 0b23 70616645 		.ascii	"pafEncode\000"
 8132      6E636F64 
 8132      6500
 8133              	.LASF147:
 8134 0b2d 75736554 		.ascii	"useTxFifo\000"
 8134      78466966 
 8134      6F00
 8135              	.LASF179:
 8136 0b37 63795F73 		.ascii	"cy_stc_scb_spi_context_t\000"
ARM GAS  C:\Users\felha\AppData\Local\Temp\ccuk7kBX.s 			page 178


 8136      74635F73 
 8136      63625F73 
 8136      70695F63 
 8136      6F6E7465 
 8137              	.LASF4:
 8138 0b50 5F5F696E 		.ascii	"__int16_t\000"
 8138      7431365F 
 8138      7400
 8139              	.LASF291:
 8140 0b5a 43617053 		.ascii	"CapSense_ChangeLedIntensity\000"
 8140      656E7365 
 8140      5F436861 
 8140      6E67654C 
 8140      6564496E 
 8141              	.LASF277:
 8142 0b76 70617261 		.ascii	"param2\000"
 8142      6D3200
 8143              	.LASF343:
 8144 0b7d 4755495F 		.ascii	"GUI_DrawRect\000"
 8144      44726177 
 8144      52656374 
 8144      00
 8145              	.LASF232:
 8146 0b8a 74474C5F 		.ascii	"tGL_DispLine\000"
 8146      44697370 
 8146      4C696E65 
 8146      00
 8147              	.LASF53:
 8148 0b97 6873696F 		.ascii	"hsiomBase\000"
 8148      6D426173 
 8148      6500
 8149              	.LASF151:
 8150 0ba1 6D617374 		.ascii	"masterRdDir\000"
 8150      65725264 
 8150      44697200 
 8151              	.LASF298:
 8152 0bad 536C6964 		.ascii	"SliderPosII\000"
 8152      6572506F 
 8152      73494900 
 8153              	.LASF103:
 8154 0bb9 70657269 		.ascii	"periTrGrOffset\000"
 8154      54724772 
 8154      4F666673 
 8154      657400
 8155              	.LASF73:
 8156 0bc8 63707573 		.ascii	"cpussNotConnectedIrq\000"
 8156      734E6F74 
 8156      436F6E6E 
 8156      65637465 
 8156      64497271 
 8157              	.LASF218:
 8158 0bdd 4C617374 		.ascii	"Last\000"
 8158      00
 8159              	.LASF69:
 8160 0be2 63707573 		.ascii	"cpussDwChNr\000"
 8160      73447743 
 8160      684E7200 
ARM GAS  C:\Users\felha\AppData\Local\Temp\ccuk7kBX.s 			page 179


 8161              	.LASF192:
 8162 0bee 72656C6F 		.ascii	"reloadInputMode\000"
 8162      6164496E 
 8162      7075744D 
 8162      6F646500 
 8163              	.LASF319:
 8164 0bfe 536C6964 		.ascii	"SliderPosIV\000"
 8164      6572506F 
 8164      73495600 
 8165              	.LASF304:
 8166 0c0a 4932435F 		.ascii	"I2C_1_context\000"
 8166      315F636F 
 8166      6E746578 
 8166      7400
 8167              	.LASF234:
 8168 0c18 70664765 		.ascii	"pfGetLineLen\000"
 8168      744C696E 
 8168      654C656E 
 8168      00
 8169              	.LASF176:
 8170 0c25 74784275 		.ascii	"txBufSize\000"
 8170      6653697A 
 8170      6500
 8171              	.LASF67:
 8172 0c2f 63707573 		.ascii	"cpussIpcNr\000"
 8172      73497063 
 8172      4E7200
 8173              	.LASF282:
 8174 0c3a 48656172 		.ascii	"HeartRate\000"
 8174      74526174 
 8174      6500
 8175              	.LASF212:
 8176 0c44 5953697A 		.ascii	"YSize\000"
 8176      6500
 8177              	.LASF228:
 8178 0c4a 43486569 		.ascii	"CHeight\000"
 8178      67687400 
 8179              	.LASF346:
 8180 0c52 43617053 		.ascii	"CapSense_ProcessAllWidgets\000"
 8180      656E7365 
 8180      5F50726F 
 8180      63657373 
 8180      416C6C57 
 8181              	.LASF164:
 8182 0c6d 736C6176 		.ascii	"slaveRxBufferIdx\000"
 8182      65527842 
 8182      75666665 
 8182      72496478 
 8182      00
 8183              	.LASF251:
 8184 0c7e 4755495F 		.ascii	"GUI_GETCHARINFO\000"
 8184      47455443 
 8184      48415249 
 8184      4E464F00 
 8185              	.LASF131:
 8186 0c8e 63707573 		.ascii	"cpussRam2Ctl0\000"
 8186      7352616D 
ARM GAS  C:\Users\felha\AppData\Local\Temp\ccuk7kBX.s 			page 180


 8186      3243746C 
 8186      3000
 8187              	.LASF256:
 8188 0c9c 70765F65 		.ascii	"pv_eink_frame_data_t\000"
 8188      696E6B5F 
 8188      6672616D 
 8188      655F6461 
 8188      74615F74 
 8189              	.LASF150:
 8190 0cb1 6D617374 		.ascii	"masterPause\000"
 8190      65725061 
 8190      75736500 
 8191              	.LASF258:
 8192 0cbd 43595F45 		.ascii	"CY_EINK_PARTIAL\000"
 8192      494E4B5F 
 8192      50415254 
 8192      49414C00 
 8193              	.LASF353:
 8194 0ccd 5461736B 		.ascii	"TasksInterface.c\000"
 8194      73496E74 
 8194      65726661 
 8194      63652E63 
 8194      00
 8195              	.LASF175:
 8196 0cde 74784275 		.ascii	"txBuf\000"
 8196      6600
 8197              	.LASF283:
 8198 0ce4 48656172 		.ascii	"HeartRateLow\000"
 8198      74526174 
 8198      654C6F77 
 8198      00
 8199              	.LASF201:
 8200 0cf1 5469636B 		.ascii	"TickType_t\000"
 8200      54797065 
 8200      5F7400
 8201              	.LASF88:
 8202 0cfc 666C6173 		.ascii	"flashProgramDelay\000"
 8202      6850726F 
 8202      6772616D 
 8202      44656C61 
 8202      7900
 8203              	.LASF110:
 8204 0d0e 70657269 		.ascii	"periDiv16CtlOffset\000"
 8204      44697631 
 8204      3643746C 
 8204      4F666673 
 8204      657400
 8205              	.LASF163:
 8206 0d21 736C6176 		.ascii	"slaveRxBufferSize\000"
 8206      65527842 
 8206      75666665 
 8206      7253697A 
 8206      6500
 8207              	.LASF223:
 8208 0d33 70547261 		.ascii	"pTrans\000"
 8208      6E7300
 8209              	.LASF288:
ARM GAS  C:\Users\felha\AppData\Local\Temp\ccuk7kBX.s 			page 181


 8210 0d3a 50617261 		.ascii	"ParamP1\000"
 8210      6D503100 
 8211              	.LASF289:
 8212 0d42 50617261 		.ascii	"ParamP2\000"
 8212      6D503200 
 8213              	.LASF230:
 8214 0d4a 74475549 		.ascii	"tGUI_GetLineDistX\000"
 8214      5F476574 
 8214      4C696E65 
 8214      44697374 
 8214      5800
 8215              	.LASF6:
 8216 0d5c 73686F72 		.ascii	"short unsigned int\000"
 8216      7420756E 
 8216      7369676E 
 8216      65642069 
 8216      6E7400
 8217              	.LASF47:
 8218 0d6f 6C6F6E67 		.ascii	"long double\000"
 8218      20646F75 
 8218      626C6500 
 8219              	.LASF342:
 8220 0d7b 73707269 		.ascii	"sprintf\000"
 8220      6E746600 
 8221              	.LASF16:
 8222 0d83 75696E74 		.ascii	"uint16_t\000"
 8222      31365F74 
 8222      00
 8223              	.LASF52:
 8224 0d8c 70726F74 		.ascii	"protBase\000"
 8224      42617365 
 8224      00
 8225              	.LASF43:
 8226 0d95 5644445F 		.ascii	"VDD_INTR_SET\000"
 8226      494E5452 
 8226      5F534554 
 8226      00
 8227              	.LASF183:
 8228 0da2 72756E4D 		.ascii	"runMode\000"
 8228      6F646500 
 8229              	.LASF102:
 8230 0daa 70657269 		.ascii	"periTrCmdGrSelMsk\000"
 8230      5472436D 
 8230      64477253 
 8230      656C4D73 
 8230      6B00
 8231              	.LASF152:
 8232 0dbc 6D617374 		.ascii	"masterBuffer\000"
 8232      65724275 
 8232      66666572 
 8232      00
 8233              	.LASF333:
 8234 0dc9 4755495F 		.ascii	"GUI_SetColor\000"
 8234      53657443 
 8234      6F6C6F72 
 8234      00
 8235              	.LASF76:
ARM GAS  C:\Users\felha\AppData\Local\Temp\ccuk7kBX.s 			page 182


 8236 0dd6 73727373 		.ascii	"srssNumHfroot\000"
 8236      4E756D48 
 8236      66726F6F 
 8236      7400
 8237              	.LASF200:
 8238 0de4 63795F73 		.ascii	"cy_stc_tcpwm_counter_config_t\000"
 8238      74635F74 
 8238      6370776D 
 8238      5F636F75 
 8238      6E746572 
 8239              	.LASF227:
 8240 0e02 4C486569 		.ascii	"LHeight\000"
 8240      67687400 
 8241              	.LASF92:
 8242 0e0a 666C6173 		.ascii	"flashCtlMainWs2Freq\000"
 8242      6843746C 
 8242      4D61696E 
 8242      57733246 
 8242      72657100 
 8243              	.LASF19:
 8244 0e1e 73697A65 		.ascii	"sizetype\000"
 8244      74797065 
 8244      00
 8245              	.LASF347:
 8246 0e27 43617053 		.ascii	"CapSense_GetCentroidPos\000"
 8246      656E7365 
 8246      5F476574 
 8246      43656E74 
 8246      726F6964 
 8247              	.LASF127:
 8248 0e3f 63707573 		.ascii	"cpussCm4NmiCtlOffset\000"
 8248      73436D34 
 8248      4E6D6943 
 8248      746C4F66 
 8248      66736574 
 8249              	.LASF185:
 8250 0e54 636F6D70 		.ascii	"compareOrCapture\000"
 8250      6172654F 
 8250      72436170 
 8250      74757265 
 8250      00
 8251              	.LASF109:
 8252 0e65 70657269 		.ascii	"periDiv8CtlOffset\000"
 8252      44697638 
 8252      43746C4F 
 8252      66667365 
 8252      7400
 8253              	.LASF328:
 8254 0e77 50616765 		.ascii	"Page1Params\000"
 8254      31506172 
 8254      616D7300 
 8255              	.LASF0:
 8256 0e83 73686F72 		.ascii	"short int\000"
 8256      7420696E 
 8256      7400
 8257              	.LASF189:
 8258 0e8d 696E7465 		.ascii	"interruptSources\000"
ARM GAS  C:\Users\felha\AppData\Local\Temp\ccuk7kBX.s 			page 183


 8258      72727570 
 8258      74536F75 
 8258      72636573 
 8258      00
 8259              	.LASF188:
 8260 0e9e 656E6162 		.ascii	"enableCompareSwap\000"
 8260      6C65436F 
 8260      6D706172 
 8260      65537761 
 8260      7000
 8261              	.LASF254:
 8262 0eb0 7050726F 		.ascii	"pProp\000"
 8262      7000
 8263              	.LASF8:
 8264 0eb6 6C6F6E67 		.ascii	"long int\000"
 8264      20696E74 
 8264      00
 8265              	.LASF58:
 8266 0ebf 63707573 		.ascii	"cpussVersion\000"
 8266      73566572 
 8266      73696F6E 
 8266      00
 8267              	.LASF323:
 8268 0ecc 53746F70 		.ascii	"StopDisableAlarm\000"
 8268      44697361 
 8268      626C6541 
 8268      6C61726D 
 8268      00
 8269              	.LASF299:
 8270 0edd 49544D5F 		.ascii	"ITM_RxBuffer\000"
 8270      52784275 
 8270      66666572 
 8270      00
 8271              	.LASF198:
 8272 0eea 636F756E 		.ascii	"countInputMode\000"
 8272      74496E70 
 8272      75744D6F 
 8272      646500
 8273              	.LASF62:
 8274 0ef9 6770696F 		.ascii	"gpioVersion\000"
 8274      56657273 
 8274      696F6E00 
 8275              	.LASF253:
 8276 0f05 704D6F6E 		.ascii	"pMono\000"
 8276      6F00
 8277              	.LASF61:
 8278 0f0b 666C6173 		.ascii	"flashcVersion\000"
 8278      68635665 
 8278      7273696F 
 8278      6E00
 8279              	.LASF204:
 8280 0f19 4C617374 		.ascii	"LastChar\000"
 8280      43686172 
 8280      00
 8281              	.LASF348:
 8282 0f22 43617053 		.ascii	"CapSense_UpdateAllBaselines\000"
 8282      656E7365 
ARM GAS  C:\Users\felha\AppData\Local\Temp\ccuk7kBX.s 			page 184


 8282      5F557064 
 8282      61746541 
 8282      6C6C4261 
 8283              	.LASF184:
 8284 0f3e 636F756E 		.ascii	"countDirection\000"
 8284      74446972 
 8284      65637469 
 8284      6F6E00
 8285              	.LASF34:
 8286 0f4d 4750494F 		.ascii	"GPIO_PRT_V1_Type\000"
 8286      5F505254 
 8286      5F56315F 
 8286      54797065 
 8286      00
 8287              	.LASF267:
 8288 0f5e 55706461 		.ascii	"UpdateDisplay\000"
 8288      74654469 
 8288      73706C61 
 8288      7900
 8289              	.LASF23:
 8290 0f6c 494E5452 		.ascii	"INTR\000"
 8290      00
 8291              	.LASF135:
 8292 0f71 63686172 		.ascii	"char_t\000"
 8292      5F7400
 8293              	.LASF293:
 8294 0f78 43617053 		.ascii	"CapSense_ChangeHighHeartRateLimit\000"
 8294      656E7365 
 8294      5F436861 
 8294      6E676548 
 8294      69676848 
 8295              	.LASF284:
 8296 0f9a 75706461 		.ascii	"updateHighHeartRateLimit\000"
 8296      74654869 
 8296      67684865 
 8296      61727452 
 8296      6174654C 
 8297              	.LASF32:
 8298 0fb3 4346475F 		.ascii	"CFG_IN_GPIO5V\000"
 8298      494E5F47 
 8298      50494F35 
 8298      5600
 8299              	.LASF331:
 8300 0fc1 4C43445F 		.ascii	"LCD_GetDisplayBuffer\000"
 8300      47657444 
 8300      6973706C 
 8300      61794275 
 8300      66666572 
 8301              	.LASF303:
 8302 0fd6 4932435F 		.ascii	"I2C_MAX_context\000"
 8302      4D41585F 
 8302      636F6E74 
 8302      65787400 
 8303              	.LASF22:
 8304 0fe6 4F55545F 		.ascii	"OUT_INV\000"
 8304      494E5600 
 8305              	.LASF122:
ARM GAS  C:\Users\felha\AppData\Local\Temp\ccuk7kBX.s 			page 185


 8306 0fee 63707573 		.ascii	"cpussCm4PwrCtlOffset\000"
 8306      73436D34 
 8306      50777243 
 8306      746C4F66 
 8306      66736574 
 8307              	.LASF3:
 8308 1003 5F5F7569 		.ascii	"__uint8_t\000"
 8308      6E74385F 
 8308      7400
 8309              	.LASF265:
 8310 100d 75706461 		.ascii	"updateMethod\000"
 8310      74654D65 
 8310      74686F64 
 8310      00
 8311              	.LASF235:
 8312 101a 70664469 		.ascii	"pfDispLine\000"
 8312      73704C69 
 8312      6E6500
 8313              	.LASF113:
 8314 1025 6770696F 		.ascii	"gpioPrtIntrCfgOffset\000"
 8314      50727449 
 8314      6E747243 
 8314      66674F66 
 8314      66736574 
 8315              	.LASF79:
 8316 103a 70617373 		.ascii	"passSarChannels\000"
 8316      53617243 
 8316      68616E6E 
 8316      656C7300 
 8317              	.LASF287:
 8318 104a 50616765 		.ascii	"PageNumber\000"
 8318      4E756D62 
 8318      657200
 8319              	.LASF119:
 8320 1055 63707573 		.ascii	"cpussCm4ClockCtlOffset\000"
 8320      73436D34 
 8320      436C6F63 
 8320      6B43746C 
 8320      4F666673 
 8321              	.LASF25:
 8322 106c 494E5452 		.ascii	"INTR_MASKED\000"
 8322      5F4D4153 
 8322      4B454400 
 8323              	.LASF231:
 8324 1078 74475549 		.ascii	"tGUI_GetLineLen\000"
 8324      5F476574 
 8324      4C696E65 
 8324      4C656E00 
 8325              	.LASF124:
 8326 1088 63707573 		.ascii	"cpussTrimRomCtlOffset\000"
 8326      73547269 
 8326      6D526F6D 
 8326      43746C4F 
 8326      66667365 
 8327              	.LASF63:
 8328 109e 6873696F 		.ascii	"hsiomVersion\000"
 8328      6D566572 
ARM GAS  C:\Users\felha\AppData\Local\Temp\ccuk7kBX.s 			page 186


 8328      73696F6E 
 8328      00
 8329              	.LASF10:
 8330 10ab 6C6F6E67 		.ascii	"long unsigned int\000"
 8330      20756E73 
 8330      69676E65 
 8330      6420696E 
 8330      7400
 8331              	.LASF128:
 8332 10bd 63707573 		.ascii	"cpussRomCtl\000"
 8332      73526F6D 
 8332      43746C00 
 8333              	.LASF137:
 8334 10c9 666C6F61 		.ascii	"float\000"
 8334      7400
 8335              	.LASF202:
 8336 10cf 4755495F 		.ascii	"GUI_FONT_TRANSLIST\000"
 8336      464F4E54 
 8336      5F545241 
 8336      4E534C49 
 8336      535400
 8337              	.LASF17:
 8338 10e2 696E7433 		.ascii	"int32_t\000"
 8338      325F7400 
 8339              	.LASF191:
 8340 10ea 63617074 		.ascii	"captureInput\000"
 8340      75726549 
 8340      6E707574 
 8340      00
 8341              	.LASF30:
 8342 10f7 4346475F 		.ascii	"CFG_SIO\000"
 8342      53494F00 
 8343              	.LASF121:
 8344 10ff 63707573 		.ascii	"cpussCm0StatusOffset\000"
 8344      73436D30 
 8344      53746174 
 8344      75734F66 
 8344      66736574 
 8345              	.LASF208:
 8346 1114 58446973 		.ascii	"XDist\000"
 8346      7400
 8347              	.LASF86:
 8348 111a 666C6173 		.ascii	"flashPipeRequired\000"
 8348      68506970 
 8348      65526571 
 8348      75697265 
 8348      6400
 8349              	.LASF2:
 8350 112c 756E7369 		.ascii	"unsigned char\000"
 8350      676E6564 
 8350      20636861 
 8350      7200
 8351              	.LASF9:
 8352 113a 5F5F7569 		.ascii	"__uint32_t\000"
 8352      6E743332 
 8352      5F7400
 8353              	.LASF46:
ARM GAS  C:\Users\felha\AppData\Local\Temp\ccuk7kBX.s 			page 187


 8354 1145 4750494F 		.ascii	"GPIO_Type\000"
 8354      5F547970 
 8354      6500
 8355              	.LASF133:
 8356 114f 6970634C 		.ascii	"ipcLockStatusOffset\000"
 8356      6F636B53 
 8356      74617475 
 8356      734F6666 
 8356      73657400 
 8357              	.LASF199:
 8358 1163 636F756E 		.ascii	"countInput\000"
 8358      74496E70 
 8358      757400
 8359              	.LASF27:
 8360 116e 494E5452 		.ascii	"INTR_CFG\000"
 8360      5F434647 
 8360      00
 8361              	.LASF285:
 8362 1177 48656172 		.ascii	"HeartRateHigh\000"
 8362      74526174 
 8362      65486967 
 8362      6800
 8363              	.LASF278:
 8364 1185 43757276 		.ascii	"CurveParam\000"
 8364      65506172 
 8364      616D00
 8365              	.LASF170:
 8366 1190 63795F73 		.ascii	"cy_stc_scb_spi_context\000"
 8366      74635F73 
 8366      63625F73 
 8366      70695F63 
 8366      6F6E7465 
 8367              	.LASF89:
 8368 11a7 666C6173 		.ascii	"flashEraseDelay\000"
 8368      68457261 
 8368      73654465 
 8368      6C617900 
 8369              	.LASF286:
 8370 11b7 44697370 		.ascii	"DisplayPage\000"
 8370      6C617950 
 8370      61676500 
 8371              	.LASF90:
 8372 11c3 666C6173 		.ascii	"flashCtlMainWs0Freq\000"
 8372      6843746C 
 8372      4D61696E 
 8372      57733046 
 8372      72657100 
 8373              	.LASF148:
 8374 11d7 73746174 		.ascii	"state\000"
 8374      6500
 8375              	.LASF336:
 8376 11dd 726F756E 		.ascii	"round\000"
 8376      6400
 8377              	.LASF325:
 8378 11e3 76656374 		.ascii	"vectorInfra\000"
 8378      6F72496E 
 8378      66726100 
ARM GAS  C:\Users\felha\AppData\Local\Temp\ccuk7kBX.s 			page 188


 8379              	.LASF270:
 8380 11ef 76656374 		.ascii	"vector750elements\000"
 8380      6F723735 
 8380      30656C65 
 8380      6D656E74 
 8380      7300
 8381              	.LASF83:
 8382 1201 70726F74 		.ascii	"protBusMasterMask\000"
 8382      4275734D 
 8382      61737465 
 8382      724D6173 
 8382      6B00
 8383              	.LASF85:
 8384 1213 666C6173 		.ascii	"flashRwwRequired\000"
 8384      68527777 
 8384      52657175 
 8384      69726564 
 8384      00
 8385              	.LASF354:
 8386 1224 433A5C55 		.ascii	"C:\\Users\\felha\\OneDrive\\Documents\\PolyMTL\\Sou"
 8386      73657273 
 8386      5C66656C 
 8386      68615C4F 
 8386      6E654472 
 8387 1251 72636554 		.ascii	"rceTree_GBM2100\\GBM2100_ProjetInterface\\Interface"
 8387      7265655F 
 8387      47424D32 
 8387      3130305C 
 8387      47424D32 
 8388 1282 2E637964 		.ascii	".cydsn\000"
 8388      736E00
 8389              	.LASF114:
 8390 1289 6770696F 		.ascii	"gpioPrtCfgOffset\000"
 8390      50727443 
 8390      66674F66 
 8390      66736574 
 8390      00
 8391              	.LASF263:
 8392 129a 70696E4E 		.ascii	"pinNum\000"
 8392      756D00
 8393              	.LASF41:
 8394 12a1 5644445F 		.ascii	"VDD_INTR_MASK\000"
 8394      494E5452 
 8394      5F4D4153 
 8394      4B00
 8395              	.LASF1:
 8396 12af 7369676E 		.ascii	"signed char\000"
 8396      65642063 
 8396      68617200 
 8397              	.LASF181:
 8398 12bb 70657269 		.ascii	"period\000"
 8398      6F6400
 8399              	.LASF340:
 8400 12c2 4755495F 		.ascii	"GUI_SetFont\000"
 8400      53657446 
 8400      6F6E7400 
 8401              	.LASF95:
ARM GAS  C:\Users\felha\AppData\Local\Temp\ccuk7kBX.s 			page 189


 8402 12ce 64774368 		.ascii	"dwChOffset\000"
 8402      4F666673 
 8402      657400
 8403              	.LASF68:
 8404 12d9 63707573 		.ascii	"cpussIpcIrqNr\000"
 8404      73497063 
 8404      4972714E 
 8404      7200
 8405              	.LASF180:
 8406 12e7 63795F73 		.ascii	"cy_stc_tcpwm_counter_config\000"
 8406      74635F74 
 8406      6370776D 
 8406      5F636F75 
 8406      6E746572 
 8407              	.LASF98:
 8408 1303 64774368 		.ascii	"dwChCtlPreemptablePos\000"
 8408      43746C50 
 8408      7265656D 
 8408      70746162 
 8408      6C65506F 
 8409              	.LASF246:
 8410 1319 594D6167 		.ascii	"YMag\000"
 8410      00
 8411              	.LASF207:
 8412 131e 5853697A 		.ascii	"XSize\000"
 8412      6500
 8413              	.LASF356:
 8414 1324 6D656D63 		.ascii	"memcpy\000"
 8414      707900
 8415              	.LASF120:
 8416 132b 63707573 		.ascii	"cpussCm4StatusOffset\000"
 8416      73436D34 
 8416      53746174 
 8416      75734F66 
 8416      66736574 
 8417              	.LASF134:
 8418 1340 63795F73 		.ascii	"cy_stc_device_t\000"
 8418      74635F64 
 8418      65766963 
 8418      655F7400 
 8419              	.LASF39:
 8420 1350 5644445F 		.ascii	"VDD_ACTIVE\000"
 8420      41435449 
 8420      564500
 8421              	.LASF257:
 8422 135b 63795F65 		.ascii	"cy_eink_frame_t\000"
 8422      696E6B5F 
 8422      6672616D 
 8422      655F7400 
 8423              	.LASF65:
 8424 136b 70657269 		.ascii	"periVersion\000"
 8424      56657273 
 8424      696F6E00 
 8425              	.LASF178:
 8426 1377 696E6974 		.ascii	"initKey\000"
 8426      4B657900 
 8427              	.LASF307:
ARM GAS  C:\Users\felha\AppData\Local\Temp\ccuk7kBX.s 			page 190


 8428 137f 4755495F 		.ascii	"GUI_Font24_1\000"
 8428      466F6E74 
 8428      32345F31 
 8428      00
 8429              	.LASF139:
 8430 138c 75696E74 		.ascii	"uint8\000"
 8430      3800
 8431              	.LASF138:
 8432 1392 646F7562 		.ascii	"double\000"
 8432      6C6500
 8433              	.LASF55:
 8434 1399 70617373 		.ascii	"passBase\000"
 8434      42617365 
 8434      00
 8435              	.LASF211:
 8436 13a2 4755495F 		.ascii	"GUI_CHARINFO\000"
 8436      43484152 
 8436      494E464F 
 8436      00
 8437              	.LASF250:
 8438 13af 4755495F 		.ascii	"GUI_ISINFONT\000"
 8438      4953494E 
 8438      464F4E54 
 8438      00
 8439              	.LASF74:
 8440 13bc 73727373 		.ascii	"srssNumClkpath\000"
 8440      4E756D43 
 8440      6C6B7061 
 8440      746800
 8441              	.LASF276:
 8442 13cb 70617261 		.ascii	"param1\000"
 8442      6D3100
 8443              	.LASF167:
 8444 13d2 63795F73 		.ascii	"cy_stc_scb_i2c_context_t\000"
 8444      74635F73 
 8444      63625F69 
 8444      32635F63 
 8444      6F6E7465 
 8445              	.LASF309:
 8446 13eb 44726177 		.ascii	"DrawRedGraph\000"
 8446      52656447 
 8446      72617068 
 8446      00
 8447              	.LASF94:
 8448 13f8 666C6173 		.ascii	"flashCtlMainWs4Freq\000"
 8448      6843746C 
 8448      4D61696E 
 8448      57733446 
 8448      72657100 
 8449              	.LASF220:
 8450 140c 704E6578 		.ascii	"pNext\000"
 8450      7400
 8451              	.LASF268:
 8452 1412 436C6561 		.ascii	"ClearScreen\000"
 8452      72536372 
 8452      65656E00 
 8453              	.LASF311:
ARM GAS  C:\Users\felha\AppData\Local\Temp\ccuk7kBX.s 			page 191


 8454 141e 536C6964 		.ascii	"SliderPosI\000"
 8454      6572506F 
 8454      734900
 8455              	.LASF64:
 8456 1429 69706356 		.ascii	"ipcVersion\000"
 8456      65727369 
 8456      6F6E00
 8457              	.LASF255:
 8458 1434 7050726F 		.ascii	"pPropExt\000"
 8458      70457874 
 8458      00
 8459              	.LASF101:
 8460 143d 70657269 		.ascii	"periTrCmdOffset\000"
 8460      5472436D 
 8460      644F6666 
 8460      73657400 
 8461              	.LASF173:
 8462 144d 72784275 		.ascii	"rxBufSize\000"
 8462      6653697A 
 8462      6500
 8463              	.LASF322:
 8464 1457 536C6964 		.ascii	"SliderPosV\000"
 8464      6572506F 
 8464      735600
 8465              	.LASF335:
 8466 1462 4755495F 		.ascii	"GUI_Clear\000"
 8466      436C6561 
 8466      7200
 8467              		.ident	"GCC: (GNU Tools for ARM Embedded Processors) 5.4.1 20160609 (release) [ARM/embedded-5-bran
