ARM GAS  C:\Users\markm\AppData\Local\Temp\ccdXMT0L.s 			page 1


   1              		.syntax unified
   2              		.cpu cortex-m4
   3              		.eabi_attribute 27, 1
   4              		.fpu fpv4-sp-d16
   5              		.eabi_attribute 20, 1
   6              		.eabi_attribute 21, 1
   7              		.eabi_attribute 23, 3
   8              		.eabi_attribute 24, 1
   9              		.eabi_attribute 25, 1
  10              		.eabi_attribute 26, 1
  11              		.eabi_attribute 30, 1
  12              		.eabi_attribute 34, 1
  13              		.eabi_attribute 18, 4
  14              		.thumb
  15              		.syntax unified
  16              		.file	"traitementSignal.c"
  17              		.text
  18              	.Ltext0:
  19              		.cfi_sections	.debug_frame
  20              		.global	__aeabi_f2d
  21              		.global	__aeabi_d2uiz
  22              		.global	__aeabi_d2iz
  23              		.section	.text.traitement_signal,"ax",%progbits
  24              		.align	2
  25              		.global	traitement_signal
  26              		.thumb
  27              		.thumb_func
  28              		.type	traitement_signal, %function
  29              	traitement_signal:
  30              	.LFB693:
  31              		.file 1 "traitementSignal.c"
   1:traitementSignal.c **** /* ========================================
   2:traitementSignal.c ****  *
   3:traitementSignal.c ****  * Copyright YOUR COMPANY, THE YEAR
   4:traitementSignal.c ****  * All Rights Reserved
   5:traitementSignal.c ****  * UNPUBLISHED, LICENSED SOFTWARE.
   6:traitementSignal.c ****  *
   7:traitementSignal.c ****  * CONFIDENTIAL AND PROPRIETARY INFORMATION
   8:traitementSignal.c ****  * WHICH IS THE PROPERTY OF your company.
   9:traitementSignal.c ****  *
  10:traitementSignal.c ****  * ========================================
  11:traitementSignal.c **** */
  12:traitementSignal.c **** #include "traitementSignal.h"
  13:traitementSignal.c **** 
  14:traitementSignal.c **** volatile int ScreenNumber;
  15:traitementSignal.c **** volatile bool DrawRedGraph;
  16:traitementSignal.c **** volatile bool DrawInfraredGraph;
  17:traitementSignal.c **** 
  18:traitementSignal.c **** //Vecteurs globaux
  19:traitementSignal.c **** 
  20:traitementSignal.c **** //volatile int32_t vectorSource[]={205973,207305,206168,208001,206188,208050,206371,208225,206544,2
  21:traitementSignal.c **** //volatile int32_t vectorSourceINFRA[]={99513,98160,99413,98419,99319,98729,99145,99050,98949,99419
  22:traitementSignal.c **** //volatile int32_t vectorSource[]={205973,207305,206168,208001,206188,208050,206371,208225,206544,2
  23:traitementSignal.c **** //volatile int32_t vectorSourceINFRA[]={99513,98160,99413,98419,99319,98729,99145,99050,98949,99419
  24:traitementSignal.c **** uint sampleRate=100;
  25:traitementSignal.c **** 
  26:traitementSignal.c **** volatile float32_t vectorRed[750];
ARM GAS  C:\Users\markm\AppData\Local\Temp\ccdXMT0L.s 			page 2


  27:traitementSignal.c **** volatile float32_t vectorInfra[750];
  28:traitementSignal.c **** //used to be a int32_t
  29:traitementSignal.c **** 
  30:traitementSignal.c **** // Les vecteurs suivants sont obtenus sur Matlab, fonction de freq dechantillonnage/2, de la freq d
  31:traitementSignal.c **** 
  32:traitementSignal.c **** //float32_t CoeffPH[]={0.000067910714, 0.000067971642, 0.000067791149, 0.000067367908, 0.0000667009
  33:traitementSignal.c **** //float32_t CoeffPB[]={-0.000067159395, -0.000060759865, -0.000048378088, -0.000031175731, -0.00001
  34:traitementSignal.c **** //float32_t CoeffPH[]={-0.001017575404, -0.001105847660, -0.001295569340, -0.001594494763, -0.00200
  35:traitementSignal.c **** /////////float32_t CoeffPB[]={0.001023850005, 0.001008389295, 0.000948246733, 0.000761638812, 0.000
  36:traitementSignal.c **** //float32_t CoeffPH[] = {-0.001018, -0.001106, -0.001296, -0.001594, -0.002008, -0.002538, -0.00318
  37:traitementSignal.c **** //float32_t CoeffPB[] = {-0.001060, -0.001116, -0.001227, -0.001361, -0.001464, -0.001458, -0.00125
  38:traitementSignal.c **** float32_t CoeffPH[]={-0.001018, -0.001106, -0.001296, -0.001594, -0.002008, -0.002538, -0.003185, -
  39:traitementSignal.c **** float32_t CoeffPB[]={0.000078, 0.000255, 0.000498, 0.000858, 0.001387, 0.002135, 0.003148, 0.004462
  40:traitementSignal.c **** 
  41:traitementSignal.c **** 
  42:traitementSignal.c **** // D√©claration des variables globales
  43:traitementSignal.c **** 
  44:traitementSignal.c **** float aCoeff=-45.06; // Coefficients de calibration du capteur, permettant d'obtenir la valeur de s
  45:traitementSignal.c **** float bCoeff=30.354;
  46:traitementSignal.c **** float cCoeff=94.845;
  47:traitementSignal.c **** float fs=100; // Fr√©quence d'√©chantillonnage
  48:traitementSignal.c **** uint16_t fc=1; // Fr√©quence de coupure du filtre passe-haut en Hz (sera pt pas n√©cessaire)
  49:traitementSignal.c **** uint16_t fcpb=5; // Fr√©quence de coupure du filtre passe-bas en Hz (sera pt pas n√©cessaire)
  50:traitementSignal.c **** float32_t dureeTraitement=7.5; // Dur√©e, en secondes, entre les affichages (donc dur√©e du signal 
  51:traitementSignal.c **** 
  52:traitementSignal.c **** uint32_t nombreSamples=sizeof(vectorRed)/sizeof(vectorRed[0]); // Correspond au nombre de composant
  53:traitementSignal.c **** uint32_t sampleSize=32; // Les vecteurs trait√©s sont tous constitu√©s d'√©chantillons qui sont des
  54:traitementSignal.c **** uint32_t blockSize=BLOCK_SIZE; // D√©terminer quelle valeur √ßa doit prendre, je comprends pas exac
  55:traitementSignal.c **** uint32_t num_taps=1;
  56:traitementSignal.c **** 
  57:traitementSignal.c **** float32_t meanRythm;
  58:traitementSignal.c **** float32_t meanSPO2;
  59:traitementSignal.c **** float mean;                 // Variable √† laquelle la valeur moyenne du courant dans un certain in
  60:traitementSignal.c **** float DCr;
  61:traitementSignal.c **** float DCI;
  62:traitementSignal.c **** 
  63:traitementSignal.c **** volatile int Saturation; 
  64:traitementSignal.c **** volatile int RythmeCardiaque;
  65:traitementSignal.c **** 
  66:traitementSignal.c **** arm_fir_instance_f32 S;
  67:traitementSignal.c **** //arm_fir_instance_f32 SIR;
  68:traitementSignal.c **** //float32_t* ptrRed;
  69:traitementSignal.c **** //float32_t* ptrInfra;
  70:traitementSignal.c **** //float32_t* ptrRedClean;
  71:traitementSignal.c **** //float32_t* ptrInfraClean;
  72:traitementSignal.c **** 
  73:traitementSignal.c **** //float32_t* vecteurBrut;
  74:traitementSignal.c **** //float32_t* vecteurClean;
  75:traitementSignal.c **** 
  76:traitementSignal.c **** 
  77:traitementSignal.c **** 
  78:traitementSignal.c **** int16_t numTaps=NUM_TAPS;
  79:traitementSignal.c **** float32_t vector_Red_Clean[BLOCK_SIZE];          //vecteurs vers lesquels les pointeurs pr√©c√©dent
  80:traitementSignal.c **** float32_t vector_IR_Clean[BLOCK_SIZE];
  81:traitementSignal.c **** float32_t vector_Red_Half_Clean[BLOCK_SIZE];          //vecteurs vers lesquels les pointeurs pr√©c√
  82:traitementSignal.c **** float32_t vector_IR_Half_Clean[BLOCK_SIZE];
  83:traitementSignal.c **** float32_t stateBuffer[NUM_TAPS+BLOCK_SIZE-1]; // taille telle que sp√©cifi√©e dans la page internet
ARM GAS  C:\Users\markm\AppData\Local\Temp\ccdXMT0L.s 			page 3


  84:traitementSignal.c **** 
  85:traitementSignal.c **** 
  86:traitementSignal.c **** void traitement_signal()
  87:traitementSignal.c **** {     
  32              		.loc 1 87 0
  33              		.cfi_startproc
  34              		@ args = 0, pretend = 0, frame = 120
  35              		@ frame_needed = 1, uses_anonymous_args = 0
  36 0000 2DE9F04F 		push	{r4, r5, r6, r7, r8, r9, r10, fp, lr}
  37              		.cfi_def_cfa_offset 36
  38              		.cfi_offset 4, -36
  39              		.cfi_offset 5, -32
  40              		.cfi_offset 6, -28
  41              		.cfi_offset 7, -24
  42              		.cfi_offset 8, -20
  43              		.cfi_offset 9, -16
  44              		.cfi_offset 10, -12
  45              		.cfi_offset 11, -8
  46              		.cfi_offset 14, -4
  47 0004 2DED028B 		vpush.64	{d8}
  48              		.cfi_def_cfa_offset 44
  49              		.cfi_offset 80, -44
  50              		.cfi_offset 81, -40
  51 0008 A1B0     		sub	sp, sp, #132
  52              		.cfi_def_cfa_offset 176
  53 000a 02AF     		add	r7, sp, #8
  54              		.cfi_def_cfa 7, 168
  88:traitementSignal.c ****     SystemInit();
  55              		.loc 1 88 0
  56 000c FFF7FEFF 		bl	SystemInit
  57              	.LVL0:
  89:traitementSignal.c ****     SystemCoreClockUpdate(); // Cette fonction et la pr√©c√©dente servent √† initialiser les biblio
  58              		.loc 1 89 0
  59 0010 FFF7FEFF 		bl	SystemCoreClockUpdate
  60              	.LVL1:
  90:traitementSignal.c **** //    float32_t vectorBrutRed[nombreSamples];              // Copie du vecteur non trait√© du signa
  91:traitementSignal.c **** //    float32_t vectorBrutInfra[nombreSamples];            // Copie du vecteur non trait√© du signa
  92:traitementSignal.c ****        
  93:traitementSignal.c ****     // Op√©ration permettant la copie des vecteurs non trait√©s :
  94:traitementSignal.c **** //    for (uint32_t i = 0; i < nombreSamples; i++){ 
  95:traitementSignal.c **** //         vectorBrutRed[i]=vectorRed[i];
  96:traitementSignal.c **** //         vectorBrutInfra[i]=vectorInfra[i];
  97:traitementSignal.c **** //    }
  98:traitementSignal.c ****     
  99:traitementSignal.c ****     
 100:traitementSignal.c ****      // Filtres passe-haut et calcul de la composante DC en trouvant la moyenne du signal
 101:traitementSignal.c ****     
 102:traitementSignal.c ****     arm_mean_f32((float32_t*)&vectorRed,blockSize,&mean); // Fonction qui ressort dans la variable 
  61              		.loc 1 102 0
  62 0014 C34C     		ldr	r4, .L85
  63 0016 C44D     		ldr	r5, .L85+4
  64 0018 2246     		mov	r2, r4
  65 001a 2968     		ldr	r1, [r5]
  66 001c C348     		ldr	r0, .L85+8
  67 001e FFF7FEFF 		bl	arm_mean_f32
  68              	.LVL2:
 103:traitementSignal.c ****     DCr=mean;
ARM GAS  C:\Users\markm\AppData\Local\Temp\ccdXMT0L.s 			page 4


  69              		.loc 1 103 0
  70 0022 2268     		ldr	r2, [r4]	@ float
  71 0024 C24B     		ldr	r3, .L85+12
  72 0026 1A60     		str	r2, [r3]	@ float
 104:traitementSignal.c ****     arm_mean_f32((float32_t*)vectorInfra,blockSize,&mean); // Fonction qui ressort dans la variable
  73              		.loc 1 104 0
  74 0028 2246     		mov	r2, r4
  75 002a 2968     		ldr	r1, [r5]
  76 002c C148     		ldr	r0, .L85+16
  77 002e FFF7FEFF 		bl	arm_mean_f32
  78              	.LVL3:
 105:traitementSignal.c ****     DCI=mean;
  79              		.loc 1 105 0
  80 0032 D4ED006A 		vldr.32	s13, [r4]
  81 0036 C04B     		ldr	r3, .L85+20
  82 0038 C3ED006A 		vstr.32	s13, [r3]
  83              	.LVL4:
  84              	.LBB74:
 106:traitementSignal.c ****     
 107:traitementSignal.c ****     for (uint32_t i = 0; i < blockSize; i++){
  85              		.loc 1 107 0
  86 003c 0021     		movs	r1, #0
  87 003e 14E0     		b	.L2
  88              	.LVL5:
  89              	.L3:
 108:traitementSignal.c ****         vectorRed[i]=vectorRed[i]-DCr;
  90              		.loc 1 108 0 discriminator 3
  91 0040 8B00     		lsls	r3, r1, #2
  92 0042 BA4A     		ldr	r2, .L85+8
  93 0044 1A44     		add	r2, r2, r3
  94 0046 D2ED007A 		vldr.32	s15, [r2]
  95 004a B948     		ldr	r0, .L85+12
  96 004c 90ED007A 		vldr.32	s14, [r0]
  97 0050 77EEC77A 		vsub.f32	s15, s15, s14
  98 0054 C2ED007A 		vstr.32	s15, [r2]
 109:traitementSignal.c ****         vectorInfra[i]=vectorInfra[i]-DCI;
  99              		.loc 1 109 0 discriminator 3
 100 0058 B64A     		ldr	r2, .L85+16
 101 005a 1344     		add	r3, r3, r2
 102 005c D3ED007A 		vldr.32	s15, [r3]
 103 0060 77EEE67A 		vsub.f32	s15, s15, s13
 104 0064 C3ED007A 		vstr.32	s15, [r3]
 107:traitementSignal.c ****         vectorRed[i]=vectorRed[i]-DCr;
 105              		.loc 1 107 0 discriminator 3
 106 0068 0131     		adds	r1, r1, #1
 107              	.LVL6:
 108              	.L2:
 107:traitementSignal.c ****         vectorRed[i]=vectorRed[i]-DCr;
 109              		.loc 1 107 0 is_stmt 0 discriminator 1
 110 006a AF4B     		ldr	r3, .L85+4
 111 006c 1B68     		ldr	r3, [r3]
 112 006e 9942     		cmp	r1, r3
 113 0070 E6D3     		bcc	.L3
 114              	.LVL7:
 115              	.LBE74:
 110:traitementSignal.c ****     }
 111:traitementSignal.c **** 
ARM GAS  C:\Users\markm\AppData\Local\Temp\ccdXMT0L.s 			page 5


 112:traitementSignal.c ****     // On filtre le signal associ√© √† la longueur d'onde rouge avec un filtre passe-bas
 113:traitementSignal.c ****     // filtre(vectorRed,CoeffPH); //Passe-bas
 114:traitementSignal.c ****     //////////filtre(vectorRed,CoeffPB); //Passe-haut
 115:traitementSignal.c ****     
 116:traitementSignal.c ****       // On r√©p√®te pour l'infrarouge avec un filtre passe-bas
 117:traitementSignal.c ****     //////////filtre(vectorInfra,CoeffPB); // Passe-bas
 118:traitementSignal.c ****    // filtre(vectorInfra,CoeffPH); // Passe-haut 
 119:traitementSignal.c ****     
 120:traitementSignal.c **** 
 121:traitementSignal.c ****     
 122:traitementSignal.c ****     //////////////////////////////////////////////////////////////////
 123:traitementSignal.c **** //    float32_t* ptrRed[blockSize];         //WORKS
 124:traitementSignal.c **** //    float32_t* ptrInfra[blockSize];
 125:traitementSignal.c **** //    float32_t* ptrRedClean[blockSize];
 126:traitementSignal.c **** //    float32_t* ptrInfraClean[blockSize];
 127:traitementSignal.c **** //    
 128:traitementSignal.c **** //    
 129:traitementSignal.c **** //     for (uint32_t i = 0; i < blockSize; i++){                //WORKS
 130:traitementSignal.c **** //        ptrRed[i]=&vectorRed[i]; 
 131:traitementSignal.c **** //        ptrInfra[i]=&vectorInfra[i]; 
 132:traitementSignal.c **** //    }
 133:traitementSignal.c **** //    
 134:traitementSignal.c **** //    ptrRed=&vectorRed[0];
 135:traitementSignal.c **** //    ptrInfra=&vectorInfra[0];
 136:traitementSignal.c ****     
 137:traitementSignal.c ****     //float32_t stateBufferIR[numTaps+blockSize-1];
 138:traitementSignal.c ****     
 139:traitementSignal.c ****     
 140:traitementSignal.c ****     float32_t* ptrRedHalfClean;            //    pointeurs qui pointent vers le output fu filtrage
 141:traitementSignal.c ****     float32_t* ptrInfraHalfClean;
 142:traitementSignal.c ****     
 143:traitementSignal.c ****     float32_t* ptrRedClean;            //    pointeurs qui pointent vers le output fu filtrage
 144:traitementSignal.c ****     float32_t* ptrInfraClean;
 145:traitementSignal.c ****     
 146:traitementSignal.c ****     ptrRedHalfClean=&vector_Red_Half_Clean[0];
 147:traitementSignal.c ****     ptrInfraHalfClean=&vector_IR_Half_Clean[0];
 148:traitementSignal.c ****   
 149:traitementSignal.c ****     ptrRedClean=&vector_Red_Clean[0];
 150:traitementSignal.c ****     ptrInfraClean=&vector_IR_Clean[0];
 151:traitementSignal.c ****        
 152:traitementSignal.c **** //    arm_fir_init_f32(&S,numTaps,(float32_t*)&CoeffPB[0],&stateBuffer[0],blockSize);    
 153:traitementSignal.c ****     
 154:traitementSignal.c **** //    arm_fir_init_f32(&S,numTaps,&CoeffPH[0],&stateBuffer[0],blockSize);
 155:traitementSignal.c **** //    arm_fir_f32(&S,&vectorRed[0],ptrRedHalfClean,blockSize);
 156:traitementSignal.c **** //    arm_fir_f32(&S,&vectorInfra[0],ptrInfraHalfClean,blockSize);
 157:traitementSignal.c **** //    
 158:traitementSignal.c **** //    arm_fir_init_f32(&S,numTaps,&CoeffPB[0],&stateBuffer[0],blockSize);
 159:traitementSignal.c **** //    arm_fir_f32(&S,ptrRedHalfClean,ptrRedClean,blockSize);
 160:traitementSignal.c **** //    arm_fir_f32(&S,ptrInfraHalfClean,ptrInfraClean,blockSize);
 161:traitementSignal.c ****     
 162:traitementSignal.c ****     arm_fir_init_f32(&S,numTaps,&CoeffPB[0],&stateBuffer[0],blockSize);
 116              		.loc 1 162 0 is_stmt 1
 117 0072 AD4D     		ldr	r5, .L85+4
 118 0074 B5F8CC10 		ldrh	r1, [r5, #204]
 119              	.LVL8:
 120 0078 B04C     		ldr	r4, .L85+24
 121 007a 0093     		str	r3, [sp]
ARM GAS  C:\Users\markm\AppData\Local\Temp\ccdXMT0L.s 			page 6


 122 007c B04B     		ldr	r3, .L85+28
 123 007e 2A1D     		adds	r2, r5, #4
 124 0080 2046     		mov	r0, r4
 125 0082 FFF7FEFF 		bl	arm_fir_init_f32
 126              	.LVL9:
 163:traitementSignal.c ****     arm_fir_f32(&S,&vectorRed[0],ptrRedClean,blockSize);
 127              		.loc 1 163 0
 128 0086 DFF8C482 		ldr	r8, .L85+40
 129 008a A84E     		ldr	r6, .L85+8
 130 008c 2B68     		ldr	r3, [r5]
 131 008e 4246     		mov	r2, r8
 132 0090 3146     		mov	r1, r6
 133 0092 2046     		mov	r0, r4
 134 0094 FFF7FEFF 		bl	arm_fir_f32
 135              	.LVL10:
 164:traitementSignal.c ****     arm_fir_f32(&S,&vectorInfra[0],ptrInfraClean,blockSize);
 136              		.loc 1 164 0
 137 0098 DFF8B492 		ldr	r9, .L85+44
 138 009c 2B68     		ldr	r3, [r5]
 139 009e 4A46     		mov	r2, r9
 140 00a0 A449     		ldr	r1, .L85+16
 141 00a2 2046     		mov	r0, r4
 142 00a4 FFF7FEFF 		bl	arm_fir_f32
 143              	.LVL11:
 165:traitementSignal.c ****     
 166:traitementSignal.c ****     char resultfiltre1[16];                               
 167:traitementSignal.c ****                     sprintf(resultfiltre1,"%5.10f \n\r", vectorRed[100]);                 // conver
 144              		.loc 1 167 0
 145 00a8 D6F89001 		ldr	r0, [r6, #400]	@ float
 146 00ac FFF7FEFF 		bl	__aeabi_f2d
 147              	.LVL12:
 148 00b0 DFF8A0A2 		ldr	r10, .L85+48
 149 00b4 0246     		mov	r2, r0
 150 00b6 0B46     		mov	r3, r1
 151 00b8 5146     		mov	r1, r10
 152 00ba 07F16800 		add	r0, r7, #104
 153 00be FFF7FEFF 		bl	sprintf
 154              	.LVL13:
 155              	.LBB75:
 156              	.LBB76:
 157              	.LBB77:
 158              		.file 2 "Generated_Source\\PSoC6\\pdl\\drivers/peripheral/scb/cy_scb_uart.h"
   1:Generated_Source\PSoC6\pdl\drivers/peripheral/scb/cy_scb_uart.h **** /***************************************************************************//**
   2:Generated_Source\PSoC6\pdl\drivers/peripheral/scb/cy_scb_uart.h **** * \file cy_scb_uart.h
   3:Generated_Source\PSoC6\pdl\drivers/peripheral/scb/cy_scb_uart.h **** * \version 2.20
   4:Generated_Source\PSoC6\pdl\drivers/peripheral/scb/cy_scb_uart.h **** *
   5:Generated_Source\PSoC6\pdl\drivers/peripheral/scb/cy_scb_uart.h **** * Provides UART API declarations of the SCB driver.
   6:Generated_Source\PSoC6\pdl\drivers/peripheral/scb/cy_scb_uart.h **** *
   7:Generated_Source\PSoC6\pdl\drivers/peripheral/scb/cy_scb_uart.h **** ********************************************************************************
   8:Generated_Source\PSoC6\pdl\drivers/peripheral/scb/cy_scb_uart.h **** * \copyright
   9:Generated_Source\PSoC6\pdl\drivers/peripheral/scb/cy_scb_uart.h **** * Copyright 2016-2018, Cypress Semiconductor Corporation.  All rights reserved.
  10:Generated_Source\PSoC6\pdl\drivers/peripheral/scb/cy_scb_uart.h **** * You may use this file only in accordance with the license, terms, conditions,
  11:Generated_Source\PSoC6\pdl\drivers/peripheral/scb/cy_scb_uart.h **** * disclaimers, and limitations in the end user license agreement accompanying
  12:Generated_Source\PSoC6\pdl\drivers/peripheral/scb/cy_scb_uart.h **** * the software package with which this file was provided.
  13:Generated_Source\PSoC6\pdl\drivers/peripheral/scb/cy_scb_uart.h **** *******************************************************************************/
  14:Generated_Source\PSoC6\pdl\drivers/peripheral/scb/cy_scb_uart.h **** 
  15:Generated_Source\PSoC6\pdl\drivers/peripheral/scb/cy_scb_uart.h **** /**
ARM GAS  C:\Users\markm\AppData\Local\Temp\ccdXMT0L.s 			page 7


  16:Generated_Source\PSoC6\pdl\drivers/peripheral/scb/cy_scb_uart.h **** * \addtogroup group_scb_uart
  17:Generated_Source\PSoC6\pdl\drivers/peripheral/scb/cy_scb_uart.h **** * \{
  18:Generated_Source\PSoC6\pdl\drivers/peripheral/scb/cy_scb_uart.h **** * Driver API for UART
  19:Generated_Source\PSoC6\pdl\drivers/peripheral/scb/cy_scb_uart.h **** *
  20:Generated_Source\PSoC6\pdl\drivers/peripheral/scb/cy_scb_uart.h **** * The functions and other declarations used in this part of the driver are in 
  21:Generated_Source\PSoC6\pdl\drivers/peripheral/scb/cy_scb_uart.h **** * cy_scb_uart.h. You can also include cy_pdl.h (ModusToolbox only) to get access 
  22:Generated_Source\PSoC6\pdl\drivers/peripheral/scb/cy_scb_uart.h **** * to all functions and declarations in the PDL.
  23:Generated_Source\PSoC6\pdl\drivers/peripheral/scb/cy_scb_uart.h **** *
  24:Generated_Source\PSoC6\pdl\drivers/peripheral/scb/cy_scb_uart.h **** * The Universal Asynchronous Receiver/Transmitter (UART) protocol is an 
  25:Generated_Source\PSoC6\pdl\drivers/peripheral/scb/cy_scb_uart.h **** * asynchronous serial interface protocol. UART communication is typically 
  26:Generated_Source\PSoC6\pdl\drivers/peripheral/scb/cy_scb_uart.h **** * point-to-point. The UART interface consists of two signals:
  27:Generated_Source\PSoC6\pdl\drivers/peripheral/scb/cy_scb_uart.h **** * * TX: Transmitter output
  28:Generated_Source\PSoC6\pdl\drivers/peripheral/scb/cy_scb_uart.h **** * * RX: Receiver input
  29:Generated_Source\PSoC6\pdl\drivers/peripheral/scb/cy_scb_uart.h **** *
  30:Generated_Source\PSoC6\pdl\drivers/peripheral/scb/cy_scb_uart.h **** * Additionally, two side-band signals are used to implement flow control in 
  31:Generated_Source\PSoC6\pdl\drivers/peripheral/scb/cy_scb_uart.h **** * UART. Note that the flow control applies only to TX functionality.
  32:Generated_Source\PSoC6\pdl\drivers/peripheral/scb/cy_scb_uart.h **** * * Clear to Send (CTS): This is an input signal to the transmitter. 
  33:Generated_Source\PSoC6\pdl\drivers/peripheral/scb/cy_scb_uart.h **** *   When active, it indicates that the slave is ready for the master to 
  34:Generated_Source\PSoC6\pdl\drivers/peripheral/scb/cy_scb_uart.h **** *   transmit data.
  35:Generated_Source\PSoC6\pdl\drivers/peripheral/scb/cy_scb_uart.h **** * * Ready to Send (RTS): This is an output signal from the receiver. When 
  36:Generated_Source\PSoC6\pdl\drivers/peripheral/scb/cy_scb_uart.h **** *   active, it indicates that the receiver is ready to receive data
  37:Generated_Source\PSoC6\pdl\drivers/peripheral/scb/cy_scb_uart.h **** *
  38:Generated_Source\PSoC6\pdl\drivers/peripheral/scb/cy_scb_uart.h **** * Features:
  39:Generated_Source\PSoC6\pdl\drivers/peripheral/scb/cy_scb_uart.h **** * * Supports UART protocol
  40:Generated_Source\PSoC6\pdl\drivers/peripheral/scb/cy_scb_uart.h **** *   * Standard UART
  41:Generated_Source\PSoC6\pdl\drivers/peripheral/scb/cy_scb_uart.h **** *   * Multi-processor mode
  42:Generated_Source\PSoC6\pdl\drivers/peripheral/scb/cy_scb_uart.h **** * * SmartCard (ISO7816) reader
  43:Generated_Source\PSoC6\pdl\drivers/peripheral/scb/cy_scb_uart.h **** * * IrDA
  44:Generated_Source\PSoC6\pdl\drivers/peripheral/scb/cy_scb_uart.h **** * * Data frame size programmable from 4 to 16 bits
  45:Generated_Source\PSoC6\pdl\drivers/peripheral/scb/cy_scb_uart.h **** * * Programmable number of STOP bits, which can be set in terms of half bit 
  46:Generated_Source\PSoC6\pdl\drivers/peripheral/scb/cy_scb_uart.h **** *   periods between 1 and 4
  47:Generated_Source\PSoC6\pdl\drivers/peripheral/scb/cy_scb_uart.h **** * * Parity support (odd and even parity)
  48:Generated_Source\PSoC6\pdl\drivers/peripheral/scb/cy_scb_uart.h **** * * Median filter on Rx input
  49:Generated_Source\PSoC6\pdl\drivers/peripheral/scb/cy_scb_uart.h **** * * Programmable oversampling
  50:Generated_Source\PSoC6\pdl\drivers/peripheral/scb/cy_scb_uart.h **** * * Start skipping
  51:Generated_Source\PSoC6\pdl\drivers/peripheral/scb/cy_scb_uart.h **** *
  52:Generated_Source\PSoC6\pdl\drivers/peripheral/scb/cy_scb_uart.h **** ********************************************************************************
  53:Generated_Source\PSoC6\pdl\drivers/peripheral/scb/cy_scb_uart.h **** * \section group_scb_uart_configuration Configuration Considerations
  54:Generated_Source\PSoC6\pdl\drivers/peripheral/scb/cy_scb_uart.h **** ********************************************************************************
  55:Generated_Source\PSoC6\pdl\drivers/peripheral/scb/cy_scb_uart.h **** * The UART driver configuration can be divided to number of sequential
  56:Generated_Source\PSoC6\pdl\drivers/peripheral/scb/cy_scb_uart.h **** * steps listed below:
  57:Generated_Source\PSoC6\pdl\drivers/peripheral/scb/cy_scb_uart.h **** * * \ref group_scb_uart_config
  58:Generated_Source\PSoC6\pdl\drivers/peripheral/scb/cy_scb_uart.h **** * * \ref group_scb_uart_pins
  59:Generated_Source\PSoC6\pdl\drivers/peripheral/scb/cy_scb_uart.h **** * * \ref group_scb_uart_clock
  60:Generated_Source\PSoC6\pdl\drivers/peripheral/scb/cy_scb_uart.h **** * * \ref group_scb_uart_data_rate
  61:Generated_Source\PSoC6\pdl\drivers/peripheral/scb/cy_scb_uart.h **** * * \ref group_scb_uart_intr
  62:Generated_Source\PSoC6\pdl\drivers/peripheral/scb/cy_scb_uart.h **** * * \ref group_scb_uart_enable
  63:Generated_Source\PSoC6\pdl\drivers/peripheral/scb/cy_scb_uart.h **** *
  64:Generated_Source\PSoC6\pdl\drivers/peripheral/scb/cy_scb_uart.h **** * \note
  65:Generated_Source\PSoC6\pdl\drivers/peripheral/scb/cy_scb_uart.h **** * UART driver is built on top of the SCB hardware block. The SCB5 instance is
  66:Generated_Source\PSoC6\pdl\drivers/peripheral/scb/cy_scb_uart.h **** * used as an example for all code snippets. Modify the code to match your
  67:Generated_Source\PSoC6\pdl\drivers/peripheral/scb/cy_scb_uart.h **** * design.
  68:Generated_Source\PSoC6\pdl\drivers/peripheral/scb/cy_scb_uart.h **** *
  69:Generated_Source\PSoC6\pdl\drivers/peripheral/scb/cy_scb_uart.h **** ********************************************************************************
  70:Generated_Source\PSoC6\pdl\drivers/peripheral/scb/cy_scb_uart.h **** * \subsection group_scb_uart_config Configure UART
  71:Generated_Source\PSoC6\pdl\drivers/peripheral/scb/cy_scb_uart.h **** ********************************************************************************
  72:Generated_Source\PSoC6\pdl\drivers/peripheral/scb/cy_scb_uart.h **** * To set up the UART driver, provide the configuration parameters in the
ARM GAS  C:\Users\markm\AppData\Local\Temp\ccdXMT0L.s 			page 8


  73:Generated_Source\PSoC6\pdl\drivers/peripheral/scb/cy_scb_uart.h **** * \ref cy_stc_scb_uart_config_t structure. For example: provide uartMode,
  74:Generated_Source\PSoC6\pdl\drivers/peripheral/scb/cy_scb_uart.h **** * oversample, dataWidth, enableMsbFirst, parity, and stopBits. The other
  75:Generated_Source\PSoC6\pdl\drivers/peripheral/scb/cy_scb_uart.h **** * parameters are optional. To initialize the driver, call \ref Cy_SCB_UART_Init 
  76:Generated_Source\PSoC6\pdl\drivers/peripheral/scb/cy_scb_uart.h **** * function providing a pointer to the populated \ref cy_stc_scb_uart_config_t 
  77:Generated_Source\PSoC6\pdl\drivers/peripheral/scb/cy_scb_uart.h **** * structure and the allocated \ref cy_stc_scb_uart_context_t structure.
  78:Generated_Source\PSoC6\pdl\drivers/peripheral/scb/cy_scb_uart.h **** *
  79:Generated_Source\PSoC6\pdl\drivers/peripheral/scb/cy_scb_uart.h **** * \snippet SCB_CompDatasheet_sut_01_revA.cydsn\uart_snippets.c UART_CFG
  80:Generated_Source\PSoC6\pdl\drivers/peripheral/scb/cy_scb_uart.h **** *
  81:Generated_Source\PSoC6\pdl\drivers/peripheral/scb/cy_scb_uart.h **** ********************************************************************************
  82:Generated_Source\PSoC6\pdl\drivers/peripheral/scb/cy_scb_uart.h **** * \subsection group_scb_uart_pins Assign and Configure Pins
  83:Generated_Source\PSoC6\pdl\drivers/peripheral/scb/cy_scb_uart.h **** ********************************************************************************
  84:Generated_Source\PSoC6\pdl\drivers/peripheral/scb/cy_scb_uart.h **** * Only dedicated SCB pins can be used for UART operation. The HSIOM
  85:Generated_Source\PSoC6\pdl\drivers/peripheral/scb/cy_scb_uart.h **** * register must be configured to connect dedicated SCB UART pins to the 
  86:Generated_Source\PSoC6\pdl\drivers/peripheral/scb/cy_scb_uart.h **** * SCB block. Also, the UART output pins must be configured in Strong Drive 
  87:Generated_Source\PSoC6\pdl\drivers/peripheral/scb/cy_scb_uart.h **** * Input Off mode and UART input pins in Digital High-Z:
  88:Generated_Source\PSoC6\pdl\drivers/peripheral/scb/cy_scb_uart.h **** *
  89:Generated_Source\PSoC6\pdl\drivers/peripheral/scb/cy_scb_uart.h **** * \snippet SCB_CompDatasheet_sut_01_revA.cydsn\uart_snippets.c UART_CFG_PINS
  90:Generated_Source\PSoC6\pdl\drivers/peripheral/scb/cy_scb_uart.h **** *
  91:Generated_Source\PSoC6\pdl\drivers/peripheral/scb/cy_scb_uart.h **** ********************************************************************************
  92:Generated_Source\PSoC6\pdl\drivers/peripheral/scb/cy_scb_uart.h **** * \subsection group_scb_uart_clock Assign Clock Divider
  93:Generated_Source\PSoC6\pdl\drivers/peripheral/scb/cy_scb_uart.h **** ********************************************************************************
  94:Generated_Source\PSoC6\pdl\drivers/peripheral/scb/cy_scb_uart.h **** * A clock source must be connected to the SCB block to oversample input and
  95:Generated_Source\PSoC6\pdl\drivers/peripheral/scb/cy_scb_uart.h **** * output signals, in this document this clock will be referred as clk_scb.
  96:Generated_Source\PSoC6\pdl\drivers/peripheral/scb/cy_scb_uart.h **** * You must use one of available integer or fractional dividers. Use the 
  97:Generated_Source\PSoC6\pdl\drivers/peripheral/scb/cy_scb_uart.h **** * \ref group_sysclk driver API to do this.
  98:Generated_Source\PSoC6\pdl\drivers/peripheral/scb/cy_scb_uart.h **** *
  99:Generated_Source\PSoC6\pdl\drivers/peripheral/scb/cy_scb_uart.h **** * \snippet SCB_CompDatasheet_sut_01_revA.cydsn\uart_snippets.c UART_CFG_ASSIGN_CLOCK
 100:Generated_Source\PSoC6\pdl\drivers/peripheral/scb/cy_scb_uart.h **** *
 101:Generated_Source\PSoC6\pdl\drivers/peripheral/scb/cy_scb_uart.h **** ********************************************************************************
 102:Generated_Source\PSoC6\pdl\drivers/peripheral/scb/cy_scb_uart.h **** * \subsection group_scb_uart_data_rate Configure Baud Rate
 103:Generated_Source\PSoC6\pdl\drivers/peripheral/scb/cy_scb_uart.h **** ********************************************************************************
 104:Generated_Source\PSoC6\pdl\drivers/peripheral/scb/cy_scb_uart.h **** * To get the UART to operate with the desired baud rate, the clk_scb frequency
 105:Generated_Source\PSoC6\pdl\drivers/peripheral/scb/cy_scb_uart.h **** * and the oversample must be configured. Use the \ref group_sysclk driver API
 106:Generated_Source\PSoC6\pdl\drivers/peripheral/scb/cy_scb_uart.h **** * to configure clk_scb frequency. Set the <em><b>oversample parameter
 107:Generated_Source\PSoC6\pdl\drivers/peripheral/scb/cy_scb_uart.h **** * in configuration structure</b></em> to define the number of the SCB clocks
 108:Generated_Source\PSoC6\pdl\drivers/peripheral/scb/cy_scb_uart.h **** * within one UART bit-time.
 109:Generated_Source\PSoC6\pdl\drivers/peripheral/scb/cy_scb_uart.h **** *
 110:Generated_Source\PSoC6\pdl\drivers/peripheral/scb/cy_scb_uart.h **** * \snippet SCB_CompDatasheet_sut_01_revA.cydsn\uart_snippets.c UART_CFG_DATA_RATE
 111:Generated_Source\PSoC6\pdl\drivers/peripheral/scb/cy_scb_uart.h **** *
 112:Generated_Source\PSoC6\pdl\drivers/peripheral/scb/cy_scb_uart.h **** * <b>Refer to the technical reference manual (TRM) section UART sub-section
 113:Generated_Source\PSoC6\pdl\drivers/peripheral/scb/cy_scb_uart.h **** * Clocking and Oversampling to get information about how to configure the UART to run with
 114:Generated_Source\PSoC6\pdl\drivers/peripheral/scb/cy_scb_uart.h **** * desired baud rate.</b>
 115:Generated_Source\PSoC6\pdl\drivers/peripheral/scb/cy_scb_uart.h **** *
 116:Generated_Source\PSoC6\pdl\drivers/peripheral/scb/cy_scb_uart.h **** ********************************************************************************
 117:Generated_Source\PSoC6\pdl\drivers/peripheral/scb/cy_scb_uart.h **** * \subsection group_scb_uart_intr Configure Interrupt
 118:Generated_Source\PSoC6\pdl\drivers/peripheral/scb/cy_scb_uart.h **** ********************************************************************************
 119:Generated_Source\PSoC6\pdl\drivers/peripheral/scb/cy_scb_uart.h **** * The interrupt is optional for the UART operation. To configure interrupt
 120:Generated_Source\PSoC6\pdl\drivers/peripheral/scb/cy_scb_uart.h **** * the \ref Cy_SCB_UART_Interrupt function must be called in the interrupt
 121:Generated_Source\PSoC6\pdl\drivers/peripheral/scb/cy_scb_uart.h **** * handler for the selected SCB instance. Also, this interrupt must be enabled
 122:Generated_Source\PSoC6\pdl\drivers/peripheral/scb/cy_scb_uart.h **** * in the NVIC.
 123:Generated_Source\PSoC6\pdl\drivers/peripheral/scb/cy_scb_uart.h **** * The interrupt must be configured when \ref group_scb_uart_hl will be used.
 124:Generated_Source\PSoC6\pdl\drivers/peripheral/scb/cy_scb_uart.h **** *
 125:Generated_Source\PSoC6\pdl\drivers/peripheral/scb/cy_scb_uart.h **** * \snippet SCB_CompDatasheet_sut_01_revA.cydsn\uart_snippets.c UART_INTR_A
 126:Generated_Source\PSoC6\pdl\drivers/peripheral/scb/cy_scb_uart.h **** * \snippet SCB_CompDatasheet_sut_01_revA.cydsn\uart_snippets.c UART_INTR_B
 127:Generated_Source\PSoC6\pdl\drivers/peripheral/scb/cy_scb_uart.h **** *
 128:Generated_Source\PSoC6\pdl\drivers/peripheral/scb/cy_scb_uart.h **** ********************************************************************************
 129:Generated_Source\PSoC6\pdl\drivers/peripheral/scb/cy_scb_uart.h **** * \subsection group_scb_uart_enable Enable UART
ARM GAS  C:\Users\markm\AppData\Local\Temp\ccdXMT0L.s 			page 9


 130:Generated_Source\PSoC6\pdl\drivers/peripheral/scb/cy_scb_uart.h **** ********************************************************************************
 131:Generated_Source\PSoC6\pdl\drivers/peripheral/scb/cy_scb_uart.h **** * Finally, enable the UART operation by calling \ref Cy_SCB_UART_Enable.
 132:Generated_Source\PSoC6\pdl\drivers/peripheral/scb/cy_scb_uart.h **** *
 133:Generated_Source\PSoC6\pdl\drivers/peripheral/scb/cy_scb_uart.h **** * \snippet SCB_CompDatasheet_sut_01_revA.cydsn\uart_snippets.c UART_ENABLE
 134:Generated_Source\PSoC6\pdl\drivers/peripheral/scb/cy_scb_uart.h **** *
 135:Generated_Source\PSoC6\pdl\drivers/peripheral/scb/cy_scb_uart.h **** ********************************************************************************
 136:Generated_Source\PSoC6\pdl\drivers/peripheral/scb/cy_scb_uart.h **** * \section group_scb_uart_use_cases Common Use Cases
 137:Generated_Source\PSoC6\pdl\drivers/peripheral/scb/cy_scb_uart.h **** ********************************************************************************
 138:Generated_Source\PSoC6\pdl\drivers/peripheral/scb/cy_scb_uart.h **** * The UART API is divided into two categories: \ref group_scb_uart_low_level_functions
 139:Generated_Source\PSoC6\pdl\drivers/peripheral/scb/cy_scb_uart.h **** * and \ref group_scb_uart_high_level_functions. \n
 140:Generated_Source\PSoC6\pdl\drivers/peripheral/scb/cy_scb_uart.h **** * <em>Do not mix <b>High-Level</b> and <b>Low-Level</b> API because a Low-Level
 141:Generated_Source\PSoC6\pdl\drivers/peripheral/scb/cy_scb_uart.h **** * API can adversely affect the operation of a High-Level API.</em>
 142:Generated_Source\PSoC6\pdl\drivers/peripheral/scb/cy_scb_uart.h **** *
 143:Generated_Source\PSoC6\pdl\drivers/peripheral/scb/cy_scb_uart.h **** ********************************************************************************
 144:Generated_Source\PSoC6\pdl\drivers/peripheral/scb/cy_scb_uart.h **** * \subsection group_scb_uart_ll Low-Level API
 145:Generated_Source\PSoC6\pdl\drivers/peripheral/scb/cy_scb_uart.h **** ********************************************************************************
 146:Generated_Source\PSoC6\pdl\drivers/peripheral/scb/cy_scb_uart.h **** * The \ref group_scb_uart_low_level_functions functions allow
 147:Generated_Source\PSoC6\pdl\drivers/peripheral/scb/cy_scb_uart.h **** * interacting directly with the hardware and do not use \ref Cy_SCB_UART_Interrupt.
 148:Generated_Source\PSoC6\pdl\drivers/peripheral/scb/cy_scb_uart.h **** * These functions do not require context for operation. Thus, NULL can be
 149:Generated_Source\PSoC6\pdl\drivers/peripheral/scb/cy_scb_uart.h **** * passed for context parameter in \ref Cy_SCB_UART_Init and \ref Cy_SCB_UART_Disable 
 150:Generated_Source\PSoC6\pdl\drivers/peripheral/scb/cy_scb_uart.h **** * instead of a pointer to the context structure.
 151:Generated_Source\PSoC6\pdl\drivers/peripheral/scb/cy_scb_uart.h **** *
 152:Generated_Source\PSoC6\pdl\drivers/peripheral/scb/cy_scb_uart.h **** * * To write data into the TX FIFO, use one of the provided functions:
 153:Generated_Source\PSoC6\pdl\drivers/peripheral/scb/cy_scb_uart.h **** *   \ref Cy_SCB_UART_Put, \ref Cy_SCB_UART_PutArray,
 154:Generated_Source\PSoC6\pdl\drivers/peripheral/scb/cy_scb_uart.h **** *   \ref Cy_SCB_UART_PutArrayBlocking or \ref Cy_SCB_UART_PutString.
 155:Generated_Source\PSoC6\pdl\drivers/peripheral/scb/cy_scb_uart.h **** *   Note that putting data into the TX FIFO starts data transfer.
 156:Generated_Source\PSoC6\pdl\drivers/peripheral/scb/cy_scb_uart.h **** *
 157:Generated_Source\PSoC6\pdl\drivers/peripheral/scb/cy_scb_uart.h **** * * To read data from the RX FIFO, use one of the provided functions:
 158:Generated_Source\PSoC6\pdl\drivers/peripheral/scb/cy_scb_uart.h **** *   \ref Cy_SCB_UART_Get, \ref Cy_SCB_UART_GetArray or
 159:Generated_Source\PSoC6\pdl\drivers/peripheral/scb/cy_scb_uart.h **** *   \ref Cy_SCB_UART_GetArrayBlocking.
 160:Generated_Source\PSoC6\pdl\drivers/peripheral/scb/cy_scb_uart.h **** *
 161:Generated_Source\PSoC6\pdl\drivers/peripheral/scb/cy_scb_uart.h **** * * The statuses can be polled using: \ref Cy_SCB_UART_GetRxFifoStatus and
 162:Generated_Source\PSoC6\pdl\drivers/peripheral/scb/cy_scb_uart.h **** *   \ref Cy_SCB_UART_GetTxFifoStatus.
 163:Generated_Source\PSoC6\pdl\drivers/peripheral/scb/cy_scb_uart.h **** *   <em>The statuses are <b>W1C (Write 1 to Clear)</b> and after a status
 164:Generated_Source\PSoC6\pdl\drivers/peripheral/scb/cy_scb_uart.h **** *   is set, it must be cleared.</em> Note that there are statuses evaluated as level.
 165:Generated_Source\PSoC6\pdl\drivers/peripheral/scb/cy_scb_uart.h **** *   These statuses remain set until an event is true. Therefore, after the clear
 166:Generated_Source\PSoC6\pdl\drivers/peripheral/scb/cy_scb_uart.h **** *   operation, the status is cleared but then it is restored (if event is still
 167:Generated_Source\PSoC6\pdl\drivers/peripheral/scb/cy_scb_uart.h **** *   true).
 168:Generated_Source\PSoC6\pdl\drivers/peripheral/scb/cy_scb_uart.h **** *   Also, the following functions can be used for polling as well
 169:Generated_Source\PSoC6\pdl\drivers/peripheral/scb/cy_scb_uart.h **** *   \ref Cy_SCB_UART_IsTxComplete, \ref Cy_SCB_UART_GetNumInRxFifo and
 170:Generated_Source\PSoC6\pdl\drivers/peripheral/scb/cy_scb_uart.h **** *   \ref Cy_SCB_UART_GetNumInTxFifo.
 171:Generated_Source\PSoC6\pdl\drivers/peripheral/scb/cy_scb_uart.h **** *
 172:Generated_Source\PSoC6\pdl\drivers/peripheral/scb/cy_scb_uart.h **** * \snippet SCB_CompDatasheet_sut_01_revA.cydsn\uart_snippets.c UART_TRANSMIT_DATA_LL
 173:Generated_Source\PSoC6\pdl\drivers/peripheral/scb/cy_scb_uart.h **** *
 174:Generated_Source\PSoC6\pdl\drivers/peripheral/scb/cy_scb_uart.h **** ********************************************************************************
 175:Generated_Source\PSoC6\pdl\drivers/peripheral/scb/cy_scb_uart.h **** * \subsection group_scb_uart_hl High-Level API
 176:Generated_Source\PSoC6\pdl\drivers/peripheral/scb/cy_scb_uart.h **** ********************************************************************************
 177:Generated_Source\PSoC6\pdl\drivers/peripheral/scb/cy_scb_uart.h **** * The \ref group_scb_uart_high_level_functions API use \ref Cy_SCB_UART_Interrupt
 178:Generated_Source\PSoC6\pdl\drivers/peripheral/scb/cy_scb_uart.h **** * to execute the transfer. Call \ref Cy_SCB_UART_Transmit to start transmission.
 179:Generated_Source\PSoC6\pdl\drivers/peripheral/scb/cy_scb_uart.h **** * Call \ref Cy_SCB_UART_Receive to start receive operation. After the
 180:Generated_Source\PSoC6\pdl\drivers/peripheral/scb/cy_scb_uart.h **** * operation is started the \ref Cy_SCB_UART_Interrupt handles the data
 181:Generated_Source\PSoC6\pdl\drivers/peripheral/scb/cy_scb_uart.h **** * transfer until its completion.
 182:Generated_Source\PSoC6\pdl\drivers/peripheral/scb/cy_scb_uart.h **** * Therefore \ref Cy_SCB_UART_Interrupt must be called inside the user 
 183:Generated_Source\PSoC6\pdl\drivers/peripheral/scb/cy_scb_uart.h **** * interrupt handler to make the High-Level API work. To monitor status
 184:Generated_Source\PSoC6\pdl\drivers/peripheral/scb/cy_scb_uart.h **** * of transmit operation, use \ref Cy_SCB_UART_GetTransmitStatus and
 185:Generated_Source\PSoC6\pdl\drivers/peripheral/scb/cy_scb_uart.h **** * \ref Cy_SCB_UART_GetReceiveStatus to monitor receive status appropriately.
 186:Generated_Source\PSoC6\pdl\drivers/peripheral/scb/cy_scb_uart.h **** * Alternatively use \ref Cy_SCB_UART_RegisterCallback to register callback
ARM GAS  C:\Users\markm\AppData\Local\Temp\ccdXMT0L.s 			page 10


 187:Generated_Source\PSoC6\pdl\drivers/peripheral/scb/cy_scb_uart.h **** * function to be notified about \ref group_scb_uart_macros_callback_events.
 188:Generated_Source\PSoC6\pdl\drivers/peripheral/scb/cy_scb_uart.h **** *
 189:Generated_Source\PSoC6\pdl\drivers/peripheral/scb/cy_scb_uart.h **** * <b>Receive Operation</b>
 190:Generated_Source\PSoC6\pdl\drivers/peripheral/scb/cy_scb_uart.h **** * \snippet SCB_CompDatasheet_sut_01_revA.cydsn\uart_snippets.c UART_RECEIVE_DATA_HL
 191:Generated_Source\PSoC6\pdl\drivers/peripheral/scb/cy_scb_uart.h **** *
 192:Generated_Source\PSoC6\pdl\drivers/peripheral/scb/cy_scb_uart.h **** * <b>Transmit Operation</b>
 193:Generated_Source\PSoC6\pdl\drivers/peripheral/scb/cy_scb_uart.h **** * \snippet SCB_CompDatasheet_sut_01_revA.cydsn\uart_snippets.c UART_TRANSMIT_DATA_HL
 194:Generated_Source\PSoC6\pdl\drivers/peripheral/scb/cy_scb_uart.h **** *
 195:Generated_Source\PSoC6\pdl\drivers/peripheral/scb/cy_scb_uart.h **** * There is also capability to insert a receive ring buffer that operates between
 196:Generated_Source\PSoC6\pdl\drivers/peripheral/scb/cy_scb_uart.h **** * the RX FIFO and the user buffer. The received data is copied into the ring
 197:Generated_Source\PSoC6\pdl\drivers/peripheral/scb/cy_scb_uart.h **** * buffer from the RX FIFO. This process runs in the background after the ring
 198:Generated_Source\PSoC6\pdl\drivers/peripheral/scb/cy_scb_uart.h **** * buffer operation is started by \ref Cy_SCB_UART_StartRingBuffer.
 199:Generated_Source\PSoC6\pdl\drivers/peripheral/scb/cy_scb_uart.h **** * When \ref Cy_SCB_UART_Receive is called, it first reads data from the ring
 200:Generated_Source\PSoC6\pdl\drivers/peripheral/scb/cy_scb_uart.h **** * buffer and then sets up an interrupt to receive more data if the required
 201:Generated_Source\PSoC6\pdl\drivers/peripheral/scb/cy_scb_uart.h **** * amount has not yet been read.
 202:Generated_Source\PSoC6\pdl\drivers/peripheral/scb/cy_scb_uart.h **** *
 203:Generated_Source\PSoC6\pdl\drivers/peripheral/scb/cy_scb_uart.h **** ********************************************************************************
 204:Generated_Source\PSoC6\pdl\drivers/peripheral/scb/cy_scb_uart.h **** * \section group_scb_uart_dma_trig DMA Trigger
 205:Generated_Source\PSoC6\pdl\drivers/peripheral/scb/cy_scb_uart.h **** ********************************************************************************
 206:Generated_Source\PSoC6\pdl\drivers/peripheral/scb/cy_scb_uart.h **** * The SCB provides TX and RX output trigger signals that can be routed to the
 207:Generated_Source\PSoC6\pdl\drivers/peripheral/scb/cy_scb_uart.h **** * DMA controller inputs. These signals are assigned based on the data availability
 208:Generated_Source\PSoC6\pdl\drivers/peripheral/scb/cy_scb_uart.h **** * in the TX and RX FIFOs appropriately.
 209:Generated_Source\PSoC6\pdl\drivers/peripheral/scb/cy_scb_uart.h **** *
 210:Generated_Source\PSoC6\pdl\drivers/peripheral/scb/cy_scb_uart.h **** * * The RX trigger signal is active while the number of data
 211:Generated_Source\PSoC6\pdl\drivers/peripheral/scb/cy_scb_uart.h **** *   elements in the RX FIFO is greater than the value of RX FIFO level. Use
 212:Generated_Source\PSoC6\pdl\drivers/peripheral/scb/cy_scb_uart.h **** *   function \ref Cy_SCB_SetRxFifoLevel or set configuration structure
 213:Generated_Source\PSoC6\pdl\drivers/peripheral/scb/cy_scb_uart.h **** *   rxFifoTriggerLevel parameter to configure RX FIFO level value. \n
 214:Generated_Source\PSoC6\pdl\drivers/peripheral/scb/cy_scb_uart.h **** *   <em>For example, the RX FIFO has 8 data elements and the RX FIFO level is 0.
 215:Generated_Source\PSoC6\pdl\drivers/peripheral/scb/cy_scb_uart.h **** *   The RX trigger signal is active until DMA reads all data from
 216:Generated_Source\PSoC6\pdl\drivers/peripheral/scb/cy_scb_uart.h **** *   the RX FIFO.</em>
 217:Generated_Source\PSoC6\pdl\drivers/peripheral/scb/cy_scb_uart.h **** *
 218:Generated_Source\PSoC6\pdl\drivers/peripheral/scb/cy_scb_uart.h **** * * The TX trigger signal is active while the number of data elements
 219:Generated_Source\PSoC6\pdl\drivers/peripheral/scb/cy_scb_uart.h **** *   in the TX FIFO is less than the value of TX FIFO level. Use function
 220:Generated_Source\PSoC6\pdl\drivers/peripheral/scb/cy_scb_uart.h **** *   \ref Cy_SCB_SetTxFifoLevel or set configuration structure txFifoTriggerLevel
 221:Generated_Source\PSoC6\pdl\drivers/peripheral/scb/cy_scb_uart.h **** *   parameter to configure TX FIFO level value. \n
 222:Generated_Source\PSoC6\pdl\drivers/peripheral/scb/cy_scb_uart.h **** *   <em>For example, the TX FIFO has 0 data elements (empty) and the TX FIFO level
 223:Generated_Source\PSoC6\pdl\drivers/peripheral/scb/cy_scb_uart.h **** *   is 7. The TX trigger signal is active until DMA loads TX FIFO
 224:Generated_Source\PSoC6\pdl\drivers/peripheral/scb/cy_scb_uart.h **** *   with 8 data elements (note that after the first TX load operation, the data 
 225:Generated_Source\PSoC6\pdl\drivers/peripheral/scb/cy_scb_uart.h **** *   element goes to the shift register and TX FIFO is empty).</em>
 226:Generated_Source\PSoC6\pdl\drivers/peripheral/scb/cy_scb_uart.h **** *
 227:Generated_Source\PSoC6\pdl\drivers/peripheral/scb/cy_scb_uart.h **** * To route SCB TX or RX trigger signals to DMA controller use \ref group_trigmux
 228:Generated_Source\PSoC6\pdl\drivers/peripheral/scb/cy_scb_uart.h **** * driver API.
 229:Generated_Source\PSoC6\pdl\drivers/peripheral/scb/cy_scb_uart.h **** *
 230:Generated_Source\PSoC6\pdl\drivers/peripheral/scb/cy_scb_uart.h **** * \note
 231:Generated_Source\PSoC6\pdl\drivers/peripheral/scb/cy_scb_uart.h **** * To properly handle DMA level request signal activation and de-activation from the SCB
 232:Generated_Source\PSoC6\pdl\drivers/peripheral/scb/cy_scb_uart.h **** * peripheral block the DMA Descriptor typically must be configured to re-trigger
 233:Generated_Source\PSoC6\pdl\drivers/peripheral/scb/cy_scb_uart.h **** * after 16 Clk_Slow cycles.
 234:Generated_Source\PSoC6\pdl\drivers/peripheral/scb/cy_scb_uart.h **** *
 235:Generated_Source\PSoC6\pdl\drivers/peripheral/scb/cy_scb_uart.h **** ********************************************************************************
 236:Generated_Source\PSoC6\pdl\drivers/peripheral/scb/cy_scb_uart.h **** * \section group_scb_uart_lp Low Power Support
 237:Generated_Source\PSoC6\pdl\drivers/peripheral/scb/cy_scb_uart.h **** ********************************************************************************
 238:Generated_Source\PSoC6\pdl\drivers/peripheral/scb/cy_scb_uart.h **** * The UART driver provides callback functions to handle power mode
 239:Generated_Source\PSoC6\pdl\drivers/peripheral/scb/cy_scb_uart.h **** * transition. The callback \ref Cy_SCB_UART_DeepSleepCallback must be called
 240:Generated_Source\PSoC6\pdl\drivers/peripheral/scb/cy_scb_uart.h **** * during execution of \ref Cy_SysPm_CpuEnterDeepSleep \ref Cy_SCB_UART_HibernateCallback
 241:Generated_Source\PSoC6\pdl\drivers/peripheral/scb/cy_scb_uart.h **** * must be called during execution of \ref Cy_SysPm_SystemEnterHibernate. To trigger the
 242:Generated_Source\PSoC6\pdl\drivers/peripheral/scb/cy_scb_uart.h **** * callback execution, the callback must be registered before calling the
 243:Generated_Source\PSoC6\pdl\drivers/peripheral/scb/cy_scb_uart.h **** * power mode transition function. Refer to \ref group_syspm driver for more
ARM GAS  C:\Users\markm\AppData\Local\Temp\ccdXMT0L.s 			page 11


 244:Generated_Source\PSoC6\pdl\drivers/peripheral/scb/cy_scb_uart.h **** * information about power mode transitions and callback registration.
 245:Generated_Source\PSoC6\pdl\drivers/peripheral/scb/cy_scb_uart.h **** *
 246:Generated_Source\PSoC6\pdl\drivers/peripheral/scb/cy_scb_uart.h **** * The UART is disabled during Deep Sleep and Hibernate and stops driving 
 247:Generated_Source\PSoC6\pdl\drivers/peripheral/scb/cy_scb_uart.h **** * the output pins. The state of the UART output pins TX and RTS is High-Z, 
 248:Generated_Source\PSoC6\pdl\drivers/peripheral/scb/cy_scb_uart.h **** * which can cause unexpected behavior of the UART receiver due to possible
 249:Generated_Source\PSoC6\pdl\drivers/peripheral/scb/cy_scb_uart.h **** * glitches on these lines. These pins must be set to the inactive state before 
 250:Generated_Source\PSoC6\pdl\drivers/peripheral/scb/cy_scb_uart.h **** * entering Deep Sleep or Hibernate mode.
 251:Generated_Source\PSoC6\pdl\drivers/peripheral/scb/cy_scb_uart.h **** * These pins must keep the inactive level (the same state 
 252:Generated_Source\PSoC6\pdl\drivers/peripheral/scb/cy_scb_uart.h **** * when UART TX is enabled and does not transfer data) before entering Deep 
 253:Generated_Source\PSoC6\pdl\drivers/peripheral/scb/cy_scb_uart.h **** * Sleep or Hibernate mode. To do that, write the GPIO data register of each pin 
 254:Generated_Source\PSoC6\pdl\drivers/peripheral/scb/cy_scb_uart.h **** * to the inactive level for each output pin. Then configure High-Speed Input 
 255:Generated_Source\PSoC6\pdl\drivers/peripheral/scb/cy_scb_uart.h **** * Output Multiplexer (HSIOM) of each pin to be controlled by the GPIO (use 
 256:Generated_Source\PSoC6\pdl\drivers/peripheral/scb/cy_scb_uart.h **** * \ref group_gpio driver API). After exiting Deep Sleep mode the UART 
 257:Generated_Source\PSoC6\pdl\drivers/peripheral/scb/cy_scb_uart.h **** * must be enabled and the pins configuration restored to return the 
 258:Generated_Source\PSoC6\pdl\drivers/peripheral/scb/cy_scb_uart.h **** * UART control of the pins (after exiting Hibernate mode, the 
 259:Generated_Source\PSoC6\pdl\drivers/peripheral/scb/cy_scb_uart.h **** * system initialization code does the same). Copy either or 
 260:Generated_Source\PSoC6\pdl\drivers/peripheral/scb/cy_scb_uart.h **** * both \ref Cy_SCB_UART_DeepSleepCallback and \ref Cy_SCB_UART_HibernateCallback 
 261:Generated_Source\PSoC6\pdl\drivers/peripheral/scb/cy_scb_uart.h **** * as appropriate, and make the changes described above inside the function.
 262:Generated_Source\PSoC6\pdl\drivers/peripheral/scb/cy_scb_uart.h **** * Alternately, external pull-up or pull-down resistors can be connected 
 263:Generated_Source\PSoC6\pdl\drivers/peripheral/scb/cy_scb_uart.h **** * to the appropriate UART lines to keep them inactive during Deep-Sleep or 
 264:Generated_Source\PSoC6\pdl\drivers/peripheral/scb/cy_scb_uart.h **** * Hibernate.
 265:Generated_Source\PSoC6\pdl\drivers/peripheral/scb/cy_scb_uart.h **** *
 266:Generated_Source\PSoC6\pdl\drivers/peripheral/scb/cy_scb_uart.h **** ********************************************************************************
 267:Generated_Source\PSoC6\pdl\drivers/peripheral/scb/cy_scb_uart.h **** * \section group_scb_uart_more_information More Information
 268:Generated_Source\PSoC6\pdl\drivers/peripheral/scb/cy_scb_uart.h **** ********************************************************************************
 269:Generated_Source\PSoC6\pdl\drivers/peripheral/scb/cy_scb_uart.h **** * For more information on the SCB peripheral, refer to the technical reference
 270:Generated_Source\PSoC6\pdl\drivers/peripheral/scb/cy_scb_uart.h **** * manual (TRM).
 271:Generated_Source\PSoC6\pdl\drivers/peripheral/scb/cy_scb_uart.h **** *
 272:Generated_Source\PSoC6\pdl\drivers/peripheral/scb/cy_scb_uart.h **** ********************************************************************************
 273:Generated_Source\PSoC6\pdl\drivers/peripheral/scb/cy_scb_uart.h **** * \section group_scb_uart_MISRA MISRA-C Compliance
 274:Generated_Source\PSoC6\pdl\drivers/peripheral/scb/cy_scb_uart.h **** ********************************************************************************
 275:Generated_Source\PSoC6\pdl\drivers/peripheral/scb/cy_scb_uart.h **** * <table class="doxtable">
 276:Generated_Source\PSoC6\pdl\drivers/peripheral/scb/cy_scb_uart.h **** *   <tr>
 277:Generated_Source\PSoC6\pdl\drivers/peripheral/scb/cy_scb_uart.h **** *     <th>MISRA Rule</th>
 278:Generated_Source\PSoC6\pdl\drivers/peripheral/scb/cy_scb_uart.h **** *     <th>Rule Class (Required/Advisory)</th>
 279:Generated_Source\PSoC6\pdl\drivers/peripheral/scb/cy_scb_uart.h **** *     <th>Rule Description</th>
 280:Generated_Source\PSoC6\pdl\drivers/peripheral/scb/cy_scb_uart.h **** *     <th>Description of Deviation(s)</th>
 281:Generated_Source\PSoC6\pdl\drivers/peripheral/scb/cy_scb_uart.h **** *   </tr>
 282:Generated_Source\PSoC6\pdl\drivers/peripheral/scb/cy_scb_uart.h **** *   <tr>
 283:Generated_Source\PSoC6\pdl\drivers/peripheral/scb/cy_scb_uart.h **** *     <td>11.4</td>
 284:Generated_Source\PSoC6\pdl\drivers/peripheral/scb/cy_scb_uart.h **** *     <td>A</td>
 285:Generated_Source\PSoC6\pdl\drivers/peripheral/scb/cy_scb_uart.h **** *     <td>A cast should not be performed between a pointer to object type and
 286:Generated_Source\PSoC6\pdl\drivers/peripheral/scb/cy_scb_uart.h **** *         a different pointer to object type.</td>
 287:Generated_Source\PSoC6\pdl\drivers/peripheral/scb/cy_scb_uart.h **** *     <td>
 288:Generated_Source\PSoC6\pdl\drivers/peripheral/scb/cy_scb_uart.h **** *         * The pointer to the buffer memory is void to allow handling different
 289:Generated_Source\PSoC6\pdl\drivers/peripheral/scb/cy_scb_uart.h **** *         different data types: uint8_t (4-8 bits) or uint16_t (9-16 bits).
 290:Generated_Source\PSoC6\pdl\drivers/peripheral/scb/cy_scb_uart.h **** *         The cast operation is safe because the configuration is verified
 291:Generated_Source\PSoC6\pdl\drivers/peripheral/scb/cy_scb_uart.h **** *         before operation is performed.
 292:Generated_Source\PSoC6\pdl\drivers/peripheral/scb/cy_scb_uart.h **** *         * The functions \ref Cy_SCB_UART_DeepSleepCallback and
 293:Generated_Source\PSoC6\pdl\drivers/peripheral/scb/cy_scb_uart.h **** *         \ref Cy_SCB_UART_HibernateCallback are callback of
 294:Generated_Source\PSoC6\pdl\drivers/peripheral/scb/cy_scb_uart.h **** *         \ref cy_en_syspm_status_t type. The cast operation safety in these
 295:Generated_Source\PSoC6\pdl\drivers/peripheral/scb/cy_scb_uart.h **** *         functions becomes the user's responsibility because pointers are
 296:Generated_Source\PSoC6\pdl\drivers/peripheral/scb/cy_scb_uart.h **** *         initialized when callback is registered in SysPm driver.</td>
 297:Generated_Source\PSoC6\pdl\drivers/peripheral/scb/cy_scb_uart.h **** *   </tr>
 298:Generated_Source\PSoC6\pdl\drivers/peripheral/scb/cy_scb_uart.h **** *   <tr>
 299:Generated_Source\PSoC6\pdl\drivers/peripheral/scb/cy_scb_uart.h **** *     <td>14.2</td>
 300:Generated_Source\PSoC6\pdl\drivers/peripheral/scb/cy_scb_uart.h **** *     <td>R</td>
ARM GAS  C:\Users\markm\AppData\Local\Temp\ccdXMT0L.s 			page 12


 301:Generated_Source\PSoC6\pdl\drivers/peripheral/scb/cy_scb_uart.h **** *     <td>All non-null statements shall either: a) have at least one side-effect
 302:Generated_Source\PSoC6\pdl\drivers/peripheral/scb/cy_scb_uart.h **** *         however executed, or b) cause control flow to change.</td>
 303:Generated_Source\PSoC6\pdl\drivers/peripheral/scb/cy_scb_uart.h **** *     <td>The unused function parameters are cast to void. This statement
 304:Generated_Source\PSoC6\pdl\drivers/peripheral/scb/cy_scb_uart.h **** *         has no side-effect and is used to suppress a compiler warning.</td>
 305:Generated_Source\PSoC6\pdl\drivers/peripheral/scb/cy_scb_uart.h **** *   </tr>
 306:Generated_Source\PSoC6\pdl\drivers/peripheral/scb/cy_scb_uart.h **** *   <tr>
 307:Generated_Source\PSoC6\pdl\drivers/peripheral/scb/cy_scb_uart.h **** *     <td>14.7</td>
 308:Generated_Source\PSoC6\pdl\drivers/peripheral/scb/cy_scb_uart.h **** *     <td>R</td>
 309:Generated_Source\PSoC6\pdl\drivers/peripheral/scb/cy_scb_uart.h **** *     <td>A function shall have a single point of exit at the end of the
 310:Generated_Source\PSoC6\pdl\drivers/peripheral/scb/cy_scb_uart.h **** *         function.</td>
 311:Generated_Source\PSoC6\pdl\drivers/peripheral/scb/cy_scb_uart.h **** *     <td>The functions can return from several points. This is done to improve
 312:Generated_Source\PSoC6\pdl\drivers/peripheral/scb/cy_scb_uart.h **** *         code clarity when returning error status code if input parameters
 313:Generated_Source\PSoC6\pdl\drivers/peripheral/scb/cy_scb_uart.h **** *         validation fails.</td>
 314:Generated_Source\PSoC6\pdl\drivers/peripheral/scb/cy_scb_uart.h **** *   </tr>
 315:Generated_Source\PSoC6\pdl\drivers/peripheral/scb/cy_scb_uart.h **** * </table>
 316:Generated_Source\PSoC6\pdl\drivers/peripheral/scb/cy_scb_uart.h **** *
 317:Generated_Source\PSoC6\pdl\drivers/peripheral/scb/cy_scb_uart.h **** * \section group_scb_uart_changelog Changelog
 318:Generated_Source\PSoC6\pdl\drivers/peripheral/scb/cy_scb_uart.h **** * <table class="doxtable">
 319:Generated_Source\PSoC6\pdl\drivers/peripheral/scb/cy_scb_uart.h **** *   <tr><th>Version</th><th>Changes</th><th>Reason for Change</th></tr>
 320:Generated_Source\PSoC6\pdl\drivers/peripheral/scb/cy_scb_uart.h **** *   <tr>
 321:Generated_Source\PSoC6\pdl\drivers/peripheral/scb/cy_scb_uart.h **** *     <td rowspan="2">2.20</td>
 322:Generated_Source\PSoC6\pdl\drivers/peripheral/scb/cy_scb_uart.h **** *     <td>Flattened the organization of the driver source code into the single 
 323:Generated_Source\PSoC6\pdl\drivers/peripheral/scb/cy_scb_uart.h **** *         source directory and the single include directory.
 324:Generated_Source\PSoC6\pdl\drivers/peripheral/scb/cy_scb_uart.h **** *     </td>
 325:Generated_Source\PSoC6\pdl\drivers/peripheral/scb/cy_scb_uart.h **** *     <td>Driver library directory-structure simplification.</td>
 326:Generated_Source\PSoC6\pdl\drivers/peripheral/scb/cy_scb_uart.h **** *   </tr>
 327:Generated_Source\PSoC6\pdl\drivers/peripheral/scb/cy_scb_uart.h **** *   <tr>
 328:Generated_Source\PSoC6\pdl\drivers/peripheral/scb/cy_scb_uart.h **** *     <td>Added register access layer. Use register access macros instead
 329:Generated_Source\PSoC6\pdl\drivers/peripheral/scb/cy_scb_uart.h **** *         of direct register access using dereferenced pointers.</td>
 330:Generated_Source\PSoC6\pdl\drivers/peripheral/scb/cy_scb_uart.h **** *     <td>Makes register access device-independent, so that the PDL does 
 331:Generated_Source\PSoC6\pdl\drivers/peripheral/scb/cy_scb_uart.h **** *         not need to be recompiled for each supported part number.</td>
 332:Generated_Source\PSoC6\pdl\drivers/peripheral/scb/cy_scb_uart.h **** *   </tr>
 333:Generated_Source\PSoC6\pdl\drivers/peripheral/scb/cy_scb_uart.h **** *   <tr>
 334:Generated_Source\PSoC6\pdl\drivers/peripheral/scb/cy_scb_uart.h **** *     <td>2.10</td>
 335:Generated_Source\PSoC6\pdl\drivers/peripheral/scb/cy_scb_uart.h **** *     <td>None.</td>
 336:Generated_Source\PSoC6\pdl\drivers/peripheral/scb/cy_scb_uart.h **** *     <td>SCB I2C driver updated.</td>
 337:Generated_Source\PSoC6\pdl\drivers/peripheral/scb/cy_scb_uart.h **** *   </tr>
 338:Generated_Source\PSoC6\pdl\drivers/peripheral/scb/cy_scb_uart.h **** *   <tr>
 339:Generated_Source\PSoC6\pdl\drivers/peripheral/scb/cy_scb_uart.h **** *     <td rowspan="5">2.0</td>
 340:Generated_Source\PSoC6\pdl\drivers/peripheral/scb/cy_scb_uart.h **** *     <td>Added parameters validation for public API.</td>
 341:Generated_Source\PSoC6\pdl\drivers/peripheral/scb/cy_scb_uart.h **** *     <td></td>
 342:Generated_Source\PSoC6\pdl\drivers/peripheral/scb/cy_scb_uart.h **** *   </tr>
 343:Generated_Source\PSoC6\pdl\drivers/peripheral/scb/cy_scb_uart.h **** *   <tr>
 344:Generated_Source\PSoC6\pdl\drivers/peripheral/scb/cy_scb_uart.h **** *     <td>Replaced variables that have limited range of values with enumerated
 345:Generated_Source\PSoC6\pdl\drivers/peripheral/scb/cy_scb_uart.h **** *         types.</td>
 346:Generated_Source\PSoC6\pdl\drivers/peripheral/scb/cy_scb_uart.h **** *     <td></td>
 347:Generated_Source\PSoC6\pdl\drivers/peripheral/scb/cy_scb_uart.h **** *   </tr>
 348:Generated_Source\PSoC6\pdl\drivers/peripheral/scb/cy_scb_uart.h **** *   <tr>
 349:Generated_Source\PSoC6\pdl\drivers/peripheral/scb/cy_scb_uart.h **** *     <td>Added missing "cy_cb_" to the callback function type names.</td>
 350:Generated_Source\PSoC6\pdl\drivers/peripheral/scb/cy_scb_uart.h **** *     <td></td>
 351:Generated_Source\PSoC6\pdl\drivers/peripheral/scb/cy_scb_uart.h **** *   </tr>
 352:Generated_Source\PSoC6\pdl\drivers/peripheral/scb/cy_scb_uart.h **** *   <tr>
 353:Generated_Source\PSoC6\pdl\drivers/peripheral/scb/cy_scb_uart.h **** *     <td>Added function \ref Cy_SCB_UART_SendBreakBlocking for break condition
 354:Generated_Source\PSoC6\pdl\drivers/peripheral/scb/cy_scb_uart.h **** *         generation.</td>
 355:Generated_Source\PSoC6\pdl\drivers/peripheral/scb/cy_scb_uart.h **** *     <td></td>
 356:Generated_Source\PSoC6\pdl\drivers/peripheral/scb/cy_scb_uart.h **** *   </tr>
 357:Generated_Source\PSoC6\pdl\drivers/peripheral/scb/cy_scb_uart.h **** *   <tr>
ARM GAS  C:\Users\markm\AppData\Local\Temp\ccdXMT0L.s 			page 13


 358:Generated_Source\PSoC6\pdl\drivers/peripheral/scb/cy_scb_uart.h **** *     <td>Fixed low power callbacks \ref Cy_SCB_UART_DeepSleepCallback and
 359:Generated_Source\PSoC6\pdl\drivers/peripheral/scb/cy_scb_uart.h **** *         \ref Cy_SCB_UART_HibernateCallback to prevent the device from entering
 360:Generated_Source\PSoC6\pdl\drivers/peripheral/scb/cy_scb_uart.h **** *         low power mode when RX FIFO is not empty.</td>
 361:Generated_Source\PSoC6\pdl\drivers/peripheral/scb/cy_scb_uart.h **** *     <td>The callbacks allowed entering device into low power mode when RX FIFO
 362:Generated_Source\PSoC6\pdl\drivers/peripheral/scb/cy_scb_uart.h **** *         had data.</td>
 363:Generated_Source\PSoC6\pdl\drivers/peripheral/scb/cy_scb_uart.h **** *   </tr>
 364:Generated_Source\PSoC6\pdl\drivers/peripheral/scb/cy_scb_uart.h **** *   <tr>
 365:Generated_Source\PSoC6\pdl\drivers/peripheral/scb/cy_scb_uart.h **** *     <td>1.0</td>
 366:Generated_Source\PSoC6\pdl\drivers/peripheral/scb/cy_scb_uart.h **** *     <td>Initial version.</td>
 367:Generated_Source\PSoC6\pdl\drivers/peripheral/scb/cy_scb_uart.h **** *     <td></td>
 368:Generated_Source\PSoC6\pdl\drivers/peripheral/scb/cy_scb_uart.h **** *   </tr>
 369:Generated_Source\PSoC6\pdl\drivers/peripheral/scb/cy_scb_uart.h **** * </table>
 370:Generated_Source\PSoC6\pdl\drivers/peripheral/scb/cy_scb_uart.h **** *
 371:Generated_Source\PSoC6\pdl\drivers/peripheral/scb/cy_scb_uart.h **** * \defgroup group_scb_uart_macros Macros
 372:Generated_Source\PSoC6\pdl\drivers/peripheral/scb/cy_scb_uart.h **** * \defgroup group_scb_uart_functions Functions
 373:Generated_Source\PSoC6\pdl\drivers/peripheral/scb/cy_scb_uart.h **** * \{
 374:Generated_Source\PSoC6\pdl\drivers/peripheral/scb/cy_scb_uart.h **** * \defgroup group_scb_uart_general_functions General
 375:Generated_Source\PSoC6\pdl\drivers/peripheral/scb/cy_scb_uart.h **** * \defgroup group_scb_uart_high_level_functions High-Level
 376:Generated_Source\PSoC6\pdl\drivers/peripheral/scb/cy_scb_uart.h **** * \defgroup group_scb_uart_low_level_functions Low-Level
 377:Generated_Source\PSoC6\pdl\drivers/peripheral/scb/cy_scb_uart.h **** * \defgroup group_scb_uart_interrupt_functions Interrupt
 378:Generated_Source\PSoC6\pdl\drivers/peripheral/scb/cy_scb_uart.h **** * \defgroup group_scb_uart_low_power_functions Low Power Callbacks
 379:Generated_Source\PSoC6\pdl\drivers/peripheral/scb/cy_scb_uart.h **** * \}
 380:Generated_Source\PSoC6\pdl\drivers/peripheral/scb/cy_scb_uart.h **** * \defgroup group_scb_uart_data_structures Data Structures
 381:Generated_Source\PSoC6\pdl\drivers/peripheral/scb/cy_scb_uart.h **** * \defgroup group_scb_uart_enums Enumerated Types
 382:Generated_Source\PSoC6\pdl\drivers/peripheral/scb/cy_scb_uart.h **** */
 383:Generated_Source\PSoC6\pdl\drivers/peripheral/scb/cy_scb_uart.h **** 
 384:Generated_Source\PSoC6\pdl\drivers/peripheral/scb/cy_scb_uart.h **** #if !defined(CY_SCB_UART_H)
 385:Generated_Source\PSoC6\pdl\drivers/peripheral/scb/cy_scb_uart.h **** #define CY_SCB_UART_H
 386:Generated_Source\PSoC6\pdl\drivers/peripheral/scb/cy_scb_uart.h **** 
 387:Generated_Source\PSoC6\pdl\drivers/peripheral/scb/cy_scb_uart.h **** #include "cy_scb_common.h"
 388:Generated_Source\PSoC6\pdl\drivers/peripheral/scb/cy_scb_uart.h **** 
 389:Generated_Source\PSoC6\pdl\drivers/peripheral/scb/cy_scb_uart.h **** #if defined(__cplusplus)
 390:Generated_Source\PSoC6\pdl\drivers/peripheral/scb/cy_scb_uart.h **** extern "C" {
 391:Generated_Source\PSoC6\pdl\drivers/peripheral/scb/cy_scb_uart.h **** #endif
 392:Generated_Source\PSoC6\pdl\drivers/peripheral/scb/cy_scb_uart.h **** 
 393:Generated_Source\PSoC6\pdl\drivers/peripheral/scb/cy_scb_uart.h **** /***************************************
 394:Generated_Source\PSoC6\pdl\drivers/peripheral/scb/cy_scb_uart.h **** *          Enumerated Types
 395:Generated_Source\PSoC6\pdl\drivers/peripheral/scb/cy_scb_uart.h **** ***************************************/
 396:Generated_Source\PSoC6\pdl\drivers/peripheral/scb/cy_scb_uart.h **** 
 397:Generated_Source\PSoC6\pdl\drivers/peripheral/scb/cy_scb_uart.h **** /**
 398:Generated_Source\PSoC6\pdl\drivers/peripheral/scb/cy_scb_uart.h **** * \addtogroup group_scb_uart_enums
 399:Generated_Source\PSoC6\pdl\drivers/peripheral/scb/cy_scb_uart.h **** * \{
 400:Generated_Source\PSoC6\pdl\drivers/peripheral/scb/cy_scb_uart.h **** */
 401:Generated_Source\PSoC6\pdl\drivers/peripheral/scb/cy_scb_uart.h **** 
 402:Generated_Source\PSoC6\pdl\drivers/peripheral/scb/cy_scb_uart.h **** /** UART status codes */
 403:Generated_Source\PSoC6\pdl\drivers/peripheral/scb/cy_scb_uart.h **** typedef enum
 404:Generated_Source\PSoC6\pdl\drivers/peripheral/scb/cy_scb_uart.h **** {
 405:Generated_Source\PSoC6\pdl\drivers/peripheral/scb/cy_scb_uart.h ****     /** Operation completed successfully */
 406:Generated_Source\PSoC6\pdl\drivers/peripheral/scb/cy_scb_uart.h ****     CY_SCB_UART_SUCCESS = 0U,
 407:Generated_Source\PSoC6\pdl\drivers/peripheral/scb/cy_scb_uart.h **** 
 408:Generated_Source\PSoC6\pdl\drivers/peripheral/scb/cy_scb_uart.h ****     /** One or more of input parameters are invalid */
 409:Generated_Source\PSoC6\pdl\drivers/peripheral/scb/cy_scb_uart.h ****     CY_SCB_UART_BAD_PARAM = (CY_SCB_ID | CY_PDL_STATUS_ERROR | CY_SCB_UART_ID | 1U),
 410:Generated_Source\PSoC6\pdl\drivers/peripheral/scb/cy_scb_uart.h **** 
 411:Generated_Source\PSoC6\pdl\drivers/peripheral/scb/cy_scb_uart.h ****     /**
 412:Generated_Source\PSoC6\pdl\drivers/peripheral/scb/cy_scb_uart.h ****     * The UART is busy processing a receive operation.
 413:Generated_Source\PSoC6\pdl\drivers/peripheral/scb/cy_scb_uart.h ****     */
 414:Generated_Source\PSoC6\pdl\drivers/peripheral/scb/cy_scb_uart.h ****     CY_SCB_UART_RECEIVE_BUSY = (CY_SCB_ID | CY_PDL_STATUS_ERROR | CY_SCB_UART_ID | 2U),
ARM GAS  C:\Users\markm\AppData\Local\Temp\ccdXMT0L.s 			page 14


 415:Generated_Source\PSoC6\pdl\drivers/peripheral/scb/cy_scb_uart.h **** 
 416:Generated_Source\PSoC6\pdl\drivers/peripheral/scb/cy_scb_uart.h ****     /**
 417:Generated_Source\PSoC6\pdl\drivers/peripheral/scb/cy_scb_uart.h ****     * The UART is busy processing a transmit operation.
 418:Generated_Source\PSoC6\pdl\drivers/peripheral/scb/cy_scb_uart.h ****     */
 419:Generated_Source\PSoC6\pdl\drivers/peripheral/scb/cy_scb_uart.h ****     CY_SCB_UART_TRANSMIT_BUSY = (CY_SCB_ID | CY_PDL_STATUS_ERROR | CY_SCB_UART_ID | 3U)
 420:Generated_Source\PSoC6\pdl\drivers/peripheral/scb/cy_scb_uart.h **** } cy_en_scb_uart_status_t;
 421:Generated_Source\PSoC6\pdl\drivers/peripheral/scb/cy_scb_uart.h **** 
 422:Generated_Source\PSoC6\pdl\drivers/peripheral/scb/cy_scb_uart.h **** /** UART Mode */
 423:Generated_Source\PSoC6\pdl\drivers/peripheral/scb/cy_scb_uart.h **** typedef enum
 424:Generated_Source\PSoC6\pdl\drivers/peripheral/scb/cy_scb_uart.h **** {
 425:Generated_Source\PSoC6\pdl\drivers/peripheral/scb/cy_scb_uart.h ****     CY_SCB_UART_STANDARD  = 0U, /**< Configures the SCB for Standard UART operation */
 426:Generated_Source\PSoC6\pdl\drivers/peripheral/scb/cy_scb_uart.h ****     CY_SCB_UART_SMARTCARD = 1U, /**< Configures the SCB for SmartCard operation */
 427:Generated_Source\PSoC6\pdl\drivers/peripheral/scb/cy_scb_uart.h ****     CY_SCB_UART_IRDA      = 2U, /**< Configures the SCB for IrDA operation */
 428:Generated_Source\PSoC6\pdl\drivers/peripheral/scb/cy_scb_uart.h **** } cy_en_scb_uart_mode_t;
 429:Generated_Source\PSoC6\pdl\drivers/peripheral/scb/cy_scb_uart.h **** 
 430:Generated_Source\PSoC6\pdl\drivers/peripheral/scb/cy_scb_uart.h **** /** UART Stop Bits */
 431:Generated_Source\PSoC6\pdl\drivers/peripheral/scb/cy_scb_uart.h **** typedef enum
 432:Generated_Source\PSoC6\pdl\drivers/peripheral/scb/cy_scb_uart.h **** {
 433:Generated_Source\PSoC6\pdl\drivers/peripheral/scb/cy_scb_uart.h ****     CY_SCB_UART_STOP_BITS_1   = 2U,  /**< UART looks for 1 Stop Bit    */
 434:Generated_Source\PSoC6\pdl\drivers/peripheral/scb/cy_scb_uart.h ****     CY_SCB_UART_STOP_BITS_1_5 = 3U,  /**< UART looks for 1.5 Stop Bits */
 435:Generated_Source\PSoC6\pdl\drivers/peripheral/scb/cy_scb_uart.h ****     CY_SCB_UART_STOP_BITS_2   = 4U,  /**< UART looks for 2 Stop Bits   */
 436:Generated_Source\PSoC6\pdl\drivers/peripheral/scb/cy_scb_uart.h ****     CY_SCB_UART_STOP_BITS_2_5 = 5U,  /**< UART looks for 2.5 Stop Bits */
 437:Generated_Source\PSoC6\pdl\drivers/peripheral/scb/cy_scb_uart.h ****     CY_SCB_UART_STOP_BITS_3   = 6U,  /**< UART looks for 3 Stop Bits   */
 438:Generated_Source\PSoC6\pdl\drivers/peripheral/scb/cy_scb_uart.h ****     CY_SCB_UART_STOP_BITS_3_5 = 7U,  /**< UART looks for 3.5 Stop Bits */
 439:Generated_Source\PSoC6\pdl\drivers/peripheral/scb/cy_scb_uart.h ****     CY_SCB_UART_STOP_BITS_4   = 8U,  /**< UART looks for 4 Stop Bits   */
 440:Generated_Source\PSoC6\pdl\drivers/peripheral/scb/cy_scb_uart.h **** } cy_en_scb_uart_stop_bits_t;
 441:Generated_Source\PSoC6\pdl\drivers/peripheral/scb/cy_scb_uart.h **** 
 442:Generated_Source\PSoC6\pdl\drivers/peripheral/scb/cy_scb_uart.h **** /** UART Parity */
 443:Generated_Source\PSoC6\pdl\drivers/peripheral/scb/cy_scb_uart.h **** typedef enum
 444:Generated_Source\PSoC6\pdl\drivers/peripheral/scb/cy_scb_uart.h **** {
 445:Generated_Source\PSoC6\pdl\drivers/peripheral/scb/cy_scb_uart.h ****     CY_SCB_UART_PARITY_NONE = 0U,    /**< UART has no parity check   */
 446:Generated_Source\PSoC6\pdl\drivers/peripheral/scb/cy_scb_uart.h ****     CY_SCB_UART_PARITY_EVEN = 2U,    /**< UART has even parity check */
 447:Generated_Source\PSoC6\pdl\drivers/peripheral/scb/cy_scb_uart.h ****     CY_SCB_UART_PARITY_ODD  = 3U,    /**< UART has odd parity check  */
 448:Generated_Source\PSoC6\pdl\drivers/peripheral/scb/cy_scb_uart.h **** } cy_en_scb_uart_parity_t;
 449:Generated_Source\PSoC6\pdl\drivers/peripheral/scb/cy_scb_uart.h **** 
 450:Generated_Source\PSoC6\pdl\drivers/peripheral/scb/cy_scb_uart.h **** /** UART Polarity */
 451:Generated_Source\PSoC6\pdl\drivers/peripheral/scb/cy_scb_uart.h **** typedef enum
 452:Generated_Source\PSoC6\pdl\drivers/peripheral/scb/cy_scb_uart.h **** {
 453:Generated_Source\PSoC6\pdl\drivers/peripheral/scb/cy_scb_uart.h ****     CY_SCB_UART_ACTIVE_LOW  = 0U,   /**< Signal is active low */
 454:Generated_Source\PSoC6\pdl\drivers/peripheral/scb/cy_scb_uart.h ****     CY_SCB_UART_ACTIVE_HIGH = 1U,   /**< Signal is active high */
 455:Generated_Source\PSoC6\pdl\drivers/peripheral/scb/cy_scb_uart.h **** } cy_en_scb_uart_polarity_t;
 456:Generated_Source\PSoC6\pdl\drivers/peripheral/scb/cy_scb_uart.h **** /** \} group_scb_uart_enums */
 457:Generated_Source\PSoC6\pdl\drivers/peripheral/scb/cy_scb_uart.h **** 
 458:Generated_Source\PSoC6\pdl\drivers/peripheral/scb/cy_scb_uart.h **** 
 459:Generated_Source\PSoC6\pdl\drivers/peripheral/scb/cy_scb_uart.h **** /*******************************************************************************
 460:Generated_Source\PSoC6\pdl\drivers/peripheral/scb/cy_scb_uart.h **** *                           Type Definitions
 461:Generated_Source\PSoC6\pdl\drivers/peripheral/scb/cy_scb_uart.h **** *******************************************************************************/
 462:Generated_Source\PSoC6\pdl\drivers/peripheral/scb/cy_scb_uart.h **** 
 463:Generated_Source\PSoC6\pdl\drivers/peripheral/scb/cy_scb_uart.h **** /**
 464:Generated_Source\PSoC6\pdl\drivers/peripheral/scb/cy_scb_uart.h **** * \addtogroup group_scb_uart_data_structures
 465:Generated_Source\PSoC6\pdl\drivers/peripheral/scb/cy_scb_uart.h **** * \{
 466:Generated_Source\PSoC6\pdl\drivers/peripheral/scb/cy_scb_uart.h **** */
 467:Generated_Source\PSoC6\pdl\drivers/peripheral/scb/cy_scb_uart.h **** 
 468:Generated_Source\PSoC6\pdl\drivers/peripheral/scb/cy_scb_uart.h **** /**
 469:Generated_Source\PSoC6\pdl\drivers/peripheral/scb/cy_scb_uart.h **** * Provides the typedef for the callback function called in the
 470:Generated_Source\PSoC6\pdl\drivers/peripheral/scb/cy_scb_uart.h **** * \ref Cy_SCB_UART_Interrupt to notify the user about occurrences of
 471:Generated_Source\PSoC6\pdl\drivers/peripheral/scb/cy_scb_uart.h **** * \ref group_scb_uart_macros_callback_events.
ARM GAS  C:\Users\markm\AppData\Local\Temp\ccdXMT0L.s 			page 15


 472:Generated_Source\PSoC6\pdl\drivers/peripheral/scb/cy_scb_uart.h **** */
 473:Generated_Source\PSoC6\pdl\drivers/peripheral/scb/cy_scb_uart.h **** typedef void (* cy_cb_scb_uart_handle_events_t)(uint32_t event);
 474:Generated_Source\PSoC6\pdl\drivers/peripheral/scb/cy_scb_uart.h **** 
 475:Generated_Source\PSoC6\pdl\drivers/peripheral/scb/cy_scb_uart.h **** /** UART configuration structure */
 476:Generated_Source\PSoC6\pdl\drivers/peripheral/scb/cy_scb_uart.h **** typedef struct stc_scb_uart_config
 477:Generated_Source\PSoC6\pdl\drivers/peripheral/scb/cy_scb_uart.h **** {
 478:Generated_Source\PSoC6\pdl\drivers/peripheral/scb/cy_scb_uart.h ****     /** Specifies the UART's mode of operation */
 479:Generated_Source\PSoC6\pdl\drivers/peripheral/scb/cy_scb_uart.h ****     cy_en_scb_uart_mode_t    uartMode;
 480:Generated_Source\PSoC6\pdl\drivers/peripheral/scb/cy_scb_uart.h **** 
 481:Generated_Source\PSoC6\pdl\drivers/peripheral/scb/cy_scb_uart.h ****     /**
 482:Generated_Source\PSoC6\pdl\drivers/peripheral/scb/cy_scb_uart.h ****     * Oversample factor for UART.
 483:Generated_Source\PSoC6\pdl\drivers/peripheral/scb/cy_scb_uart.h ****     * * The UART baud rate is the SCB Clock frequency / oversample
 484:Generated_Source\PSoC6\pdl\drivers/peripheral/scb/cy_scb_uart.h ****     *  (valid range is 8-16).
 485:Generated_Source\PSoC6\pdl\drivers/peripheral/scb/cy_scb_uart.h ****     * * For IrDA, the oversample is always 16, unless
 486:Generated_Source\PSoC6\pdl\drivers/peripheral/scb/cy_scb_uart.h ****     * \ref irdaEnableLowPowerReceiver is enabled. Then the oversample is
 487:Generated_Source\PSoC6\pdl\drivers/peripheral/scb/cy_scb_uart.h ****     * reduced to the \ref group_scb_uart_macros_irda_lp_ovs set.
 488:Generated_Source\PSoC6\pdl\drivers/peripheral/scb/cy_scb_uart.h ****     */
 489:Generated_Source\PSoC6\pdl\drivers/peripheral/scb/cy_scb_uart.h ****     uint32_t    oversample;
 490:Generated_Source\PSoC6\pdl\drivers/peripheral/scb/cy_scb_uart.h **** 
 491:Generated_Source\PSoC6\pdl\drivers/peripheral/scb/cy_scb_uart.h ****     /** The width of UART data (valid range is 5 to 9) */
 492:Generated_Source\PSoC6\pdl\drivers/peripheral/scb/cy_scb_uart.h ****     uint32_t    dataWidth;
 493:Generated_Source\PSoC6\pdl\drivers/peripheral/scb/cy_scb_uart.h **** 
 494:Generated_Source\PSoC6\pdl\drivers/peripheral/scb/cy_scb_uart.h ****     /**
 495:Generated_Source\PSoC6\pdl\drivers/peripheral/scb/cy_scb_uart.h ****     * Enables the hardware to shift out data element MSB first; otherwise,
 496:Generated_Source\PSoC6\pdl\drivers/peripheral/scb/cy_scb_uart.h ****     * LSB first
 497:Generated_Source\PSoC6\pdl\drivers/peripheral/scb/cy_scb_uart.h ****     */
 498:Generated_Source\PSoC6\pdl\drivers/peripheral/scb/cy_scb_uart.h ****     bool        enableMsbFirst;
 499:Generated_Source\PSoC6\pdl\drivers/peripheral/scb/cy_scb_uart.h **** 
 500:Generated_Source\PSoC6\pdl\drivers/peripheral/scb/cy_scb_uart.h ****     /**
 501:Generated_Source\PSoC6\pdl\drivers/peripheral/scb/cy_scb_uart.h ****     * Specifies the number of stop bits in the UART transaction, in half-bit
 502:Generated_Source\PSoC6\pdl\drivers/peripheral/scb/cy_scb_uart.h ****     * increments
 503:Generated_Source\PSoC6\pdl\drivers/peripheral/scb/cy_scb_uart.h ****     */
 504:Generated_Source\PSoC6\pdl\drivers/peripheral/scb/cy_scb_uart.h ****     cy_en_scb_uart_stop_bits_t    stopBits;
 505:Generated_Source\PSoC6\pdl\drivers/peripheral/scb/cy_scb_uart.h **** 
 506:Generated_Source\PSoC6\pdl\drivers/peripheral/scb/cy_scb_uart.h ****     /** Configures the UART parity */
 507:Generated_Source\PSoC6\pdl\drivers/peripheral/scb/cy_scb_uart.h ****     cy_en_scb_uart_parity_t    parity;
 508:Generated_Source\PSoC6\pdl\drivers/peripheral/scb/cy_scb_uart.h **** 
 509:Generated_Source\PSoC6\pdl\drivers/peripheral/scb/cy_scb_uart.h ****     /**
 510:Generated_Source\PSoC6\pdl\drivers/peripheral/scb/cy_scb_uart.h ****     * Enables a digital 3-tap median filter (2 out of 3 voting) to be applied 
 511:Generated_Source\PSoC6\pdl\drivers/peripheral/scb/cy_scb_uart.h ****     * to the input of the RX FIFO to filter glitches on the line (for IrDA, 
 512:Generated_Source\PSoC6\pdl\drivers/peripheral/scb/cy_scb_uart.h ****     * this parameter is ignored)
 513:Generated_Source\PSoC6\pdl\drivers/peripheral/scb/cy_scb_uart.h ****     *
 514:Generated_Source\PSoC6\pdl\drivers/peripheral/scb/cy_scb_uart.h ****     */
 515:Generated_Source\PSoC6\pdl\drivers/peripheral/scb/cy_scb_uart.h ****     bool        enableInputFilter;
 516:Generated_Source\PSoC6\pdl\drivers/peripheral/scb/cy_scb_uart.h **** 
 517:Generated_Source\PSoC6\pdl\drivers/peripheral/scb/cy_scb_uart.h ****     /**
 518:Generated_Source\PSoC6\pdl\drivers/peripheral/scb/cy_scb_uart.h ****     * Enables the hardware to drop data in the RX FIFO when a parity error is
 519:Generated_Source\PSoC6\pdl\drivers/peripheral/scb/cy_scb_uart.h ****     * detected
 520:Generated_Source\PSoC6\pdl\drivers/peripheral/scb/cy_scb_uart.h ****     */
 521:Generated_Source\PSoC6\pdl\drivers/peripheral/scb/cy_scb_uart.h ****     bool        dropOnParityError;
 522:Generated_Source\PSoC6\pdl\drivers/peripheral/scb/cy_scb_uart.h **** 
 523:Generated_Source\PSoC6\pdl\drivers/peripheral/scb/cy_scb_uart.h ****     /**
 524:Generated_Source\PSoC6\pdl\drivers/peripheral/scb/cy_scb_uart.h ****     * Enables the hardware to drop data in the RX FIFO when a frame error is
 525:Generated_Source\PSoC6\pdl\drivers/peripheral/scb/cy_scb_uart.h ****     * detected
 526:Generated_Source\PSoC6\pdl\drivers/peripheral/scb/cy_scb_uart.h ****     */
 527:Generated_Source\PSoC6\pdl\drivers/peripheral/scb/cy_scb_uart.h ****     bool        dropOnFrameError;
 528:Generated_Source\PSoC6\pdl\drivers/peripheral/scb/cy_scb_uart.h **** 
ARM GAS  C:\Users\markm\AppData\Local\Temp\ccdXMT0L.s 			page 16


 529:Generated_Source\PSoC6\pdl\drivers/peripheral/scb/cy_scb_uart.h ****     /**
 530:Generated_Source\PSoC6\pdl\drivers/peripheral/scb/cy_scb_uart.h ****     * Enables the UART operation in Multi-Processor mode which requires
 531:Generated_Source\PSoC6\pdl\drivers/peripheral/scb/cy_scb_uart.h ****     * dataWidth to be 9 bits (the 9th bit is used to indicate address byte)
 532:Generated_Source\PSoC6\pdl\drivers/peripheral/scb/cy_scb_uart.h ****     */
 533:Generated_Source\PSoC6\pdl\drivers/peripheral/scb/cy_scb_uart.h ****     bool        enableMutliProcessorMode;
 534:Generated_Source\PSoC6\pdl\drivers/peripheral/scb/cy_scb_uart.h **** 
 535:Generated_Source\PSoC6\pdl\drivers/peripheral/scb/cy_scb_uart.h ****     /**
 536:Generated_Source\PSoC6\pdl\drivers/peripheral/scb/cy_scb_uart.h ****     * If Multi Processor mode is enabled, this is the address of the RX
 537:Generated_Source\PSoC6\pdl\drivers/peripheral/scb/cy_scb_uart.h ****     * FIFO. If the address matches, data is accepted into the FIFO. If
 538:Generated_Source\PSoC6\pdl\drivers/peripheral/scb/cy_scb_uart.h ****     * it does not match, the data is ignored.
 539:Generated_Source\PSoC6\pdl\drivers/peripheral/scb/cy_scb_uart.h ****     */
 540:Generated_Source\PSoC6\pdl\drivers/peripheral/scb/cy_scb_uart.h ****     uint32_t    receiverAddress;
 541:Generated_Source\PSoC6\pdl\drivers/peripheral/scb/cy_scb_uart.h **** 
 542:Generated_Source\PSoC6\pdl\drivers/peripheral/scb/cy_scb_uart.h ****     /**
 543:Generated_Source\PSoC6\pdl\drivers/peripheral/scb/cy_scb_uart.h ****     * This is the address mask for the Multi Processor address. 1 indicates
 544:Generated_Source\PSoC6\pdl\drivers/peripheral/scb/cy_scb_uart.h ****     * that the incoming address must match the corresponding bit in the slave
 545:Generated_Source\PSoC6\pdl\drivers/peripheral/scb/cy_scb_uart.h ****     * address. A 0 in the mask indicates that the incoming address does
 546:Generated_Source\PSoC6\pdl\drivers/peripheral/scb/cy_scb_uart.h ****     * not need to match.
 547:Generated_Source\PSoC6\pdl\drivers/peripheral/scb/cy_scb_uart.h ****     */
 548:Generated_Source\PSoC6\pdl\drivers/peripheral/scb/cy_scb_uart.h ****     uint32_t    receiverAddressMask;
 549:Generated_Source\PSoC6\pdl\drivers/peripheral/scb/cy_scb_uart.h **** 
 550:Generated_Source\PSoC6\pdl\drivers/peripheral/scb/cy_scb_uart.h ****     /**
 551:Generated_Source\PSoC6\pdl\drivers/peripheral/scb/cy_scb_uart.h ****     * Enables the hardware to accept the matching address in the RX FIFO.
 552:Generated_Source\PSoC6\pdl\drivers/peripheral/scb/cy_scb_uart.h ****     * This is useful when the device supports more than one address.
 553:Generated_Source\PSoC6\pdl\drivers/peripheral/scb/cy_scb_uart.h ****     */
 554:Generated_Source\PSoC6\pdl\drivers/peripheral/scb/cy_scb_uart.h ****     bool        acceptAddrInFifo;
 555:Generated_Source\PSoC6\pdl\drivers/peripheral/scb/cy_scb_uart.h **** 
 556:Generated_Source\PSoC6\pdl\drivers/peripheral/scb/cy_scb_uart.h ****     /** Inverts the IrDA RX input */
 557:Generated_Source\PSoC6\pdl\drivers/peripheral/scb/cy_scb_uart.h ****     bool        irdaInvertRx;
 558:Generated_Source\PSoC6\pdl\drivers/peripheral/scb/cy_scb_uart.h **** 
 559:Generated_Source\PSoC6\pdl\drivers/peripheral/scb/cy_scb_uart.h ****     /**
 560:Generated_Source\PSoC6\pdl\drivers/peripheral/scb/cy_scb_uart.h ****     * Enables the low-power receive for IrDA mode.
 561:Generated_Source\PSoC6\pdl\drivers/peripheral/scb/cy_scb_uart.h ****     * Note that the transmission must be disabled if this mode is enabled.
 562:Generated_Source\PSoC6\pdl\drivers/peripheral/scb/cy_scb_uart.h ****     */
 563:Generated_Source\PSoC6\pdl\drivers/peripheral/scb/cy_scb_uart.h ****     bool        irdaEnableLowPowerReceiver;
 564:Generated_Source\PSoC6\pdl\drivers/peripheral/scb/cy_scb_uart.h **** 
 565:Generated_Source\PSoC6\pdl\drivers/peripheral/scb/cy_scb_uart.h ****     /**
 566:Generated_Source\PSoC6\pdl\drivers/peripheral/scb/cy_scb_uart.h ****     * Enables retransmission of the frame placed in the TX FIFO when
 567:Generated_Source\PSoC6\pdl\drivers/peripheral/scb/cy_scb_uart.h ****     * NACK is received in SmartCard mode (for Standard and IrDA , this parameter
 568:Generated_Source\PSoC6\pdl\drivers/peripheral/scb/cy_scb_uart.h ****     * is ignored)
 569:Generated_Source\PSoC6\pdl\drivers/peripheral/scb/cy_scb_uart.h ****     */
 570:Generated_Source\PSoC6\pdl\drivers/peripheral/scb/cy_scb_uart.h ****     bool        smartCardRetryOnNack;
 571:Generated_Source\PSoC6\pdl\drivers/peripheral/scb/cy_scb_uart.h **** 
 572:Generated_Source\PSoC6\pdl\drivers/peripheral/scb/cy_scb_uart.h ****     /**
 573:Generated_Source\PSoC6\pdl\drivers/peripheral/scb/cy_scb_uart.h ****     * Enables the usage of the CTS input signal for the transmitter. The
 574:Generated_Source\PSoC6\pdl\drivers/peripheral/scb/cy_scb_uart.h ****     * transmitter waits for CTS to be active before sending data
 575:Generated_Source\PSoC6\pdl\drivers/peripheral/scb/cy_scb_uart.h ****     */
 576:Generated_Source\PSoC6\pdl\drivers/peripheral/scb/cy_scb_uart.h ****     bool        enableCts;
 577:Generated_Source\PSoC6\pdl\drivers/peripheral/scb/cy_scb_uart.h **** 
 578:Generated_Source\PSoC6\pdl\drivers/peripheral/scb/cy_scb_uart.h ****     /** Sets the CTS Polarity */
 579:Generated_Source\PSoC6\pdl\drivers/peripheral/scb/cy_scb_uart.h ****     cy_en_scb_uart_polarity_t    ctsPolarity;
 580:Generated_Source\PSoC6\pdl\drivers/peripheral/scb/cy_scb_uart.h **** 
 581:Generated_Source\PSoC6\pdl\drivers/peripheral/scb/cy_scb_uart.h ****     /**
 582:Generated_Source\PSoC6\pdl\drivers/peripheral/scb/cy_scb_uart.h ****     * When the RX FIFO has fewer entries than rtsRxFifoLevel, the
 583:Generated_Source\PSoC6\pdl\drivers/peripheral/scb/cy_scb_uart.h ****     * RTS signal is active (note to disable RTS, set this field to zero)
 584:Generated_Source\PSoC6\pdl\drivers/peripheral/scb/cy_scb_uart.h ****     */
 585:Generated_Source\PSoC6\pdl\drivers/peripheral/scb/cy_scb_uart.h ****     uint32_t    rtsRxFifoLevel;
ARM GAS  C:\Users\markm\AppData\Local\Temp\ccdXMT0L.s 			page 17


 586:Generated_Source\PSoC6\pdl\drivers/peripheral/scb/cy_scb_uart.h **** 
 587:Generated_Source\PSoC6\pdl\drivers/peripheral/scb/cy_scb_uart.h ****     /** Sets the RTS Polarity */
 588:Generated_Source\PSoC6\pdl\drivers/peripheral/scb/cy_scb_uart.h ****     cy_en_scb_uart_polarity_t    rtsPolarity;
 589:Generated_Source\PSoC6\pdl\drivers/peripheral/scb/cy_scb_uart.h **** 
 590:Generated_Source\PSoC6\pdl\drivers/peripheral/scb/cy_scb_uart.h ****     /** Specifies the number of bits to detect a break condition */
 591:Generated_Source\PSoC6\pdl\drivers/peripheral/scb/cy_scb_uart.h ****     uint32_t    breakWidth;
 592:Generated_Source\PSoC6\pdl\drivers/peripheral/scb/cy_scb_uart.h **** 
 593:Generated_Source\PSoC6\pdl\drivers/peripheral/scb/cy_scb_uart.h ****     /**
 594:Generated_Source\PSoC6\pdl\drivers/peripheral/scb/cy_scb_uart.h ****     * When there are more entries in the RX FIFO than this level
 595:Generated_Source\PSoC6\pdl\drivers/peripheral/scb/cy_scb_uart.h ****     * the RX trigger output goes high. This output can be connected
 596:Generated_Source\PSoC6\pdl\drivers/peripheral/scb/cy_scb_uart.h ****     * to a DMA channel through a trigger mux.
 597:Generated_Source\PSoC6\pdl\drivers/peripheral/scb/cy_scb_uart.h ****     * Also, it controls the \ref CY_SCB_UART_RX_TRIGGER interrupt source.
 598:Generated_Source\PSoC6\pdl\drivers/peripheral/scb/cy_scb_uart.h ****     */
 599:Generated_Source\PSoC6\pdl\drivers/peripheral/scb/cy_scb_uart.h ****     uint32_t    rxFifoTriggerLevel;
 600:Generated_Source\PSoC6\pdl\drivers/peripheral/scb/cy_scb_uart.h **** 
 601:Generated_Source\PSoC6\pdl\drivers/peripheral/scb/cy_scb_uart.h ****     /**
 602:Generated_Source\PSoC6\pdl\drivers/peripheral/scb/cy_scb_uart.h ****     * The bits set in this mask allow the event to cause an interrupt
 603:Generated_Source\PSoC6\pdl\drivers/peripheral/scb/cy_scb_uart.h ****     * (See \ref group_scb_uart_macros_rx_fifo_status for the set of constants)
 604:Generated_Source\PSoC6\pdl\drivers/peripheral/scb/cy_scb_uart.h ****     */
 605:Generated_Source\PSoC6\pdl\drivers/peripheral/scb/cy_scb_uart.h ****     uint32_t    rxFifoIntEnableMask;
 606:Generated_Source\PSoC6\pdl\drivers/peripheral/scb/cy_scb_uart.h **** 
 607:Generated_Source\PSoC6\pdl\drivers/peripheral/scb/cy_scb_uart.h ****     /**
 608:Generated_Source\PSoC6\pdl\drivers/peripheral/scb/cy_scb_uart.h ****     * When there are fewer entries in the TX FIFO then this level
 609:Generated_Source\PSoC6\pdl\drivers/peripheral/scb/cy_scb_uart.h ****     * the TX trigger output goes high. This output can be connected
 610:Generated_Source\PSoC6\pdl\drivers/peripheral/scb/cy_scb_uart.h ****     * to a DMA channel through a trigger mux.
 611:Generated_Source\PSoC6\pdl\drivers/peripheral/scb/cy_scb_uart.h ****     * Also, it controls \ref CY_SCB_UART_TX_TRIGGER interrupt source.
 612:Generated_Source\PSoC6\pdl\drivers/peripheral/scb/cy_scb_uart.h ****     */
 613:Generated_Source\PSoC6\pdl\drivers/peripheral/scb/cy_scb_uart.h ****     uint32_t    txFifoTriggerLevel;
 614:Generated_Source\PSoC6\pdl\drivers/peripheral/scb/cy_scb_uart.h **** 
 615:Generated_Source\PSoC6\pdl\drivers/peripheral/scb/cy_scb_uart.h ****     /**
 616:Generated_Source\PSoC6\pdl\drivers/peripheral/scb/cy_scb_uart.h ****     * Bits set in this mask allows the event to cause an interrupt
 617:Generated_Source\PSoC6\pdl\drivers/peripheral/scb/cy_scb_uart.h ****     * (See \ref group_scb_uart_macros_tx_fifo_status for the set of constants)
 618:Generated_Source\PSoC6\pdl\drivers/peripheral/scb/cy_scb_uart.h ****     */
 619:Generated_Source\PSoC6\pdl\drivers/peripheral/scb/cy_scb_uart.h ****     uint32_t    txFifoIntEnableMask;
 620:Generated_Source\PSoC6\pdl\drivers/peripheral/scb/cy_scb_uart.h **** } cy_stc_scb_uart_config_t;
 621:Generated_Source\PSoC6\pdl\drivers/peripheral/scb/cy_scb_uart.h **** 
 622:Generated_Source\PSoC6\pdl\drivers/peripheral/scb/cy_scb_uart.h **** /** UART context structure.
 623:Generated_Source\PSoC6\pdl\drivers/peripheral/scb/cy_scb_uart.h **** * All fields for the context structure are internal. Firmware never reads or
 624:Generated_Source\PSoC6\pdl\drivers/peripheral/scb/cy_scb_uart.h **** * writes these values. Firmware allocates the structure and provides the
 625:Generated_Source\PSoC6\pdl\drivers/peripheral/scb/cy_scb_uart.h **** * address of the structure to the driver in function calls. Firmware must
 626:Generated_Source\PSoC6\pdl\drivers/peripheral/scb/cy_scb_uart.h **** * ensure that the defined instance of this structure remains in scope
 627:Generated_Source\PSoC6\pdl\drivers/peripheral/scb/cy_scb_uart.h **** * while the drive is in use.
 628:Generated_Source\PSoC6\pdl\drivers/peripheral/scb/cy_scb_uart.h **** */
 629:Generated_Source\PSoC6\pdl\drivers/peripheral/scb/cy_scb_uart.h **** typedef struct cy_stc_scb_uart_context
 630:Generated_Source\PSoC6\pdl\drivers/peripheral/scb/cy_scb_uart.h **** {
 631:Generated_Source\PSoC6\pdl\drivers/peripheral/scb/cy_scb_uart.h ****     /** \cond INTERNAL */
 632:Generated_Source\PSoC6\pdl\drivers/peripheral/scb/cy_scb_uart.h ****     uint32_t volatile txStatus;         /**< The transmit status */
 633:Generated_Source\PSoC6\pdl\drivers/peripheral/scb/cy_scb_uart.h ****     uint32_t volatile rxStatus;         /**< The receive status */
 634:Generated_Source\PSoC6\pdl\drivers/peripheral/scb/cy_scb_uart.h **** 
 635:Generated_Source\PSoC6\pdl\drivers/peripheral/scb/cy_scb_uart.h ****     void     *rxRingBuf;                /**< The pointer to the ring buffer */
 636:Generated_Source\PSoC6\pdl\drivers/peripheral/scb/cy_scb_uart.h ****     uint32_t  rxRingBufSize;            /**< The ring buffer size */
 637:Generated_Source\PSoC6\pdl\drivers/peripheral/scb/cy_scb_uart.h ****     uint32_t volatile rxRingBufHead;    /**< The ring buffer head index */
 638:Generated_Source\PSoC6\pdl\drivers/peripheral/scb/cy_scb_uart.h ****     uint32_t volatile rxRingBufTail;    /**< The ring buffer tail index */
 639:Generated_Source\PSoC6\pdl\drivers/peripheral/scb/cy_scb_uart.h **** 
 640:Generated_Source\PSoC6\pdl\drivers/peripheral/scb/cy_scb_uart.h ****     void     *rxBuf;                    /**< The pointer to the receive buffer */
 641:Generated_Source\PSoC6\pdl\drivers/peripheral/scb/cy_scb_uart.h ****     uint32_t  rxBufSize;                /**< The receive buffer size */
 642:Generated_Source\PSoC6\pdl\drivers/peripheral/scb/cy_scb_uart.h ****     uint32_t volatile rxBufIdx;         /**< The current location in the receive buffer */
ARM GAS  C:\Users\markm\AppData\Local\Temp\ccdXMT0L.s 			page 18


 643:Generated_Source\PSoC6\pdl\drivers/peripheral/scb/cy_scb_uart.h **** 
 644:Generated_Source\PSoC6\pdl\drivers/peripheral/scb/cy_scb_uart.h ****     void     *txBuf;                    /**< The pointer to the transmit buffer */
 645:Generated_Source\PSoC6\pdl\drivers/peripheral/scb/cy_scb_uart.h ****     uint32_t  txBufSize;                /**< The transmit buffer size */
 646:Generated_Source\PSoC6\pdl\drivers/peripheral/scb/cy_scb_uart.h ****     uint32_t volatile txLeftToTransmit; /**< The number of data elements left to be transmitted */
 647:Generated_Source\PSoC6\pdl\drivers/peripheral/scb/cy_scb_uart.h **** 
 648:Generated_Source\PSoC6\pdl\drivers/peripheral/scb/cy_scb_uart.h ****     /** The pointer to an event callback that is called when any of
 649:Generated_Source\PSoC6\pdl\drivers/peripheral/scb/cy_scb_uart.h ****     * \ref group_scb_uart_macros_callback_events occurs
 650:Generated_Source\PSoC6\pdl\drivers/peripheral/scb/cy_scb_uart.h ****     */
 651:Generated_Source\PSoC6\pdl\drivers/peripheral/scb/cy_scb_uart.h ****     cy_cb_scb_uart_handle_events_t cbEvents;
 652:Generated_Source\PSoC6\pdl\drivers/peripheral/scb/cy_scb_uart.h **** 
 653:Generated_Source\PSoC6\pdl\drivers/peripheral/scb/cy_scb_uart.h **** #if !defined(NDEBUG)
 654:Generated_Source\PSoC6\pdl\drivers/peripheral/scb/cy_scb_uart.h ****     uint32_t initKey;               /**< Tracks the context initialization */
 655:Generated_Source\PSoC6\pdl\drivers/peripheral/scb/cy_scb_uart.h **** #endif /* !(NDEBUG) */
 656:Generated_Source\PSoC6\pdl\drivers/peripheral/scb/cy_scb_uart.h ****     /** \endcond */
 657:Generated_Source\PSoC6\pdl\drivers/peripheral/scb/cy_scb_uart.h **** } cy_stc_scb_uart_context_t;
 658:Generated_Source\PSoC6\pdl\drivers/peripheral/scb/cy_scb_uart.h **** /** \} group_scb_uart_data_structures */
 659:Generated_Source\PSoC6\pdl\drivers/peripheral/scb/cy_scb_uart.h **** 
 660:Generated_Source\PSoC6\pdl\drivers/peripheral/scb/cy_scb_uart.h **** 
 661:Generated_Source\PSoC6\pdl\drivers/peripheral/scb/cy_scb_uart.h **** /*******************************************************************************
 662:Generated_Source\PSoC6\pdl\drivers/peripheral/scb/cy_scb_uart.h **** *                           Function Prototypes
 663:Generated_Source\PSoC6\pdl\drivers/peripheral/scb/cy_scb_uart.h **** *******************************************************************************/
 664:Generated_Source\PSoC6\pdl\drivers/peripheral/scb/cy_scb_uart.h **** 
 665:Generated_Source\PSoC6\pdl\drivers/peripheral/scb/cy_scb_uart.h **** /**
 666:Generated_Source\PSoC6\pdl\drivers/peripheral/scb/cy_scb_uart.h **** * \addtogroup group_scb_uart_general_functions
 667:Generated_Source\PSoC6\pdl\drivers/peripheral/scb/cy_scb_uart.h **** * \{
 668:Generated_Source\PSoC6\pdl\drivers/peripheral/scb/cy_scb_uart.h **** */
 669:Generated_Source\PSoC6\pdl\drivers/peripheral/scb/cy_scb_uart.h **** cy_en_scb_uart_status_t Cy_SCB_UART_Init(CySCB_Type *base, cy_stc_scb_uart_config_t const *config,
 670:Generated_Source\PSoC6\pdl\drivers/peripheral/scb/cy_scb_uart.h ****                                          cy_stc_scb_uart_context_t *context);
 671:Generated_Source\PSoC6\pdl\drivers/peripheral/scb/cy_scb_uart.h **** void Cy_SCB_UART_DeInit (CySCB_Type *base);
 672:Generated_Source\PSoC6\pdl\drivers/peripheral/scb/cy_scb_uart.h **** __STATIC_INLINE void Cy_SCB_UART_Enable(CySCB_Type *base);
 673:Generated_Source\PSoC6\pdl\drivers/peripheral/scb/cy_scb_uart.h **** void Cy_SCB_UART_Disable(CySCB_Type *base, cy_stc_scb_uart_context_t *context);
 674:Generated_Source\PSoC6\pdl\drivers/peripheral/scb/cy_scb_uart.h **** 
 675:Generated_Source\PSoC6\pdl\drivers/peripheral/scb/cy_scb_uart.h **** __STATIC_INLINE void     Cy_SCB_UART_EnableCts      (CySCB_Type *base);
 676:Generated_Source\PSoC6\pdl\drivers/peripheral/scb/cy_scb_uart.h **** __STATIC_INLINE void     Cy_SCB_UART_DisableCts     (CySCB_Type *base);
 677:Generated_Source\PSoC6\pdl\drivers/peripheral/scb/cy_scb_uart.h **** __STATIC_INLINE void     Cy_SCB_UART_SetRtsFifoLevel(CySCB_Type *base, uint32_t level);
 678:Generated_Source\PSoC6\pdl\drivers/peripheral/scb/cy_scb_uart.h **** __STATIC_INLINE uint32_t Cy_SCB_UART_GetRtsFifoLevel(CySCB_Type const *base);
 679:Generated_Source\PSoC6\pdl\drivers/peripheral/scb/cy_scb_uart.h **** 
 680:Generated_Source\PSoC6\pdl\drivers/peripheral/scb/cy_scb_uart.h **** __STATIC_INLINE void Cy_SCB_UART_EnableSkipStart (CySCB_Type *base);
 681:Generated_Source\PSoC6\pdl\drivers/peripheral/scb/cy_scb_uart.h **** __STATIC_INLINE void Cy_SCB_UART_DisableSkipStart(CySCB_Type *base);
 682:Generated_Source\PSoC6\pdl\drivers/peripheral/scb/cy_scb_uart.h **** /** \} group_scb_uart_general_functions */
 683:Generated_Source\PSoC6\pdl\drivers/peripheral/scb/cy_scb_uart.h **** 
 684:Generated_Source\PSoC6\pdl\drivers/peripheral/scb/cy_scb_uart.h **** /**
 685:Generated_Source\PSoC6\pdl\drivers/peripheral/scb/cy_scb_uart.h **** * \addtogroup group_scb_uart_high_level_functions
 686:Generated_Source\PSoC6\pdl\drivers/peripheral/scb/cy_scb_uart.h **** * \{
 687:Generated_Source\PSoC6\pdl\drivers/peripheral/scb/cy_scb_uart.h **** */
 688:Generated_Source\PSoC6\pdl\drivers/peripheral/scb/cy_scb_uart.h **** void     Cy_SCB_UART_StartRingBuffer   (CySCB_Type *base, void *buffer, uint32_t size,
 689:Generated_Source\PSoC6\pdl\drivers/peripheral/scb/cy_scb_uart.h ****                                         cy_stc_scb_uart_context_t *context);
 690:Generated_Source\PSoC6\pdl\drivers/peripheral/scb/cy_scb_uart.h **** void     Cy_SCB_UART_StopRingBuffer    (CySCB_Type *base, cy_stc_scb_uart_context_t *context);
 691:Generated_Source\PSoC6\pdl\drivers/peripheral/scb/cy_scb_uart.h **** uint32_t Cy_SCB_UART_GetNumInRingBuffer(CySCB_Type const *base, cy_stc_scb_uart_context_t const *co
 692:Generated_Source\PSoC6\pdl\drivers/peripheral/scb/cy_scb_uart.h **** void     Cy_SCB_UART_ClearRingBuffer   (CySCB_Type const *base, cy_stc_scb_uart_context_t *context)
 693:Generated_Source\PSoC6\pdl\drivers/peripheral/scb/cy_scb_uart.h **** 
 694:Generated_Source\PSoC6\pdl\drivers/peripheral/scb/cy_scb_uart.h **** cy_en_scb_uart_status_t Cy_SCB_UART_Receive(CySCB_Type *base, void *buffer, uint32_t size,
 695:Generated_Source\PSoC6\pdl\drivers/peripheral/scb/cy_scb_uart.h ****                                             cy_stc_scb_uart_context_t *context);
 696:Generated_Source\PSoC6\pdl\drivers/peripheral/scb/cy_scb_uart.h **** void     Cy_SCB_UART_AbortReceive    (CySCB_Type *base, cy_stc_scb_uart_context_t *context);
 697:Generated_Source\PSoC6\pdl\drivers/peripheral/scb/cy_scb_uart.h **** uint32_t Cy_SCB_UART_GetReceiveStatus(CySCB_Type const *base, cy_stc_scb_uart_context_t const *cont
 698:Generated_Source\PSoC6\pdl\drivers/peripheral/scb/cy_scb_uart.h **** uint32_t Cy_SCB_UART_GetNumReceived  (CySCB_Type const *base, cy_stc_scb_uart_context_t const *cont
 699:Generated_Source\PSoC6\pdl\drivers/peripheral/scb/cy_scb_uart.h **** 
ARM GAS  C:\Users\markm\AppData\Local\Temp\ccdXMT0L.s 			page 19


 700:Generated_Source\PSoC6\pdl\drivers/peripheral/scb/cy_scb_uart.h **** cy_en_scb_uart_status_t Cy_SCB_UART_Transmit(CySCB_Type *base, void *buffer, uint32_t size,
 701:Generated_Source\PSoC6\pdl\drivers/peripheral/scb/cy_scb_uart.h ****                                              cy_stc_scb_uart_context_t *context);
 702:Generated_Source\PSoC6\pdl\drivers/peripheral/scb/cy_scb_uart.h **** void     Cy_SCB_UART_AbortTransmit       (CySCB_Type *base, cy_stc_scb_uart_context_t *context);
 703:Generated_Source\PSoC6\pdl\drivers/peripheral/scb/cy_scb_uart.h **** uint32_t Cy_SCB_UART_GetTransmitStatus   (CySCB_Type const *base, cy_stc_scb_uart_context_t const *
 704:Generated_Source\PSoC6\pdl\drivers/peripheral/scb/cy_scb_uart.h **** uint32_t Cy_SCB_UART_GetNumLeftToTransmit(CySCB_Type const *base, cy_stc_scb_uart_context_t const *
 705:Generated_Source\PSoC6\pdl\drivers/peripheral/scb/cy_scb_uart.h **** /** \} group_scb_uart_high_level_functions */
 706:Generated_Source\PSoC6\pdl\drivers/peripheral/scb/cy_scb_uart.h **** 
 707:Generated_Source\PSoC6\pdl\drivers/peripheral/scb/cy_scb_uart.h **** /**
 708:Generated_Source\PSoC6\pdl\drivers/peripheral/scb/cy_scb_uart.h **** * \addtogroup group_scb_uart_low_level_functions
 709:Generated_Source\PSoC6\pdl\drivers/peripheral/scb/cy_scb_uart.h **** * \{
 710:Generated_Source\PSoC6\pdl\drivers/peripheral/scb/cy_scb_uart.h **** */
 711:Generated_Source\PSoC6\pdl\drivers/peripheral/scb/cy_scb_uart.h **** __STATIC_INLINE uint32_t Cy_SCB_UART_Put             (CySCB_Type *base, uint32_t data);
 712:Generated_Source\PSoC6\pdl\drivers/peripheral/scb/cy_scb_uart.h **** __STATIC_INLINE uint32_t Cy_SCB_UART_PutArray        (CySCB_Type *base, void *buffer, uint32_t size
 713:Generated_Source\PSoC6\pdl\drivers/peripheral/scb/cy_scb_uart.h **** __STATIC_INLINE void     Cy_SCB_UART_PutArrayBlocking(CySCB_Type *base, void *buffer, uint32_t size
 714:Generated_Source\PSoC6\pdl\drivers/peripheral/scb/cy_scb_uart.h **** __STATIC_INLINE void     Cy_SCB_UART_PutString       (CySCB_Type *base, char_t const string[]);
 715:Generated_Source\PSoC6\pdl\drivers/peripheral/scb/cy_scb_uart.h **** void Cy_SCB_UART_SendBreakBlocking(CySCB_Type *base, uint32_t breakWidth);
 716:Generated_Source\PSoC6\pdl\drivers/peripheral/scb/cy_scb_uart.h **** 
 717:Generated_Source\PSoC6\pdl\drivers/peripheral/scb/cy_scb_uart.h **** __STATIC_INLINE uint32_t Cy_SCB_UART_Get             (CySCB_Type const *base);
 718:Generated_Source\PSoC6\pdl\drivers/peripheral/scb/cy_scb_uart.h **** __STATIC_INLINE uint32_t Cy_SCB_UART_GetArray        (CySCB_Type const *base, void *buffer, uint32_
 719:Generated_Source\PSoC6\pdl\drivers/peripheral/scb/cy_scb_uart.h **** __STATIC_INLINE void     Cy_SCB_UART_GetArrayBlocking(CySCB_Type const *base, void *buffer, uint32_
 720:Generated_Source\PSoC6\pdl\drivers/peripheral/scb/cy_scb_uart.h **** 
 721:Generated_Source\PSoC6\pdl\drivers/peripheral/scb/cy_scb_uart.h **** __STATIC_INLINE uint32_t Cy_SCB_UART_GetTxFifoStatus  (CySCB_Type const *base);
 722:Generated_Source\PSoC6\pdl\drivers/peripheral/scb/cy_scb_uart.h **** __STATIC_INLINE void     Cy_SCB_UART_ClearTxFifoStatus(CySCB_Type *base, uint32_t clearMask);
 723:Generated_Source\PSoC6\pdl\drivers/peripheral/scb/cy_scb_uart.h **** 
 724:Generated_Source\PSoC6\pdl\drivers/peripheral/scb/cy_scb_uart.h **** __STATIC_INLINE uint32_t Cy_SCB_UART_GetRxFifoStatus  (CySCB_Type const *base);
 725:Generated_Source\PSoC6\pdl\drivers/peripheral/scb/cy_scb_uart.h **** __STATIC_INLINE void     Cy_SCB_UART_ClearRxFifoStatus(CySCB_Type *base, uint32_t clearMask);
 726:Generated_Source\PSoC6\pdl\drivers/peripheral/scb/cy_scb_uart.h **** 
 727:Generated_Source\PSoC6\pdl\drivers/peripheral/scb/cy_scb_uart.h **** __STATIC_INLINE uint32_t Cy_SCB_UART_GetNumInTxFifo   (CySCB_Type const *base);
 728:Generated_Source\PSoC6\pdl\drivers/peripheral/scb/cy_scb_uart.h **** __STATIC_INLINE bool     Cy_SCB_UART_IsTxComplete     (CySCB_Type const *base);
 729:Generated_Source\PSoC6\pdl\drivers/peripheral/scb/cy_scb_uart.h **** 
 730:Generated_Source\PSoC6\pdl\drivers/peripheral/scb/cy_scb_uart.h **** __STATIC_INLINE uint32_t Cy_SCB_UART_GetNumInRxFifo   (CySCB_Type const *base);
 731:Generated_Source\PSoC6\pdl\drivers/peripheral/scb/cy_scb_uart.h **** 
 732:Generated_Source\PSoC6\pdl\drivers/peripheral/scb/cy_scb_uart.h **** __STATIC_INLINE void     Cy_SCB_UART_ClearRxFifo      (CySCB_Type *base);
 733:Generated_Source\PSoC6\pdl\drivers/peripheral/scb/cy_scb_uart.h **** __STATIC_INLINE void     Cy_SCB_UART_ClearTxFifo      (CySCB_Type *base);
 734:Generated_Source\PSoC6\pdl\drivers/peripheral/scb/cy_scb_uart.h **** /** \} group_scb_uart_low_level_functions */
 735:Generated_Source\PSoC6\pdl\drivers/peripheral/scb/cy_scb_uart.h **** 
 736:Generated_Source\PSoC6\pdl\drivers/peripheral/scb/cy_scb_uart.h **** /**
 737:Generated_Source\PSoC6\pdl\drivers/peripheral/scb/cy_scb_uart.h **** * \addtogroup group_scb_uart_interrupt_functions
 738:Generated_Source\PSoC6\pdl\drivers/peripheral/scb/cy_scb_uart.h **** * \{
 739:Generated_Source\PSoC6\pdl\drivers/peripheral/scb/cy_scb_uart.h **** */
 740:Generated_Source\PSoC6\pdl\drivers/peripheral/scb/cy_scb_uart.h **** void Cy_SCB_UART_Interrupt(CySCB_Type *base, cy_stc_scb_uart_context_t *context);
 741:Generated_Source\PSoC6\pdl\drivers/peripheral/scb/cy_scb_uart.h **** 
 742:Generated_Source\PSoC6\pdl\drivers/peripheral/scb/cy_scb_uart.h **** __STATIC_INLINE void Cy_SCB_UART_RegisterCallback(CySCB_Type const *base, cy_cb_scb_uart_handle_eve
 743:Generated_Source\PSoC6\pdl\drivers/peripheral/scb/cy_scb_uart.h ****                                                   cy_stc_scb_uart_context_t *context);
 744:Generated_Source\PSoC6\pdl\drivers/peripheral/scb/cy_scb_uart.h **** /** \} group_scb_uart_interrupt_functions */
 745:Generated_Source\PSoC6\pdl\drivers/peripheral/scb/cy_scb_uart.h **** 
 746:Generated_Source\PSoC6\pdl\drivers/peripheral/scb/cy_scb_uart.h **** /**
 747:Generated_Source\PSoC6\pdl\drivers/peripheral/scb/cy_scb_uart.h **** * \addtogroup group_scb_uart_low_power_functions
 748:Generated_Source\PSoC6\pdl\drivers/peripheral/scb/cy_scb_uart.h **** * \{
 749:Generated_Source\PSoC6\pdl\drivers/peripheral/scb/cy_scb_uart.h **** */
 750:Generated_Source\PSoC6\pdl\drivers/peripheral/scb/cy_scb_uart.h **** cy_en_syspm_status_t Cy_SCB_UART_DeepSleepCallback(cy_stc_syspm_callback_params_t *callbackParams, 
 751:Generated_Source\PSoC6\pdl\drivers/peripheral/scb/cy_scb_uart.h **** cy_en_syspm_status_t Cy_SCB_UART_HibernateCallback(cy_stc_syspm_callback_params_t *callbackParams, 
 752:Generated_Source\PSoC6\pdl\drivers/peripheral/scb/cy_scb_uart.h **** /** \} group_scb_uart_low_power_functions */
 753:Generated_Source\PSoC6\pdl\drivers/peripheral/scb/cy_scb_uart.h **** 
 754:Generated_Source\PSoC6\pdl\drivers/peripheral/scb/cy_scb_uart.h **** 
 755:Generated_Source\PSoC6\pdl\drivers/peripheral/scb/cy_scb_uart.h **** /*******************************************************************************
 756:Generated_Source\PSoC6\pdl\drivers/peripheral/scb/cy_scb_uart.h **** *                               API Constants
ARM GAS  C:\Users\markm\AppData\Local\Temp\ccdXMT0L.s 			page 20


 757:Generated_Source\PSoC6\pdl\drivers/peripheral/scb/cy_scb_uart.h **** *******************************************************************************/
 758:Generated_Source\PSoC6\pdl\drivers/peripheral/scb/cy_scb_uart.h **** 
 759:Generated_Source\PSoC6\pdl\drivers/peripheral/scb/cy_scb_uart.h **** /**
 760:Generated_Source\PSoC6\pdl\drivers/peripheral/scb/cy_scb_uart.h **** * \addtogroup group_scb_uart_macros
 761:Generated_Source\PSoC6\pdl\drivers/peripheral/scb/cy_scb_uart.h **** * \{
 762:Generated_Source\PSoC6\pdl\drivers/peripheral/scb/cy_scb_uart.h **** */
 763:Generated_Source\PSoC6\pdl\drivers/peripheral/scb/cy_scb_uart.h **** 
 764:Generated_Source\PSoC6\pdl\drivers/peripheral/scb/cy_scb_uart.h **** /**
 765:Generated_Source\PSoC6\pdl\drivers/peripheral/scb/cy_scb_uart.h **** * \defgroup group_scb_uart_macros_irda_lp_ovs UART IRDA Low Power Oversample factors
 766:Generated_Source\PSoC6\pdl\drivers/peripheral/scb/cy_scb_uart.h **** * \{
 767:Generated_Source\PSoC6\pdl\drivers/peripheral/scb/cy_scb_uart.h **** */
 768:Generated_Source\PSoC6\pdl\drivers/peripheral/scb/cy_scb_uart.h **** #define CY_SCB_UART_IRDA_LP_OVS16      (1UL)   /**< IrDA in low-power mode oversampled by 16   */
 769:Generated_Source\PSoC6\pdl\drivers/peripheral/scb/cy_scb_uart.h **** #define CY_SCB_UART_IRDA_LP_OVS32      (2UL)   /**< IrDA in low-power mode oversampled by 32   */
 770:Generated_Source\PSoC6\pdl\drivers/peripheral/scb/cy_scb_uart.h **** #define CY_SCB_UART_IRDA_LP_OVS48      (3UL)   /**< IrDA in low-power mode oversampled by 48   */
 771:Generated_Source\PSoC6\pdl\drivers/peripheral/scb/cy_scb_uart.h **** #define CY_SCB_UART_IRDA_LP_OVS96      (4UL)   /**< IrDA in low-power mode oversampled by 96   */
 772:Generated_Source\PSoC6\pdl\drivers/peripheral/scb/cy_scb_uart.h **** #define CY_SCB_UART_IRDA_LP_OVS192     (5UL)   /**< IrDA in low-power mode oversampled by 192  */
 773:Generated_Source\PSoC6\pdl\drivers/peripheral/scb/cy_scb_uart.h **** #define CY_SCB_UART_IRDA_LP_OVS768     (6UL)   /**< IrDA in low-power mode oversampled by 768  */
 774:Generated_Source\PSoC6\pdl\drivers/peripheral/scb/cy_scb_uart.h **** #define CY_SCB_UART_IRDA_LP_OVS1536    (7UL)   /**< IrDA in low-power mode oversampled by 1536 */
 775:Generated_Source\PSoC6\pdl\drivers/peripheral/scb/cy_scb_uart.h **** /** \} group_scb_uart_macros_irda_lp_ovs */
 776:Generated_Source\PSoC6\pdl\drivers/peripheral/scb/cy_scb_uart.h **** 
 777:Generated_Source\PSoC6\pdl\drivers/peripheral/scb/cy_scb_uart.h **** /**
 778:Generated_Source\PSoC6\pdl\drivers/peripheral/scb/cy_scb_uart.h **** * \defgroup group_scb_uart_macros_rx_fifo_status UART RX FIFO status.
 779:Generated_Source\PSoC6\pdl\drivers/peripheral/scb/cy_scb_uart.h **** * \{
 780:Generated_Source\PSoC6\pdl\drivers/peripheral/scb/cy_scb_uart.h **** * Macros to check UART RX FIFO status returned by \ref Cy_SCB_UART_GetRxFifoStatus
 781:Generated_Source\PSoC6\pdl\drivers/peripheral/scb/cy_scb_uart.h **** * function or assign mask for \ref Cy_SCB_UART_ClearRxFifoStatus function.
 782:Generated_Source\PSoC6\pdl\drivers/peripheral/scb/cy_scb_uart.h **** * Each UART RX FIFO status is encoded in a separate bit, therefore multiple
 783:Generated_Source\PSoC6\pdl\drivers/peripheral/scb/cy_scb_uart.h **** * bits may be set to indicate the current status.
 784:Generated_Source\PSoC6\pdl\drivers/peripheral/scb/cy_scb_uart.h **** */
 785:Generated_Source\PSoC6\pdl\drivers/peripheral/scb/cy_scb_uart.h **** 
 786:Generated_Source\PSoC6\pdl\drivers/peripheral/scb/cy_scb_uart.h **** /** The number of entries in the RX FIFO is more than the RX FIFO trigger level
 787:Generated_Source\PSoC6\pdl\drivers/peripheral/scb/cy_scb_uart.h **** * value
 788:Generated_Source\PSoC6\pdl\drivers/peripheral/scb/cy_scb_uart.h **** */
 789:Generated_Source\PSoC6\pdl\drivers/peripheral/scb/cy_scb_uart.h **** #define CY_SCB_UART_RX_TRIGGER         (SCB_INTR_RX_TRIGGER_Msk)
 790:Generated_Source\PSoC6\pdl\drivers/peripheral/scb/cy_scb_uart.h **** 
 791:Generated_Source\PSoC6\pdl\drivers/peripheral/scb/cy_scb_uart.h **** /** The RX FIFO is not empty, there is data to read */
 792:Generated_Source\PSoC6\pdl\drivers/peripheral/scb/cy_scb_uart.h **** #define CY_SCB_UART_RX_NOT_EMPTY       (SCB_INTR_RX_NOT_EMPTY_Msk)
 793:Generated_Source\PSoC6\pdl\drivers/peripheral/scb/cy_scb_uart.h **** 
 794:Generated_Source\PSoC6\pdl\drivers/peripheral/scb/cy_scb_uart.h **** /**
 795:Generated_Source\PSoC6\pdl\drivers/peripheral/scb/cy_scb_uart.h **** * The RX FIFO is full, there is no more space for additional data, and
 796:Generated_Source\PSoC6\pdl\drivers/peripheral/scb/cy_scb_uart.h **** * any additional data will be dropped
 797:Generated_Source\PSoC6\pdl\drivers/peripheral/scb/cy_scb_uart.h **** */
 798:Generated_Source\PSoC6\pdl\drivers/peripheral/scb/cy_scb_uart.h **** #define CY_SCB_UART_RX_FULL            (SCB_INTR_RX_FULL_Msk)
 799:Generated_Source\PSoC6\pdl\drivers/peripheral/scb/cy_scb_uart.h **** 
 800:Generated_Source\PSoC6\pdl\drivers/peripheral/scb/cy_scb_uart.h **** /**
 801:Generated_Source\PSoC6\pdl\drivers/peripheral/scb/cy_scb_uart.h **** * The RX FIFO was full and there was an attempt to write to it.
 802:Generated_Source\PSoC6\pdl\drivers/peripheral/scb/cy_scb_uart.h **** * That additional data was dropped.
 803:Generated_Source\PSoC6\pdl\drivers/peripheral/scb/cy_scb_uart.h **** */
 804:Generated_Source\PSoC6\pdl\drivers/peripheral/scb/cy_scb_uart.h **** #define CY_SCB_UART_RX_OVERFLOW        (SCB_INTR_RX_OVERFLOW_Msk)
 805:Generated_Source\PSoC6\pdl\drivers/peripheral/scb/cy_scb_uart.h **** 
 806:Generated_Source\PSoC6\pdl\drivers/peripheral/scb/cy_scb_uart.h **** /** An attempt to read from an empty RX FIFO */
 807:Generated_Source\PSoC6\pdl\drivers/peripheral/scb/cy_scb_uart.h **** #define CY_SCB_UART_RX_UNDERFLOW       (SCB_INTR_RX_UNDERFLOW_Msk)
 808:Generated_Source\PSoC6\pdl\drivers/peripheral/scb/cy_scb_uart.h **** 
 809:Generated_Source\PSoC6\pdl\drivers/peripheral/scb/cy_scb_uart.h **** /** The RX FIFO detected a frame error, either a stop or stop-bit error */
 810:Generated_Source\PSoC6\pdl\drivers/peripheral/scb/cy_scb_uart.h **** #define CY_SCB_UART_RX_ERR_FRAME       (SCB_INTR_RX_FRAME_ERROR_Msk)
 811:Generated_Source\PSoC6\pdl\drivers/peripheral/scb/cy_scb_uart.h **** 
 812:Generated_Source\PSoC6\pdl\drivers/peripheral/scb/cy_scb_uart.h **** /** The RX FIFO detected a parity error */
 813:Generated_Source\PSoC6\pdl\drivers/peripheral/scb/cy_scb_uart.h **** #define CY_SCB_UART_RX_ERR_PARITY      (SCB_INTR_RX_PARITY_ERROR_Msk)
ARM GAS  C:\Users\markm\AppData\Local\Temp\ccdXMT0L.s 			page 21


 814:Generated_Source\PSoC6\pdl\drivers/peripheral/scb/cy_scb_uart.h **** 
 815:Generated_Source\PSoC6\pdl\drivers/peripheral/scb/cy_scb_uart.h **** /** The RX FIFO detected a break transmission from the transmitter */
 816:Generated_Source\PSoC6\pdl\drivers/peripheral/scb/cy_scb_uart.h **** #define CY_SCB_UART_RX_BREAK_DETECT    (SCB_INTR_RX_BREAK_DETECT_Msk)
 817:Generated_Source\PSoC6\pdl\drivers/peripheral/scb/cy_scb_uart.h **** /** \} group_scb_uart_macros_rx_fifo_status */
 818:Generated_Source\PSoC6\pdl\drivers/peripheral/scb/cy_scb_uart.h **** 
 819:Generated_Source\PSoC6\pdl\drivers/peripheral/scb/cy_scb_uart.h **** /**
 820:Generated_Source\PSoC6\pdl\drivers/peripheral/scb/cy_scb_uart.h **** * \defgroup group_scb_uart_macros_tx_fifo_status UART TX FIFO Statuses
 821:Generated_Source\PSoC6\pdl\drivers/peripheral/scb/cy_scb_uart.h **** * \{
 822:Generated_Source\PSoC6\pdl\drivers/peripheral/scb/cy_scb_uart.h **** * Macros to check UART TX FIFO status returned by \ref Cy_SCB_UART_GetTxFifoStatus
 823:Generated_Source\PSoC6\pdl\drivers/peripheral/scb/cy_scb_uart.h **** * function or assign mask for \ref Cy_SCB_UART_ClearTxFifoStatus function.
 824:Generated_Source\PSoC6\pdl\drivers/peripheral/scb/cy_scb_uart.h **** * Each UART TX FIFO status is encoded in a separate bit, therefore multiple bits
 825:Generated_Source\PSoC6\pdl\drivers/peripheral/scb/cy_scb_uart.h **** * may be set to indicate the current status.
 826:Generated_Source\PSoC6\pdl\drivers/peripheral/scb/cy_scb_uart.h **** */
 827:Generated_Source\PSoC6\pdl\drivers/peripheral/scb/cy_scb_uart.h **** 
 828:Generated_Source\PSoC6\pdl\drivers/peripheral/scb/cy_scb_uart.h **** /** The number of entries in the TX FIFO is less than the TX FIFO trigger level
 829:Generated_Source\PSoC6\pdl\drivers/peripheral/scb/cy_scb_uart.h **** * value
 830:Generated_Source\PSoC6\pdl\drivers/peripheral/scb/cy_scb_uart.h **** */
 831:Generated_Source\PSoC6\pdl\drivers/peripheral/scb/cy_scb_uart.h **** #define CY_SCB_UART_TX_TRIGGER     (SCB_INTR_TX_TRIGGER_Msk)
 832:Generated_Source\PSoC6\pdl\drivers/peripheral/scb/cy_scb_uart.h **** 
 833:Generated_Source\PSoC6\pdl\drivers/peripheral/scb/cy_scb_uart.h **** /** The TX FIFO is not full, there is a space for more data */
 834:Generated_Source\PSoC6\pdl\drivers/peripheral/scb/cy_scb_uart.h **** #define CY_SCB_UART_TX_NOT_FULL    (SCB_INTR_TX_NOT_FULL_Msk)
 835:Generated_Source\PSoC6\pdl\drivers/peripheral/scb/cy_scb_uart.h **** 
 836:Generated_Source\PSoC6\pdl\drivers/peripheral/scb/cy_scb_uart.h **** /** The TX FIFO is empty, note there may still be data in the shift register.*/
 837:Generated_Source\PSoC6\pdl\drivers/peripheral/scb/cy_scb_uart.h **** #define CY_SCB_UART_TX_EMPTY       (SCB_INTR_TX_EMPTY_Msk)
 838:Generated_Source\PSoC6\pdl\drivers/peripheral/scb/cy_scb_uart.h **** 
 839:Generated_Source\PSoC6\pdl\drivers/peripheral/scb/cy_scb_uart.h **** /** An attempt to write to the full TX FIFO */
 840:Generated_Source\PSoC6\pdl\drivers/peripheral/scb/cy_scb_uart.h **** #define CY_SCB_UART_TX_OVERFLOW    (SCB_INTR_TX_OVERFLOW_Msk)
 841:Generated_Source\PSoC6\pdl\drivers/peripheral/scb/cy_scb_uart.h **** 
 842:Generated_Source\PSoC6\pdl\drivers/peripheral/scb/cy_scb_uart.h **** /** An attempt to read from an empty transmitter FIFO (hardware reads). */
 843:Generated_Source\PSoC6\pdl\drivers/peripheral/scb/cy_scb_uart.h **** #define CY_SCB_UART_TX_UNDERFLOW (SCB_INTR_TX_UNDERFLOW_Msk)
 844:Generated_Source\PSoC6\pdl\drivers/peripheral/scb/cy_scb_uart.h **** 
 845:Generated_Source\PSoC6\pdl\drivers/peripheral/scb/cy_scb_uart.h **** /** All data has been transmitted out of the FIFO, including shifter */
 846:Generated_Source\PSoC6\pdl\drivers/peripheral/scb/cy_scb_uart.h **** #define CY_SCB_UART_TX_DONE        (SCB_INTR_TX_UART_DONE_Msk)
 847:Generated_Source\PSoC6\pdl\drivers/peripheral/scb/cy_scb_uart.h **** 
 848:Generated_Source\PSoC6\pdl\drivers/peripheral/scb/cy_scb_uart.h **** /** SmartCard only: the transmitter received a NACK */
 849:Generated_Source\PSoC6\pdl\drivers/peripheral/scb/cy_scb_uart.h **** #define CY_SCB_UART_TX_NACK        (SCB_INTR_TX_UART_NACK_Msk)
 850:Generated_Source\PSoC6\pdl\drivers/peripheral/scb/cy_scb_uart.h **** 
 851:Generated_Source\PSoC6\pdl\drivers/peripheral/scb/cy_scb_uart.h **** /** SmartCard only: the transmitter lost arbitration */
 852:Generated_Source\PSoC6\pdl\drivers/peripheral/scb/cy_scb_uart.h **** #define CY_SCB_UART_TX_ARB_LOST    (SCB_INTR_TX_UART_ARB_LOST_Msk)
 853:Generated_Source\PSoC6\pdl\drivers/peripheral/scb/cy_scb_uart.h **** /** \} group_scb_uart_macros_tx_fifo_status */
 854:Generated_Source\PSoC6\pdl\drivers/peripheral/scb/cy_scb_uart.h **** 
 855:Generated_Source\PSoC6\pdl\drivers/peripheral/scb/cy_scb_uart.h **** /**
 856:Generated_Source\PSoC6\pdl\drivers/peripheral/scb/cy_scb_uart.h **** * \defgroup group_scb_uart_macros_receive_status UART Receive Statuses
 857:Generated_Source\PSoC6\pdl\drivers/peripheral/scb/cy_scb_uart.h **** * \{
 858:Generated_Source\PSoC6\pdl\drivers/peripheral/scb/cy_scb_uart.h **** * Macros to check current UART receive status returned by 
 859:Generated_Source\PSoC6\pdl\drivers/peripheral/scb/cy_scb_uart.h **** * \ref Cy_SCB_UART_GetReceiveStatus function. 
 860:Generated_Source\PSoC6\pdl\drivers/peripheral/scb/cy_scb_uart.h **** * Each UART receive status is encoded in a separate bit, therefore multiple bits
 861:Generated_Source\PSoC6\pdl\drivers/peripheral/scb/cy_scb_uart.h **** * may be set to indicate the current status.
 862:Generated_Source\PSoC6\pdl\drivers/peripheral/scb/cy_scb_uart.h **** */
 863:Generated_Source\PSoC6\pdl\drivers/peripheral/scb/cy_scb_uart.h **** /** The receive operation started by \ref Cy_SCB_UART_Receive is in progress */
 864:Generated_Source\PSoC6\pdl\drivers/peripheral/scb/cy_scb_uart.h **** #define CY_SCB_UART_RECEIVE_ACTIVE         (0x01UL)
 865:Generated_Source\PSoC6\pdl\drivers/peripheral/scb/cy_scb_uart.h **** 
 866:Generated_Source\PSoC6\pdl\drivers/peripheral/scb/cy_scb_uart.h **** /**
 867:Generated_Source\PSoC6\pdl\drivers/peripheral/scb/cy_scb_uart.h **** * The hardware RX FIFO was full and there was an attempt to write to it.
 868:Generated_Source\PSoC6\pdl\drivers/peripheral/scb/cy_scb_uart.h **** * That additional data was dropped.
 869:Generated_Source\PSoC6\pdl\drivers/peripheral/scb/cy_scb_uart.h **** */
 870:Generated_Source\PSoC6\pdl\drivers/peripheral/scb/cy_scb_uart.h **** #define CY_SCB_UART_RECEIVE_OVERFLOW       (SCB_INTR_RX_OVERFLOW_Msk)
ARM GAS  C:\Users\markm\AppData\Local\Temp\ccdXMT0L.s 			page 22


 871:Generated_Source\PSoC6\pdl\drivers/peripheral/scb/cy_scb_uart.h **** 
 872:Generated_Source\PSoC6\pdl\drivers/peripheral/scb/cy_scb_uart.h **** /** The receive hardware detected a frame error, either a start or
 873:Generated_Source\PSoC6\pdl\drivers/peripheral/scb/cy_scb_uart.h **** * stop bit error
 874:Generated_Source\PSoC6\pdl\drivers/peripheral/scb/cy_scb_uart.h **** */
 875:Generated_Source\PSoC6\pdl\drivers/peripheral/scb/cy_scb_uart.h **** #define CY_SCB_UART_RECEIVE_ERR_FRAME      (SCB_INTR_RX_FRAME_ERROR_Msk)
 876:Generated_Source\PSoC6\pdl\drivers/peripheral/scb/cy_scb_uart.h **** 
 877:Generated_Source\PSoC6\pdl\drivers/peripheral/scb/cy_scb_uart.h **** /** The receive hardware detected a parity error */
 878:Generated_Source\PSoC6\pdl\drivers/peripheral/scb/cy_scb_uart.h **** #define CY_SCB_UART_RECEIVE_ERR_PARITY     (SCB_INTR_RX_PARITY_ERROR_Msk)
 879:Generated_Source\PSoC6\pdl\drivers/peripheral/scb/cy_scb_uart.h **** 
 880:Generated_Source\PSoC6\pdl\drivers/peripheral/scb/cy_scb_uart.h **** /** The receive hardware detected a break transmission from transmitter */
 881:Generated_Source\PSoC6\pdl\drivers/peripheral/scb/cy_scb_uart.h **** #define CY_SCB_UART_RECEIVE_BREAK_DETECT   (SCB_INTR_RX_BREAK_DETECT_Msk)
 882:Generated_Source\PSoC6\pdl\drivers/peripheral/scb/cy_scb_uart.h **** /** \} group_scb_uart_macros_receive_status */
 883:Generated_Source\PSoC6\pdl\drivers/peripheral/scb/cy_scb_uart.h **** 
 884:Generated_Source\PSoC6\pdl\drivers/peripheral/scb/cy_scb_uart.h **** /**
 885:Generated_Source\PSoC6\pdl\drivers/peripheral/scb/cy_scb_uart.h **** * \defgroup group_scb_uart_macros_transmit_status UART Transmit Status
 886:Generated_Source\PSoC6\pdl\drivers/peripheral/scb/cy_scb_uart.h **** * \{
 887:Generated_Source\PSoC6\pdl\drivers/peripheral/scb/cy_scb_uart.h **** * Macros to check current UART transmit status returned by 
 888:Generated_Source\PSoC6\pdl\drivers/peripheral/scb/cy_scb_uart.h **** * \ref Cy_SCB_UART_GetTransmitStatus function. 
 889:Generated_Source\PSoC6\pdl\drivers/peripheral/scb/cy_scb_uart.h **** * Each UART transmit status is encoded in a separate bit, therefore multiple bits
 890:Generated_Source\PSoC6\pdl\drivers/peripheral/scb/cy_scb_uart.h **** * may be set to indicate the current status.
 891:Generated_Source\PSoC6\pdl\drivers/peripheral/scb/cy_scb_uart.h **** */
 892:Generated_Source\PSoC6\pdl\drivers/peripheral/scb/cy_scb_uart.h **** 
 893:Generated_Source\PSoC6\pdl\drivers/peripheral/scb/cy_scb_uart.h **** /** The transmit operation started by \ref Cy_SCB_UART_Transmit is in progress */
 894:Generated_Source\PSoC6\pdl\drivers/peripheral/scb/cy_scb_uart.h **** #define CY_SCB_UART_TRANSMIT_ACTIVE    (0x01UL)
 895:Generated_Source\PSoC6\pdl\drivers/peripheral/scb/cy_scb_uart.h **** 
 896:Generated_Source\PSoC6\pdl\drivers/peripheral/scb/cy_scb_uart.h **** /**
 897:Generated_Source\PSoC6\pdl\drivers/peripheral/scb/cy_scb_uart.h **** * All data elements specified by \ref Cy_SCB_UART_Transmit have been loaded
 898:Generated_Source\PSoC6\pdl\drivers/peripheral/scb/cy_scb_uart.h **** * into the TX FIFO
 899:Generated_Source\PSoC6\pdl\drivers/peripheral/scb/cy_scb_uart.h **** */
 900:Generated_Source\PSoC6\pdl\drivers/peripheral/scb/cy_scb_uart.h **** #define CY_SCB_UART_TRANSMIT_IN_FIFO   (0x02UL)
 901:Generated_Source\PSoC6\pdl\drivers/peripheral/scb/cy_scb_uart.h **** 
 902:Generated_Source\PSoC6\pdl\drivers/peripheral/scb/cy_scb_uart.h **** /** SmartCard only: the transmitter received a NACK */
 903:Generated_Source\PSoC6\pdl\drivers/peripheral/scb/cy_scb_uart.h **** #define CY_SCB_UART_TRANSMIT_NACK      (SCB_INTR_TX_UART_NACK_Msk)
 904:Generated_Source\PSoC6\pdl\drivers/peripheral/scb/cy_scb_uart.h **** 
 905:Generated_Source\PSoC6\pdl\drivers/peripheral/scb/cy_scb_uart.h **** /** SmartCard only: the transmitter lost arbitration */
 906:Generated_Source\PSoC6\pdl\drivers/peripheral/scb/cy_scb_uart.h **** #define CY_SCB_UART_TRANSMIT_ARB_LOST  (SCB_INTR_TX_UART_ARB_LOST_Msk)
 907:Generated_Source\PSoC6\pdl\drivers/peripheral/scb/cy_scb_uart.h **** /** \} group_scb_uart_macros_transmit_status */
 908:Generated_Source\PSoC6\pdl\drivers/peripheral/scb/cy_scb_uart.h **** 
 909:Generated_Source\PSoC6\pdl\drivers/peripheral/scb/cy_scb_uart.h **** /**
 910:Generated_Source\PSoC6\pdl\drivers/peripheral/scb/cy_scb_uart.h **** * \defgroup group_scb_uart_macros_callback_events UART Callback Events
 911:Generated_Source\PSoC6\pdl\drivers/peripheral/scb/cy_scb_uart.h **** * \{
 912:Generated_Source\PSoC6\pdl\drivers/peripheral/scb/cy_scb_uart.h **** * Macros to check UART events passed by \ref cy_cb_scb_uart_handle_events_t callback.
 913:Generated_Source\PSoC6\pdl\drivers/peripheral/scb/cy_scb_uart.h **** * Note that only single event is notified by the callback when it is called.
 914:Generated_Source\PSoC6\pdl\drivers/peripheral/scb/cy_scb_uart.h **** */
 915:Generated_Source\PSoC6\pdl\drivers/peripheral/scb/cy_scb_uart.h **** 
 916:Generated_Source\PSoC6\pdl\drivers/peripheral/scb/cy_scb_uart.h **** /**
 917:Generated_Source\PSoC6\pdl\drivers/peripheral/scb/cy_scb_uart.h **** * All data elements specified by \ref Cy_SCB_UART_Transmit have been loaded
 918:Generated_Source\PSoC6\pdl\drivers/peripheral/scb/cy_scb_uart.h **** * into the TX FIFO
 919:Generated_Source\PSoC6\pdl\drivers/peripheral/scb/cy_scb_uart.h **** */
 920:Generated_Source\PSoC6\pdl\drivers/peripheral/scb/cy_scb_uart.h **** #define CY_SCB_UART_TRANSMIT_IN_FIFO_EVENT (0x01UL)
 921:Generated_Source\PSoC6\pdl\drivers/peripheral/scb/cy_scb_uart.h **** 
 922:Generated_Source\PSoC6\pdl\drivers/peripheral/scb/cy_scb_uart.h **** /** The transmit operation started by \ref Cy_SCB_UART_Transmit is complete */
 923:Generated_Source\PSoC6\pdl\drivers/peripheral/scb/cy_scb_uart.h **** #define CY_SCB_UART_TRANSMIT_DONE_EVENT    (0x02UL)
 924:Generated_Source\PSoC6\pdl\drivers/peripheral/scb/cy_scb_uart.h **** 
 925:Generated_Source\PSoC6\pdl\drivers/peripheral/scb/cy_scb_uart.h **** /** The receive operation started by \ref Cy_SCB_UART_Receive is complete */
 926:Generated_Source\PSoC6\pdl\drivers/peripheral/scb/cy_scb_uart.h **** #define CY_SCB_UART_RECEIVE_DONE_EVENT     (0x04UL)
 927:Generated_Source\PSoC6\pdl\drivers/peripheral/scb/cy_scb_uart.h **** 
ARM GAS  C:\Users\markm\AppData\Local\Temp\ccdXMT0L.s 			page 23


 928:Generated_Source\PSoC6\pdl\drivers/peripheral/scb/cy_scb_uart.h **** /**
 929:Generated_Source\PSoC6\pdl\drivers/peripheral/scb/cy_scb_uart.h **** * The ring buffer is full, there is no more space for additional data.
 930:Generated_Source\PSoC6\pdl\drivers/peripheral/scb/cy_scb_uart.h **** * Additional data is stored in the RX FIFO until it becomes full, at which
 931:Generated_Source\PSoC6\pdl\drivers/peripheral/scb/cy_scb_uart.h **** * point data is dropped.
 932:Generated_Source\PSoC6\pdl\drivers/peripheral/scb/cy_scb_uart.h **** */
 933:Generated_Source\PSoC6\pdl\drivers/peripheral/scb/cy_scb_uart.h **** #define CY_SCB_UART_RB_FULL_EVENT          (0x08UL)
 934:Generated_Source\PSoC6\pdl\drivers/peripheral/scb/cy_scb_uart.h **** 
 935:Generated_Source\PSoC6\pdl\drivers/peripheral/scb/cy_scb_uart.h **** /**
 936:Generated_Source\PSoC6\pdl\drivers/peripheral/scb/cy_scb_uart.h **** * An error was detected during the receive operation. This includes overflow,
 937:Generated_Source\PSoC6\pdl\drivers/peripheral/scb/cy_scb_uart.h **** * frame error, or parity error. Check \ref Cy_SCB_UART_GetReceiveStatus to
 938:Generated_Source\PSoC6\pdl\drivers/peripheral/scb/cy_scb_uart.h **** * determine the source of the error.
 939:Generated_Source\PSoC6\pdl\drivers/peripheral/scb/cy_scb_uart.h **** */
 940:Generated_Source\PSoC6\pdl\drivers/peripheral/scb/cy_scb_uart.h **** #define CY_SCB_UART_RECEIVE_ERR_EVENT      (0x10UL)
 941:Generated_Source\PSoC6\pdl\drivers/peripheral/scb/cy_scb_uart.h **** 
 942:Generated_Source\PSoC6\pdl\drivers/peripheral/scb/cy_scb_uart.h **** /**
 943:Generated_Source\PSoC6\pdl\drivers/peripheral/scb/cy_scb_uart.h **** * An error was detected during the transmit operation. This includes a NACK
 944:Generated_Source\PSoC6\pdl\drivers/peripheral/scb/cy_scb_uart.h **** * or lost arbitration. Check \ref Cy_SCB_UART_GetTransmitStatus to determine
 945:Generated_Source\PSoC6\pdl\drivers/peripheral/scb/cy_scb_uart.h **** * the source of the error
 946:Generated_Source\PSoC6\pdl\drivers/peripheral/scb/cy_scb_uart.h **** */
 947:Generated_Source\PSoC6\pdl\drivers/peripheral/scb/cy_scb_uart.h **** #define CY_SCB_UART_TRANSMIT_ERR_EVENT     (0x20UL)
 948:Generated_Source\PSoC6\pdl\drivers/peripheral/scb/cy_scb_uart.h **** /** \} group_scb_uart_macros_callback_events */
 949:Generated_Source\PSoC6\pdl\drivers/peripheral/scb/cy_scb_uart.h **** 
 950:Generated_Source\PSoC6\pdl\drivers/peripheral/scb/cy_scb_uart.h **** /** Data returned by the hardware when an empty RX FIFO is read */
 951:Generated_Source\PSoC6\pdl\drivers/peripheral/scb/cy_scb_uart.h **** #define CY_SCB_UART_RX_NO_DATA         (0xFFFFFFFFUL)
 952:Generated_Source\PSoC6\pdl\drivers/peripheral/scb/cy_scb_uart.h **** 
 953:Generated_Source\PSoC6\pdl\drivers/peripheral/scb/cy_scb_uart.h **** 
 954:Generated_Source\PSoC6\pdl\drivers/peripheral/scb/cy_scb_uart.h **** /*******************************************************************************
 955:Generated_Source\PSoC6\pdl\drivers/peripheral/scb/cy_scb_uart.h **** *                            Internal Constants
 956:Generated_Source\PSoC6\pdl\drivers/peripheral/scb/cy_scb_uart.h **** *******************************************************************************/
 957:Generated_Source\PSoC6\pdl\drivers/peripheral/scb/cy_scb_uart.h **** 
 958:Generated_Source\PSoC6\pdl\drivers/peripheral/scb/cy_scb_uart.h **** /** \cond INTERNAL */
 959:Generated_Source\PSoC6\pdl\drivers/peripheral/scb/cy_scb_uart.h **** #define CY_SCB_UART_TX_INTR_MASK    (CY_SCB_UART_TX_TRIGGER  | CY_SCB_UART_TX_NOT_FULL  | CY_SCB_UA
 960:Generated_Source\PSoC6\pdl\drivers/peripheral/scb/cy_scb_uart.h ****                                      CY_SCB_UART_TX_OVERFLOW | CY_SCB_UART_TX_UNDERFLOW | CY_SCB_UA
 961:Generated_Source\PSoC6\pdl\drivers/peripheral/scb/cy_scb_uart.h ****                                      CY_SCB_UART_TX_NACK     | CY_SCB_UART_TX_ARB_LOST)
 962:Generated_Source\PSoC6\pdl\drivers/peripheral/scb/cy_scb_uart.h **** 
 963:Generated_Source\PSoC6\pdl\drivers/peripheral/scb/cy_scb_uart.h **** #define CY_SCB_UART_RX_INTR_MASK    (CY_SCB_UART_RX_TRIGGER    | CY_SCB_UART_RX_NOT_EMPTY | CY_SCB_
 964:Generated_Source\PSoC6\pdl\drivers/peripheral/scb/cy_scb_uart.h ****                                      CY_SCB_UART_RX_OVERFLOW   | CY_SCB_UART_RX_UNDERFLOW | CY_SCB_
 965:Generated_Source\PSoC6\pdl\drivers/peripheral/scb/cy_scb_uart.h ****                                      CY_SCB_UART_RX_ERR_PARITY | CY_SCB_UART_RX_BREAK_DETECT)
 966:Generated_Source\PSoC6\pdl\drivers/peripheral/scb/cy_scb_uart.h **** 
 967:Generated_Source\PSoC6\pdl\drivers/peripheral/scb/cy_scb_uart.h **** #define CY_SCB_UART_TX_INTR        (CY_SCB_TX_INTR_LEVEL | CY_SCB_TX_INTR_UART_NACK | CY_SCB_TX_INT
 968:Generated_Source\PSoC6\pdl\drivers/peripheral/scb/cy_scb_uart.h **** 
 969:Generated_Source\PSoC6\pdl\drivers/peripheral/scb/cy_scb_uart.h **** #define CY_SCB_UART_RX_INTR        (CY_SCB_RX_INTR_LEVEL | CY_SCB_RX_INTR_OVERFLOW | CY_SCB_RX_INTR
 970:Generated_Source\PSoC6\pdl\drivers/peripheral/scb/cy_scb_uart.h ****                                     CY_SCB_RX_INTR_UART_PARITY_ERROR | CY_SCB_RX_INTR_UART_BREAK_DE
 971:Generated_Source\PSoC6\pdl\drivers/peripheral/scb/cy_scb_uart.h **** 
 972:Generated_Source\PSoC6\pdl\drivers/peripheral/scb/cy_scb_uart.h **** #define CY_SCB_UART_RECEIVE_ERR    (CY_SCB_RX_INTR_OVERFLOW | CY_SCB_RX_INTR_UART_FRAME_ERROR | \
 973:Generated_Source\PSoC6\pdl\drivers/peripheral/scb/cy_scb_uart.h ****                                     CY_SCB_RX_INTR_UART_PARITY_ERROR)
 974:Generated_Source\PSoC6\pdl\drivers/peripheral/scb/cy_scb_uart.h **** 
 975:Generated_Source\PSoC6\pdl\drivers/peripheral/scb/cy_scb_uart.h **** #define CY_SCB_UART_TRANSMIT_ERR   (CY_SCB_TX_INTR_UART_NACK | CY_SCB_TX_INTR_UART_ARB_LOST)
 976:Generated_Source\PSoC6\pdl\drivers/peripheral/scb/cy_scb_uart.h **** 
 977:Generated_Source\PSoC6\pdl\drivers/peripheral/scb/cy_scb_uart.h **** #define CY_SCB_UART_INIT_KEY       (0x00ABCDEFUL)
 978:Generated_Source\PSoC6\pdl\drivers/peripheral/scb/cy_scb_uart.h **** 
 979:Generated_Source\PSoC6\pdl\drivers/peripheral/scb/cy_scb_uart.h **** #define CY_SCB_UART_IS_MODE_VALID(mode)     ( (CY_SCB_UART_STANDARD  == (mode)) || \
 980:Generated_Source\PSoC6\pdl\drivers/peripheral/scb/cy_scb_uart.h ****                                               (CY_SCB_UART_SMARTCARD == (mode)) || \
 981:Generated_Source\PSoC6\pdl\drivers/peripheral/scb/cy_scb_uart.h ****                                               (CY_SCB_UART_IRDA      == (mode)) )
 982:Generated_Source\PSoC6\pdl\drivers/peripheral/scb/cy_scb_uart.h **** 
 983:Generated_Source\PSoC6\pdl\drivers/peripheral/scb/cy_scb_uart.h **** #define CY_SCB_UART_IS_STOP_BITS_VALID(stopBits)    ( (CY_SCB_UART_STOP_BITS_1   == (stopBits)) || 
 984:Generated_Source\PSoC6\pdl\drivers/peripheral/scb/cy_scb_uart.h ****                                                       (CY_SCB_UART_STOP_BITS_1_5 == (stopBits)) || 
ARM GAS  C:\Users\markm\AppData\Local\Temp\ccdXMT0L.s 			page 24


 985:Generated_Source\PSoC6\pdl\drivers/peripheral/scb/cy_scb_uart.h ****                                                       (CY_SCB_UART_STOP_BITS_2   == (stopBits)) || 
 986:Generated_Source\PSoC6\pdl\drivers/peripheral/scb/cy_scb_uart.h ****                                                       (CY_SCB_UART_STOP_BITS_2_5 == (stopBits)) || 
 987:Generated_Source\PSoC6\pdl\drivers/peripheral/scb/cy_scb_uart.h ****                                                       (CY_SCB_UART_STOP_BITS_3   == (stopBits)) || 
 988:Generated_Source\PSoC6\pdl\drivers/peripheral/scb/cy_scb_uart.h ****                                                       (CY_SCB_UART_STOP_BITS_3_5 == (stopBits)) || 
 989:Generated_Source\PSoC6\pdl\drivers/peripheral/scb/cy_scb_uart.h ****                                                       (CY_SCB_UART_STOP_BITS_4   == (stopBits)) )
 990:Generated_Source\PSoC6\pdl\drivers/peripheral/scb/cy_scb_uart.h **** 
 991:Generated_Source\PSoC6\pdl\drivers/peripheral/scb/cy_scb_uart.h **** #define CY_SCB_UART_IS_PARITY_VALID(parity)         ( (CY_SCB_UART_PARITY_NONE == (parity)) || \
 992:Generated_Source\PSoC6\pdl\drivers/peripheral/scb/cy_scb_uart.h ****                                                       (CY_SCB_UART_PARITY_EVEN == (parity)) || \
 993:Generated_Source\PSoC6\pdl\drivers/peripheral/scb/cy_scb_uart.h ****                                                       (CY_SCB_UART_PARITY_ODD  == (parity)) )
 994:Generated_Source\PSoC6\pdl\drivers/peripheral/scb/cy_scb_uart.h **** 
 995:Generated_Source\PSoC6\pdl\drivers/peripheral/scb/cy_scb_uart.h **** #define CY_SCB_UART_IS_POLARITY_VALID(polarity)     ( (CY_SCB_UART_ACTIVE_LOW  == (polarity)) || \
 996:Generated_Source\PSoC6\pdl\drivers/peripheral/scb/cy_scb_uart.h ****                                                       (CY_SCB_UART_ACTIVE_HIGH == (polarity)) )
 997:Generated_Source\PSoC6\pdl\drivers/peripheral/scb/cy_scb_uart.h **** 
 998:Generated_Source\PSoC6\pdl\drivers/peripheral/scb/cy_scb_uart.h **** #define CY_SCB_UART_IS_IRDA_LP_OVS_VALID(ovs)       ( (CY_SCB_UART_IRDA_LP_OVS16   == (ovs)) || \
 999:Generated_Source\PSoC6\pdl\drivers/peripheral/scb/cy_scb_uart.h ****                                                       (CY_SCB_UART_IRDA_LP_OVS32   == (ovs)) || \
1000:Generated_Source\PSoC6\pdl\drivers/peripheral/scb/cy_scb_uart.h ****                                                       (CY_SCB_UART_IRDA_LP_OVS48   == (ovs)) || \
1001:Generated_Source\PSoC6\pdl\drivers/peripheral/scb/cy_scb_uart.h ****                                                       (CY_SCB_UART_IRDA_LP_OVS96   == (ovs)) || \
1002:Generated_Source\PSoC6\pdl\drivers/peripheral/scb/cy_scb_uart.h ****                                                       (CY_SCB_UART_IRDA_LP_OVS192  == (ovs)) || \
1003:Generated_Source\PSoC6\pdl\drivers/peripheral/scb/cy_scb_uart.h ****                                                       (CY_SCB_UART_IRDA_LP_OVS768  == (ovs)) || \
1004:Generated_Source\PSoC6\pdl\drivers/peripheral/scb/cy_scb_uart.h ****                                                       (CY_SCB_UART_IRDA_LP_OVS1536 == (ovs)) )
1005:Generated_Source\PSoC6\pdl\drivers/peripheral/scb/cy_scb_uart.h **** 
1006:Generated_Source\PSoC6\pdl\drivers/peripheral/scb/cy_scb_uart.h **** #define CY_SCB_UART_IS_ADDRESS_VALID(addr)          ((addr) <= 0xFFUL)
1007:Generated_Source\PSoC6\pdl\drivers/peripheral/scb/cy_scb_uart.h **** #define CY_SCB_UART_IS_ADDRESS_MASK_VALID(mask)     ((mask) <= 0xFFUL)
1008:Generated_Source\PSoC6\pdl\drivers/peripheral/scb/cy_scb_uart.h **** #define CY_SCB_UART_IS_DATA_WIDTH_VALID(width)      ( ((width) >= 5UL) && ((width) <= 9UL) )
1009:Generated_Source\PSoC6\pdl\drivers/peripheral/scb/cy_scb_uart.h **** #define CY_SCB_UART_IS_OVERSAMPLE_VALID(ovs, mode, lpRx)    ( ((CY_SCB_UART_STANDARD  == (mode)) ||
1010:Generated_Source\PSoC6\pdl\drivers/peripheral/scb/cy_scb_uart.h ****                                                               (((ovs) >= 8UL) && ((ovs) <= 16UL)) :
1011:Generated_Source\PSoC6\pdl\drivers/peripheral/scb/cy_scb_uart.h ****                                                               ((lpRx) ? CY_SCB_UART_IS_IRDA_LP_OVS_
1012:Generated_Source\PSoC6\pdl\drivers/peripheral/scb/cy_scb_uart.h **** 
1013:Generated_Source\PSoC6\pdl\drivers/peripheral/scb/cy_scb_uart.h **** #define CY_SCB_UART_IS_RX_BREAK_WIDTH_VALID(base, width)    ( ((width) >= (_FLD2VAL(SCB_RX_CTRL_DAT
1014:Generated_Source\PSoC6\pdl\drivers/peripheral/scb/cy_scb_uart.h ****                                                               ((width) <= 16UL) )
1015:Generated_Source\PSoC6\pdl\drivers/peripheral/scb/cy_scb_uart.h **** #define CY_SCB_UART_IS_TX_BREAK_WIDTH_VALID(width)          ( ((width) >= 4UL) && ((width) <= 16UL)
1016:Generated_Source\PSoC6\pdl\drivers/peripheral/scb/cy_scb_uart.h **** 
1017:Generated_Source\PSoC6\pdl\drivers/peripheral/scb/cy_scb_uart.h **** #define CY_SCB_UART_IS_MUTLI_PROC_VALID(mp, mode, width, parity)    ( (mp) ? ((CY_SCB_UART_STANDARD
1018:Generated_Source\PSoC6\pdl\drivers/peripheral/scb/cy_scb_uart.h ****                                                                               (CY_SCB_UART_PARITY_N
1019:Generated_Source\PSoC6\pdl\drivers/peripheral/scb/cy_scb_uart.h **** /** \endcond */
1020:Generated_Source\PSoC6\pdl\drivers/peripheral/scb/cy_scb_uart.h **** 
1021:Generated_Source\PSoC6\pdl\drivers/peripheral/scb/cy_scb_uart.h **** /** \} group_scb_uart_macros */
1022:Generated_Source\PSoC6\pdl\drivers/peripheral/scb/cy_scb_uart.h **** 
1023:Generated_Source\PSoC6\pdl\drivers/peripheral/scb/cy_scb_uart.h **** 
1024:Generated_Source\PSoC6\pdl\drivers/peripheral/scb/cy_scb_uart.h **** /*******************************************************************************
1025:Generated_Source\PSoC6\pdl\drivers/peripheral/scb/cy_scb_uart.h **** *                    In-line Function Implementation
1026:Generated_Source\PSoC6\pdl\drivers/peripheral/scb/cy_scb_uart.h **** *******************************************************************************/
1027:Generated_Source\PSoC6\pdl\drivers/peripheral/scb/cy_scb_uart.h **** 
1028:Generated_Source\PSoC6\pdl\drivers/peripheral/scb/cy_scb_uart.h **** /**
1029:Generated_Source\PSoC6\pdl\drivers/peripheral/scb/cy_scb_uart.h **** * \addtogroup group_scb_uart_general_functions
1030:Generated_Source\PSoC6\pdl\drivers/peripheral/scb/cy_scb_uart.h **** * \{
1031:Generated_Source\PSoC6\pdl\drivers/peripheral/scb/cy_scb_uart.h **** */
1032:Generated_Source\PSoC6\pdl\drivers/peripheral/scb/cy_scb_uart.h **** 
1033:Generated_Source\PSoC6\pdl\drivers/peripheral/scb/cy_scb_uart.h **** /*******************************************************************************
1034:Generated_Source\PSoC6\pdl\drivers/peripheral/scb/cy_scb_uart.h **** * Function Name: Cy_SCB_UART_Enable
1035:Generated_Source\PSoC6\pdl\drivers/peripheral/scb/cy_scb_uart.h **** ****************************************************************************//**
1036:Generated_Source\PSoC6\pdl\drivers/peripheral/scb/cy_scb_uart.h **** *
1037:Generated_Source\PSoC6\pdl\drivers/peripheral/scb/cy_scb_uart.h **** * Enables the SCB block for the UART operation.
1038:Generated_Source\PSoC6\pdl\drivers/peripheral/scb/cy_scb_uart.h **** *
1039:Generated_Source\PSoC6\pdl\drivers/peripheral/scb/cy_scb_uart.h **** * \param base
1040:Generated_Source\PSoC6\pdl\drivers/peripheral/scb/cy_scb_uart.h **** * The pointer to the UART SCB instance.
1041:Generated_Source\PSoC6\pdl\drivers/peripheral/scb/cy_scb_uart.h **** *
ARM GAS  C:\Users\markm\AppData\Local\Temp\ccdXMT0L.s 			page 25


1042:Generated_Source\PSoC6\pdl\drivers/peripheral/scb/cy_scb_uart.h **** *******************************************************************************/
1043:Generated_Source\PSoC6\pdl\drivers/peripheral/scb/cy_scb_uart.h **** __STATIC_INLINE void Cy_SCB_UART_Enable(CySCB_Type *base)
1044:Generated_Source\PSoC6\pdl\drivers/peripheral/scb/cy_scb_uart.h **** {
1045:Generated_Source\PSoC6\pdl\drivers/peripheral/scb/cy_scb_uart.h ****     SCB_CTRL(base) |= SCB_CTRL_ENABLED_Msk;
1046:Generated_Source\PSoC6\pdl\drivers/peripheral/scb/cy_scb_uart.h **** }
1047:Generated_Source\PSoC6\pdl\drivers/peripheral/scb/cy_scb_uart.h **** 
1048:Generated_Source\PSoC6\pdl\drivers/peripheral/scb/cy_scb_uart.h **** 
1049:Generated_Source\PSoC6\pdl\drivers/peripheral/scb/cy_scb_uart.h **** /*******************************************************************************
1050:Generated_Source\PSoC6\pdl\drivers/peripheral/scb/cy_scb_uart.h **** * Function Name: Cy_SCB_UART_EnableCts
1051:Generated_Source\PSoC6\pdl\drivers/peripheral/scb/cy_scb_uart.h **** ****************************************************************************//**
1052:Generated_Source\PSoC6\pdl\drivers/peripheral/scb/cy_scb_uart.h **** *
1053:Generated_Source\PSoC6\pdl\drivers/peripheral/scb/cy_scb_uart.h **** * Enables the Clear to Send (CTS) input for the UART. The UART will not transmit
1054:Generated_Source\PSoC6\pdl\drivers/peripheral/scb/cy_scb_uart.h **** * data while this signal is inactive.
1055:Generated_Source\PSoC6\pdl\drivers/peripheral/scb/cy_scb_uart.h **** *
1056:Generated_Source\PSoC6\pdl\drivers/peripheral/scb/cy_scb_uart.h **** * \param base
1057:Generated_Source\PSoC6\pdl\drivers/peripheral/scb/cy_scb_uart.h **** * The pointer to the UART SCB instance.
1058:Generated_Source\PSoC6\pdl\drivers/peripheral/scb/cy_scb_uart.h **** *
1059:Generated_Source\PSoC6\pdl\drivers/peripheral/scb/cy_scb_uart.h **** *******************************************************************************/
1060:Generated_Source\PSoC6\pdl\drivers/peripheral/scb/cy_scb_uart.h **** __STATIC_INLINE void Cy_SCB_UART_EnableCts(CySCB_Type *base)
1061:Generated_Source\PSoC6\pdl\drivers/peripheral/scb/cy_scb_uart.h **** {
1062:Generated_Source\PSoC6\pdl\drivers/peripheral/scb/cy_scb_uart.h ****     SCB_UART_FLOW_CTRL(base) |= SCB_UART_FLOW_CTRL_CTS_ENABLED_Msk;
1063:Generated_Source\PSoC6\pdl\drivers/peripheral/scb/cy_scb_uart.h **** }
1064:Generated_Source\PSoC6\pdl\drivers/peripheral/scb/cy_scb_uart.h **** 
1065:Generated_Source\PSoC6\pdl\drivers/peripheral/scb/cy_scb_uart.h **** 
1066:Generated_Source\PSoC6\pdl\drivers/peripheral/scb/cy_scb_uart.h **** /*******************************************************************************
1067:Generated_Source\PSoC6\pdl\drivers/peripheral/scb/cy_scb_uart.h **** * Function Name: Cy_SCB_UART_DisableCts
1068:Generated_Source\PSoC6\pdl\drivers/peripheral/scb/cy_scb_uart.h **** ****************************************************************************//**
1069:Generated_Source\PSoC6\pdl\drivers/peripheral/scb/cy_scb_uart.h **** *
1070:Generated_Source\PSoC6\pdl\drivers/peripheral/scb/cy_scb_uart.h **** * Disables the Clear to Send (CTS) input for the UART.
1071:Generated_Source\PSoC6\pdl\drivers/peripheral/scb/cy_scb_uart.h **** * See \ref Cy_SCB_UART_EnableCts for the details.
1072:Generated_Source\PSoC6\pdl\drivers/peripheral/scb/cy_scb_uart.h **** *
1073:Generated_Source\PSoC6\pdl\drivers/peripheral/scb/cy_scb_uart.h **** * \param base
1074:Generated_Source\PSoC6\pdl\drivers/peripheral/scb/cy_scb_uart.h **** * The pointer to the UART SCB instance.
1075:Generated_Source\PSoC6\pdl\drivers/peripheral/scb/cy_scb_uart.h **** *
1076:Generated_Source\PSoC6\pdl\drivers/peripheral/scb/cy_scb_uart.h **** *******************************************************************************/
1077:Generated_Source\PSoC6\pdl\drivers/peripheral/scb/cy_scb_uart.h **** __STATIC_INLINE void Cy_SCB_UART_DisableCts(CySCB_Type *base)
1078:Generated_Source\PSoC6\pdl\drivers/peripheral/scb/cy_scb_uart.h **** {
1079:Generated_Source\PSoC6\pdl\drivers/peripheral/scb/cy_scb_uart.h ****     SCB_UART_FLOW_CTRL(base) &= (uint32_t) ~SCB_UART_FLOW_CTRL_CTS_ENABLED_Msk;
1080:Generated_Source\PSoC6\pdl\drivers/peripheral/scb/cy_scb_uart.h **** }
1081:Generated_Source\PSoC6\pdl\drivers/peripheral/scb/cy_scb_uart.h **** 
1082:Generated_Source\PSoC6\pdl\drivers/peripheral/scb/cy_scb_uart.h **** 
1083:Generated_Source\PSoC6\pdl\drivers/peripheral/scb/cy_scb_uart.h **** /*******************************************************************************
1084:Generated_Source\PSoC6\pdl\drivers/peripheral/scb/cy_scb_uart.h **** * Function Name: Cy_SCB_UART_SetRtsFifoLevel
1085:Generated_Source\PSoC6\pdl\drivers/peripheral/scb/cy_scb_uart.h **** ****************************************************************************//**
1086:Generated_Source\PSoC6\pdl\drivers/peripheral/scb/cy_scb_uart.h **** *
1087:Generated_Source\PSoC6\pdl\drivers/peripheral/scb/cy_scb_uart.h **** * Sets a level for the Ready To Send (RTS) signal activation.
1088:Generated_Source\PSoC6\pdl\drivers/peripheral/scb/cy_scb_uart.h **** * When the number of data elements in the receive FIFO is below this level,
1089:Generated_Source\PSoC6\pdl\drivers/peripheral/scb/cy_scb_uart.h **** * then the RTS output is active. Otherwise, the RTS signal is inactive.
1090:Generated_Source\PSoC6\pdl\drivers/peripheral/scb/cy_scb_uart.h **** * To disable the RTS signal generation, set this level to zero.
1091:Generated_Source\PSoC6\pdl\drivers/peripheral/scb/cy_scb_uart.h **** *
1092:Generated_Source\PSoC6\pdl\drivers/peripheral/scb/cy_scb_uart.h **** * \param base
1093:Generated_Source\PSoC6\pdl\drivers/peripheral/scb/cy_scb_uart.h **** * The pointer to the UART SCB instance.
1094:Generated_Source\PSoC6\pdl\drivers/peripheral/scb/cy_scb_uart.h **** *
1095:Generated_Source\PSoC6\pdl\drivers/peripheral/scb/cy_scb_uart.h **** * \param level
1096:Generated_Source\PSoC6\pdl\drivers/peripheral/scb/cy_scb_uart.h **** * The level in the RX FIFO for RTS signal activation.
1097:Generated_Source\PSoC6\pdl\drivers/peripheral/scb/cy_scb_uart.h **** *
1098:Generated_Source\PSoC6\pdl\drivers/peripheral/scb/cy_scb_uart.h **** *******************************************************************************/
ARM GAS  C:\Users\markm\AppData\Local\Temp\ccdXMT0L.s 			page 26


1099:Generated_Source\PSoC6\pdl\drivers/peripheral/scb/cy_scb_uart.h **** __STATIC_INLINE void Cy_SCB_UART_SetRtsFifoLevel(CySCB_Type *base, uint32_t level)
1100:Generated_Source\PSoC6\pdl\drivers/peripheral/scb/cy_scb_uart.h **** {
1101:Generated_Source\PSoC6\pdl\drivers/peripheral/scb/cy_scb_uart.h ****     CY_ASSERT_L2(CY_SCB_IS_TRIGGER_LEVEL_VALID(base, level));
1102:Generated_Source\PSoC6\pdl\drivers/peripheral/scb/cy_scb_uart.h **** 
1103:Generated_Source\PSoC6\pdl\drivers/peripheral/scb/cy_scb_uart.h ****     CY_REG32_CLR_SET(SCB_UART_FLOW_CTRL(base), SCB_UART_FLOW_CTRL_TRIGGER_LEVEL, level);
1104:Generated_Source\PSoC6\pdl\drivers/peripheral/scb/cy_scb_uart.h **** }
1105:Generated_Source\PSoC6\pdl\drivers/peripheral/scb/cy_scb_uart.h **** 
1106:Generated_Source\PSoC6\pdl\drivers/peripheral/scb/cy_scb_uart.h **** 
1107:Generated_Source\PSoC6\pdl\drivers/peripheral/scb/cy_scb_uart.h **** /*******************************************************************************
1108:Generated_Source\PSoC6\pdl\drivers/peripheral/scb/cy_scb_uart.h **** * Function Name: Cy_SCB_UART_GetRtsFifoLevel
1109:Generated_Source\PSoC6\pdl\drivers/peripheral/scb/cy_scb_uart.h **** ****************************************************************************//**
1110:Generated_Source\PSoC6\pdl\drivers/peripheral/scb/cy_scb_uart.h **** *
1111:Generated_Source\PSoC6\pdl\drivers/peripheral/scb/cy_scb_uart.h **** * Returns the level in the RX FIFO for the RTS signal activation.
1112:Generated_Source\PSoC6\pdl\drivers/peripheral/scb/cy_scb_uart.h **** *
1113:Generated_Source\PSoC6\pdl\drivers/peripheral/scb/cy_scb_uart.h **** * \param base
1114:Generated_Source\PSoC6\pdl\drivers/peripheral/scb/cy_scb_uart.h **** * The pointer to the UART SCB instance.
1115:Generated_Source\PSoC6\pdl\drivers/peripheral/scb/cy_scb_uart.h **** *
1116:Generated_Source\PSoC6\pdl\drivers/peripheral/scb/cy_scb_uart.h **** * \return
1117:Generated_Source\PSoC6\pdl\drivers/peripheral/scb/cy_scb_uart.h **** * The level in the RX FIFO for RTS signal activation.
1118:Generated_Source\PSoC6\pdl\drivers/peripheral/scb/cy_scb_uart.h **** *
1119:Generated_Source\PSoC6\pdl\drivers/peripheral/scb/cy_scb_uart.h **** *******************************************************************************/
1120:Generated_Source\PSoC6\pdl\drivers/peripheral/scb/cy_scb_uart.h **** __STATIC_INLINE uint32_t Cy_SCB_UART_GetRtsFifoLevel(CySCB_Type const *base)
1121:Generated_Source\PSoC6\pdl\drivers/peripheral/scb/cy_scb_uart.h **** {
1122:Generated_Source\PSoC6\pdl\drivers/peripheral/scb/cy_scb_uart.h ****     return _FLD2VAL(SCB_UART_FLOW_CTRL_TRIGGER_LEVEL, SCB_UART_FLOW_CTRL(base));
1123:Generated_Source\PSoC6\pdl\drivers/peripheral/scb/cy_scb_uart.h **** }
1124:Generated_Source\PSoC6\pdl\drivers/peripheral/scb/cy_scb_uart.h **** 
1125:Generated_Source\PSoC6\pdl\drivers/peripheral/scb/cy_scb_uart.h **** 
1126:Generated_Source\PSoC6\pdl\drivers/peripheral/scb/cy_scb_uart.h **** /*******************************************************************************
1127:Generated_Source\PSoC6\pdl\drivers/peripheral/scb/cy_scb_uart.h **** * Function Name: Cy_SCB_UART_EnableSkipStart
1128:Generated_Source\PSoC6\pdl\drivers/peripheral/scb/cy_scb_uart.h **** ****************************************************************************//**
1129:Generated_Source\PSoC6\pdl\drivers/peripheral/scb/cy_scb_uart.h **** *
1130:Generated_Source\PSoC6\pdl\drivers/peripheral/scb/cy_scb_uart.h **** * Enables the skip start-bit functionality.
1131:Generated_Source\PSoC6\pdl\drivers/peripheral/scb/cy_scb_uart.h **** * When skip start is enabled the UART hardware does not synchronize to a 
1132:Generated_Source\PSoC6\pdl\drivers/peripheral/scb/cy_scb_uart.h **** * start bit but synchronizes to the first rising edge. To create a rising edge, 
1133:Generated_Source\PSoC6\pdl\drivers/peripheral/scb/cy_scb_uart.h **** * the first data bit must be a 1. This feature is useful when the start bit 
1134:Generated_Source\PSoC6\pdl\drivers/peripheral/scb/cy_scb_uart.h **** * falling edge is used to wake the device through a GPIO interrupt.
1135:Generated_Source\PSoC6\pdl\drivers/peripheral/scb/cy_scb_uart.h **** *
1136:Generated_Source\PSoC6\pdl\drivers/peripheral/scb/cy_scb_uart.h **** * \param base
1137:Generated_Source\PSoC6\pdl\drivers/peripheral/scb/cy_scb_uart.h **** * The pointer to the UART SCB instance.
1138:Generated_Source\PSoC6\pdl\drivers/peripheral/scb/cy_scb_uart.h **** *
1139:Generated_Source\PSoC6\pdl\drivers/peripheral/scb/cy_scb_uart.h **** * \note
1140:Generated_Source\PSoC6\pdl\drivers/peripheral/scb/cy_scb_uart.h **** * When skip start-bit feature is enabled, it is applied (UART synchronizes 
1141:Generated_Source\PSoC6\pdl\drivers/peripheral/scb/cy_scb_uart.h **** * to the first rising edge after start bit) whenever the SCB is enabled. 
1142:Generated_Source\PSoC6\pdl\drivers/peripheral/scb/cy_scb_uart.h **** * This can cause incorrect UART synchronization and data reception when 
1143:Generated_Source\PSoC6\pdl\drivers/peripheral/scb/cy_scb_uart.h **** * the first data bit is not a 1. Therefore, disable the skip start-bit 
1144:Generated_Source\PSoC6\pdl\drivers/peripheral/scb/cy_scb_uart.h **** * when it should not be applied.
1145:Generated_Source\PSoC6\pdl\drivers/peripheral/scb/cy_scb_uart.h **** * Note that SCB is disabled before enter Deep Sleep mode or after calling 
1146:Generated_Source\PSoC6\pdl\drivers/peripheral/scb/cy_scb_uart.h **** * \ref Cy_SCB_UART_Disable.
1147:Generated_Source\PSoC6\pdl\drivers/peripheral/scb/cy_scb_uart.h **** *
1148:Generated_Source\PSoC6\pdl\drivers/peripheral/scb/cy_scb_uart.h **** *******************************************************************************/
1149:Generated_Source\PSoC6\pdl\drivers/peripheral/scb/cy_scb_uart.h **** __STATIC_INLINE void Cy_SCB_UART_EnableSkipStart(CySCB_Type *base)
1150:Generated_Source\PSoC6\pdl\drivers/peripheral/scb/cy_scb_uart.h **** {
1151:Generated_Source\PSoC6\pdl\drivers/peripheral/scb/cy_scb_uart.h ****     SCB_UART_RX_CTRL(base) |= SCB_UART_RX_CTRL_SKIP_START_Msk;
1152:Generated_Source\PSoC6\pdl\drivers/peripheral/scb/cy_scb_uart.h **** }
1153:Generated_Source\PSoC6\pdl\drivers/peripheral/scb/cy_scb_uart.h **** 
1154:Generated_Source\PSoC6\pdl\drivers/peripheral/scb/cy_scb_uart.h **** 
1155:Generated_Source\PSoC6\pdl\drivers/peripheral/scb/cy_scb_uart.h **** /*******************************************************************************
ARM GAS  C:\Users\markm\AppData\Local\Temp\ccdXMT0L.s 			page 27


1156:Generated_Source\PSoC6\pdl\drivers/peripheral/scb/cy_scb_uart.h **** * Function Name: Cy_SCB_UART_DisableSkipStart
1157:Generated_Source\PSoC6\pdl\drivers/peripheral/scb/cy_scb_uart.h **** ****************************************************************************//**
1158:Generated_Source\PSoC6\pdl\drivers/peripheral/scb/cy_scb_uart.h **** *
1159:Generated_Source\PSoC6\pdl\drivers/peripheral/scb/cy_scb_uart.h **** * Disable the skip start-bit functionality.
1160:Generated_Source\PSoC6\pdl\drivers/peripheral/scb/cy_scb_uart.h **** * See \ref Cy_SCB_UART_EnableSkipStart for the details.
1161:Generated_Source\PSoC6\pdl\drivers/peripheral/scb/cy_scb_uart.h **** *
1162:Generated_Source\PSoC6\pdl\drivers/peripheral/scb/cy_scb_uart.h **** * \param base
1163:Generated_Source\PSoC6\pdl\drivers/peripheral/scb/cy_scb_uart.h **** * The pointer to the UART SCB instance.
1164:Generated_Source\PSoC6\pdl\drivers/peripheral/scb/cy_scb_uart.h **** *
1165:Generated_Source\PSoC6\pdl\drivers/peripheral/scb/cy_scb_uart.h **** *******************************************************************************/
1166:Generated_Source\PSoC6\pdl\drivers/peripheral/scb/cy_scb_uart.h **** __STATIC_INLINE void Cy_SCB_UART_DisableSkipStart(CySCB_Type *base)
1167:Generated_Source\PSoC6\pdl\drivers/peripheral/scb/cy_scb_uart.h **** {
1168:Generated_Source\PSoC6\pdl\drivers/peripheral/scb/cy_scb_uart.h ****     SCB_UART_RX_CTRL(base) &= (uint32_t) ~SCB_UART_RX_CTRL_SKIP_START_Msk;
1169:Generated_Source\PSoC6\pdl\drivers/peripheral/scb/cy_scb_uart.h **** }
1170:Generated_Source\PSoC6\pdl\drivers/peripheral/scb/cy_scb_uart.h **** /** \} group_scb_uart_general_functions */
1171:Generated_Source\PSoC6\pdl\drivers/peripheral/scb/cy_scb_uart.h **** 
1172:Generated_Source\PSoC6\pdl\drivers/peripheral/scb/cy_scb_uart.h **** 
1173:Generated_Source\PSoC6\pdl\drivers/peripheral/scb/cy_scb_uart.h **** /**
1174:Generated_Source\PSoC6\pdl\drivers/peripheral/scb/cy_scb_uart.h **** * \addtogroup group_scb_uart_low_level_functions
1175:Generated_Source\PSoC6\pdl\drivers/peripheral/scb/cy_scb_uart.h **** * \{
1176:Generated_Source\PSoC6\pdl\drivers/peripheral/scb/cy_scb_uart.h **** */
1177:Generated_Source\PSoC6\pdl\drivers/peripheral/scb/cy_scb_uart.h **** /*******************************************************************************
1178:Generated_Source\PSoC6\pdl\drivers/peripheral/scb/cy_scb_uart.h **** * Function Name: Cy_SCB_UART_Get
1179:Generated_Source\PSoC6\pdl\drivers/peripheral/scb/cy_scb_uart.h **** ****************************************************************************//**
1180:Generated_Source\PSoC6\pdl\drivers/peripheral/scb/cy_scb_uart.h **** *
1181:Generated_Source\PSoC6\pdl\drivers/peripheral/scb/cy_scb_uart.h **** * Reads a single data element from the UART RX FIFO.
1182:Generated_Source\PSoC6\pdl\drivers/peripheral/scb/cy_scb_uart.h **** * This function does not check whether the RX FIFO has data before reading it.
1183:Generated_Source\PSoC6\pdl\drivers/peripheral/scb/cy_scb_uart.h **** * If the RX FIFO is empty, the function returns \ref CY_SCB_UART_RX_NO_DATA.
1184:Generated_Source\PSoC6\pdl\drivers/peripheral/scb/cy_scb_uart.h **** *
1185:Generated_Source\PSoC6\pdl\drivers/peripheral/scb/cy_scb_uart.h **** * \param base
1186:Generated_Source\PSoC6\pdl\drivers/peripheral/scb/cy_scb_uart.h **** * The pointer to the UART SCB instance.
1187:Generated_Source\PSoC6\pdl\drivers/peripheral/scb/cy_scb_uart.h **** *
1188:Generated_Source\PSoC6\pdl\drivers/peripheral/scb/cy_scb_uart.h **** * \return
1189:Generated_Source\PSoC6\pdl\drivers/peripheral/scb/cy_scb_uart.h **** * Data from the RX FIFO.
1190:Generated_Source\PSoC6\pdl\drivers/peripheral/scb/cy_scb_uart.h **** * The data element size is defined by the configured data width.
1191:Generated_Source\PSoC6\pdl\drivers/peripheral/scb/cy_scb_uart.h **** *
1192:Generated_Source\PSoC6\pdl\drivers/peripheral/scb/cy_scb_uart.h **** *******************************************************************************/
1193:Generated_Source\PSoC6\pdl\drivers/peripheral/scb/cy_scb_uart.h **** __STATIC_INLINE uint32_t Cy_SCB_UART_Get(CySCB_Type const *base)
1194:Generated_Source\PSoC6\pdl\drivers/peripheral/scb/cy_scb_uart.h **** {
1195:Generated_Source\PSoC6\pdl\drivers/peripheral/scb/cy_scb_uart.h ****     return Cy_SCB_ReadRxFifo(base);
1196:Generated_Source\PSoC6\pdl\drivers/peripheral/scb/cy_scb_uart.h **** }
1197:Generated_Source\PSoC6\pdl\drivers/peripheral/scb/cy_scb_uart.h **** 
1198:Generated_Source\PSoC6\pdl\drivers/peripheral/scb/cy_scb_uart.h **** 
1199:Generated_Source\PSoC6\pdl\drivers/peripheral/scb/cy_scb_uart.h **** /*******************************************************************************
1200:Generated_Source\PSoC6\pdl\drivers/peripheral/scb/cy_scb_uart.h **** * Function Name: Cy_SCB_UART_GetArray
1201:Generated_Source\PSoC6\pdl\drivers/peripheral/scb/cy_scb_uart.h **** ****************************************************************************//**
1202:Generated_Source\PSoC6\pdl\drivers/peripheral/scb/cy_scb_uart.h **** *
1203:Generated_Source\PSoC6\pdl\drivers/peripheral/scb/cy_scb_uart.h **** * Reads an array of data out of the UART RX FIFO.
1204:Generated_Source\PSoC6\pdl\drivers/peripheral/scb/cy_scb_uart.h **** * This function does not block. It returns how many data elements were read
1205:Generated_Source\PSoC6\pdl\drivers/peripheral/scb/cy_scb_uart.h **** * from the RX FIFO.
1206:Generated_Source\PSoC6\pdl\drivers/peripheral/scb/cy_scb_uart.h **** *
1207:Generated_Source\PSoC6\pdl\drivers/peripheral/scb/cy_scb_uart.h **** * \param base
1208:Generated_Source\PSoC6\pdl\drivers/peripheral/scb/cy_scb_uart.h **** * The pointer to the UART SCB instance.
1209:Generated_Source\PSoC6\pdl\drivers/peripheral/scb/cy_scb_uart.h **** *
1210:Generated_Source\PSoC6\pdl\drivers/peripheral/scb/cy_scb_uart.h **** * \param buffer
1211:Generated_Source\PSoC6\pdl\drivers/peripheral/scb/cy_scb_uart.h **** * The pointer to the location to place the data read from the RX FIFO.
1212:Generated_Source\PSoC6\pdl\drivers/peripheral/scb/cy_scb_uart.h **** * The element size is defined by the data type, which depends on the configured
ARM GAS  C:\Users\markm\AppData\Local\Temp\ccdXMT0L.s 			page 28


1213:Generated_Source\PSoC6\pdl\drivers/peripheral/scb/cy_scb_uart.h **** * data width.
1214:Generated_Source\PSoC6\pdl\drivers/peripheral/scb/cy_scb_uart.h **** *
1215:Generated_Source\PSoC6\pdl\drivers/peripheral/scb/cy_scb_uart.h **** * \param size
1216:Generated_Source\PSoC6\pdl\drivers/peripheral/scb/cy_scb_uart.h **** * The number of data elements to read from the RX FIFO.
1217:Generated_Source\PSoC6\pdl\drivers/peripheral/scb/cy_scb_uart.h **** *
1218:Generated_Source\PSoC6\pdl\drivers/peripheral/scb/cy_scb_uart.h **** * \return
1219:Generated_Source\PSoC6\pdl\drivers/peripheral/scb/cy_scb_uart.h **** * The number of data elements read from the RX FIFO.
1220:Generated_Source\PSoC6\pdl\drivers/peripheral/scb/cy_scb_uart.h **** *
1221:Generated_Source\PSoC6\pdl\drivers/peripheral/scb/cy_scb_uart.h **** *******************************************************************************/
1222:Generated_Source\PSoC6\pdl\drivers/peripheral/scb/cy_scb_uart.h **** __STATIC_INLINE uint32_t Cy_SCB_UART_GetArray(CySCB_Type const *base, void *buffer, uint32_t size)
1223:Generated_Source\PSoC6\pdl\drivers/peripheral/scb/cy_scb_uart.h **** {
1224:Generated_Source\PSoC6\pdl\drivers/peripheral/scb/cy_scb_uart.h ****     CY_ASSERT_L1(CY_SCB_IS_BUFFER_VALID(buffer, size));
1225:Generated_Source\PSoC6\pdl\drivers/peripheral/scb/cy_scb_uart.h **** 
1226:Generated_Source\PSoC6\pdl\drivers/peripheral/scb/cy_scb_uart.h ****     return Cy_SCB_ReadArray(base, buffer, size);
1227:Generated_Source\PSoC6\pdl\drivers/peripheral/scb/cy_scb_uart.h **** }
1228:Generated_Source\PSoC6\pdl\drivers/peripheral/scb/cy_scb_uart.h **** 
1229:Generated_Source\PSoC6\pdl\drivers/peripheral/scb/cy_scb_uart.h **** 
1230:Generated_Source\PSoC6\pdl\drivers/peripheral/scb/cy_scb_uart.h **** /*******************************************************************************
1231:Generated_Source\PSoC6\pdl\drivers/peripheral/scb/cy_scb_uart.h **** * Function Name: Cy_SCB_UART_GetArrayBlocking
1232:Generated_Source\PSoC6\pdl\drivers/peripheral/scb/cy_scb_uart.h **** ****************************************************************************//**
1233:Generated_Source\PSoC6\pdl\drivers/peripheral/scb/cy_scb_uart.h **** *
1234:Generated_Source\PSoC6\pdl\drivers/peripheral/scb/cy_scb_uart.h **** * Reads an array of data out of the UART RX FIFO.
1235:Generated_Source\PSoC6\pdl\drivers/peripheral/scb/cy_scb_uart.h **** * This function blocks until the number of data elements specified by the
1236:Generated_Source\PSoC6\pdl\drivers/peripheral/scb/cy_scb_uart.h **** * size has been read from the RX FIFO.
1237:Generated_Source\PSoC6\pdl\drivers/peripheral/scb/cy_scb_uart.h **** *
1238:Generated_Source\PSoC6\pdl\drivers/peripheral/scb/cy_scb_uart.h **** * \param base
1239:Generated_Source\PSoC6\pdl\drivers/peripheral/scb/cy_scb_uart.h **** * The pointer to the UART SCB instance.
1240:Generated_Source\PSoC6\pdl\drivers/peripheral/scb/cy_scb_uart.h **** *
1241:Generated_Source\PSoC6\pdl\drivers/peripheral/scb/cy_scb_uart.h **** * \param buffer
1242:Generated_Source\PSoC6\pdl\drivers/peripheral/scb/cy_scb_uart.h **** * The pointer to the location to place the data read from the RX FIFO.
1243:Generated_Source\PSoC6\pdl\drivers/peripheral/scb/cy_scb_uart.h **** * The element size is defined by the data type, which depends on the configured
1244:Generated_Source\PSoC6\pdl\drivers/peripheral/scb/cy_scb_uart.h **** * data width.
1245:Generated_Source\PSoC6\pdl\drivers/peripheral/scb/cy_scb_uart.h **** *
1246:Generated_Source\PSoC6\pdl\drivers/peripheral/scb/cy_scb_uart.h **** * \param size
1247:Generated_Source\PSoC6\pdl\drivers/peripheral/scb/cy_scb_uart.h **** * The number of data elements to read from the RX FIFO.
1248:Generated_Source\PSoC6\pdl\drivers/peripheral/scb/cy_scb_uart.h **** *
1249:Generated_Source\PSoC6\pdl\drivers/peripheral/scb/cy_scb_uart.h **** *******************************************************************************/
1250:Generated_Source\PSoC6\pdl\drivers/peripheral/scb/cy_scb_uart.h **** __STATIC_INLINE void Cy_SCB_UART_GetArrayBlocking(CySCB_Type const *base, void *buffer, uint32_t si
1251:Generated_Source\PSoC6\pdl\drivers/peripheral/scb/cy_scb_uart.h **** {
1252:Generated_Source\PSoC6\pdl\drivers/peripheral/scb/cy_scb_uart.h ****     CY_ASSERT_L1(CY_SCB_IS_BUFFER_VALID(buffer, size));
1253:Generated_Source\PSoC6\pdl\drivers/peripheral/scb/cy_scb_uart.h **** 
1254:Generated_Source\PSoC6\pdl\drivers/peripheral/scb/cy_scb_uart.h ****     Cy_SCB_ReadArrayBlocking(base, buffer, size);
1255:Generated_Source\PSoC6\pdl\drivers/peripheral/scb/cy_scb_uart.h **** }
1256:Generated_Source\PSoC6\pdl\drivers/peripheral/scb/cy_scb_uart.h **** 
1257:Generated_Source\PSoC6\pdl\drivers/peripheral/scb/cy_scb_uart.h **** 
1258:Generated_Source\PSoC6\pdl\drivers/peripheral/scb/cy_scb_uart.h **** /*******************************************************************************
1259:Generated_Source\PSoC6\pdl\drivers/peripheral/scb/cy_scb_uart.h **** * Function Name: Cy_SCB_UART_GetRxFifoStatus
1260:Generated_Source\PSoC6\pdl\drivers/peripheral/scb/cy_scb_uart.h **** ****************************************************************************//**
1261:Generated_Source\PSoC6\pdl\drivers/peripheral/scb/cy_scb_uart.h **** *
1262:Generated_Source\PSoC6\pdl\drivers/peripheral/scb/cy_scb_uart.h **** * Returns the current status of the RX FIFO.
1263:Generated_Source\PSoC6\pdl\drivers/peripheral/scb/cy_scb_uart.h **** *
1264:Generated_Source\PSoC6\pdl\drivers/peripheral/scb/cy_scb_uart.h **** * \param base
1265:Generated_Source\PSoC6\pdl\drivers/peripheral/scb/cy_scb_uart.h **** * The pointer to the UART SCB instance.
1266:Generated_Source\PSoC6\pdl\drivers/peripheral/scb/cy_scb_uart.h **** *
1267:Generated_Source\PSoC6\pdl\drivers/peripheral/scb/cy_scb_uart.h **** * \return
1268:Generated_Source\PSoC6\pdl\drivers/peripheral/scb/cy_scb_uart.h **** * \ref group_scb_uart_macros_rx_fifo_status
1269:Generated_Source\PSoC6\pdl\drivers/peripheral/scb/cy_scb_uart.h **** *
ARM GAS  C:\Users\markm\AppData\Local\Temp\ccdXMT0L.s 			page 29


1270:Generated_Source\PSoC6\pdl\drivers/peripheral/scb/cy_scb_uart.h **** *******************************************************************************/
1271:Generated_Source\PSoC6\pdl\drivers/peripheral/scb/cy_scb_uart.h **** __STATIC_INLINE uint32_t Cy_SCB_UART_GetRxFifoStatus(CySCB_Type const *base)
1272:Generated_Source\PSoC6\pdl\drivers/peripheral/scb/cy_scb_uart.h **** {
1273:Generated_Source\PSoC6\pdl\drivers/peripheral/scb/cy_scb_uart.h ****     return (Cy_SCB_GetRxInterruptStatus(base) & CY_SCB_UART_RX_INTR_MASK);
1274:Generated_Source\PSoC6\pdl\drivers/peripheral/scb/cy_scb_uart.h **** }
1275:Generated_Source\PSoC6\pdl\drivers/peripheral/scb/cy_scb_uart.h **** 
1276:Generated_Source\PSoC6\pdl\drivers/peripheral/scb/cy_scb_uart.h **** 
1277:Generated_Source\PSoC6\pdl\drivers/peripheral/scb/cy_scb_uart.h **** /*******************************************************************************
1278:Generated_Source\PSoC6\pdl\drivers/peripheral/scb/cy_scb_uart.h **** * Function Name: Cy_SCB_UART_ClearRxFifoStatus
1279:Generated_Source\PSoC6\pdl\drivers/peripheral/scb/cy_scb_uart.h **** ****************************************************************************//**
1280:Generated_Source\PSoC6\pdl\drivers/peripheral/scb/cy_scb_uart.h **** *
1281:Generated_Source\PSoC6\pdl\drivers/peripheral/scb/cy_scb_uart.h **** * Clears the selected statuses of the RX FIFO.
1282:Generated_Source\PSoC6\pdl\drivers/peripheral/scb/cy_scb_uart.h **** *
1283:Generated_Source\PSoC6\pdl\drivers/peripheral/scb/cy_scb_uart.h **** * \param base
1284:Generated_Source\PSoC6\pdl\drivers/peripheral/scb/cy_scb_uart.h **** * The pointer to the UART SCB instance.
1285:Generated_Source\PSoC6\pdl\drivers/peripheral/scb/cy_scb_uart.h **** *
1286:Generated_Source\PSoC6\pdl\drivers/peripheral/scb/cy_scb_uart.h **** * \param clearMask
1287:Generated_Source\PSoC6\pdl\drivers/peripheral/scb/cy_scb_uart.h **** * The mask whose statuses to clear.
1288:Generated_Source\PSoC6\pdl\drivers/peripheral/scb/cy_scb_uart.h **** * See \ref group_scb_uart_macros_rx_fifo_status for the set of constants.
1289:Generated_Source\PSoC6\pdl\drivers/peripheral/scb/cy_scb_uart.h **** *
1290:Generated_Source\PSoC6\pdl\drivers/peripheral/scb/cy_scb_uart.h **** * \note
1291:Generated_Source\PSoC6\pdl\drivers/peripheral/scb/cy_scb_uart.h **** * * This status is also used for interrupt generation, so clearing it also
1292:Generated_Source\PSoC6\pdl\drivers/peripheral/scb/cy_scb_uart.h **** *   clears the interrupt sources.
1293:Generated_Source\PSoC6\pdl\drivers/peripheral/scb/cy_scb_uart.h **** * * Level-sensitive statuses such as \ref CY_SCB_UART_RX_TRIGGER,
1294:Generated_Source\PSoC6\pdl\drivers/peripheral/scb/cy_scb_uart.h **** *   \ref CY_SCB_UART_RX_NOT_EMPTY and \ref CY_SCB_UART_RX_FULL are set high again after
1295:Generated_Source\PSoC6\pdl\drivers/peripheral/scb/cy_scb_uart.h **** *   being cleared if the condition remains true.
1296:Generated_Source\PSoC6\pdl\drivers/peripheral/scb/cy_scb_uart.h **** *
1297:Generated_Source\PSoC6\pdl\drivers/peripheral/scb/cy_scb_uart.h **** *******************************************************************************/
1298:Generated_Source\PSoC6\pdl\drivers/peripheral/scb/cy_scb_uart.h **** __STATIC_INLINE void Cy_SCB_UART_ClearRxFifoStatus(CySCB_Type *base, uint32_t clearMask)
1299:Generated_Source\PSoC6\pdl\drivers/peripheral/scb/cy_scb_uart.h **** {
1300:Generated_Source\PSoC6\pdl\drivers/peripheral/scb/cy_scb_uart.h ****     CY_ASSERT_L2(CY_SCB_IS_INTR_VALID(clearMask, CY_SCB_UART_RX_INTR_MASK));
1301:Generated_Source\PSoC6\pdl\drivers/peripheral/scb/cy_scb_uart.h **** 
1302:Generated_Source\PSoC6\pdl\drivers/peripheral/scb/cy_scb_uart.h ****     Cy_SCB_ClearRxInterrupt(base, clearMask);
1303:Generated_Source\PSoC6\pdl\drivers/peripheral/scb/cy_scb_uart.h **** }
1304:Generated_Source\PSoC6\pdl\drivers/peripheral/scb/cy_scb_uart.h **** 
1305:Generated_Source\PSoC6\pdl\drivers/peripheral/scb/cy_scb_uart.h **** 
1306:Generated_Source\PSoC6\pdl\drivers/peripheral/scb/cy_scb_uart.h **** /*******************************************************************************
1307:Generated_Source\PSoC6\pdl\drivers/peripheral/scb/cy_scb_uart.h **** * Function Name: Cy_SCB_UART_GetNumInRxFifo
1308:Generated_Source\PSoC6\pdl\drivers/peripheral/scb/cy_scb_uart.h **** ****************************************************************************//**
1309:Generated_Source\PSoC6\pdl\drivers/peripheral/scb/cy_scb_uart.h **** *
1310:Generated_Source\PSoC6\pdl\drivers/peripheral/scb/cy_scb_uart.h **** * Returns the number of data elements in the UART RX FIFO.
1311:Generated_Source\PSoC6\pdl\drivers/peripheral/scb/cy_scb_uart.h **** *
1312:Generated_Source\PSoC6\pdl\drivers/peripheral/scb/cy_scb_uart.h **** * \param base
1313:Generated_Source\PSoC6\pdl\drivers/peripheral/scb/cy_scb_uart.h **** * The pointer to the UART SCB instance.
1314:Generated_Source\PSoC6\pdl\drivers/peripheral/scb/cy_scb_uart.h **** *
1315:Generated_Source\PSoC6\pdl\drivers/peripheral/scb/cy_scb_uart.h **** * \return
1316:Generated_Source\PSoC6\pdl\drivers/peripheral/scb/cy_scb_uart.h **** * The number of data elements in the RX FIFO.
1317:Generated_Source\PSoC6\pdl\drivers/peripheral/scb/cy_scb_uart.h **** * The size of date element defined by the configured data width.
1318:Generated_Source\PSoC6\pdl\drivers/peripheral/scb/cy_scb_uart.h **** *
1319:Generated_Source\PSoC6\pdl\drivers/peripheral/scb/cy_scb_uart.h **** *******************************************************************************/
1320:Generated_Source\PSoC6\pdl\drivers/peripheral/scb/cy_scb_uart.h **** __STATIC_INLINE uint32_t Cy_SCB_UART_GetNumInRxFifo(CySCB_Type const *base)
1321:Generated_Source\PSoC6\pdl\drivers/peripheral/scb/cy_scb_uart.h **** {
1322:Generated_Source\PSoC6\pdl\drivers/peripheral/scb/cy_scb_uart.h ****     return Cy_SCB_GetNumInRxFifo(base);
1323:Generated_Source\PSoC6\pdl\drivers/peripheral/scb/cy_scb_uart.h **** }
1324:Generated_Source\PSoC6\pdl\drivers/peripheral/scb/cy_scb_uart.h **** 
1325:Generated_Source\PSoC6\pdl\drivers/peripheral/scb/cy_scb_uart.h **** /*******************************************************************************
1326:Generated_Source\PSoC6\pdl\drivers/peripheral/scb/cy_scb_uart.h **** * Function Name: Cy_SCB_UART_ClearRxFifo
ARM GAS  C:\Users\markm\AppData\Local\Temp\ccdXMT0L.s 			page 30


1327:Generated_Source\PSoC6\pdl\drivers/peripheral/scb/cy_scb_uart.h **** ****************************************************************************//**
1328:Generated_Source\PSoC6\pdl\drivers/peripheral/scb/cy_scb_uart.h **** *
1329:Generated_Source\PSoC6\pdl\drivers/peripheral/scb/cy_scb_uart.h **** * Clears all data out of the UART RX FIFO.
1330:Generated_Source\PSoC6\pdl\drivers/peripheral/scb/cy_scb_uart.h **** *
1331:Generated_Source\PSoC6\pdl\drivers/peripheral/scb/cy_scb_uart.h **** * \param base
1332:Generated_Source\PSoC6\pdl\drivers/peripheral/scb/cy_scb_uart.h **** * The pointer to the UART SCB instance.
1333:Generated_Source\PSoC6\pdl\drivers/peripheral/scb/cy_scb_uart.h **** *
1334:Generated_Source\PSoC6\pdl\drivers/peripheral/scb/cy_scb_uart.h **** * \sideeffect
1335:Generated_Source\PSoC6\pdl\drivers/peripheral/scb/cy_scb_uart.h **** * Any data currently in the shifter is cleared and lost.
1336:Generated_Source\PSoC6\pdl\drivers/peripheral/scb/cy_scb_uart.h **** *
1337:Generated_Source\PSoC6\pdl\drivers/peripheral/scb/cy_scb_uart.h **** *******************************************************************************/
1338:Generated_Source\PSoC6\pdl\drivers/peripheral/scb/cy_scb_uart.h **** __STATIC_INLINE void Cy_SCB_UART_ClearRxFifo(CySCB_Type *base)
1339:Generated_Source\PSoC6\pdl\drivers/peripheral/scb/cy_scb_uart.h **** {
1340:Generated_Source\PSoC6\pdl\drivers/peripheral/scb/cy_scb_uart.h ****     Cy_SCB_ClearRxFifo(base);
1341:Generated_Source\PSoC6\pdl\drivers/peripheral/scb/cy_scb_uart.h **** }
1342:Generated_Source\PSoC6\pdl\drivers/peripheral/scb/cy_scb_uart.h **** 
1343:Generated_Source\PSoC6\pdl\drivers/peripheral/scb/cy_scb_uart.h **** 
1344:Generated_Source\PSoC6\pdl\drivers/peripheral/scb/cy_scb_uart.h **** /*******************************************************************************
1345:Generated_Source\PSoC6\pdl\drivers/peripheral/scb/cy_scb_uart.h **** * Function Name: Cy_SCB_UART_Put
1346:Generated_Source\PSoC6\pdl\drivers/peripheral/scb/cy_scb_uart.h **** ****************************************************************************//**
1347:Generated_Source\PSoC6\pdl\drivers/peripheral/scb/cy_scb_uart.h **** *
1348:Generated_Source\PSoC6\pdl\drivers/peripheral/scb/cy_scb_uart.h **** * Places a single data element in the UART TX FIFO.
1349:Generated_Source\PSoC6\pdl\drivers/peripheral/scb/cy_scb_uart.h **** * This function does not block and returns how many data elements were placed
1350:Generated_Source\PSoC6\pdl\drivers/peripheral/scb/cy_scb_uart.h **** * in the TX FIFO.
1351:Generated_Source\PSoC6\pdl\drivers/peripheral/scb/cy_scb_uart.h **** *
1352:Generated_Source\PSoC6\pdl\drivers/peripheral/scb/cy_scb_uart.h **** * \param base
1353:Generated_Source\PSoC6\pdl\drivers/peripheral/scb/cy_scb_uart.h **** * The pointer to the UART SCB instance.
1354:Generated_Source\PSoC6\pdl\drivers/peripheral/scb/cy_scb_uart.h **** *
1355:Generated_Source\PSoC6\pdl\drivers/peripheral/scb/cy_scb_uart.h **** * \param data
1356:Generated_Source\PSoC6\pdl\drivers/peripheral/scb/cy_scb_uart.h **** * Data to put in the TX FIFO.
1357:Generated_Source\PSoC6\pdl\drivers/peripheral/scb/cy_scb_uart.h **** * The element size is defined by the data type, which depends on the configured
1358:Generated_Source\PSoC6\pdl\drivers/peripheral/scb/cy_scb_uart.h **** * data width.
1359:Generated_Source\PSoC6\pdl\drivers/peripheral/scb/cy_scb_uart.h **** *
1360:Generated_Source\PSoC6\pdl\drivers/peripheral/scb/cy_scb_uart.h **** * \return
1361:Generated_Source\PSoC6\pdl\drivers/peripheral/scb/cy_scb_uart.h **** * The number of data elements placed in the TX FIFO: 0 or 1.
1362:Generated_Source\PSoC6\pdl\drivers/peripheral/scb/cy_scb_uart.h **** *
1363:Generated_Source\PSoC6\pdl\drivers/peripheral/scb/cy_scb_uart.h **** *******************************************************************************/
1364:Generated_Source\PSoC6\pdl\drivers/peripheral/scb/cy_scb_uart.h **** __STATIC_INLINE uint32_t Cy_SCB_UART_Put(CySCB_Type *base, uint32_t data)
1365:Generated_Source\PSoC6\pdl\drivers/peripheral/scb/cy_scb_uart.h **** {
1366:Generated_Source\PSoC6\pdl\drivers/peripheral/scb/cy_scb_uart.h ****     return Cy_SCB_Write(base, data);
1367:Generated_Source\PSoC6\pdl\drivers/peripheral/scb/cy_scb_uart.h **** }
1368:Generated_Source\PSoC6\pdl\drivers/peripheral/scb/cy_scb_uart.h **** 
1369:Generated_Source\PSoC6\pdl\drivers/peripheral/scb/cy_scb_uart.h **** 
1370:Generated_Source\PSoC6\pdl\drivers/peripheral/scb/cy_scb_uart.h **** /*******************************************************************************
1371:Generated_Source\PSoC6\pdl\drivers/peripheral/scb/cy_scb_uart.h **** * Function Name: Cy_SCB_UART_PutArray
1372:Generated_Source\PSoC6\pdl\drivers/peripheral/scb/cy_scb_uart.h **** ****************************************************************************//**
1373:Generated_Source\PSoC6\pdl\drivers/peripheral/scb/cy_scb_uart.h **** *
1374:Generated_Source\PSoC6\pdl\drivers/peripheral/scb/cy_scb_uart.h **** * Places an array of data in the UART TX FIFO.
1375:Generated_Source\PSoC6\pdl\drivers/peripheral/scb/cy_scb_uart.h **** * This function does not block. It returns how many data elements were
1376:Generated_Source\PSoC6\pdl\drivers/peripheral/scb/cy_scb_uart.h **** * placed in the TX FIFO.
1377:Generated_Source\PSoC6\pdl\drivers/peripheral/scb/cy_scb_uart.h **** *
1378:Generated_Source\PSoC6\pdl\drivers/peripheral/scb/cy_scb_uart.h **** * \param base
1379:Generated_Source\PSoC6\pdl\drivers/peripheral/scb/cy_scb_uart.h **** * The pointer to the UART SCB instance.
1380:Generated_Source\PSoC6\pdl\drivers/peripheral/scb/cy_scb_uart.h **** *
1381:Generated_Source\PSoC6\pdl\drivers/peripheral/scb/cy_scb_uart.h **** * \param buffer
1382:Generated_Source\PSoC6\pdl\drivers/peripheral/scb/cy_scb_uart.h **** * The pointer to data to place in the TX FIFO.
1383:Generated_Source\PSoC6\pdl\drivers/peripheral/scb/cy_scb_uart.h **** * The element size is defined by the data type, which depends on the configured
ARM GAS  C:\Users\markm\AppData\Local\Temp\ccdXMT0L.s 			page 31


1384:Generated_Source\PSoC6\pdl\drivers/peripheral/scb/cy_scb_uart.h **** * TX data width.
1385:Generated_Source\PSoC6\pdl\drivers/peripheral/scb/cy_scb_uart.h **** *
1386:Generated_Source\PSoC6\pdl\drivers/peripheral/scb/cy_scb_uart.h **** * \param size
1387:Generated_Source\PSoC6\pdl\drivers/peripheral/scb/cy_scb_uart.h **** * The number of data elements to TX.
1388:Generated_Source\PSoC6\pdl\drivers/peripheral/scb/cy_scb_uart.h **** *
1389:Generated_Source\PSoC6\pdl\drivers/peripheral/scb/cy_scb_uart.h **** * \return
1390:Generated_Source\PSoC6\pdl\drivers/peripheral/scb/cy_scb_uart.h **** * The number of data elements placed in the TX FIFO.
1391:Generated_Source\PSoC6\pdl\drivers/peripheral/scb/cy_scb_uart.h **** *
1392:Generated_Source\PSoC6\pdl\drivers/peripheral/scb/cy_scb_uart.h **** *******************************************************************************/
1393:Generated_Source\PSoC6\pdl\drivers/peripheral/scb/cy_scb_uart.h **** __STATIC_INLINE uint32_t Cy_SCB_UART_PutArray(CySCB_Type *base, void *buffer, uint32_t size)
1394:Generated_Source\PSoC6\pdl\drivers/peripheral/scb/cy_scb_uart.h **** {
1395:Generated_Source\PSoC6\pdl\drivers/peripheral/scb/cy_scb_uart.h ****     CY_ASSERT_L1(CY_SCB_IS_BUFFER_VALID(buffer, size));
1396:Generated_Source\PSoC6\pdl\drivers/peripheral/scb/cy_scb_uart.h **** 
1397:Generated_Source\PSoC6\pdl\drivers/peripheral/scb/cy_scb_uart.h ****     return Cy_SCB_WriteArray(base, buffer, size);
1398:Generated_Source\PSoC6\pdl\drivers/peripheral/scb/cy_scb_uart.h **** }
1399:Generated_Source\PSoC6\pdl\drivers/peripheral/scb/cy_scb_uart.h **** 
1400:Generated_Source\PSoC6\pdl\drivers/peripheral/scb/cy_scb_uart.h **** 
1401:Generated_Source\PSoC6\pdl\drivers/peripheral/scb/cy_scb_uart.h **** /*******************************************************************************
1402:Generated_Source\PSoC6\pdl\drivers/peripheral/scb/cy_scb_uart.h **** * Function Name: Cy_SCB_UART_PutArrayBlocking
1403:Generated_Source\PSoC6\pdl\drivers/peripheral/scb/cy_scb_uart.h **** ****************************************************************************//**
1404:Generated_Source\PSoC6\pdl\drivers/peripheral/scb/cy_scb_uart.h **** *
1405:Generated_Source\PSoC6\pdl\drivers/peripheral/scb/cy_scb_uart.h **** * Places an array of data in the UART TX FIFO.
1406:Generated_Source\PSoC6\pdl\drivers/peripheral/scb/cy_scb_uart.h **** * This function blocks until the number of data elements specified by the size
1407:Generated_Source\PSoC6\pdl\drivers/peripheral/scb/cy_scb_uart.h **** * is placed in the TX FIFO.
1408:Generated_Source\PSoC6\pdl\drivers/peripheral/scb/cy_scb_uart.h **** *
1409:Generated_Source\PSoC6\pdl\drivers/peripheral/scb/cy_scb_uart.h **** * \param base
1410:Generated_Source\PSoC6\pdl\drivers/peripheral/scb/cy_scb_uart.h **** * The pointer to the UART SCB instance.
1411:Generated_Source\PSoC6\pdl\drivers/peripheral/scb/cy_scb_uart.h **** *
1412:Generated_Source\PSoC6\pdl\drivers/peripheral/scb/cy_scb_uart.h **** * \param buffer
1413:Generated_Source\PSoC6\pdl\drivers/peripheral/scb/cy_scb_uart.h **** * The pointer to data to place in the TX FIFO.
1414:Generated_Source\PSoC6\pdl\drivers/peripheral/scb/cy_scb_uart.h **** * The element size is defined by the data type, which depends on the configured
1415:Generated_Source\PSoC6\pdl\drivers/peripheral/scb/cy_scb_uart.h **** * data width.
1416:Generated_Source\PSoC6\pdl\drivers/peripheral/scb/cy_scb_uart.h **** *
1417:Generated_Source\PSoC6\pdl\drivers/peripheral/scb/cy_scb_uart.h **** * \param size
1418:Generated_Source\PSoC6\pdl\drivers/peripheral/scb/cy_scb_uart.h **** * The number of data elements to write into the TX FIFO.
1419:Generated_Source\PSoC6\pdl\drivers/peripheral/scb/cy_scb_uart.h **** *
1420:Generated_Source\PSoC6\pdl\drivers/peripheral/scb/cy_scb_uart.h **** *******************************************************************************/
1421:Generated_Source\PSoC6\pdl\drivers/peripheral/scb/cy_scb_uart.h **** __STATIC_INLINE void Cy_SCB_UART_PutArrayBlocking(CySCB_Type *base, void *buffer, uint32_t size)
1422:Generated_Source\PSoC6\pdl\drivers/peripheral/scb/cy_scb_uart.h **** {
1423:Generated_Source\PSoC6\pdl\drivers/peripheral/scb/cy_scb_uart.h ****     CY_ASSERT_L1(CY_SCB_IS_BUFFER_VALID(buffer, size));
1424:Generated_Source\PSoC6\pdl\drivers/peripheral/scb/cy_scb_uart.h **** 
1425:Generated_Source\PSoC6\pdl\drivers/peripheral/scb/cy_scb_uart.h ****     Cy_SCB_WriteArrayBlocking(base, buffer, size);
1426:Generated_Source\PSoC6\pdl\drivers/peripheral/scb/cy_scb_uart.h **** }
1427:Generated_Source\PSoC6\pdl\drivers/peripheral/scb/cy_scb_uart.h **** 
1428:Generated_Source\PSoC6\pdl\drivers/peripheral/scb/cy_scb_uart.h **** 
1429:Generated_Source\PSoC6\pdl\drivers/peripheral/scb/cy_scb_uart.h **** /*******************************************************************************
1430:Generated_Source\PSoC6\pdl\drivers/peripheral/scb/cy_scb_uart.h **** * Function Name: Cy_SCB_UART_PutString
1431:Generated_Source\PSoC6\pdl\drivers/peripheral/scb/cy_scb_uart.h **** ****************************************************************************//**
1432:Generated_Source\PSoC6\pdl\drivers/peripheral/scb/cy_scb_uart.h **** *
1433:Generated_Source\PSoC6\pdl\drivers/peripheral/scb/cy_scb_uart.h **** * Places a NULL terminated string in the UART TX FIFO.
1434:Generated_Source\PSoC6\pdl\drivers/peripheral/scb/cy_scb_uart.h **** * This function blocks until the entire string is placed in the TX FIFO.
1435:Generated_Source\PSoC6\pdl\drivers/peripheral/scb/cy_scb_uart.h **** *
1436:Generated_Source\PSoC6\pdl\drivers/peripheral/scb/cy_scb_uart.h **** * \param base
1437:Generated_Source\PSoC6\pdl\drivers/peripheral/scb/cy_scb_uart.h **** * The pointer to the UART SCB instance.
1438:Generated_Source\PSoC6\pdl\drivers/peripheral/scb/cy_scb_uart.h **** *
1439:Generated_Source\PSoC6\pdl\drivers/peripheral/scb/cy_scb_uart.h **** * \param string
1440:Generated_Source\PSoC6\pdl\drivers/peripheral/scb/cy_scb_uart.h **** * The pointer to the null terminated string array.
ARM GAS  C:\Users\markm\AppData\Local\Temp\ccdXMT0L.s 			page 32


1441:Generated_Source\PSoC6\pdl\drivers/peripheral/scb/cy_scb_uart.h **** *
1442:Generated_Source\PSoC6\pdl\drivers/peripheral/scb/cy_scb_uart.h **** *******************************************************************************/
1443:Generated_Source\PSoC6\pdl\drivers/peripheral/scb/cy_scb_uart.h **** __STATIC_INLINE void Cy_SCB_UART_PutString(CySCB_Type *base, char_t const string[])
1444:Generated_Source\PSoC6\pdl\drivers/peripheral/scb/cy_scb_uart.h **** {
1445:Generated_Source\PSoC6\pdl\drivers/peripheral/scb/cy_scb_uart.h ****     CY_ASSERT_L1(CY_SCB_IS_BUFFER_VALID(string, 1UL));
1446:Generated_Source\PSoC6\pdl\drivers/peripheral/scb/cy_scb_uart.h **** 
1447:Generated_Source\PSoC6\pdl\drivers/peripheral/scb/cy_scb_uart.h ****     Cy_SCB_WriteString(base, string);
 159              		.loc 2 1447 0
 160 00c2 A04C     		ldr	r4, .L85+32
 161 00c4 07F16801 		add	r1, r7, #104
 162              	.LVL14:
 163 00c8 2046     		mov	r0, r4
 164 00ca FFF7FEFF 		bl	Cy_SCB_WriteString
 165              	.LVL15:
 166              	.LBE77:
 167              	.LBE76:
 168              	.LBE75:
 169              	.LBB78:
 170              	.LBB79:
 171              	.LBB80:
 172 00ce 9E4E     		ldr	r6, .L85+36
 173 00d0 3146     		mov	r1, r6
 174 00d2 2046     		mov	r0, r4
 175 00d4 FFF7FEFF 		bl	Cy_SCB_WriteString
 176              	.LVL16:
 177              	.LBE80:
 178              	.LBE79:
 179              	.LBE78:
 168:traitementSignal.c ****                     UART_1_PutString(resultfiltre1);
 169:traitementSignal.c ****                     UART_1_PutString("\r\n");
 170:traitementSignal.c ****     
 171:traitementSignal.c ****     char resultfiltre2[16];                               
 172:traitementSignal.c ****                     sprintf(resultfiltre2,"%5.10f \n\r", vector_Red_Clean[100]);                 //
 180              		.loc 1 172 0
 181 00d8 D8F89001 		ldr	r0, [r8, #400]	@ float
 182 00dc FFF7FEFF 		bl	__aeabi_f2d
 183              	.LVL17:
 184 00e0 0246     		mov	r2, r0
 185 00e2 0B46     		mov	r3, r1
 186 00e4 5146     		mov	r1, r10
 187 00e6 07F15800 		add	r0, r7, #88
 188 00ea FFF7FEFF 		bl	sprintf
 189              	.LVL18:
 190              	.LBB81:
 191              	.LBB82:
 192              	.LBB83:
 193              		.loc 2 1447 0
 194 00ee 07F15801 		add	r1, r7, #88
 195              	.LVL19:
 196 00f2 2046     		mov	r0, r4
 197 00f4 FFF7FEFF 		bl	Cy_SCB_WriteString
 198              	.LVL20:
 199              	.LBE83:
 200              	.LBE82:
 201              	.LBE81:
 202              	.LBB84:
 203              	.LBB85:
ARM GAS  C:\Users\markm\AppData\Local\Temp\ccdXMT0L.s 			page 33


 204              	.LBB86:
 205 00f8 3146     		mov	r1, r6
 206 00fa 2046     		mov	r0, r4
 207 00fc FFF7FEFF 		bl	Cy_SCB_WriteString
 208              	.LVL21:
 209              	.LBE86:
 210              	.LBE85:
 211              	.LBE84:
 173:traitementSignal.c ****                     UART_1_PutString(resultfiltre2);
 174:traitementSignal.c ****                     UART_1_PutString("\r\n");
 175:traitementSignal.c ****     
 176:traitementSignal.c **** //    float32_t vector_Red_Clean[blockSize];          //TEST
 177:traitementSignal.c **** //    float32_t vector_IR_Clean[blockSize];
 178:traitementSignal.c **** //    
 179:traitementSignal.c **** //    for (uint32_t i = 0; i < blockSize; i++){                //WORKS
 180:traitementSignal.c **** //        vector_Red_Clean[i]=*(ptrRedClean[i]); 
 181:traitementSignal.c **** //        vector_IR_Clean[i]=*(ptrInfraClean[i]); 
 182:traitementSignal.c **** //    }
 183:traitementSignal.c **** ////    
 184:traitementSignal.c ****     
 185:traitementSignal.c ****      
 186:traitementSignal.c **** //    arm_fir_f32(&S,ptrInfra[0],ptrInfraClean,blockSize);          WORKS
 187:traitementSignal.c **** //    arm_fir_f32(&S,&vectorRed[0],ptrRedClean,blockSize);         
 188:traitementSignal.c **** //    arm_fir_f32(&S,&vectorInfra[0],ptrInfraClean,blockSize);      
 189:traitementSignal.c ****         
 190:traitementSignal.c ****     
 191:traitementSignal.c **** //    
 192:traitementSignal.c **** //    for (uint32_t i = 0; i < blockSize; i++){
 193:traitementSignal.c **** //        vectorRed[i]=ptrRedClean[i]; 
 194:traitementSignal.c **** //        vectorInfra[i]=ptrInfraClean[i];
 195:traitementSignal.c **** //    }
 196:traitementSignal.c ****     
 197:traitementSignal.c ****     
 198:traitementSignal.c ****     
 199:traitementSignal.c ****     // On peut maintenant analyser ces signaux. 
 200:traitementSignal.c ****     
 201:traitementSignal.c ****     float32_t maxTraitementRed=0; // Maximum absolu dans le vecteur que l'on est en train de traite
 212              		.loc 1 201 0
 213 0100 0026     		movs	r6, #0
 214 0102 7E65     		str	r6, [r7, #84]	@ float
 202:traitementSignal.c ****     uint32_t positionMaxRed=0;
 215              		.loc 1 202 0
 216 0104 0024     		movs	r4, #0
 217 0106 07F17803 		add	r3, r7, #120
 218 010a 43F8284D 		str	r4, [r3, #-40]!
 203:traitementSignal.c ****     arm_max_f32(ptrRedClean,blockSize,&maxTraitementRed,&positionMaxRed); //apr√®s cette ligne, la 
 219              		.loc 1 203 0
 220 010e 07F15402 		add	r2, r7, #84
 221 0112 2968     		ldr	r1, [r5]
 222 0114 4046     		mov	r0, r8
 223 0116 FFF7FEFF 		bl	arm_max_f32
 224              	.LVL22:
 204:traitementSignal.c ****     float32_t minTraitementRed=0;
 225              		.loc 1 204 0
 226 011a FE64     		str	r6, [r7, #76]	@ float
 205:traitementSignal.c ****     uint32_t positionMinRed=0;
 227              		.loc 1 205 0
ARM GAS  C:\Users\markm\AppData\Local\Temp\ccdXMT0L.s 			page 34


 228 011c 07F17803 		add	r3, r7, #120
 229 0120 43F8304D 		str	r4, [r3, #-48]!
 206:traitementSignal.c ****     arm_min_f32(ptrRedClean,blockSize,&minTraitementRed,&positionMinRed);
 230              		.loc 1 206 0
 231 0124 07F14C02 		add	r2, r7, #76
 232 0128 2968     		ldr	r1, [r5]
 233 012a 4046     		mov	r0, r8
 234 012c FFF7FEFF 		bl	arm_min_f32
 235              	.LVL23:
 207:traitementSignal.c ****     
 208:traitementSignal.c ****     float32_t maxTraitementInfra=0; // Maximum absolu dans le vecteur que l'on est en train de trai
 236              		.loc 1 208 0
 237 0130 7E64     		str	r6, [r7, #68]	@ float
 209:traitementSignal.c ****     uint32_t positionMaxInfra=0;
 238              		.loc 1 209 0
 239 0132 07F17803 		add	r3, r7, #120
 240 0136 43F8384D 		str	r4, [r3, #-56]!
 210:traitementSignal.c ****     arm_max_f32(ptrInfraClean,blockSize,&maxTraitementInfra,&positionMaxInfra); //apr√®s cette lign
 241              		.loc 1 210 0
 242 013a 07F14402 		add	r2, r7, #68
 243 013e 2968     		ldr	r1, [r5]
 244 0140 4846     		mov	r0, r9
 245 0142 FFF7FEFF 		bl	arm_max_f32
 246              	.LVL24:
 211:traitementSignal.c ****     float32_t minTraitementInfra=0;
 247              		.loc 1 211 0
 248 0146 FE63     		str	r6, [r7, #60]	@ float
 212:traitementSignal.c ****     uint32_t positionMinInfra=0;
 249              		.loc 1 212 0
 250 0148 07F17803 		add	r3, r7, #120
 251 014c 43F8404D 		str	r4, [r3, #-64]!
 213:traitementSignal.c ****     arm_min_f32(ptrInfraClean,blockSize,&minTraitementInfra,&positionMinInfra);
 252              		.loc 1 213 0
 253 0150 07F13C02 		add	r2, r7, #60
 254 0154 2968     		ldr	r1, [r5]
 255 0156 4846     		mov	r0, r9
 256 0158 FFF7FEFF 		bl	arm_min_f32
 257              	.LVL25:
 214:traitementSignal.c ****     
 215:traitementSignal.c ****     // On cherche ensuite les valeurs et positions des extremums relatifs
 216:traitementSignal.c ****     
 217:traitementSignal.c ****     float32_t coeffSensibilite=1; // coefficient qui d√©termine √† quel point une valeur doit √™tre
 218:traitementSignal.c ****     float32_t amplitudeMaxRed=maxTraitementRed-minTraitementRed; // Borne sup√©rieure sur l'amplitu
 258              		.loc 1 218 0
 259 015c D7ED158A 		vldr.32	s17, [r7, #84]
 260 0160 97ED137A 		vldr.32	s14, [r7, #76]
 261 0164 38EEC77A 		vsub.f32	s14, s17, s14
 262              	.LVL26:
 219:traitementSignal.c ****     float32_t amplitudeMaxInfra=maxTraitementInfra-minTraitementInfra; // Borne sup√©rieure sur l'a
 263              		.loc 1 219 0
 264 0168 D7ED116A 		vldr.32	s13, [r7, #68]
 265 016c D7ED0F7A 		vldr.32	s15, [r7, #60]
 266 0170 76EEE77A 		vsub.f32	s15, s13, s15
 267              	.LVL27:
 220:traitementSignal.c ****   
 221:traitementSignal.c ****     float32_t seuilRed=maxTraitementRed-(amplitudeMaxRed/2)*coeffSensibilite; // Seuil au-dessus ou
 268              		.loc 1 221 0
ARM GAS  C:\Users\markm\AppData\Local\Temp\ccdXMT0L.s 			page 35


 269 0174 B6EE008A 		vmov.f32	s16, #5.0e-1
 270 0178 27EE087A 		vmul.f32	s14, s14, s16
 271              	.LVL28:
 272 017c 78EEC78A 		vsub.f32	s17, s17, s14
 273              	.LVL29:
 222:traitementSignal.c ****     float32_t seuilInfra=maxTraitementInfra-(amplitudeMaxInfra/2)*coeffSensibilite;
 274              		.loc 1 222 0
 275 0180 67EE887A 		vmul.f32	s15, s15, s16
 276              	.LVL30:
 277 0184 36EEE78A 		vsub.f32	s16, s13, s15
 278              	.LVL31:
 223:traitementSignal.c ****     
 224:traitementSignal.c ****     uint32_t borneNombreBattements=ceil(fcpb*dureeTraitement); // Ce nombre repr√©sente la limite t
 279              		.loc 1 224 0
 280 0188 B5F8CE30 		ldrh	r3, [r5, #206]
 281 018c 07EE903A 		vmov	s15, r3	@ int
 282 0190 F8EEE77A 		vcvt.f32.s32	s15, s15
 283 0194 95ED347A 		vldr.32	s14, [r5, #208]
 284 0198 67EE877A 		vmul.f32	s15, s15, s14
 285 019c 17EE900A 		vmov	r0, s15
 286 01a0 FFF7FEFF 		bl	__aeabi_f2d
 287              	.LVL32:
 288 01a4 FFF7FEFF 		bl	ceil
 289              	.LVL33:
 290 01a8 FFF7FEFF 		bl	__aeabi_d2uiz
 291              	.LVL34:
 225:traitementSignal.c ****     uint32_t j=0; // Compteur du nombre de battements
 226:traitementSignal.c ****     
 227:traitementSignal.c ****     int redPositionMaxRel[borneNombreBattements]; // Vecteur qui contiendra les indices des points 
 292              		.loc 1 227 0
 293 01ac 8000     		lsls	r0, r0, #2
 294              	.LVL35:
 295 01ae 00F10A03 		add	r3, r0, #10
 296 01b2 23F00703 		bic	r3, r3, #7
 297 01b6 ADEB030D 		sub	sp, sp, r3
 298 01ba 0DF1080A 		add	r10, sp, #8
 299              	.LVL36:
 228:traitementSignal.c ****     float redMaxRel[borneNombreBattements]; // Valeur de des maximums relatifs pour le rouge
 300              		.loc 1 228 0
 301 01be ADEB030D 		sub	sp, sp, r3
 302 01c2 0DF10808 		add	r8, sp, #8
 303              	.LVL37:
 229:traitementSignal.c ****     int redPositionMinRel[borneNombreBattements]; // Vecteur qui contiendra les indices des points 
 304              		.loc 1 229 0
 305 01c6 ADEB030D 		sub	sp, sp, r3
 306 01ca 0DF1080E 		add	lr, sp, #8
 307              	.LVL38:
 230:traitementSignal.c ****     float redMinRel[borneNombreBattements]; //Valeur de des minimums relatifs pour le rouge
 308              		.loc 1 230 0
 309 01ce ADEB030D 		sub	sp, sp, r3
 310 01d2 0DF10809 		add	r9, sp, #8
 311              	.LVL39:
 231:traitementSignal.c ****     
 232:traitementSignal.c ****     int infraPositionMaxRel[borneNombreBattements]; // Vecteur qui contiendra les indices des point
 312              		.loc 1 232 0
 313 01d6 ADEB030D 		sub	sp, sp, r3
 314 01da 02A9     		add	r1, sp, #8
ARM GAS  C:\Users\markm\AppData\Local\Temp\ccdXMT0L.s 			page 36


 315              	.LVL40:
 233:traitementSignal.c ****     float infraMaxRel[borneNombreBattements]; // Valeur de des maximums relatifs pour l'infrarouge
 316              		.loc 1 233 0
 317 01dc ADEB030D 		sub	sp, sp, r3
 318 01e0 02AD     		add	r5, sp, #8
 319              	.LVL41:
 234:traitementSignal.c ****     int infraPositionMinRel[borneNombreBattements]; // Vecteur qui contiendra les indices des point
 320              		.loc 1 234 0
 321 01e2 ADEB030D 		sub	sp, sp, r3
 322 01e6 02A8     		add	r0, sp, #8
 323              	.LVL42:
 235:traitementSignal.c ****     float infraMinRel[borneNombreBattements]; // Valeur de des minimums relatifs pour l'infrarouge
 324              		.loc 1 235 0
 325 01e8 ADEB030D 		sub	sp, sp, r3
 326 01ec 02AE     		add	r6, sp, #8
 327              	.LVL43:
 328              	.LBB87:
 236:traitementSignal.c ****     
 237:traitementSignal.c ****     for (uint32_t i = 1; i < nombreSamples-1; i++){
 329              		.loc 1 237 0
 330 01ee 0123     		movs	r3, #1
 331 01f0 ADE1     		b	.L4
 332              	.LVL44:
 333              	.L41:
 238:traitementSignal.c ****         if (vector_Red_Clean[i]>vector_Red_Clean[i-1] && vector_Red_Clean[i]>vector_Red_Clean[i+1])
 334              		.loc 1 238 0
 335 01f2 564A     		ldr	r2, .L85+40
 336 01f4 02EB830C 		add	ip, r2, r3, lsl #2
 337 01f8 DCED007A 		vldr.32	s15, [ip]
 338 01fc 03F1FF3C 		add	ip, r3, #-1
 339 0200 02EB8C02 		add	r2, r2, ip, lsl #2
 340 0204 92ED007A 		vldr.32	s14, [r2]
 341 0208 F4EEC77A 		vcmpe.f32	s15, s14
 342 020c F1EE10FA 		vmrs	APSR_nzcv, FPSCR
 343 0210 40F3A280 		ble	.L5
 344              		.loc 1 238 0 is_stmt 0 discriminator 1
 345 0214 03F1010B 		add	fp, r3, #1
 346 0218 4C4A     		ldr	r2, .L85+40
 347 021a 02EB8B02 		add	r2, r2, fp, lsl #2
 348 021e D2ED006A 		vldr.32	s13, [r2]
 349 0222 F4EEE67A 		vcmpe.f32	s15, s13
 350 0226 F1EE10FA 		vmrs	APSR_nzcv, FPSCR
 351 022a 40F39580 		ble	.L5
 239:traitementSignal.c ****             if (vector_Red_Clean[i]>vector_Red_Clean[i-2] && vector_Red_Clean[i]>vector_Red_Clean[i
 352              		.loc 1 239 0 is_stmt 1
 353 022e A3F1020B 		sub	fp, r3, #2
 354 0232 464A     		ldr	r2, .L85+40
 355 0234 02EB8B02 		add	r2, r2, fp, lsl #2
 356 0238 92ED007A 		vldr.32	s14, [r2]
 357 023c F4EEC77A 		vcmpe.f32	s15, s14
 358 0240 F1EE10FA 		vmrs	APSR_nzcv, FPSCR
 359 0244 40F30981 		ble	.L8
 360              		.loc 1 239 0 is_stmt 0 discriminator 1
 361 0248 03F1020B 		add	fp, r3, #2
 362 024c 3F4A     		ldr	r2, .L85+40
 363 024e 02EB8B02 		add	r2, r2, fp, lsl #2
 364 0252 92ED007A 		vldr.32	s14, [r2]
ARM GAS  C:\Users\markm\AppData\Local\Temp\ccdXMT0L.s 			page 37


 365 0256 F4EEC77A 		vcmpe.f32	s15, s14
 366 025a F1EE10FA 		vmrs	APSR_nzcv, FPSCR
 367 025e 40F3FC80 		ble	.L8
 240:traitementSignal.c ****                 if (vector_Red_Clean[i]>vector_Red_Clean[i-3] && vector_Red_Clean[i]>vector_Red_Cle
 368              		.loc 1 240 0 is_stmt 1
 369 0262 A3F1030B 		sub	fp, r3, #3
 370 0266 394A     		ldr	r2, .L85+40
 371 0268 02EB8B02 		add	r2, r2, fp, lsl #2
 372 026c 92ED007A 		vldr.32	s14, [r2]
 373 0270 F4EEC77A 		vcmpe.f32	s15, s14
 374 0274 F1EE10FA 		vmrs	APSR_nzcv, FPSCR
 375 0278 40F3EF80 		ble	.L8
 376              		.loc 1 240 0 is_stmt 0 discriminator 1
 377 027c 03F1030B 		add	fp, r3, #3
 378 0280 324A     		ldr	r2, .L85+40
 379 0282 02EB8B02 		add	r2, r2, fp, lsl #2
 380 0286 92ED007A 		vldr.32	s14, [r2]
 381 028a F4EEC77A 		vcmpe.f32	s15, s14
 382 028e F1EE10FA 		vmrs	APSR_nzcv, FPSCR
 383 0292 40F3E280 		ble	.L8
 241:traitementSignal.c ****                     if (vector_Red_Clean[i]>vector_Red_Clean[i-4] && vector_Red_Clean[i]>vector_Red
 384              		.loc 1 241 0 is_stmt 1
 385 0296 A3F1040B 		sub	fp, r3, #4
 386 029a 2C4A     		ldr	r2, .L85+40
 387 029c 02EB8B02 		add	r2, r2, fp, lsl #2
 388 02a0 92ED007A 		vldr.32	s14, [r2]
 389 02a4 F4EEC77A 		vcmpe.f32	s15, s14
 390 02a8 F1EE10FA 		vmrs	APSR_nzcv, FPSCR
 391 02ac 40F3D580 		ble	.L8
 392              		.loc 1 241 0 is_stmt 0 discriminator 1
 393 02b0 03F1040B 		add	fp, r3, #4
 394 02b4 254A     		ldr	r2, .L85+40
 395 02b6 02EB8B02 		add	r2, r2, fp, lsl #2
 396 02ba 92ED007A 		vldr.32	s14, [r2]
 397 02be F4EEC77A 		vcmpe.f32	s15, s14
 398 02c2 F1EE10FA 		vmrs	APSR_nzcv, FPSCR
 399 02c6 40F3C880 		ble	.L8
 242:traitementSignal.c ****                         if (vector_Red_Clean[i]>vector_Red_Clean[i-25] && vector_Red_Clean[i]>vecto
 400              		.loc 1 242 0 is_stmt 1
 401 02ca A3F1190B 		sub	fp, r3, #25
 402 02ce 1F4A     		ldr	r2, .L85+40
 403 02d0 02EB8B02 		add	r2, r2, fp, lsl #2
 404 02d4 92ED007A 		vldr.32	s14, [r2]
 405 02d8 F4EEC77A 		vcmpe.f32	s15, s14
 406 02dc F1EE10FA 		vmrs	APSR_nzcv, FPSCR
 407 02e0 40F3BB80 		ble	.L8
 408              		.loc 1 242 0 is_stmt 0 discriminator 1
 409 02e4 03F1190B 		add	fp, r3, #25
 410 02e8 184A     		ldr	r2, .L85+40
 411 02ea 02EB8B02 		add	r2, r2, fp, lsl #2
 412 02ee 92ED007A 		vldr.32	s14, [r2]
 413 02f2 F4EEC77A 		vcmpe.f32	s15, s14
 414 02f6 F1EE10FA 		vmrs	APSR_nzcv, FPSCR
 415 02fa 40F3AE80 		ble	.L8
 243:traitementSignal.c ****                             if (vector_Red_Clean[i]>seuilRed){
 416              		.loc 1 243 0 is_stmt 1
 417 02fe F4EEE78A 		vcmpe.f32	s17, s15
ARM GAS  C:\Users\markm\AppData\Local\Temp\ccdXMT0L.s 			page 38


 418 0302 F1EE10FA 		vmrs	APSR_nzcv, FPSCR
 419 0306 40F1A880 		bpl	.L8
 244:traitementSignal.c ****                             redPositionMaxRel[j]=i;
 420              		.loc 1 244 0
 421 030a 4AF82430 		str	r3, [r10, r4, lsl #2]
 245:traitementSignal.c ****                             redMaxRel[j]=vector_Red_Clean[i];
 422              		.loc 1 245 0
 423 030e 0F4A     		ldr	r2, .L85+40
 424 0310 02EB8302 		add	r2, r2, r3, lsl #2
 425 0314 D2F800B0 		ldr	fp, [r2]	@ float
 426 0318 08EB8402 		add	r2, r8, r4, lsl #2
 427 031c C2F800B0 		str	fp, [r2]	@ float
 246:traitementSignal.c ****                             j++;
 428              		.loc 1 246 0
 429 0320 0134     		adds	r4, r4, #1
 430              	.LVL45:
 431 0322 9AE0     		b	.L8
 432              	.L86:
 433              		.align	2
 434              	.L85:
 435 0324 00000000 		.word	mean
 436 0328 00000000 		.word	.LANCHOR0
 437 032c 00000000 		.word	vectorRed
 438 0330 00000000 		.word	DCr
 439 0334 00000000 		.word	vectorInfra
 440 0338 00000000 		.word	DCI
 441 033c 00000000 		.word	S
 442 0340 00000000 		.word	stateBuffer
 443 0344 00006640 		.word	1080426496
 444 0348 0C000000 		.word	.LC1
 445 034c 00000000 		.word	vector_Red_Clean
 446 0350 00000000 		.word	vector_IR_Clean
 447 0354 00000000 		.word	.LC0
 448              	.L5:
 247:traitementSignal.c ****                             }
 248:traitementSignal.c ****                         }
 249:traitementSignal.c ****                     }
 250:traitementSignal.c ****                     
 251:traitementSignal.c ****                 }
 252:traitementSignal.c ****                 
 253:traitementSignal.c ****             }
 254:traitementSignal.c ****             
 255:traitementSignal.c ****         }
 256:traitementSignal.c ****         else if (vector_Red_Clean[i]<vector_Red_Clean[i-1] && vector_Red_Clean[i]<vector_Red_Clean[
 449              		.loc 1 256 0
 450 0358 F4EEC77A 		vcmpe.f32	s15, s14
 451 035c F1EE10FA 		vmrs	APSR_nzcv, FPSCR
 452 0360 7BD5     		bpl	.L8
 453              		.loc 1 256 0 is_stmt 0 discriminator 1
 454 0362 03F1010B 		add	fp, r3, #1
 455 0366 C44A     		ldr	r2, .L87
 456 0368 02EB8B02 		add	r2, r2, fp, lsl #2
 457 036c 92ED007A 		vldr.32	s14, [r2]
 458 0370 F4EEC77A 		vcmpe.f32	s15, s14
 459 0374 F1EE10FA 		vmrs	APSR_nzcv, FPSCR
 460 0378 6FD5     		bpl	.L8
 257:traitementSignal.c ****             if (vector_Red_Clean[i]<vector_Red_Clean[i-2] && vector_Red_Clean[i]<vector_Red_Clean[i
ARM GAS  C:\Users\markm\AppData\Local\Temp\ccdXMT0L.s 			page 39


 461              		.loc 1 257 0 is_stmt 1
 462 037a A3F1020B 		sub	fp, r3, #2
 463 037e BE4A     		ldr	r2, .L87
 464 0380 02EB8B02 		add	r2, r2, fp, lsl #2
 465 0384 92ED007A 		vldr.32	s14, [r2]
 466 0388 F4EEC77A 		vcmpe.f32	s15, s14
 467 038c F1EE10FA 		vmrs	APSR_nzcv, FPSCR
 468 0390 63D5     		bpl	.L8
 469              		.loc 1 257 0 is_stmt 0 discriminator 1
 470 0392 03F1020B 		add	fp, r3, #2
 471 0396 B84A     		ldr	r2, .L87
 472 0398 02EB8B02 		add	r2, r2, fp, lsl #2
 473 039c 92ED007A 		vldr.32	s14, [r2]
 474 03a0 F4EEC77A 		vcmpe.f32	s15, s14
 475 03a4 F1EE10FA 		vmrs	APSR_nzcv, FPSCR
 476 03a8 57D5     		bpl	.L8
 258:traitementSignal.c ****                 if (vector_Red_Clean[i]<vector_Red_Clean[i-3] && vector_Red_Clean[i]<vector_Red_Cle
 477              		.loc 1 258 0 is_stmt 1
 478 03aa A3F1030B 		sub	fp, r3, #3
 479 03ae B24A     		ldr	r2, .L87
 480 03b0 02EB8B02 		add	r2, r2, fp, lsl #2
 481 03b4 92ED007A 		vldr.32	s14, [r2]
 482 03b8 F4EEC77A 		vcmpe.f32	s15, s14
 483 03bc F1EE10FA 		vmrs	APSR_nzcv, FPSCR
 484 03c0 4BD5     		bpl	.L8
 485              		.loc 1 258 0 is_stmt 0 discriminator 1
 486 03c2 03F1030B 		add	fp, r3, #3
 487 03c6 AC4A     		ldr	r2, .L87
 488 03c8 02EB8B02 		add	r2, r2, fp, lsl #2
 489 03cc 92ED007A 		vldr.32	s14, [r2]
 490 03d0 F4EEC77A 		vcmpe.f32	s15, s14
 491 03d4 F1EE10FA 		vmrs	APSR_nzcv, FPSCR
 492 03d8 3FD5     		bpl	.L8
 259:traitementSignal.c ****                     if (vector_Red_Clean[i]<vector_Red_Clean[i-4] && vector_Red_Clean[i]<vector_Red
 493              		.loc 1 259 0 is_stmt 1
 494 03da A3F1040B 		sub	fp, r3, #4
 495 03de A64A     		ldr	r2, .L87
 496 03e0 02EB8B02 		add	r2, r2, fp, lsl #2
 497 03e4 92ED007A 		vldr.32	s14, [r2]
 498 03e8 F4EEC77A 		vcmpe.f32	s15, s14
 499 03ec F1EE10FA 		vmrs	APSR_nzcv, FPSCR
 500 03f0 33D5     		bpl	.L8
 501              		.loc 1 259 0 is_stmt 0 discriminator 1
 502 03f2 03F1040B 		add	fp, r3, #4
 503 03f6 A04A     		ldr	r2, .L87
 504 03f8 02EB8B02 		add	r2, r2, fp, lsl #2
 505 03fc 92ED007A 		vldr.32	s14, [r2]
 506 0400 F4EEC77A 		vcmpe.f32	s15, s14
 507 0404 F1EE10FA 		vmrs	APSR_nzcv, FPSCR
 508 0408 27D5     		bpl	.L8
 260:traitementSignal.c ****                         if (vector_Red_Clean[i]<vector_Red_Clean[i-25] && vector_Red_Clean[i]<vecto
 509              		.loc 1 260 0 is_stmt 1
 510 040a A3F1190B 		sub	fp, r3, #25
 511 040e 9A4A     		ldr	r2, .L87
 512 0410 02EB8B02 		add	r2, r2, fp, lsl #2
 513 0414 92ED007A 		vldr.32	s14, [r2]
 514 0418 F4EEC77A 		vcmpe.f32	s15, s14
ARM GAS  C:\Users\markm\AppData\Local\Temp\ccdXMT0L.s 			page 40


 515 041c F1EE10FA 		vmrs	APSR_nzcv, FPSCR
 516 0420 1BD5     		bpl	.L8
 517              		.loc 1 260 0 is_stmt 0 discriminator 1
 518 0422 03F1190B 		add	fp, r3, #25
 519 0426 944A     		ldr	r2, .L87
 520 0428 02EB8B02 		add	r2, r2, fp, lsl #2
 521 042c 92ED007A 		vldr.32	s14, [r2]
 522 0430 F4EEC77A 		vcmpe.f32	s15, s14
 523 0434 F1EE10FA 		vmrs	APSR_nzcv, FPSCR
 524 0438 0FD5     		bpl	.L8
 261:traitementSignal.c ****                             if (vector_Red_Clean[i]<seuilRed){
 525              		.loc 1 261 0 is_stmt 1
 526 043a F4EEE78A 		vcmpe.f32	s17, s15
 527 043e F1EE10FA 		vmrs	APSR_nzcv, FPSCR
 528 0442 0ADD     		ble	.L8
 262:traitementSignal.c ****                             redPositionMinRel[j]=i;
 529              		.loc 1 262 0
 530 0444 4EF82430 		str	r3, [lr, r4, lsl #2]
 263:traitementSignal.c ****                             redMinRel[j]=vector_Red_Clean[i];
 531              		.loc 1 263 0
 532 0448 8B4A     		ldr	r2, .L87
 533 044a 02EB8302 		add	r2, r2, r3, lsl #2
 534 044e D2F800B0 		ldr	fp, [r2]	@ float
 535 0452 09EB8402 		add	r2, r9, r4, lsl #2
 536 0456 C2F800B0 		str	fp, [r2]	@ float
 537              	.L8:
 264:traitementSignal.c ****                             }
 265:traitementSignal.c ****                         }
 266:traitementSignal.c ****                     }
 267:traitementSignal.c ****                     
 268:traitementSignal.c ****                 }
 269:traitementSignal.c ****                 
 270:traitementSignal.c ****             }
 271:traitementSignal.c ****             
 272:traitementSignal.c ****         } 
 273:traitementSignal.c ****         if (vector_IR_Clean[i]>vector_IR_Clean[i-1] && vector_IR_Clean[i]>vector_IR_Clean[i+1]){
 538              		.loc 1 273 0
 539 045a 884A     		ldr	r2, .L87+4
 540 045c 02EB830B 		add	fp, r2, r3, lsl #2
 541 0460 DBED007A 		vldr.32	s15, [fp]
 542 0464 02EB8C02 		add	r2, r2, ip, lsl #2
 543 0468 92ED007A 		vldr.32	s14, [r2]
 544 046c F4EEC77A 		vcmpe.f32	s15, s14
 545 0470 F1EE10FA 		vmrs	APSR_nzcv, FPSCR
 546 0474 31DD     		ble	.L29
 547              		.loc 1 273 0 is_stmt 0 discriminator 1
 548 0476 03F1010C 		add	ip, r3, #1
 549 047a 804A     		ldr	r2, .L87+4
 550 047c 02EB8C02 		add	r2, r2, ip, lsl #2
 551 0480 D2ED006A 		vldr.32	s13, [r2]
 552 0484 F4EEE67A 		vcmpe.f32	s15, s13
 553 0488 F1EE10FA 		vmrs	APSR_nzcv, FPSCR
 554 048c 25DD     		ble	.L29
 274:traitementSignal.c ****             if (vector_IR_Clean[i]>vector_IR_Clean[i-25] && vector_IR_Clean[i]>vector_IR_Clean[i+25
 555              		.loc 1 274 0 is_stmt 1
 556 048e A3F1190C 		sub	ip, r3, #25
 557 0492 7A4A     		ldr	r2, .L87+4
ARM GAS  C:\Users\markm\AppData\Local\Temp\ccdXMT0L.s 			page 41


 558 0494 02EB8C02 		add	r2, r2, ip, lsl #2
 559 0498 92ED007A 		vldr.32	s14, [r2]
 560 049c F4EEC77A 		vcmpe.f32	s15, s14
 561 04a0 F1EE10FA 		vmrs	APSR_nzcv, FPSCR
 562 04a4 52DD     		ble	.L32
 563              		.loc 1 274 0 is_stmt 0 discriminator 1
 564 04a6 03F1190C 		add	ip, r3, #25
 565 04aa 744A     		ldr	r2, .L87+4
 566 04ac 02EB8C02 		add	r2, r2, ip, lsl #2
 567 04b0 92ED007A 		vldr.32	s14, [r2]
 568 04b4 F4EEC77A 		vcmpe.f32	s15, s14
 569 04b8 F1EE10FA 		vmrs	APSR_nzcv, FPSCR
 570 04bc 46DD     		ble	.L32
 275:traitementSignal.c ****                 if (vector_IR_Clean[i]>seuilInfra){
 571              		.loc 1 275 0 is_stmt 1
 572 04be B4EEE78A 		vcmpe.f32	s16, s15
 573 04c2 F1EE10FA 		vmrs	APSR_nzcv, FPSCR
 574 04c6 41D5     		bpl	.L32
 276:traitementSignal.c ****                     infraPositionMaxRel[j]=i;
 575              		.loc 1 276 0
 576 04c8 41F82430 		str	r3, [r1, r4, lsl #2]
 277:traitementSignal.c ****                     infraMaxRel[j]=vector_IR_Clean[i];
 577              		.loc 1 277 0
 578 04cc DBF800C0 		ldr	ip, [fp]	@ float
 579 04d0 05EB8402 		add	r2, r5, r4, lsl #2
 580 04d4 C2F800C0 		str	ip, [r2]	@ float
 581 04d8 38E0     		b	.L32
 582              	.L29:
 278:traitementSignal.c ****                     }
 279:traitementSignal.c ****             }
 280:traitementSignal.c ****             
 281:traitementSignal.c ****         }
 282:traitementSignal.c ****         else if (vector_IR_Clean[i]<vector_IR_Clean[i-1] && vector_IR_Clean[i]<vector_IR_Clean[i+1]
 583              		.loc 1 282 0
 584 04da F4EEC77A 		vcmpe.f32	s15, s14
 585 04de F1EE10FA 		vmrs	APSR_nzcv, FPSCR
 586 04e2 33D5     		bpl	.L32
 587              		.loc 1 282 0 is_stmt 0 discriminator 1
 588 04e4 03F1010C 		add	ip, r3, #1
 589 04e8 644A     		ldr	r2, .L87+4
 590 04ea 02EB8C02 		add	r2, r2, ip, lsl #2
 591 04ee 92ED007A 		vldr.32	s14, [r2]
 592 04f2 F4EEC77A 		vcmpe.f32	s15, s14
 593 04f6 F1EE10FA 		vmrs	APSR_nzcv, FPSCR
 594 04fa 27D5     		bpl	.L32
 283:traitementSignal.c ****             if (vector_IR_Clean[i]<vector_IR_Clean[i-25] && vector_IR_Clean[i]<vector_IR_Clean[i+25
 595              		.loc 1 283 0 is_stmt 1
 596 04fc A3F1190C 		sub	ip, r3, #25
 597 0500 5E4A     		ldr	r2, .L87+4
 598 0502 02EB8C02 		add	r2, r2, ip, lsl #2
 599 0506 92ED007A 		vldr.32	s14, [r2]
 600 050a F4EEC77A 		vcmpe.f32	s15, s14
 601 050e F1EE10FA 		vmrs	APSR_nzcv, FPSCR
 602 0512 1BD5     		bpl	.L32
 603              		.loc 1 283 0 is_stmt 0 discriminator 1
 604 0514 03F1190C 		add	ip, r3, #25
 605 0518 584A     		ldr	r2, .L87+4
ARM GAS  C:\Users\markm\AppData\Local\Temp\ccdXMT0L.s 			page 42


 606 051a 02EB8C02 		add	r2, r2, ip, lsl #2
 607 051e 92ED007A 		vldr.32	s14, [r2]
 608 0522 F4EEC77A 		vcmpe.f32	s15, s14
 609 0526 F1EE10FA 		vmrs	APSR_nzcv, FPSCR
 610 052a 0FD5     		bpl	.L32
 284:traitementSignal.c ****                 if (vector_IR_Clean[i]<seuilInfra){
 611              		.loc 1 284 0 is_stmt 1
 612 052c B4EEE78A 		vcmpe.f32	s16, s15
 613 0530 F1EE10FA 		vmrs	APSR_nzcv, FPSCR
 614 0534 0ADD     		ble	.L32
 285:traitementSignal.c ****                     infraPositionMinRel[j]=i;
 615              		.loc 1 285 0
 616 0536 40F82430 		str	r3, [r0, r4, lsl #2]
 286:traitementSignal.c ****                     infraMinRel[j]=vector_IR_Clean[i];
 617              		.loc 1 286 0
 618 053a 504A     		ldr	r2, .L87+4
 619 053c 02EB8302 		add	r2, r2, r3, lsl #2
 620 0540 D2F800C0 		ldr	ip, [r2]	@ float
 621 0544 06EB8402 		add	r2, r6, r4, lsl #2
 622 0548 C2F800C0 		str	ip, [r2]	@ float
 623              	.L32:
 237:traitementSignal.c ****         if (vector_Red_Clean[i]>vector_Red_Clean[i-1] && vector_Red_Clean[i]>vector_Red_Clean[i+1])
 624              		.loc 1 237 0 discriminator 2
 625 054c 0133     		adds	r3, r3, #1
 626              	.LVL46:
 627              	.L4:
 237:traitementSignal.c ****         if (vector_Red_Clean[i]>vector_Red_Clean[i-1] && vector_Red_Clean[i]>vector_Red_Clean[i+1])
 628              		.loc 1 237 0 is_stmt 0 discriminator 1
 629 054e 4C4A     		ldr	r2, .L87+8
 630 0550 D2F8D420 		ldr	r2, [r2, #212]
 631 0554 013A     		subs	r2, r2, #1
 632 0556 9342     		cmp	r3, r2
 633 0558 FFF44BAE 		bcc	.L41
 634              	.LBE87:
 287:traitementSignal.c ****                     }
 288:traitementSignal.c ****             }
 289:traitementSignal.c ****             
 290:traitementSignal.c ****         }   
 291:traitementSignal.c ****    }
 292:traitementSignal.c ****     
 293:traitementSignal.c ****     char result[16];                               
 294:traitementSignal.c ****                     sprintf(result,"%d\n\r", j);                 // conversion du resultat entier e
 635              		.loc 1 294 0 is_stmt 1
 636 055c 2246     		mov	r2, r4
 637 055e 4949     		ldr	r1, .L87+12
 638              	.LVL47:
 639 0560 07F12800 		add	r0, r7, #40
 640              	.LVL48:
 641 0564 FFF7FEFF 		bl	sprintf
 642              	.LVL49:
 643              	.LBB88:
 644              	.LBB89:
 645              	.LBB90:
 646              		.loc 2 1447 0
 647 0568 DFF824B1 		ldr	fp, .L87+24
 648 056c 07F12801 		add	r1, r7, #40
 649              	.LVL50:
ARM GAS  C:\Users\markm\AppData\Local\Temp\ccdXMT0L.s 			page 43


 650 0570 5846     		mov	r0, fp
 651 0572 FFF7FEFF 		bl	Cy_SCB_WriteString
 652              	.LVL51:
 653              	.LBE90:
 654              	.LBE89:
 655              	.LBE88:
 656              	.LBB91:
 657              	.LBB92:
 658              	.LBB93:
 659 0576 4449     		ldr	r1, .L87+16
 660 0578 5846     		mov	r0, fp
 661 057a FFF7FEFF 		bl	Cy_SCB_WriteString
 662              	.LVL52:
 663              	.LBE93:
 664              	.LBE92:
 665              	.LBE91:
 295:traitementSignal.c ****                     UART_1_PutString(result);
 296:traitementSignal.c ****                     UART_1_PutString("\r\n");
 297:traitementSignal.c ****                     
 298:traitementSignal.c **** //////////////    Cy_GPIO_Write(LED8_PORT,LED8_NUM,0);            //Turn off LED on startup
 299:traitementSignal.c ****     
 300:traitementSignal.c ****     uint32_t nbBattements = j; // Nombre de maximums (battements d√©tect√©s) dans le signal filtr√©
 301:traitementSignal.c **** 
 302:traitementSignal.c ****     // On utilisera ensuite les indices des maximums relatifs pour calculer la p√©riode de chaque b
 303:traitementSignal.c ****         
 304:traitementSignal.c ****     float32_t rythmeCard[nbBattements-1]; // Vecteur contenant les l'inverse intervalles de temps e
 666              		.loc 1 304 0
 667 057e 04F1FF3B 		add	fp, r4, #-1
 668              	.LVL53:
 669 0582 4FEA8B03 		lsl	r3, fp, #2
 670 0586 7B60     		str	r3, [r7, #4]
 671 0588 0A33     		adds	r3, r3, #10
 672 058a 23F00703 		bic	r3, r3, #7
 673 058e ADEB030D 		sub	sp, sp, r3
 674 0592 02A8     		add	r0, sp, #8
 675              	.LVL54:
 305:traitementSignal.c ****     float32_t instantMaxRel[nbBattements]; // Vecteur qui contiendra les instants (en secondes) o√π
 676              		.loc 1 305 0
 677 0594 A300     		lsls	r3, r4, #2
 678 0596 0A33     		adds	r3, r3, #10
 679 0598 23F00703 		bic	r3, r3, #7
 680 059c ADEB030D 		sub	sp, sp, r3
 681 05a0 02A9     		add	r1, sp, #8
 682              	.LVL55:
 683              	.LBB94:
 306:traitementSignal.c **** 
 307:traitementSignal.c ****     for (uint32_t i = 0; i < nbBattements ; i++){ 
 684              		.loc 1 307 0
 685 05a2 0023     		movs	r3, #0
 686 05a4 10E0     		b	.L42
 687              	.LVL56:
 688              	.L43:
 308:traitementSignal.c ****         instantMaxRel[i]=redPositionMaxRel[i]/fs; // Transformation des valeurs de position (indice
 689              		.loc 1 308 0 discriminator 3
 690 05a6 5AF82320 		ldr	r2, [r10, r3, lsl #2]
 691 05aa 07EE902A 		vmov	s15, r2	@ int
 692 05ae F8EEE77A 		vcvt.f32.s32	s15, s15
ARM GAS  C:\Users\markm\AppData\Local\Temp\ccdXMT0L.s 			page 44


 693 05b2 DFF8CCE0 		ldr	lr, .L87+8
 694 05b6 DEED366A 		vldr.32	s13, [lr, #216]
 695 05ba 87EEA67A 		vdiv.f32	s14, s15, s13
 696 05be 01EB830E 		add	lr, r1, r3, lsl #2
 697 05c2 8EED007A 		vstr.32	s14, [lr]
 307:traitementSignal.c ****         instantMaxRel[i]=redPositionMaxRel[i]/fs; // Transformation des valeurs de position (indice
 698              		.loc 1 307 0 discriminator 3
 699 05c6 0133     		adds	r3, r3, #1
 700              	.LVL57:
 701              	.L42:
 307:traitementSignal.c ****         instantMaxRel[i]=redPositionMaxRel[i]/fs; // Transformation des valeurs de position (indice
 702              		.loc 1 307 0 is_stmt 0 discriminator 1
 703 05c8 9C42     		cmp	r4, r3
 704 05ca ECD8     		bhi	.L43
 705 05cc 0023     		movs	r3, #0
 706              	.LVL58:
 707 05ce 13E0     		b	.L44
 708              	.LVL59:
 709              	.L45:
 710              	.LBE94:
 711              	.LBB95:
 309:traitementSignal.c ****     }
 310:traitementSignal.c **** 
 311:traitementSignal.c ****     for (uint32_t i = 0; i < nbBattements-1; i++){
 312:traitementSignal.c ****        rythmeCard[i]=60/(instantMaxRel[i+1]-instantMaxRel[i]); //Caclul du rythme cardiaque (60* la
 712              		.loc 1 312 0 is_stmt 1 discriminator 3
 713 05d0 5C1C     		adds	r4, r3, #1
 714 05d2 01EB840E 		add	lr, r1, r4, lsl #2
 715 05d6 DEED007A 		vldr.32	s15, [lr]
 716 05da 9B00     		lsls	r3, r3, #2
 717              	.LVL60:
 718 05dc 01EB030E 		add	lr, r1, r3
 719 05e0 9EED007A 		vldr.32	s14, [lr]
 720 05e4 77EEC77A 		vsub.f32	s15, s15, s14
 721 05e8 DFED286A 		vldr.32	s13, .L87+20
 722 05ec 86EEA77A 		vdiv.f32	s14, s13, s15
 723 05f0 0344     		add	r3, r3, r0
 724 05f2 83ED007A 		vstr.32	s14, [r3]
 725              	.LVL61:
 311:traitementSignal.c ****        rythmeCard[i]=60/(instantMaxRel[i+1]-instantMaxRel[i]); //Caclul du rythme cardiaque (60* la
 726              		.loc 1 311 0 discriminator 3
 727 05f6 2346     		mov	r3, r4
 728              	.LVL62:
 729              	.L44:
 311:traitementSignal.c ****        rythmeCard[i]=60/(instantMaxRel[i+1]-instantMaxRel[i]); //Caclul du rythme cardiaque (60* la
 730              		.loc 1 311 0 is_stmt 0 discriminator 1
 731 05f8 5B45     		cmp	r3, fp
 732 05fa E9D3     		bcc	.L45
 733              	.LVL63:
 734              	.LBE95:
 313:traitementSignal.c ****     }
 314:traitementSignal.c ****     
 315:traitementSignal.c **** //    for(uint32_t i=0; i < nbBattements; i++)
 316:traitementSignal.c **** //    {
 317:traitementSignal.c **** //          char result2[16];                               
 318:traitementSignal.c **** //                    sprintf(result2,"%5.10f \n\r", rythmeCard[i]);                 // conversion 
 319:traitementSignal.c **** //                    UART_1_PutString(result2);
ARM GAS  C:\Users\markm\AppData\Local\Temp\ccdXMT0L.s 			page 45


 320:traitementSignal.c **** //                    UART_1_PutString("\r\n");
 321:traitementSignal.c **** //    }
 322:traitementSignal.c ****  
 323:traitementSignal.c **** 
 324:traitementSignal.c ****     float32_t ACr[nbBattements-1]; // Vecteurs contenant les valeurs des composantes AC et DC pour 
 735              		.loc 1 324 0 is_stmt 1
 736 05fc 7B68     		ldr	r3, [r7, #4]
 737              	.LVL64:
 738 05fe 0A33     		adds	r3, r3, #10
 739 0600 23F00703 		bic	r3, r3, #7
 740 0604 ADEB030D 		sub	sp, sp, r3
 741 0608 02A9     		add	r1, sp, #8
 742              	.LVL65:
 325:traitementSignal.c ****    // float DCr[nbBattements-1];
 326:traitementSignal.c ****     float32_t ACI[nbBattements-1]; // Vecteurs contenant les valeurs des composantes AC et DC pour 
 743              		.loc 1 326 0
 744 060a ADEB030D 		sub	sp, sp, r3
 745 060e 02AC     		add	r4, sp, #8
 746              	.LVL66:
 747              	.LBB96:
 327:traitementSignal.c ****    // float DCI[nbBattements-1];
 328:traitementSignal.c **** 
 329:traitementSignal.c ****     
 330:traitementSignal.c ****     //int compteurIndice=0; // Compteur dont la valeur correspondra √† l'indice de d√©part du batte
 331:traitementSignal.c **** 
 332:traitementSignal.c **** 
 333:traitementSignal.c ****     for (uint32_t i = 0; i < nbBattements-1; i++){
 748              		.loc 1 333 0
 749 0610 4FF0000E 		mov	lr, #0
 750 0614 1CE0     		b	.L46
 751              	.LVL67:
 752              	.L47:
 334:traitementSignal.c **** 
 335:traitementSignal.c ****        ACr[i]=redMaxRel[i]-redMinRel[i]; // Cette ligne et la suivante constituent le calcul permet
 753              		.loc 1 335 0 discriminator 3
 754 0616 4FEA8E03 		lsl	r3, lr, #2
 755 061a 08EB030C 		add	ip, r8, r3
 756 061e DCED007A 		vldr.32	s15, [ip]
 757 0622 09EB030C 		add	ip, r9, r3
 758 0626 9CED007A 		vldr.32	s14, [ip]
 759 062a 77EEC77A 		vsub.f32	s15, s15, s14
 760 062e 01EB030C 		add	ip, r1, r3
 761 0632 CCED007A 		vstr.32	s15, [ip]
 336:traitementSignal.c ****        ACr[i]=infraMaxRel[i]-infraMinRel[i];
 762              		.loc 1 336 0 discriminator 3
 763 0636 05EB030A 		add	r10, r5, r3
 764 063a DAED007A 		vldr.32	s15, [r10]
 765 063e 3344     		add	r3, r3, r6
 766 0640 93ED007A 		vldr.32	s14, [r3]
 767 0644 77EEC77A 		vsub.f32	s15, s15, s14
 768 0648 CCED007A 		vstr.32	s15, [ip]
 333:traitementSignal.c **** 
 769              		.loc 1 333 0 discriminator 3
 770 064c 0EF1010E 		add	lr, lr, #1
 771              	.LVL68:
 772              	.L46:
 333:traitementSignal.c **** 
ARM GAS  C:\Users\markm\AppData\Local\Temp\ccdXMT0L.s 			page 46


 773              		.loc 1 333 0 is_stmt 0 discriminator 1
 774 0650 DE45     		cmp	lr, fp
 775 0652 E0D3     		bcc	.L47
 776              	.LVL69:
 777              	.LBE96:
 337:traitementSignal.c **** //
 338:traitementSignal.c **** //       int battementLength=redPositionMaxRel[i+1]-redPositionMaxRel[i];
 339:traitementSignal.c **** //       float vectorBattementRed[battementLength];
 340:traitementSignal.c **** //       float vectorBattementInfra[battementLength];
 341:traitementSignal.c **** //
 342:traitementSignal.c **** //       for (uint k = 0; k < battementLength; k++){
 343:traitementSignal.c **** //        vectorBattementRed[k]=vectorBrutRed[k+compteurIndice];
 344:traitementSignal.c **** //        vectorBattementInfra[k]=vectorBrutInfra[k+compteurIndice];
 345:traitementSignal.c **** //       }
 346:traitementSignal.c **** //
 347:traitementSignal.c **** //       arm_mean_f32(&vectorBattementRed,battementLength,&mean); // Fonction qui ressort dans la v
 348:traitementSignal.c **** //       DCr[i]=mean;
 349:traitementSignal.c **** //       arm_mean_f32(&vectorBattementInfra,battementLength,&mean); // Fonction qui ressort dans la
 350:traitementSignal.c **** //       DCI[i]=mean;
 351:traitementSignal.c **** //
 352:traitementSignal.c **** //       compteurIndice=compteurIndice + battementLength; // On ajoute la longueur du battement act
 353:traitementSignal.c **** //   
 354:traitementSignal.c ****     }
 355:traitementSignal.c ****     
 356:traitementSignal.c ****     // Calcul de SPO2
 357:traitementSignal.c ****     float32 R[nbBattements-1];
 778              		.loc 1 357 0 is_stmt 1
 779 0654 7B68     		ldr	r3, [r7, #4]
 780 0656 0A33     		adds	r3, r3, #10
 781 0658 23F00703 		bic	r3, r3, #7
 782 065c ADEB030D 		sub	sp, sp, r3
 783 0660 0DF1080C 		add	ip, sp, #8
 784              	.LVL70:
 358:traitementSignal.c ****     float32_t ratioOxygen[nbBattements-1];
 785              		.loc 1 358 0
 786 0664 ADEB030D 		sub	sp, sp, r3
 787 0668 0DF1080E 		add	lr, sp, #8
 788              	.LVL71:
 359:traitementSignal.c ****     float32 SPO2[nbBattements-1]; 
 789              		.loc 1 359 0
 790 066c ADEB030D 		sub	sp, sp, r3
 791 0670 02AD     		add	r5, sp, #8
 792              	.LVL72:
 793              	.LBB97:
 360:traitementSignal.c **** 
 361:traitementSignal.c ****     for (uint32_t i = 0; i < nbBattements-1; i++){
 794              		.loc 1 361 0
 795 0672 0022     		movs	r2, #0
 796 0674 46E0     		b	.L48
 797              	.L88:
 798 0676 00BF     		.align	2
 799              	.L87:
 800 0678 00000000 		.word	vector_Red_Clean
 801 067c 00000000 		.word	vector_IR_Clean
 802 0680 00000000 		.word	.LANCHOR0
 803 0684 10000000 		.word	.LC2
 804 0688 0C000000 		.word	.LC1
ARM GAS  C:\Users\markm\AppData\Local\Temp\ccdXMT0L.s 			page 47


 805 068c 00007042 		.word	1114636288
 806 0690 00006640 		.word	1080426496
 807              	.LVL73:
 808              	.L49:
 362:traitementSignal.c ****     R[i]=(DCr/ACr[i])/(DCI/ACI[i]);
 809              		.loc 1 362 0 discriminator 3
 810 0694 9300     		lsls	r3, r2, #2
 811 0696 CE18     		adds	r6, r1, r3
 812 0698 D6ED007A 		vldr.32	s15, [r6]
 813 069c 4C4E     		ldr	r6, .L89
 814 069e D6ED006A 		vldr.32	s13, [r6]
 815 06a2 86EEA77A 		vdiv.f32	s14, s13, s15
 816 06a6 E618     		adds	r6, r4, r3
 817 06a8 D6ED006A 		vldr.32	s13, [r6]
 818 06ac 494E     		ldr	r6, .L89+4
 819 06ae 96ED006A 		vldr.32	s12, [r6]
 820 06b2 C6EE267A 		vdiv.f32	s15, s12, s13
 821 06b6 C7EE276A 		vdiv.f32	s13, s14, s15
 822 06ba 0CEB0306 		add	r6, ip, r3
 823 06be C6ED006A 		vstr.32	s13, [r6]
 363:traitementSignal.c ****     ratioOxygen[i]=aCoeff*(R[i])+bCoeff*R[i]+cCoeff;
 824              		.loc 1 363 0 discriminator 3
 825 06c2 454E     		ldr	r6, .L89+8
 826 06c4 D6ED377A 		vldr.32	s15, [r6, #220]
 827 06c8 26EEA77A 		vmul.f32	s14, s13, s15
 828 06cc D6ED387A 		vldr.32	s15, [r6, #224]
 829 06d0 66EEA77A 		vmul.f32	s15, s13, s15
 830 06d4 77EE277A 		vadd.f32	s15, s14, s15
 831 06d8 96ED397A 		vldr.32	s14, [r6, #228]
 832 06dc 77EE877A 		vadd.f32	s15, s15, s14
 833 06e0 0EEB0306 		add	r6, lr, r3
 834 06e4 C6ED007A 		vstr.32	s15, [r6]
 364:traitementSignal.c ****     SPO2[i]=100/((1/ratioOxygen[i])+1); // Permet d'obtenir le pourcentage de saturation en oxyg√®n
 835              		.loc 1 364 0 discriminator 3
 836 06e8 F7EE006A 		vmov.f32	s13, #1.0e+0
 837 06ec 86EEA77A 		vdiv.f32	s14, s13, s15
 838 06f0 77EE267A 		vadd.f32	s15, s14, s13
 839 06f4 DFED396A 		vldr.32	s13, .L89+12
 840 06f8 86EEA77A 		vdiv.f32	s14, s13, s15
 841 06fc 2B44     		add	r3, r3, r5
 842 06fe 83ED007A 		vstr.32	s14, [r3]
 361:traitementSignal.c ****     R[i]=(DCr/ACr[i])/(DCI/ACI[i]);
 843              		.loc 1 361 0 discriminator 3
 844 0702 0132     		adds	r2, r2, #1
 845              	.LVL74:
 846              	.L48:
 361:traitementSignal.c ****     R[i]=(DCr/ACr[i])/(DCI/ACI[i]);
 847              		.loc 1 361 0 is_stmt 0 discriminator 1
 848 0704 5A45     		cmp	r2, fp
 849 0706 C5D3     		bcc	.L49
 850              	.LBE97:
 365:traitementSignal.c ****     }
 366:traitementSignal.c ****         
 367:traitementSignal.c ****     // Rendus ici, les vecteurs contenant le signal filtr√© et trait√© pour l'infrarouge et le roug
 368:traitementSignal.c **** 
 369:traitementSignal.c ****     arm_mean_f32(&rythmeCard[0],nbBattements-1,&meanRythm); // permet d'obtenir, dans la variable m
 851              		.loc 1 369 0 is_stmt 1
ARM GAS  C:\Users\markm\AppData\Local\Temp\ccdXMT0L.s 			page 48


 852 0708 354C     		ldr	r4, .L89+16
 853              	.LVL75:
 854 070a 2246     		mov	r2, r4
 855              	.LVL76:
 856 070c 5946     		mov	r1, fp
 857              	.LVL77:
 858 070e FFF7FEFF 		bl	arm_mean_f32
 859              	.LVL78:
 370:traitementSignal.c ****     arm_mean_f32(&SPO2[0],nbBattements-1,&meanSPO2);    // Permet d'obtenir, dans la variable meanS
 860              		.loc 1 370 0
 861 0712 344E     		ldr	r6, .L89+20
 862 0714 3246     		mov	r2, r6
 863 0716 5946     		mov	r1, fp
 864 0718 2846     		mov	r0, r5
 865 071a FFF7FEFF 		bl	arm_mean_f32
 866              	.LVL79:
 371:traitementSignal.c ****     Saturation=round(meanSPO2);
 867              		.loc 1 371 0
 868 071e 3068     		ldr	r0, [r6]	@ float
 869 0720 FFF7FEFF 		bl	__aeabi_f2d
 870              	.LVL80:
 871 0724 FFF7FEFF 		bl	round
 872              	.LVL81:
 873 0728 FFF7FEFF 		bl	__aeabi_d2iz
 874              	.LVL82:
 875 072c DFF8D880 		ldr	r8, .L89+56
 876              	.LVL83:
 877 0730 C8F80000 		str	r0, [r8]
 372:traitementSignal.c ****     RythmeCardiaque=round(meanRythm);
 878              		.loc 1 372 0
 879 0734 2068     		ldr	r0, [r4]	@ float
 880 0736 FFF7FEFF 		bl	__aeabi_f2d
 881              	.LVL84:
 882 073a FFF7FEFF 		bl	round
 883              	.LVL85:
 884 073e FFF7FEFF 		bl	__aeabi_d2iz
 885              	.LVL86:
 886 0742 294B     		ldr	r3, .L89+24
 887 0744 1860     		str	r0, [r3]
 373:traitementSignal.c ****     
 374:traitementSignal.c ****     char resultRythme[16];                               
 375:traitementSignal.c ****                     sprintf(resultRythme,"%d\n\r", RythmeCardiaque);                 // conversion 
 888              		.loc 1 375 0
 889 0746 1A68     		ldr	r2, [r3]
 890 0748 284E     		ldr	r6, .L89+28
 891 074a 3146     		mov	r1, r6
 892 074c 07F11800 		add	r0, r7, #24
 893 0750 FFF7FEFF 		bl	sprintf
 894              	.LVL87:
 895              	.LBB98:
 896              	.LBB99:
 897              	.LBB100:
 898              		.loc 2 1447 0
 899 0754 264C     		ldr	r4, .L89+32
 900 0756 07F11801 		add	r1, r7, #24
 901              	.LVL88:
 902 075a 2046     		mov	r0, r4
ARM GAS  C:\Users\markm\AppData\Local\Temp\ccdXMT0L.s 			page 49


 903 075c FFF7FEFF 		bl	Cy_SCB_WriteString
 904              	.LVL89:
 905              	.LBE100:
 906              	.LBE99:
 907              	.LBE98:
 908              	.LBB101:
 909              	.LBB102:
 910              	.LBB103:
 911 0760 244D     		ldr	r5, .L89+36
 912              	.LVL90:
 913 0762 2946     		mov	r1, r5
 914 0764 2046     		mov	r0, r4
 915 0766 FFF7FEFF 		bl	Cy_SCB_WriteString
 916              	.LVL91:
 917              	.LBE103:
 918              	.LBE102:
 919              	.LBE101:
 376:traitementSignal.c ****                     UART_1_PutString(resultRythme);
 377:traitementSignal.c ****                     UART_1_PutString("\r\n");
 378:traitementSignal.c ****                     
 379:traitementSignal.c ****     char resultSaturation[16];                               
 380:traitementSignal.c ****                     sprintf(resultSaturation,"%d\n\r", Saturation);                 // conversion d
 920              		.loc 1 380 0
 921 076a D8F80020 		ldr	r2, [r8]
 922 076e 3146     		mov	r1, r6
 923 0770 07F10800 		add	r0, r7, #8
 924 0774 FFF7FEFF 		bl	sprintf
 925              	.LVL92:
 926              	.LBB104:
 927              	.LBB105:
 928              	.LBB106:
 929              		.loc 2 1447 0
 930 0778 07F10801 		add	r1, r7, #8
 931              	.LVL93:
 932 077c 2046     		mov	r0, r4
 933 077e FFF7FEFF 		bl	Cy_SCB_WriteString
 934              	.LVL94:
 935              	.LBE106:
 936              	.LBE105:
 937              	.LBE104:
 938              	.LBB107:
 939              	.LBB108:
 940              	.LBB109:
 941 0782 2946     		mov	r1, r5
 942 0784 2046     		mov	r0, r4
 943 0786 FFF7FEFF 		bl	Cy_SCB_WriteString
 944              	.LVL95:
 945              	.LBE109:
 946              	.LBE108:
 947              	.LBE107:
 381:traitementSignal.c ****                     UART_1_PutString(resultSaturation);
 382:traitementSignal.c ****                     UART_1_PutString("\r\n");
 383:traitementSignal.c ****                     
 384:traitementSignal.c ****     
 385:traitementSignal.c ****     
 386:traitementSignal.c ****     if(ScreenNumber==0){
 948              		.loc 1 386 0
ARM GAS  C:\Users\markm\AppData\Local\Temp\ccdXMT0L.s 			page 50


 949 078a 1B4B     		ldr	r3, .L89+40
 950 078c 1B68     		ldr	r3, [r3]
 951 078e CBB9     		cbnz	r3, .L1
 387:traitementSignal.c ****         if(DrawRedGraph==true){
 952              		.loc 1 387 0
 953 0790 1A4B     		ldr	r3, .L89+44
 954 0792 1B78     		ldrb	r3, [r3]	@ zero_extendqisi2
 955 0794 13F0FF0F 		tst	r3, #255
 956 0798 0AD0     		beq	.L51
 388:traitementSignal.c ****             drawGraph(&vector_Red_Clean[0]);
 957              		.loc 1 388 0
 958 079a 1948     		ldr	r0, .L89+48
 959 079c FFF7FEFF 		bl	drawGraph
 960              	.LVL96:
 389:traitementSignal.c ****             updateParameters( Saturation, RythmeCardiaque, 3); 
 961              		.loc 1 389 0
 962 07a0 D8F80000 		ldr	r0, [r8]
 963 07a4 104B     		ldr	r3, .L89+24
 964 07a6 1968     		ldr	r1, [r3]
 965 07a8 0322     		movs	r2, #3
 966 07aa FFF7FEFF 		bl	updateParameters
 967              	.LVL97:
 968 07ae 09E0     		b	.L1
 969              	.L51:
 390:traitementSignal.c ****         }
 391:traitementSignal.c ****         else {
 392:traitementSignal.c ****             drawGraph(&vector_IR_Clean[0]);
 970              		.loc 1 392 0
 971 07b0 1448     		ldr	r0, .L89+52
 972 07b2 FFF7FEFF 		bl	drawGraph
 973              	.LVL98:
 393:traitementSignal.c ****             updateParameters( Saturation, RythmeCardiaque, 4);
 974              		.loc 1 393 0
 975 07b6 144B     		ldr	r3, .L89+56
 976 07b8 1868     		ldr	r0, [r3]
 977 07ba 0B4B     		ldr	r3, .L89+24
 978 07bc 1968     		ldr	r1, [r3]
 979 07be 0422     		movs	r2, #4
 980 07c0 FFF7FEFF 		bl	updateParameters
 981              	.LVL99:
 982              	.L1:
 394:traitementSignal.c ****         }
 395:traitementSignal.c ****     }                
 396:traitementSignal.c ****     
 397:traitementSignal.c ****     
 398:traitementSignal.c **** 
 399:traitementSignal.c **** }
 983              		.loc 1 399 0
 984 07c4 7C37     		adds	r7, r7, #124
 985              		.cfi_def_cfa_offset 44
 986 07c6 BD46     		mov	sp, r7
 987              		.cfi_def_cfa_register 13
 988              	.LVL100:
 989              		@ sp needed
 990 07c8 BDEC028B 		vldm	sp!, {d8}
 991              		.cfi_restore 80
 992              		.cfi_restore 81
ARM GAS  C:\Users\markm\AppData\Local\Temp\ccdXMT0L.s 			page 51


 993              		.cfi_def_cfa_offset 36
 994              	.LVL101:
 995 07cc BDE8F08F 		pop	{r4, r5, r6, r7, r8, r9, r10, fp, pc}
 996              	.LVL102:
 997              	.L90:
 998              		.align	2
 999              	.L89:
 1000 07d0 00000000 		.word	DCr
 1001 07d4 00000000 		.word	DCI
 1002 07d8 00000000 		.word	.LANCHOR0
 1003 07dc 0000C842 		.word	1120403456
 1004 07e0 00000000 		.word	meanRythm
 1005 07e4 00000000 		.word	meanSPO2
 1006 07e8 00000000 		.word	RythmeCardiaque
 1007 07ec 10000000 		.word	.LC2
 1008 07f0 00006640 		.word	1080426496
 1009 07f4 0C000000 		.word	.LC1
 1010 07f8 00000000 		.word	ScreenNumber
 1011 07fc 00000000 		.word	DrawRedGraph
 1012 0800 00000000 		.word	vector_Red_Clean
 1013 0804 00000000 		.word	vector_IR_Clean
 1014 0808 00000000 		.word	Saturation
 1015              		.cfi_endproc
 1016              	.LFE693:
 1017              		.size	traitement_signal, .-traitement_signal
 1018              		.comm	stateBuffer,3196,4
 1019              		.comm	vector_IR_Half_Clean,3000,4
 1020              		.comm	vector_Red_Half_Clean,3000,4
 1021              		.comm	vector_IR_Clean,3000,4
 1022              		.comm	vector_Red_Clean,3000,4
 1023              		.global	numTaps
 1024              		.comm	S,12,4
 1025              		.comm	RythmeCardiaque,4,4
 1026              		.comm	Saturation,4,4
 1027              		.comm	DCI,4,4
 1028              		.comm	DCr,4,4
 1029              		.comm	mean,4,4
 1030              		.comm	meanSPO2,4,4
 1031              		.comm	meanRythm,4,4
 1032              		.global	num_taps
 1033              		.global	blockSize
 1034              		.global	sampleSize
 1035              		.global	nombreSamples
 1036              		.global	dureeTraitement
 1037              		.global	fcpb
 1038              		.global	fc
 1039              		.global	fs
 1040              		.global	cCoeff
 1041              		.global	bCoeff
 1042              		.global	aCoeff
 1043              		.global	CoeffPB
 1044              		.global	CoeffPH
 1045              		.comm	vectorInfra,3000,4
 1046              		.comm	vectorRed,3000,4
 1047              		.global	sampleRate
 1048              		.comm	DrawInfraredGraph,1,1
 1049              		.comm	DrawRedGraph,1,1
ARM GAS  C:\Users\markm\AppData\Local\Temp\ccdXMT0L.s 			page 52


 1050              		.comm	ScreenNumber,4,4
 1051              		.data
 1052              		.align	2
 1053              		.set	.LANCHOR0,. + 0
 1054              		.type	blockSize, %object
 1055              		.size	blockSize, 4
 1056              	blockSize:
 1057 0000 EE020000 		.word	750
 1058              		.type	CoeffPB, %object
 1059              		.size	CoeffPB, 200
 1060              	CoeffPB:
 1061 0004 EE93A338 		.word	950244334
 1062 0008 85B18539 		.word	965063045
 1063 000c 378C023A 		.word	973245495
 1064 0010 68EB603A 		.word	979430248
 1065 0014 FFCBB53A 		.word	984992767
 1066 0018 5BEB0B3B 		.word	990636891
 1067 001c AD4E4E3B 		.word	994987693
 1068 0020 F835923B 		.word	999437816
 1069 0024 740CC83B 		.word	1002966132
 1070 0028 1D90043C 		.word	1006931997
 1071 002c 42B02A3C 		.word	1009430594
 1072 0030 F12B563C 		.word	1012280305
 1073 0034 473A833C 		.word	1015233095
 1074 0038 7C629D3C 		.word	1016947324
 1075 003c 910CB93C 		.word	1018760337
 1076 0040 3D9BD53C 		.word	1020631869
 1077 0044 3E5CF23C 		.word	1022516286
 1078 0048 5E48073D 		.word	1023887454
 1079 004c BFB8143D 		.word	1024768191
 1080 0050 B01C213D 		.word	1025580208
 1081 0054 C6142C3D 		.word	1026299078
 1082 0058 2B4E353D 		.word	1026903595
 1083 005c 527C3C3D 		.word	1027374162
 1084 0060 B668413D 		.word	1027696822
 1085 0064 57E8433D 		.word	1027860567
 1086 0068 57E8433D 		.word	1027860567
 1087 006c B668413D 		.word	1027696822
 1088 0070 527C3C3D 		.word	1027374162
 1089 0074 2B4E353D 		.word	1026903595
 1090 0078 C6142C3D 		.word	1026299078
 1091 007c B01C213D 		.word	1025580208
 1092 0080 BFB8143D 		.word	1024768191
 1093 0084 5E48073D 		.word	1023887454
 1094 0088 3E5CF23C 		.word	1022516286
 1095 008c 3D9BD53C 		.word	1020631869
 1096 0090 910CB93C 		.word	1018760337
 1097 0094 7C629D3C 		.word	1016947324
 1098 0098 473A833C 		.word	1015233095
 1099 009c F12B563C 		.word	1012280305
 1100 00a0 42B02A3C 		.word	1009430594
 1101 00a4 1D90043C 		.word	1006931997
 1102 00a8 740CC83B 		.word	1002966132
 1103 00ac F835923B 		.word	999437816
 1104 00b0 AD4E4E3B 		.word	994987693
 1105 00b4 5BEB0B3B 		.word	990636891
 1106 00b8 FFCBB53A 		.word	984992767
ARM GAS  C:\Users\markm\AppData\Local\Temp\ccdXMT0L.s 			page 53


 1107 00bc 68EB603A 		.word	979430248
 1108 00c0 378C023A 		.word	973245495
 1109 00c4 85B18539 		.word	965063045
 1110 00c8 EE93A338 		.word	950244334
 1111              		.type	numTaps, %object
 1112              		.size	numTaps, 2
 1113              	numTaps:
 1114 00cc 3200     		.short	50
 1115              		.type	fcpb, %object
 1116              		.size	fcpb, 2
 1117              	fcpb:
 1118 00ce 0500     		.short	5
 1119              		.type	dureeTraitement, %object
 1120              		.size	dureeTraitement, 4
 1121              	dureeTraitement:
 1122 00d0 0000F040 		.word	1089470464
 1123              		.type	nombreSamples, %object
 1124              		.size	nombreSamples, 4
 1125              	nombreSamples:
 1126 00d4 EE020000 		.word	750
 1127              		.type	fs, %object
 1128              		.size	fs, 4
 1129              	fs:
 1130 00d8 0000C842 		.word	1120403456
 1131              		.type	aCoeff, %object
 1132              		.size	aCoeff, 4
 1133              	aCoeff:
 1134 00dc 713D34C2 		.word	-1036763791
 1135              		.type	bCoeff, %object
 1136              		.size	bCoeff, 4
 1137              	bCoeff:
 1138 00e0 FED4F241 		.word	1106433278
 1139              		.type	cCoeff, %object
 1140              		.size	cCoeff, 4
 1141              	cCoeff:
 1142 00e4 A4B0BD42 		.word	1119727780
 1143              		.type	num_taps, %object
 1144              		.size	num_taps, 4
 1145              	num_taps:
 1146 00e8 01000000 		.word	1
 1147              		.type	sampleSize, %object
 1148              		.size	sampleSize, 4
 1149              	sampleSize:
 1150 00ec 20000000 		.word	32
 1151              		.type	fc, %object
 1152              		.size	fc, 2
 1153              	fc:
 1154 00f0 0100     		.short	1
 1155 00f2 0000     		.space	2
 1156              		.type	CoeffPH, %object
 1157              		.size	CoeffPH, 204
 1158              	CoeffPH:
 1159 00f4 696E85BA 		.word	-1165660567
 1160 00f8 34F790BA 		.word	-1164904652
 1161 00fc 8BDEA9BA 		.word	-1163272565
 1162 0100 C4EDD0BA 		.word	-1160712764
 1163 0104 A69803BB 		.word	-1157392218
ARM GAS  C:\Users\markm\AppData\Local\Temp\ccdXMT0L.s 			page 54


 1164 0108 935426BB 		.word	-1155115885
 1165 010c 6FBB50BB 		.word	-1152337041
 1166 0110 0F4581BB 		.word	-1149156081
 1167 0114 98A59DBB 		.word	-1147296360
 1168 0118 363CBDBB 		.word	-1145226186
 1169 011c 7993DFBB 		.word	-1142975623
 1170 0120 2A1F02BC 		.word	-1140711638
 1171 0124 E35215BC 		.word	-1139453213
 1172 0128 381529BC 		.word	-1138158280
 1173 012c 130E3DBC 		.word	-1136849389
 1174 0130 60E550BC 		.word	-1135549088
 1175 0134 D93E64BC 		.word	-1134280999
 1176 0138 6AC276BC 		.word	-1133067670
 1177 013c B40584BC 		.word	-1132198476
 1178 0140 29E78BBC 		.word	-1131682007
 1179 0144 8CD992BC 		.word	-1131226740
 1180 0148 66BD98BC 		.word	-1130840730
 1181 014c 43739DBC 		.word	-1130532029
 1182 0150 11E4A0BC 		.word	-1130306543
 1183 0154 BEF8A2BC 		.word	-1130170178
 1184 0158 30A17A3F 		.word	1065001264
 1185 015c BEF8A2BC 		.word	-1130170178
 1186 0160 11E4A0BC 		.word	-1130306543
 1187 0164 43739DBC 		.word	-1130532029
 1188 0168 66BD98BC 		.word	-1130840730
 1189 016c 8CD992BC 		.word	-1131226740
 1190 0170 29E78BBC 		.word	-1131682007
 1191 0174 B40584BC 		.word	-1132198476
 1192 0178 6AC276BC 		.word	-1133067670
 1193 017c D93E64BC 		.word	-1134280999
 1194 0180 60E550BC 		.word	-1135549088
 1195 0184 130E3DBC 		.word	-1136849389
 1196 0188 381529BC 		.word	-1138158280
 1197 018c E35215BC 		.word	-1139453213
 1198 0190 2A1F02BC 		.word	-1140711638
 1199 0194 7993DFBB 		.word	-1142975623
 1200 0198 363CBDBB 		.word	-1145226186
 1201 019c 98A59DBB 		.word	-1147296360
 1202 01a0 0F4581BB 		.word	-1149156081
 1203 01a4 6FBB50BB 		.word	-1152337041
 1204 01a8 935426BB 		.word	-1155115885
 1205 01ac A69803BB 		.word	-1157392218
 1206 01b0 C4EDD0BA 		.word	-1160712764
 1207 01b4 8BDEA9BA 		.word	-1163272565
 1208 01b8 34F790BA 		.word	-1164904652
 1209 01bc 696E85BA 		.word	-1165660567
 1210              		.type	sampleRate, %object
 1211              		.size	sampleRate, 4
 1212              	sampleRate:
 1213 01c0 64000000 		.word	100
 1214              		.section	.rodata.str1.4,"aMS",%progbits,1
 1215              		.align	2
 1216              	.LC0:
 1217 0000 25352E31 		.ascii	"%5.10f \012\015\000"
 1217      3066200A 
 1217      0D00
 1218 000a 0000     		.space	2
ARM GAS  C:\Users\markm\AppData\Local\Temp\ccdXMT0L.s 			page 55


 1219              	.LC1:
 1220 000c 0D0A00   		.ascii	"\015\012\000"
 1221 000f 00       		.space	1
 1222              	.LC2:
 1223 0010 25640A0D 		.ascii	"%d\012\015\000"
 1223      00
 1224              		.text
 1225              	.Letext0:
 1226              		.file 3 "c:\\program files (x86)\\cypress\\psoc creator\\4.4\\psoc creator\\import\\gnu\\arm\\5.4.
 1227              		.file 4 "c:\\program files (x86)\\cypress\\psoc creator\\4.4\\psoc creator\\import\\gnu\\arm\\5.4.
 1228              		.file 5 "Generated_Source\\PSoC6\\pdl\\devices/psoc6/include/ip/cyip_scb.h"
 1229              		.file 6 "Generated_Source\\PSoC6\\pdl\\devices/psoc6/include/psoc6_01_config.h"
 1230              		.file 7 "Generated_Source\\PSoC6\\pdl\\drivers/peripheral/device/cy_device.h"
 1231              		.file 8 "Generated_Source\\PSoC6\\pdl\\drivers/peripheral/syslib/cy_syslib.h"
 1232              		.file 9 "Generated_Source\\PSoC6\\pdl\\drivers/peripheral/scb/cy_scb_i2c.h"
 1233              		.file 10 "Generated_Source\\PSoC6\\pdl\\drivers/peripheral/scb/cy_scb_spi.h"
 1234              		.file 11 "Generated_Source\\PSoC6\\pdl\\drivers/peripheral/tcpwm/cy_tcpwm_counter.h"
 1235              		.file 12 "c:\\program files (x86)\\cypress\\psoc creator\\4.4\\psoc creator\\import\\gnu\\arm\\5.4
 1236              		.file 13 ".\\CMSIS\\DSP\\Include/arm_math.h"
 1237              		.file 14 "Generated_Source\\PSoC6/UART_1.h"
 1238              		.file 15 ".\\CMSIS\\Core\\Include/core_cm4.h"
 1239              		.file 16 "Generated_Source\\PSoC6/CY_EINK_SPIM.h"
 1240              		.file 17 "Generated_Source\\PSoC6/CY_EINK_Timer.h"
 1241              		.file 18 "Generated_Source\\PSoC6/I2C_MAX.h"
 1242              		.file 19 "Generated_Source\\PSoC6/I2C_1.h"
 1243              		.file 20 "Generated_Source\\PSoC6\\pdl\\drivers/peripheral/scb/cy_scb_common.h"
 1244              		.file 21 "./system_psoc6.h"
 1245              		.file 22 "c:\\program files (x86)\\cypress\\psoc creator\\4.4\\psoc creator\\import\\gnu\\arm\\5.4
 1246              		.file 23 "c:\\program files (x86)\\cypress\\psoc creator\\4.4\\psoc creator\\import\\gnu\\arm\\5.4
 1247              		.file 24 "TasksInterface.h"